
kernel8-32.elf:     file format elf32-littlearm


Disassembly of section .text:

00008000 <__start>:
    8000:	e59ff018 	ldr	pc, [pc, #24]	; 8020 <_reset_h>
    8004:	e59ff018 	ldr	pc, [pc, #24]	; 8024 <_undefined_instruction_vector_h>
    8008:	e59ff018 	ldr	pc, [pc, #24]	; 8028 <_software_interrupt_vector_h>
    800c:	e59ff018 	ldr	pc, [pc, #24]	; 802c <_prefetch_abort_vector_h>
    8010:	e59ff018 	ldr	pc, [pc, #24]	; 8030 <_data_abort_vector_h>
    8014:	e59ff018 	ldr	pc, [pc, #24]	; 8034 <_unused_handler_h>
    8018:	e59ff018 	ldr	pc, [pc, #24]	; 8038 <_interrupt_vector_h>
    801c:	e59ff018 	ldr	pc, [pc, #24]	; 803c <_fast_interrupt_vector_h>

00008020 <_reset_h>:
    8020:	00008040 	andeq	r8, r0, r0, asr #32

00008024 <_undefined_instruction_vector_h>:
    8024:	000082d4 	ldrdeq	r8, [r0], -r4

00008028 <_software_interrupt_vector_h>:
    8028:	000082ec 	andeq	r8, r0, ip, ror #5

0000802c <_prefetch_abort_vector_h>:
    802c:	00008304 	andeq	r8, r0, r4, lsl #6

00008030 <_data_abort_vector_h>:
    8030:	0000818c 	andeq	r8, r0, ip, lsl #3

00008034 <_unused_handler_h>:
    8034:	00008040 	andeq	r8, r0, r0, asr #32

00008038 <_interrupt_vector_h>:
    8038:	0000812c 	andeq	r8, r0, ip, lsr #2

0000803c <_fast_interrupt_vector_h>:
    803c:	0000833c 	andeq	r8, r0, ip, lsr r3

00008040 <_reset_>:
    8040:	ee106fb0 	mrc	15, 0, r6, cr0, cr0, {5}
    8044:	e2066003 	and	r6, r6, #3
    8048:	e3a07000 	mov	r7, #0
    804c:	e1560007 	cmp	r6, r7
    8050:	0a000001 	beq	805c <_reset_+0x1c>
    8054:	e320f002 	wfe
    8058:	eafffffd 	b	8054 <_reset_+0x14>
    805c:	e1a0c00f 	mov	ip, pc
    8060:	e10f0000 	mrs	r0, CPSR
    8064:	e38000c0 	orr	r0, r0, #192	; 0xc0
    8068:	e200b01f 	and	fp, r0, #31
    806c:	e35b001a 	cmp	fp, #26
    8070:	1a000005 	bne	808c <.NotInHypMode>
    8074:	e3c0001f 	bic	r0, r0, #31
    8078:	e3800013 	orr	r0, r0, #19
    807c:	e16ff000 	msr	SPSR_fsxc, r0
    8080:	e28fe004 	add	lr, pc, #4
    8084:	e12ef30e 	msr	ELR_hyp, lr
    8088:	e160006e 	eret

0000808c <.NotInHypMode>:
    808c:	e3a00902 	mov	r0, #32768	; 0x8000
    8090:	e3a01000 	mov	r1, #0
    8094:	e8b003fc 	ldm	r0!, {r2, r3, r4, r5, r6, r7, r8, r9}
    8098:	e8a103fc 	stmia	r1!, {r2, r3, r4, r5, r6, r7, r8, r9}
    809c:	e8b003fc 	ldm	r0!, {r2, r3, r4, r5, r6, r7, r8, r9}
    80a0:	e8a103fc 	stmia	r1!, {r2, r3, r4, r5, r6, r7, r8, r9}
    80a4:	e3a000d2 	mov	r0, #210	; 0xd2
    80a8:	e121f000 	msr	CPSR_c, r0
    80ac:	e59fd158 	ldr	sp, [pc, #344]	; 820c <dmb+0xc>
    80b0:	e3a000d3 	mov	r0, #211	; 0xd3
    80b4:	e121f000 	msr	CPSR_c, r0
    80b8:	e59fd150 	ldr	sp, [pc, #336]	; 8210 <dmb+0x10>
    80bc:	ee110f10 	mrc	15, 0, r0, cr1, cr0, {0}
    80c0:	e3800501 	orr	r0, r0, #4194304	; 0x400000
    80c4:	ee010f10 	mcr	15, 0, r0, cr1, cr0, {0}
    80c8:	ee111f50 	mrc	15, 0, r1, cr1, cr0, {2}
    80cc:	e381160f 	orr	r1, r1, #15728640	; 0xf00000
    80d0:	ee011f50 	mcr	15, 0, r1, cr1, cr0, {2}
    80d4:	e3a01000 	mov	r1, #0
    80d8:	ee071f95 	mcr	15, 0, r1, cr7, cr5, {4}
    80dc:	e3a00101 	mov	r0, #1073741824	; 0x40000000
    80e0:	eee80a10 	vmsr	fpexc, r0
    80e4:	eb00004a 	bl	8214 <_clear_bss>

000080e8 <_inf_loop>:
    80e8:	eafffffe 	b	80e8 <_inf_loop>

000080ec <PUT32>:
    80ec:	e5801000 	str	r1, [r0]
    80f0:	e12fff1e 	bx	lr

000080f4 <GET32>:
    80f4:	e5900000 	ldr	r0, [r0]
    80f8:	e12fff1e 	bx	lr

000080fc <dummy>:
    80fc:	e1a0f00e 	mov	pc, lr

00008100 <enable_irq>:
    8100:	e10f0000 	mrs	r0, CPSR
    8104:	e3c00080 	bic	r0, r0, #128	; 0x80
    8108:	e121f000 	msr	CPSR_c, r0
    810c:	e12fff1e 	bx	lr

00008110 <_get_stack_pointer>:
    8110:	e58dd000 	str	sp, [sp]
    8114:	e59d0000 	ldr	r0, [sp]
    8118:	e1a0f00e 	mov	pc, lr

0000811c <_enable_interrupts>:
    811c:	e10f0000 	mrs	r0, CPSR
    8120:	e3c00080 	bic	r0, r0, #128	; 0x80
    8124:	e121f000 	msr	CPSR_c, r0
    8128:	e1a0f00e 	mov	pc, lr

0000812c <irq_handler_asm_wrapper>:
    812c:	e24ee004 	sub	lr, lr, #4
    8130:	f96d0513 	srsdb	sp!, #19
    8134:	f10e00d3 	cpsid	if,#19
    8138:	e92d500f 	push	{r0, r1, r2, r3, ip, lr}
    813c:	e20d1004 	and	r1, sp, #4
    8140:	e04dd001 	sub	sp, sp, r1
    8144:	e52d1004 	push	{r1}		; (str r1, [sp, #-4]!)
    8148:	eb000082 	bl	8358 <irq_handler>
    814c:	e49d1004 	pop	{r1}		; (ldr r1, [sp], #4)
    8150:	e08dd001 	add	sp, sp, r1
    8154:	e8bd500f 	pop	{r0, r1, r2, r3, ip, lr}
    8158:	f8bd0a00 	rfeia	sp!

0000815c <start_mmu>:
    815c:	e3a02000 	mov	r2, #0
    8160:	ee082f17 	mcr	15, 0, r2, cr8, cr7, {0}
    8164:	ee072f9a 	mcr	15, 0, r2, cr7, cr10, {4}
    8168:	ee132f10 	mrc	15, 0, r2, cr3, cr0, {0}
    816c:	e3822003 	orr	r2, r2, #3
    8170:	ee032f10 	mcr	15, 0, r2, cr3, cr0, {0}
    8174:	ee020f10 	mcr	15, 0, r0, cr2, cr0, {0}
    8178:	ee020f30 	mcr	15, 0, r0, cr2, cr0, {1}
    817c:	ee112f10 	mrc	15, 0, r2, cr1, cr0, {0}
    8180:	e1822001 	orr	r2, r2, r1
    8184:	ee012f10 	mcr	15, 0, r2, cr1, cr0, {0}
    8188:	e12fff1e 	bx	lr

0000818c <data_abort_vector_asm>:
    818c:	e1a0600e 	mov	r6, lr
    8190:	e5168008 	ldr	r8, [r6, #-8]
    8194:	ee154f10 	mrc	15, 0, r4, cr5, cr0, {0}
    8198:	ee155f30 	mrc	15, 0, r5, cr5, cr0, {1}
    819c:	e3a0d901 	mov	sp, #16384	; 0x4000
    81a0:	eb00045d 	bl	931c <hexstrings>
    81a4:	e1a00004 	mov	r0, r4
    81a8:	eb00045b 	bl	931c <hexstrings>
    81ac:	e1a00005 	mov	r0, r5
    81b0:	eb000459 	bl	931c <hexstrings>
    81b4:	e1a00006 	mov	r0, r6
    81b8:	eb000457 	bl	931c <hexstrings>
    81bc:	e1a00008 	mov	r0, r8
    81c0:	eb000455 	bl	931c <hexstrings>
    81c4:	e1a00007 	mov	r0, r7
    81c8:	eb000453 	bl	931c <hexstrings>
    81cc:	eafffffe 	b	81cc <data_abort_vector_asm+0x40>

000081d0 <stop_mmu>:
    81d0:	ee112f10 	mrc	15, 0, r2, cr1, cr0, {0}
    81d4:	e3c22a01 	bic	r2, r2, #4096	; 0x1000
    81d8:	e3c22004 	bic	r2, r2, #4
    81dc:	e3c22001 	bic	r2, r2, #1
    81e0:	ee012f10 	mcr	15, 0, r2, cr1, cr0, {0}
    81e4:	e12fff1e 	bx	lr

000081e8 <invalidate_tlbs>:
    81e8:	e3a02000 	mov	r2, #0
    81ec:	ee082f17 	mcr	15, 0, r2, cr8, cr7, {0}
    81f0:	ee072f9a 	mcr	15, 0, r2, cr7, cr10, {4}
    81f4:	e12fff1e 	bx	lr

000081f8 <read_cpu_id>:
    81f8:	ee100fb0 	mrc	15, 0, r0, cr0, cr0, {5}
    81fc:	e12fff1e 	bx	lr

00008200 <dmb>:
    8200:	e3a0c000 	mov	ip, #0
    8204:	ee07cfba 	mcr	15, 0, ip, cr7, cr10, {5}
    8208:	e12fff1e 	bx	lr
    820c:	0001e400 	andeq	lr, r1, r0, lsl #8
    8210:	0001e000 	andeq	lr, r1, r0

00008214 <_clear_bss>:
    8214:	e59fc04c 	ldr	ip, [pc, #76]	; 8268 <_clear_bss+0x54>
    8218:	e92d4010 	push	{r4, lr}
    821c:	e08fc00c 	add	ip, pc, ip
    8220:	e59fe044 	ldr	lr, [pc, #68]	; 826c <_clear_bss+0x58>
    8224:	e59f3044 	ldr	r3, [pc, #68]	; 8270 <_clear_bss+0x5c>
    8228:	e79ce00e 	ldr	lr, [ip, lr]
    822c:	e79c3003 	ldr	r3, [ip, r3]
    8230:	e15e0003 	cmp	lr, r3
    8234:	2a000009 	bcs	8260 <_clear_bss+0x4c>
    8238:	e1e0c00e 	mvn	ip, lr
    823c:	e1a0400e 	mov	r4, lr
    8240:	e08c3003 	add	r3, ip, r3
    8244:	e3a0c000 	mov	ip, #0
    8248:	e3c33003 	bic	r3, r3, #3
    824c:	e2833004 	add	r3, r3, #4
    8250:	e083300e 	add	r3, r3, lr
    8254:	e484c004 	str	ip, [r4], #4
    8258:	e1540003 	cmp	r4, r3
    825c:	1afffffc 	bne	8254 <_clear_bss+0x40>
    8260:	eb0005c7 	bl	9984 <kernel_main>
    8264:	eafffffe 	b	8264 <_clear_bss+0x50>
    8268:	00003de4 	andeq	r3, r0, r4, ror #27
    826c:	0000001c 	andeq	r0, r0, ip, lsl r0
    8270:	00000010 	andeq	r0, r0, r0, lsl r0

00008274 <RPI_GetArmTimer>:
    8274:	e3a00b2d 	mov	r0, #46080	; 0xb400
    8278:	e3430f00 	movt	r0, #16128	; 0x3f00
    827c:	e12fff1e 	bx	lr

00008280 <arm_timer_init>:
    8280:	e92d4010 	push	{r4, lr}
    8284:	eb000008 	bl	82ac <RPI_GetIrqController>
    8288:	e3a03001 	mov	r3, #1
    828c:	e5803018 	str	r3, [r0, #24]
    8290:	ebfffff7 	bl	8274 <RPI_GetArmTimer>
    8294:	e3a03b01 	mov	r3, #1024	; 0x400
    8298:	e5803000 	str	r3, [r0]
    829c:	ebfffff4 	bl	8274 <RPI_GetArmTimer>
    82a0:	e3a030aa 	mov	r3, #170	; 0xaa
    82a4:	e5803008 	str	r3, [r0, #8]
    82a8:	e8bd8010 	pop	{r4, pc}

000082ac <RPI_GetIrqController>:
    82ac:	e3a00cb2 	mov	r0, #45568	; 0xb200
    82b0:	e3430f00 	movt	r0, #16128	; 0x3f00
    82b4:	e12fff1e 	bx	lr

000082b8 <reset_vector>:
    82b8:	e24ee004 	sub	lr, lr, #4
    82bc:	e92d500f 	push	{r0, r1, r2, r3, ip, lr}
    82c0:	e59f0008 	ldr	r0, [pc, #8]	; 82d0 <reset_vector+0x18>
    82c4:	e08f0000 	add	r0, pc, r0
    82c8:	eb000409 	bl	92f4 <uart_puts>
    82cc:	eafffffe 	b	82cc <reset_vector+0x14>
    82d0:	00002dc0 	andeq	r2, r0, r0, asr #27

000082d4 <undefined_instruction_vector>:
    82d4:	e92d500f 	push	{r0, r1, r2, r3, ip, lr}
    82d8:	e59f0008 	ldr	r0, [pc, #8]	; 82e8 <undefined_instruction_vector+0x14>
    82dc:	e08f0000 	add	r0, pc, r0
    82e0:	eb000403 	bl	92f4 <uart_puts>
    82e4:	eafffffe 	b	82e4 <undefined_instruction_vector+0x10>
    82e8:	00002dc4 	andeq	r2, r0, r4, asr #27

000082ec <software_interrupt_vector>:
    82ec:	e92d500f 	push	{r0, r1, r2, r3, ip, lr}
    82f0:	e59f0008 	ldr	r0, [pc, #8]	; 8300 <software_interrupt_vector+0x14>
    82f4:	e08f0000 	add	r0, pc, r0
    82f8:	eb0003fd 	bl	92f4 <uart_puts>
    82fc:	e8fd900f 	ldm	sp!, {r0, r1, r2, r3, ip, pc}^
    8300:	00002dc8 	andeq	r2, r0, r8, asr #27

00008304 <prefetch_abort_vector>:
    8304:	e24ee004 	sub	lr, lr, #4
    8308:	e92d500f 	push	{r0, r1, r2, r3, ip, lr}
    830c:	e59f0008 	ldr	r0, [pc, #8]	; 831c <prefetch_abort_vector+0x18>
    8310:	e08f0000 	add	r0, pc, r0
    8314:	eb0003f6 	bl	92f4 <uart_puts>
    8318:	eafffffe 	b	8318 <prefetch_abort_vector+0x14>
    831c:	00002dc8 	andeq	r2, r0, r8, asr #27

00008320 <data_abort_vector>:
    8320:	e24ee004 	sub	lr, lr, #4
    8324:	e92d500f 	push	{r0, r1, r2, r3, ip, lr}
    8328:	e59f0008 	ldr	r0, [pc, #8]	; 8338 <data_abort_vector+0x18>
    832c:	e08f0000 	add	r0, pc, r0
    8330:	eb0003ef 	bl	92f4 <uart_puts>
    8334:	eafffffe 	b	8334 <data_abort_vector+0x14>
    8338:	00002dd8 	ldrdeq	r2, [r0], -r8

0000833c <fast_interrupt_vector>:
    833c:	e24ee004 	sub	lr, lr, #4
    8340:	e92d401f 	push	{r0, r1, r2, r3, r4, lr}
    8344:	e59f0008 	ldr	r0, [pc, #8]	; 8354 <fast_interrupt_vector+0x18>
    8348:	e08f0000 	add	r0, pc, r0
    834c:	eb0003e8 	bl	92f4 <uart_puts>
    8350:	e8fd801f 	ldm	sp!, {r0, r1, r2, r3, r4, pc}^
    8354:	00002de4 	andeq	r2, r0, r4, ror #27

00008358 <irq_handler>:
    8358:	e59f00d4 	ldr	r0, [pc, #212]	; 8434 <irq_handler+0xdc>
    835c:	e92d4010 	push	{r4, lr}
    8360:	e08f0000 	add	r0, pc, r0
    8364:	e3a04000 	mov	r4, #0
    8368:	eb0005a7 	bl	9a0c <printf>
    836c:	e59fc0c4 	ldr	ip, [pc, #196]	; 8438 <irq_handler+0xe0>
    8370:	e3a01cb2 	mov	r1, #45568	; 0xb200
    8374:	e3431f00 	movt	r1, #16128	; 0x3f00
    8378:	e08fc00c 	add	ip, pc, ip
    837c:	e3e0301f 	mvn	r3, #31
    8380:	e3a00001 	mov	r0, #1
    8384:	ea000003 	b	8398 <irq_handler+0x40>
    8388:	e2844001 	add	r4, r4, #1
    838c:	e2833001 	add	r3, r3, #1
    8390:	e3540048 	cmp	r4, #72	; 0x48
    8394:	0a000021 	beq	8420 <irq_handler+0xc8>
    8398:	e354003f 	cmp	r4, #63	; 0x3f
    839c:	ca00001a 	bgt	840c <irq_handler+0xb4>
    83a0:	e353001f 	cmp	r3, #31
    83a4:	9a00001e 	bls	8424 <irq_handler+0xcc>
    83a8:	e354001f 	cmp	r4, #31
    83ac:	cafffff5 	bgt	8388 <irq_handler+0x30>
    83b0:	e5912004 	ldr	r2, [r1, #4]
    83b4:	e0122410 	ands	r2, r2, r0, lsl r4
    83b8:	0afffff2 	beq	8388 <irq_handler+0x30>
    83bc:	e79c2104 	ldr	r2, [ip, r4, lsl #2]
    83c0:	e1a0e104 	lsl	lr, r4, #2
    83c4:	e3520000 	cmp	r2, #0
    83c8:	0affffee 	beq	8388 <irq_handler+0x30>
    83cc:	e08cc00e 	add	ip, ip, lr
    83d0:	e59c3120 	ldr	r3, [ip, #288]	; 0x120
    83d4:	e12fff33 	blx	r3
    83d8:	e10f3000 	mrs	r3, CPSR
    83dc:	e3130080 	tst	r3, #128	; 0x80
    83e0:	0a000000 	beq	83e8 <irq_handler+0x90>
    83e4:	f1080080 	cpsie	i
    83e8:	e59f304c 	ldr	r3, [pc, #76]	; 843c <irq_handler+0xe4>
    83ec:	e08f3003 	add	r3, pc, r3
    83f0:	e7933104 	ldr	r3, [r3, r4, lsl #2]
    83f4:	e12fff33 	blx	r3
    83f8:	e10f3000 	mrs	r3, CPSR
    83fc:	e3130080 	tst	r3, #128	; 0x80
    8400:	18bd8010 	popne	{r4, pc}
    8404:	f10c0080 	cpsid	i
    8408:	e8bd8010 	pop	{r4, pc}
    840c:	e5912000 	ldr	r2, [r1]
    8410:	e244e040 	sub	lr, r4, #64	; 0x40
    8414:	e0122e10 	ands	r2, r2, r0, lsl lr
    8418:	1affffe7 	bne	83bc <irq_handler+0x64>
    841c:	eaffffdf 	b	83a0 <irq_handler+0x48>
    8420:	e8bd8010 	pop	{r4, pc}
    8424:	e5912008 	ldr	r2, [r1, #8]
    8428:	e0122310 	ands	r2, r2, r0, lsl r3
    842c:	1affffe2 	bne	83bc <irq_handler+0x64>
    8430:	eaffffd4 	b	8388 <irq_handler+0x30>
    8434:	00002df8 	strdeq	r2, [r0], -r8
    8438:	00004c80 	andeq	r4, r0, r0, lsl #25
    843c:	00004c0c 	andeq	r4, r0, ip, lsl #24

00008440 <register_irq_handler>:
    8440:	e350003f 	cmp	r0, #63	; 0x3f
    8444:	e92d4070 	push	{r4, r5, r6, lr}
    8448:	8a00001b 	bhi	84bc <register_irq_handler+0x7c>
    844c:	e2403020 	sub	r3, r0, #32
    8450:	e6efc073 	uxtb	ip, r3
    8454:	e35c001f 	cmp	ip, #31
    8458:	9a00000b 	bls	848c <register_irq_handler+0x4c>
    845c:	e59f308c 	ldr	r3, [pc, #140]	; 84f0 <register_irq_handler+0xb0>
    8460:	e3a0ccb2 	mov	ip, #45568	; 0xb200
    8464:	e343cf00 	movt	ip, #16128	; 0x3f00
    8468:	e08f3003 	add	r3, pc, r3
    846c:	e3a05001 	mov	r5, #1
    8470:	e0834100 	add	r4, r3, r0, lsl #2
    8474:	e59ce010 	ldr	lr, [ip, #16]
    8478:	e7831100 	str	r1, [r3, r0, lsl #2]
    847c:	e5842120 	str	r2, [r4, #288]	; 0x120
    8480:	e18e0015 	orr	r0, lr, r5, lsl r0
    8484:	e58c0010 	str	r0, [ip, #16]
    8488:	e8bd8070 	pop	{r4, r5, r6, pc}
    848c:	e59fc060 	ldr	ip, [pc, #96]	; 84f4 <register_irq_handler+0xb4>
    8490:	e3a0ecb2 	mov	lr, #45568	; 0xb200
    8494:	e343ef00 	movt	lr, #16128	; 0x3f00
    8498:	e08fc00c 	add	ip, pc, ip
    849c:	e3a06001 	mov	r6, #1
    84a0:	e08c5100 	add	r5, ip, r0, lsl #2
    84a4:	e59e4014 	ldr	r4, [lr, #20]
    84a8:	e78c1100 	str	r1, [ip, r0, lsl #2]
    84ac:	e1843316 	orr	r3, r4, r6, lsl r3
    84b0:	e5852120 	str	r2, [r5, #288]	; 0x120
    84b4:	e58e3014 	str	r3, [lr, #20]
    84b8:	e8bd8070 	pop	{r4, r5, r6, pc}
    84bc:	e59f3034 	ldr	r3, [pc, #52]	; 84f8 <register_irq_handler+0xb8>
    84c0:	e3a0ccb2 	mov	ip, #45568	; 0xb200
    84c4:	e343cf00 	movt	ip, #16128	; 0x3f00
    84c8:	e08f3003 	add	r3, pc, r3
    84cc:	e2405040 	sub	r5, r0, #64	; 0x40
    84d0:	e0834100 	add	r4, r3, r0, lsl #2
    84d4:	e3a06001 	mov	r6, #1
    84d8:	e59ce018 	ldr	lr, [ip, #24]
    84dc:	e7831100 	str	r1, [r3, r0, lsl #2]
    84e0:	e5842120 	str	r2, [r4, #288]	; 0x120
    84e4:	e18e3516 	orr	r3, lr, r6, lsl r5
    84e8:	e58c3018 	str	r3, [ip, #24]
    84ec:	e8bd8070 	pop	{r4, r5, r6, pc}
    84f0:	00004b90 	muleq	r0, r0, fp
    84f4:	00004b60 	andeq	r4, r0, r0, ror #22
    84f8:	00004b30 	andeq	r4, r0, r0, lsr fp

000084fc <unregister_irq_handler>:
    84fc:	e350003f 	cmp	r0, #63	; 0x3f
    8500:	e92d4030 	push	{r4, r5, lr}
    8504:	8a00001d 	bhi	8580 <unregister_irq_handler+0x84>
    8508:	e2403020 	sub	r3, r0, #32
    850c:	e6ef2073 	uxtb	r2, r3
    8510:	e352001f 	cmp	r2, #31
    8514:	9a00000c 	bls	854c <unregister_irq_handler+0x50>
    8518:	e59f3098 	ldr	r3, [pc, #152]	; 85b8 <unregister_irq_handler+0xbc>
    851c:	e3a02cb2 	mov	r2, #45568	; 0xb200
    8520:	e3432f00 	movt	r2, #16128	; 0x3f00
    8524:	e08f3003 	add	r3, pc, r3
    8528:	e3a04001 	mov	r4, #1
    852c:	e083e100 	add	lr, r3, r0, lsl #2
    8530:	e3a0c000 	mov	ip, #0
    8534:	e592101c 	ldr	r1, [r2, #28]
    8538:	e783c100 	str	ip, [r3, r0, lsl #2]
    853c:	e58ec120 	str	ip, [lr, #288]	; 0x120
    8540:	e1810014 	orr	r0, r1, r4, lsl r0
    8544:	e582001c 	str	r0, [r2, #28]
    8548:	e8bd8030 	pop	{r4, r5, pc}
    854c:	e59f2068 	ldr	r2, [pc, #104]	; 85bc <unregister_irq_handler+0xc0>
    8550:	e3a01cb2 	mov	r1, #45568	; 0xb200
    8554:	e3431f00 	movt	r1, #16128	; 0x3f00
    8558:	e08f2002 	add	r2, pc, r2
    855c:	e3a05001 	mov	r5, #1
    8560:	e0824100 	add	r4, r2, r0, lsl #2
    8564:	e3a0e000 	mov	lr, #0
    8568:	e591c020 	ldr	ip, [r1, #32]
    856c:	e782e100 	str	lr, [r2, r0, lsl #2]
    8570:	e18c3315 	orr	r3, ip, r5, lsl r3
    8574:	e584e120 	str	lr, [r4, #288]	; 0x120
    8578:	e5813020 	str	r3, [r1, #32]
    857c:	e8bd8030 	pop	{r4, r5, pc}
    8580:	e59f3038 	ldr	r3, [pc, #56]	; 85c0 <unregister_irq_handler+0xc4>
    8584:	e3a02cb2 	mov	r2, #45568	; 0xb200
    8588:	e3432f00 	movt	r2, #16128	; 0x3f00
    858c:	e08f3003 	add	r3, pc, r3
    8590:	e2404040 	sub	r4, r0, #64	; 0x40
    8594:	e083e100 	add	lr, r3, r0, lsl #2
    8598:	e3a05001 	mov	r5, #1
    859c:	e5921024 	ldr	r1, [r2, #36]	; 0x24
    85a0:	e3a0c000 	mov	ip, #0
    85a4:	e783c100 	str	ip, [r3, r0, lsl #2]
    85a8:	e58ec120 	str	ip, [lr, #288]	; 0x120
    85ac:	e1813415 	orr	r3, r1, r5, lsl r4
    85b0:	e5823024 	str	r3, [r2, #36]	; 0x24
    85b4:	e8bd8030 	pop	{r4, r5, pc}
    85b8:	00004ad4 	ldrdeq	r4, [r0], -r4	; <UNPREDICTABLE>
    85bc:	00004aa0 	andeq	r4, r0, r0, lsr #21
    85c0:	00004a6c 	andeq	r4, r0, ip, ror #20

000085c4 <memset>:
    85c4:	e3520000 	cmp	r2, #0
    85c8:	e6ef1071 	uxtb	r1, r1
    85cc:	012fff1e 	bxeq	lr
    85d0:	e0802002 	add	r2, r0, r2
    85d4:	e1a03000 	mov	r3, r0
    85d8:	e4c31001 	strb	r1, [r3], #1
    85dc:	e1530002 	cmp	r3, r2
    85e0:	1afffffc 	bne	85d8 <memset+0x14>
    85e4:	e12fff1e 	bx	lr

000085e8 <bzero>:
    85e8:	e1a02001 	mov	r2, r1
    85ec:	e3a01000 	mov	r1, #0
    85f0:	eafffff3 	b	85c4 <memset>

000085f4 <interrupts_init>:
    85f4:	e92d4010 	push	{r4, lr}
    85f8:	ebfffec7 	bl	811c <_enable_interrupts>
    85fc:	e10f3000 	mrs	r3, CPSR
    8600:	e3130080 	tst	r3, #128	; 0x80
    8604:	1a000000 	bne	860c <interrupts_init+0x18>
    8608:	f10c0080 	cpsid	i
    860c:	e59f4044 	ldr	r4, [pc, #68]	; 8658 <interrupts_init+0x64>
    8610:	e3a01e12 	mov	r1, #288	; 0x120
    8614:	e08f4004 	add	r4, pc, r4
    8618:	e1a00004 	mov	r0, r4
    861c:	ebfffff1 	bl	85e8 <bzero>
    8620:	e2840e12 	add	r0, r4, #288	; 0x120
    8624:	e3a01e12 	mov	r1, #288	; 0x120
    8628:	ebffffee 	bl	85e8 <bzero>
    862c:	e3a03cb2 	mov	r3, #45568	; 0xb200
    8630:	e3433f00 	movt	r3, #16128	; 0x3f00
    8634:	e3e02000 	mvn	r2, #0
    8638:	e5832024 	str	r2, [r3, #36]	; 0x24
    863c:	e583201c 	str	r2, [r3, #28]
    8640:	e5832020 	str	r2, [r3, #32]
    8644:	e10f3000 	mrs	r3, CPSR
    8648:	e3130080 	tst	r3, #128	; 0x80
    864c:	08bd8010 	popeq	{r4, pc}
    8650:	f1080080 	cpsie	i
    8654:	e8bd8010 	pop	{r4, pc}
    8658:	000049e4 	andeq	r4, r0, r4, ror #19

0000865c <RPI_Mailbox0Write>:
    865c:	e3c1100f 	bic	r1, r1, #15
    8660:	e3a0cb2e 	mov	ip, #47104	; 0xb800
    8664:	e343cf00 	movt	ip, #16128	; 0x3f00
    8668:	e1800001 	orr	r0, r0, r1
    866c:	e59c2098 	ldr	r2, [ip, #152]	; 0x98
    8670:	e3a03b2e 	mov	r3, #47104	; 0xb800
    8674:	e3433f00 	movt	r3, #16128	; 0x3f00
    8678:	e3520000 	cmp	r2, #0
    867c:	bafffffa 	blt	866c <RPI_Mailbox0Write+0x10>
    8680:	e58300a0 	str	r0, [r3, #160]	; 0xa0
    8684:	e12fff1e 	bx	lr

00008688 <RPI_Mailbox0Read>:
    8688:	e350000f 	cmp	r0, #15
    868c:	0a00000b 	beq	86c0 <RPI_Mailbox0Read+0x38>
    8690:	e3a02b2e 	mov	r2, #47104	; 0xb800
    8694:	e3432f00 	movt	r2, #16128	; 0x3f00
    8698:	e1a0c002 	mov	ip, r2
    869c:	e5923098 	ldr	r3, [r2, #152]	; 0x98
    86a0:	e3130101 	tst	r3, #1073741824	; 0x40000000
    86a4:	1afffffc 	bne	869c <RPI_Mailbox0Read+0x14>
    86a8:	e59c3080 	ldr	r3, [ip, #128]	; 0x80
    86ac:	e203100f 	and	r1, r3, #15
    86b0:	e1510000 	cmp	r1, r0
    86b4:	1afffff8 	bne	869c <RPI_Mailbox0Read+0x14>
    86b8:	e1a00243 	asr	r0, r3, #4
    86bc:	e12fff1e 	bx	lr
    86c0:	e3e00000 	mvn	r0, #0
    86c4:	e12fff1e 	bx	lr

000086c8 <RPI_PropertyInit>:
    86c8:	e59f3028 	ldr	r3, [pc, #40]	; 86f8 <RPI_PropertyInit+0x30>
    86cc:	e3a01000 	mov	r1, #0
    86d0:	e59f2024 	ldr	r2, [pc, #36]	; 86fc <RPI_PropertyInit+0x34>
    86d4:	e3a0c00c 	mov	ip, #12
    86d8:	e08f3003 	add	r3, pc, r3
    86dc:	e3a00002 	mov	r0, #2
    86e0:	e08f2002 	add	r2, pc, r2
    86e4:	e583c000 	str	ip, [r3]
    86e8:	e5831004 	str	r1, [r3, #4]
    86ec:	e5831008 	str	r1, [r3, #8]
    86f0:	e5820020 	str	r0, [r2, #32]
    86f4:	e12fff1e 	bx	lr
    86f8:	00004b70 	andeq	r4, r0, r0, ror fp
    86fc:	0000cb48 	andeq	ip, r0, r8, asr #22

00008700 <RPI_PropertyAddTag>:
    8700:	e92d000f 	push	{r0, r1, r2, r3}
    8704:	e59f144c 	ldr	r1, [pc, #1100]	; 8b58 <RPI_PropertyAddTag+0x458>
    8708:	e3a00008 	mov	r0, #8
    870c:	e3400004 	movt	r0, #4
    8710:	e92d40f0 	push	{r4, r5, r6, r7, lr}
    8714:	e08f1001 	add	r1, pc, r1
    8718:	e59fc43c 	ldr	ip, [pc, #1084]	; 8b5c <RPI_PropertyAddTag+0x45c>
    871c:	e24dd00c 	sub	sp, sp, #12
    8720:	e08fc00c 	add	ip, pc, ip
    8724:	e28de024 	add	lr, sp, #36	; 0x24
    8728:	e5913020 	ldr	r3, [r1, #32]
    872c:	e59d2020 	ldr	r2, [sp, #32]
    8730:	e58de004 	str	lr, [sp, #4]
    8734:	e1520000 	cmp	r2, r0
    8738:	e78c2103 	str	r2, [ip, r3, lsl #2]
    873c:	e2830001 	add	r0, r3, #1
    8740:	e5810020 	str	r0, [r1, #32]
    8744:	8a000047 	bhi	8868 <RPI_PropertyAddTag+0x168>
    8748:	e3a04005 	mov	r4, #5
    874c:	e3404004 	movt	r4, #4
    8750:	e1520004 	cmp	r2, r4
    8754:	2a00008c 	bcs	898c <RPI_PropertyAddTag+0x28c>
    8758:	e3a04002 	mov	r4, #2
    875c:	e3404003 	movt	r4, #3
    8760:	e1520004 	cmp	r2, r4
    8764:	0a00002d 	beq	8820 <RPI_PropertyAddTag+0x120>
    8768:	8a00001f 	bhi	87ec <RPI_PropertyAddTag+0xec>
    876c:	e3a04006 	mov	r4, #6
    8770:	e3404001 	movt	r4, #1
    8774:	e1520004 	cmp	r2, r4
    8778:	9a0000d0 	bls	8ac0 <RPI_PropertyAddTag+0x3c0>
    877c:	e3a04001 	mov	r4, #1
    8780:	e3404002 	movt	r4, #2
    8784:	e1520004 	cmp	r2, r4
    8788:	0a000024 	beq	8820 <RPI_PropertyAddTag+0x120>
    878c:	e3084001 	movw	r4, #32769	; 0x8001
    8790:	e3404002 	movt	r4, #2
    8794:	e1520004 	cmp	r2, r4
    8798:	1a000090 	bne	89e0 <RPI_PropertyAddTag+0x2e0>
    879c:	e2835002 	add	r5, r3, #2
    87a0:	e2832004 	add	r2, r3, #4
    87a4:	e2834003 	add	r4, r3, #3
    87a8:	e3a06008 	mov	r6, #8
    87ac:	e2833005 	add	r3, r3, #5
    87b0:	e78c6100 	str	r6, [ip, r0, lsl #2]
    87b4:	e5813020 	str	r3, [r1, #32]
    87b8:	e3a06000 	mov	r6, #0
    87bc:	e89e0003 	ldm	lr, {r0, r1}
    87c0:	e78c6105 	str	r6, [ip, r5, lsl #2]
    87c4:	e78c0104 	str	r0, [ip, r4, lsl #2]
    87c8:	e78c1102 	str	r1, [ip, r2, lsl #2]
    87cc:	e59f238c 	ldr	r2, [pc, #908]	; 8b60 <RPI_PropertyAddTag+0x460>
    87d0:	e3a01000 	mov	r1, #0
    87d4:	e08f2002 	add	r2, pc, r2
    87d8:	e7821103 	str	r1, [r2, r3, lsl #2]
    87dc:	e28dd00c 	add	sp, sp, #12
    87e0:	e8bd40f0 	pop	{r4, r5, r6, r7, lr}
    87e4:	e28dd010 	add	sp, sp, #16
    87e8:	e12fff1e 	bx	lr
    87ec:	e3084002 	movw	r4, #32770	; 0x8002
    87f0:	e3404003 	movt	r4, #3
    87f4:	e1520004 	cmp	r2, r4
    87f8:	0a00004f 	beq	893c <RPI_PropertyAddTag+0x23c>
    87fc:	8a0000cb 	bhi	8b30 <RPI_PropertyAddTag+0x430>
    8800:	e3a01004 	mov	r1, #4
    8804:	e3401003 	movt	r1, #3
    8808:	e1520001 	cmp	r2, r1
    880c:	0a000003 	beq	8820 <RPI_PropertyAddTag+0x120>
    8810:	e3a01007 	mov	r1, #7
    8814:	e3401003 	movt	r1, #3
    8818:	e1520001 	cmp	r2, r1
    881c:	1a000073 	bne	89f0 <RPI_PropertyAddTag+0x2f0>
    8820:	e59f233c 	ldr	r2, [pc, #828]	; 8b64 <RPI_PropertyAddTag+0x464>
    8824:	e2835002 	add	r5, r3, #2
    8828:	e59f1338 	ldr	r1, [pc, #824]	; 8b68 <RPI_PropertyAddTag+0x468>
    882c:	e283e003 	add	lr, r3, #3
    8830:	e59d4004 	ldr	r4, [sp, #4]
    8834:	e08f2002 	add	r2, pc, r2
    8838:	e283c004 	add	ip, r3, #4
    883c:	e08f1001 	add	r1, pc, r1
    8840:	e3a06008 	mov	r6, #8
    8844:	e2833005 	add	r3, r3, #5
    8848:	e5944000 	ldr	r4, [r4]
    884c:	e5813020 	str	r3, [r1, #32]
    8850:	e7826100 	str	r6, [r2, r0, lsl #2]
    8854:	e3a00000 	mov	r0, #0
    8858:	e7820105 	str	r0, [r2, r5, lsl #2]
    885c:	e782410e 	str	r4, [r2, lr, lsl #2]
    8860:	e782010c 	str	r0, [r2, ip, lsl #2]
    8864:	eaffffd8 	b	87cc <RPI_PropertyAddTag+0xcc>
    8868:	e3081004 	movw	r1, #32772	; 0x8004
    886c:	e3401004 	movt	r1, #4
    8870:	e1520001 	cmp	r2, r1
    8874:	9a000061 	bls	8a00 <RPI_PropertyAddTag+0x300>
    8878:	e3081009 	movw	r1, #32777	; 0x8009
    887c:	e3401004 	movt	r1, #4
    8880:	e1520001 	cmp	r2, r1
    8884:	0a00006a 	beq	8a34 <RPI_PropertyAddTag+0x334>
    8888:	9a00003b 	bls	897c <RPI_PropertyAddTag+0x27c>
    888c:	e3a01001 	mov	r1, #1
    8890:	e3401005 	movt	r1, #5
    8894:	e1520001 	cmp	r2, r1
    8898:	0a000098 	beq	8b00 <RPI_PropertyAddTag+0x400>
    889c:	e3a01001 	mov	r1, #1
    88a0:	e3401006 	movt	r1, #6
    88a4:	e1520001 	cmp	r2, r1
    88a8:	0a000088 	beq	8ad0 <RPI_PropertyAddTag+0x3d0>
    88ac:	e308100a 	movw	r1, #32778	; 0x800a
    88b0:	e3401004 	movt	r1, #4
    88b4:	e1520001 	cmp	r2, r1
    88b8:	1a00004c 	bne	89f0 <RPI_PropertyAddTag+0x2f0>
    88bc:	e59f12a8 	ldr	r1, [pc, #680]	; 8b6c <RPI_PropertyAddTag+0x46c>
    88c0:	e283c002 	add	ip, r3, #2
    88c4:	e59fe2a4 	ldr	lr, [pc, #676]	; 8b70 <RPI_PropertyAddTag+0x470>
    88c8:	e308400a 	movw	r4, #32778	; 0x800a
    88cc:	e3404004 	movt	r4, #4
    88d0:	e08f1001 	add	r1, pc, r1
    88d4:	e08fe00e 	add	lr, pc, lr
    88d8:	e1520004 	cmp	r2, r4
    88dc:	e3a02010 	mov	r2, #16
    88e0:	e3a04000 	mov	r4, #0
    88e4:	e7812100 	str	r2, [r1, r0, lsl #2]
    88e8:	e2830003 	add	r0, r3, #3
    88ec:	e781410c 	str	r4, [r1, ip, lsl #2]
    88f0:	12833007 	addne	r3, r3, #7
    88f4:	e58e0020 	str	r0, [lr, #32]
    88f8:	158e3020 	strne	r3, [lr, #32]
    88fc:	1affffb2 	bne	87cc <RPI_PropertyAddTag+0xcc>
    8900:	e59d2004 	ldr	r2, [sp, #4]
    8904:	e2835004 	add	r5, r3, #4
    8908:	e2834005 	add	r4, r3, #5
    890c:	e283c006 	add	ip, r3, #6
    8910:	e2833007 	add	r3, r3, #7
    8914:	e58e3020 	str	r3, [lr, #32]
    8918:	e592e000 	ldr	lr, [r2]
    891c:	e781e100 	str	lr, [r1, r0, lsl #2]
    8920:	e592e004 	ldr	lr, [r2, #4]
    8924:	e5920008 	ldr	r0, [r2, #8]
    8928:	e592200c 	ldr	r2, [r2, #12]
    892c:	e781e105 	str	lr, [r1, r5, lsl #2]
    8930:	e7810104 	str	r0, [r1, r4, lsl #2]
    8934:	e781210c 	str	r2, [r1, ip, lsl #2]
    8938:	eaffffa3 	b	87cc <RPI_PropertyAddTag+0xcc>
    893c:	e2836002 	add	r6, r3, #2
    8940:	e2835003 	add	r5, r3, #3
    8944:	e2832005 	add	r2, r3, #5
    8948:	e2834004 	add	r4, r3, #4
    894c:	e3a0700c 	mov	r7, #12
    8950:	e2833006 	add	r3, r3, #6
    8954:	e78c7100 	str	r7, [ip, r0, lsl #2]
    8958:	e3a00000 	mov	r0, #0
    895c:	e5813020 	str	r3, [r1, #32]
    8960:	e78c0106 	str	r0, [ip, r6, lsl #2]
    8964:	e59e6000 	ldr	r6, [lr]
    8968:	e99e0003 	ldmib	lr, {r0, r1}
    896c:	e78c6105 	str	r6, [ip, r5, lsl #2]
    8970:	e78c0104 	str	r0, [ip, r4, lsl #2]
    8974:	e78c1102 	str	r1, [ip, r2, lsl #2]
    8978:	eaffff93 	b	87cc <RPI_PropertyAddTag+0xcc>
    897c:	e3081007 	movw	r1, #32775	; 0x8007
    8980:	e3401004 	movt	r1, #4
    8984:	e1520001 	cmp	r2, r1
    8988:	8a000018 	bhi	89f0 <RPI_PropertyAddTag+0x2f0>
    898c:	e59fc1e0 	ldr	ip, [pc, #480]	; 8b74 <RPI_PropertyAddTag+0x474>
    8990:	e2421912 	sub	r1, r2, #294912	; 0x48000
    8994:	e2832002 	add	r2, r3, #2
    8998:	e2411005 	sub	r1, r1, #5
    899c:	e08fc00c 	add	ip, pc, ip
    89a0:	e3510002 	cmp	r1, #2
    89a4:	e3a0e004 	mov	lr, #4
    89a8:	e3a01000 	mov	r1, #0
    89ac:	e78ce100 	str	lr, [ip, r0, lsl #2]
    89b0:	e2830003 	add	r0, r3, #3
    89b4:	e78c1102 	str	r1, [ip, r2, lsl #2]
    89b8:	9083300e 	addls	r3, r3, lr
    89bc:	e59f21b4 	ldr	r2, [pc, #436]	; 8b78 <RPI_PropertyAddTag+0x478>
    89c0:	82833004 	addhi	r3, r3, #4
    89c4:	959d1004 	ldrls	r1, [sp, #4]
    89c8:	e08f2002 	add	r2, pc, r2
    89cc:	95823020 	strls	r3, [r2, #32]
    89d0:	95912000 	ldrls	r2, [r1]
    89d4:	978c2100 	strls	r2, [ip, r0, lsl #2]
    89d8:	85823020 	strhi	r3, [r2, #32]
    89dc:	eaffff7a 	b	87cc <RPI_PropertyAddTag+0xcc>
    89e0:	e3a01007 	mov	r1, #7
    89e4:	e3401001 	movt	r1, #1
    89e8:	e1520001 	cmp	r2, r1
    89ec:	0a000043 	beq	8b00 <RPI_PropertyAddTag+0x400>
    89f0:	e59f2184 	ldr	r2, [pc, #388]	; 8b7c <RPI_PropertyAddTag+0x47c>
    89f4:	e08f2002 	add	r2, pc, r2
    89f8:	e5823020 	str	r3, [r2, #32]
    89fc:	eaffff72 	b	87cc <RPI_PropertyAddTag+0xcc>
    8a00:	e3081003 	movw	r1, #32771	; 0x8003
    8a04:	e3401004 	movt	r1, #4
    8a08:	e1520001 	cmp	r2, r1
    8a0c:	2a000008 	bcs	8a34 <RPI_PropertyAddTag+0x334>
    8a10:	e3a0100a 	mov	r1, #10
    8a14:	e3401004 	movt	r1, #4
    8a18:	e1520001 	cmp	r2, r1
    8a1c:	0affffa6 	beq	88bc <RPI_PropertyAddTag+0x1bc>
    8a20:	3a000003 	bcc	8a34 <RPI_PropertyAddTag+0x334>
    8a24:	e2421911 	sub	r1, r2, #278528	; 0x44000
    8a28:	e2411003 	sub	r1, r1, #3
    8a2c:	e3510001 	cmp	r1, #1
    8a30:	8affffee 	bhi	89f0 <RPI_PropertyAddTag+0x2f0>
    8a34:	e59f1144 	ldr	r1, [pc, #324]	; 8b80 <RPI_PropertyAddTag+0x480>
    8a38:	e283c002 	add	ip, r3, #2
    8a3c:	e59f4140 	ldr	r4, [pc, #320]	; 8b84 <RPI_PropertyAddTag+0x484>
    8a40:	e308e009 	movw	lr, #32777	; 0x8009
    8a44:	e340e004 	movt	lr, #4
    8a48:	e08f1001 	add	r1, pc, r1
    8a4c:	e08f4004 	add	r4, pc, r4
    8a50:	e152000e 	cmp	r2, lr
    8a54:	e3a05000 	mov	r5, #0
    8a58:	e3a0e008 	mov	lr, #8
    8a5c:	e781e100 	str	lr, [r1, r0, lsl #2]
    8a60:	e283e003 	add	lr, r3, #3
    8a64:	e781510c 	str	r5, [r1, ip, lsl #2]
    8a68:	e584e020 	str	lr, [r4, #32]
    8a6c:	0a000006 	beq	8a8c <RPI_PropertyAddTag+0x38c>
    8a70:	e2422911 	sub	r2, r2, #278528	; 0x44000
    8a74:	e2422003 	sub	r2, r2, #3
    8a78:	e3c22901 	bic	r2, r2, #16384	; 0x4000
    8a7c:	e3520001 	cmp	r2, #1
    8a80:	82833005 	addhi	r3, r3, #5
    8a84:	85843020 	strhi	r3, [r4, #32]
    8a88:	8affff4f 	bhi	87cc <RPI_PropertyAddTag+0xcc>
    8a8c:	e59f10f4 	ldr	r1, [pc, #244]	; 8b88 <RPI_PropertyAddTag+0x488>
    8a90:	e283c004 	add	ip, r3, #4
    8a94:	e59f20f0 	ldr	r2, [pc, #240]	; 8b8c <RPI_PropertyAddTag+0x48c>
    8a98:	e2833005 	add	r3, r3, #5
    8a9c:	e59d0004 	ldr	r0, [sp, #4]
    8aa0:	e08f1001 	add	r1, pc, r1
    8aa4:	e08f2002 	add	r2, pc, r2
    8aa8:	e5904000 	ldr	r4, [r0]
    8aac:	e5900004 	ldr	r0, [r0, #4]
    8ab0:	e5823020 	str	r3, [r2, #32]
    8ab4:	e781410e 	str	r4, [r1, lr, lsl #2]
    8ab8:	e781010c 	str	r0, [r1, ip, lsl #2]
    8abc:	eaffff42 	b	87cc <RPI_PropertyAddTag+0xcc>
    8ac0:	e3520801 	cmp	r2, #65536	; 0x10000
    8ac4:	8a000001 	bhi	8ad0 <RPI_PropertyAddTag+0x3d0>
    8ac8:	e3520001 	cmp	r2, #1
    8acc:	1affffc7 	bne	89f0 <RPI_PropertyAddTag+0x2f0>
    8ad0:	e59f20b8 	ldr	r2, [pc, #184]	; 8b90 <RPI_PropertyAddTag+0x490>
    8ad4:	e283c002 	add	ip, r3, #2
    8ad8:	e59f10b4 	ldr	r1, [pc, #180]	; 8b94 <RPI_PropertyAddTag+0x494>
    8adc:	e3a04008 	mov	r4, #8
    8ae0:	e08f2002 	add	r2, pc, r2
    8ae4:	e2833005 	add	r3, r3, #5
    8ae8:	e08f1001 	add	r1, pc, r1
    8aec:	e3a0e000 	mov	lr, #0
    8af0:	e7824100 	str	r4, [r2, r0, lsl #2]
    8af4:	e5813020 	str	r3, [r1, #32]
    8af8:	e782e10c 	str	lr, [r2, ip, lsl #2]
    8afc:	eaffff32 	b	87cc <RPI_PropertyAddTag+0xcc>
    8b00:	e59f2090 	ldr	r2, [pc, #144]	; 8b98 <RPI_PropertyAddTag+0x498>
    8b04:	e283c002 	add	ip, r3, #2
    8b08:	e59f108c 	ldr	r1, [pc, #140]	; 8b9c <RPI_PropertyAddTag+0x49c>
    8b0c:	e3a04c01 	mov	r4, #256	; 0x100
    8b10:	e08f2002 	add	r2, pc, r2
    8b14:	e2833043 	add	r3, r3, #67	; 0x43
    8b18:	e08f1001 	add	r1, pc, r1
    8b1c:	e3a0e000 	mov	lr, #0
    8b20:	e7824100 	str	r4, [r2, r0, lsl #2]
    8b24:	e5813020 	str	r3, [r1, #32]
    8b28:	e782e10c 	str	lr, [r2, ip, lsl #2]
    8b2c:	eaffff26 	b	87cc <RPI_PropertyAddTag+0xcc>
    8b30:	e3a01001 	mov	r1, #1
    8b34:	e3401004 	movt	r1, #4
    8b38:	e1520001 	cmp	r2, r1
    8b3c:	0affff37 	beq	8820 <RPI_PropertyAddTag+0x120>
    8b40:	3affffaa 	bcc	89f0 <RPI_PropertyAddTag+0x2f0>
    8b44:	e3a01003 	mov	r1, #3
    8b48:	e3401004 	movt	r1, #4
    8b4c:	e1520001 	cmp	r2, r1
    8b50:	2affffb7 	bcs	8a34 <RPI_PropertyAddTag+0x334>
    8b54:	eaffffa5 	b	89f0 <RPI_PropertyAddTag+0x2f0>
    8b58:	0000cb14 	andeq	ip, r0, r4, lsl fp
    8b5c:	00004b28 	andeq	r4, r0, r8, lsr #22
    8b60:	00004a74 	andeq	r4, r0, r4, ror sl
    8b64:	00004a14 	andeq	r4, r0, r4, lsl sl
    8b68:	0000c9ec 	andeq	ip, r0, ip, ror #19
    8b6c:	00004978 	andeq	r4, r0, r8, ror r9
    8b70:	0000c954 	andeq	ip, r0, r4, asr r9
    8b74:	000048ac 	andeq	r4, r0, ip, lsr #17
    8b78:	0000c860 	andeq	ip, r0, r0, ror #16
    8b7c:	0000c834 	andeq	ip, r0, r4, lsr r8
    8b80:	00004800 	andeq	r4, r0, r0, lsl #16
    8b84:	0000c7dc 	ldrdeq	ip, [r0], -ip	; <UNPREDICTABLE>
    8b88:	000047a8 	andeq	r4, r0, r8, lsr #15
    8b8c:	0000c784 	andeq	ip, r0, r4, lsl #15
    8b90:	00004768 	andeq	r4, r0, r8, ror #14
    8b94:	0000c740 	andeq	ip, r0, r0, asr #14
    8b98:	00004738 	andeq	r4, r0, r8, lsr r7
    8b9c:	0000c710 	andeq	ip, r0, r0, lsl r7

00008ba0 <RPI_PropertyProcess>:
    8ba0:	e59f303c 	ldr	r3, [pc, #60]	; 8be4 <RPI_PropertyProcess+0x44>
    8ba4:	e3a00008 	mov	r0, #8
    8ba8:	e59f2038 	ldr	r2, [pc, #56]	; 8be8 <RPI_PropertyProcess+0x48>
    8bac:	e3a0c000 	mov	ip, #0
    8bb0:	e08f3003 	add	r3, pc, r3
    8bb4:	e92d4010 	push	{r4, lr}
    8bb8:	e5933020 	ldr	r3, [r3, #32]
    8bbc:	e08f2002 	add	r2, pc, r2
    8bc0:	e1a01002 	mov	r1, r2
    8bc4:	e2833001 	add	r3, r3, #1
    8bc8:	e582c004 	str	ip, [r2, #4]
    8bcc:	e1a03103 	lsl	r3, r3, #2
    8bd0:	e5823000 	str	r3, [r2]
    8bd4:	ebfffea0 	bl	865c <RPI_Mailbox0Write>
    8bd8:	e3a00008 	mov	r0, #8
    8bdc:	e8bd4010 	pop	{r4, lr}
    8be0:	eafffea8 	b	8688 <RPI_Mailbox0Read>
    8be4:	0000c678 	andeq	ip, r0, r8, ror r6
    8be8:	0000468c 	andeq	r4, r0, ip, lsl #13

00008bec <RPI_PropertyGet>:
    8bec:	e59f2094 	ldr	r2, [pc, #148]	; 8c88 <RPI_PropertyGet+0x9c>
    8bf0:	e59f3094 	ldr	r3, [pc, #148]	; 8c8c <RPI_PropertyGet+0xa0>
    8bf4:	e08f2002 	add	r2, pc, r2
    8bf8:	e08f3003 	add	r3, pc, r3
    8bfc:	e92d4010 	push	{r4, lr}
    8c00:	e592c000 	ldr	ip, [r2]
    8c04:	e5830024 	str	r0, [r3, #36]	; 0x24
    8c08:	e1a0c14c 	asr	ip, ip, #2
    8c0c:	e35c0002 	cmp	ip, #2
    8c10:	da00000d 	ble	8c4c <RPI_PropertyGet+0x60>
    8c14:	e5923008 	ldr	r3, [r2, #8]
    8c18:	e1530000 	cmp	r3, r0
    8c1c:	e3a03002 	mov	r3, #2
    8c20:	1a000003 	bne	8c34 <RPI_PropertyGet+0x48>
    8c24:	ea00000a 	b	8c54 <RPI_PropertyGet+0x68>
    8c28:	e7921103 	ldr	r1, [r2, r3, lsl #2]
    8c2c:	e1500001 	cmp	r0, r1
    8c30:	0a000007 	beq	8c54 <RPI_PropertyGet+0x68>
    8c34:	e2831001 	add	r1, r3, #1
    8c38:	e7921101 	ldr	r1, [r2, r1, lsl #2]
    8c3c:	e0833141 	add	r3, r3, r1, asr #2
    8c40:	e2833003 	add	r3, r3, #3
    8c44:	e153000c 	cmp	r3, ip
    8c48:	bafffff6 	blt	8c28 <RPI_PropertyGet+0x3c>
    8c4c:	e3a00000 	mov	r0, #0
    8c50:	e8bd8010 	pop	{r4, pc}
    8c54:	e59f2034 	ldr	r2, [pc, #52]	; 8c90 <RPI_PropertyGet+0xa4>
    8c58:	e59fc034 	ldr	ip, [pc, #52]	; 8c94 <RPI_PropertyGet+0xa8>
    8c5c:	e08f2002 	add	r2, pc, r2
    8c60:	e0823103 	add	r3, r2, r3, lsl #2
    8c64:	e08fc00c 	add	ip, pc, ip
    8c68:	e28c4024 	add	r4, ip, #36	; 0x24
    8c6c:	e283100c 	add	r1, r3, #12
    8c70:	e28c002c 	add	r0, ip, #44	; 0x2c
    8c74:	e1d320b8 	ldrh	r2, [r3, #8]
    8c78:	e58c2028 	str	r2, [ip, #40]	; 0x28
    8c7c:	eb000353 	bl	99d0 <memcpy>
    8c80:	e1a00004 	mov	r0, r4
    8c84:	e8bd8010 	pop	{r4, pc}
    8c88:	00004654 	andeq	r4, r0, r4, asr r6
    8c8c:	0000c630 	andeq	ip, r0, r0, lsr r6
    8c90:	000045ec 	andeq	r4, r0, ip, ror #11
    8c94:	0000c5c4 	andeq	ip, r0, r4, asr #11

00008c98 <timer_init>:
    8c98:	e59f301c 	ldr	r3, [pc, #28]	; 8cbc <timer_init+0x24>
    8c9c:	e3a02a03 	mov	r2, #12288	; 0x3000
    8ca0:	e3432f00 	movt	r2, #16128	; 0x3f00
    8ca4:	e08f3003 	add	r3, pc, r3
    8ca8:	e59f0010 	ldr	r0, [pc, #16]	; 8cc0 <timer_init+0x28>
    8cac:	e1a01002 	mov	r1, r2
    8cb0:	e08f0000 	add	r0, pc, r0
    8cb4:	e5832000 	str	r2, [r3]
    8cb8:	ea000353 	b	9a0c <printf>
    8cbc:	0000c6b0 			; <UNDEFINED> instruction: 0x0000c6b0
    8cc0:	00002398 	muleq	r0, r8, r3

00008cc4 <timer_set>:
    8cc4:	e59f3010 	ldr	r3, [pc, #16]	; 8cdc <timer_set+0x18>
    8cc8:	e79f2003 	ldr	r2, [pc, r3]
    8ccc:	e5923004 	ldr	r3, [r2, #4]
    8cd0:	e0830000 	add	r0, r3, r0
    8cd4:	e5820010 	str	r0, [r2, #16]
    8cd8:	e12fff1e 	bx	lr
    8cdc:	0000c68c 	andeq	ip, r0, ip, lsl #13

00008ce0 <udelay>:
    8ce0:	e92d4800 	push	{fp, lr}
    8ce4:	e28db004 	add	fp, sp, #4
    8ce8:	e24dd018 	sub	sp, sp, #24
    8cec:	e50b0018 	str	r0, [fp, #-24]	; 0xffffffe8
    8cf0:	e59f30f0 	ldr	r3, [pc, #240]	; 8de8 <udelay+0x108>
    8cf4:	e08f3003 	add	r3, pc, r3
    8cf8:	e5933000 	ldr	r3, [r3]
    8cfc:	e5933004 	ldr	r3, [r3, #4]
    8d00:	e50b3008 	str	r3, [fp, #-8]
    8d04:	e59f30e0 	ldr	r3, [pc, #224]	; 8dec <udelay+0x10c>
    8d08:	e08f3003 	add	r3, pc, r3
    8d0c:	e5933000 	ldr	r3, [r3]
    8d10:	e5932004 	ldr	r2, [r3, #4]
    8d14:	e51b3008 	ldr	r3, [fp, #-8]
    8d18:	e0633002 	rsb	r3, r3, r2
    8d1c:	e50b300c 	str	r3, [fp, #-12]
    8d20:	e3e03000 	mvn	r3, #0
    8d24:	e50b3010 	str	r3, [fp, #-16]
    8d28:	e3e03000 	mvn	r3, #0
    8d2c:	e50b3014 	str	r3, [fp, #-20]	; 0xffffffec
    8d30:	ea000022 	b	8dc0 <udelay+0xe0>
    8d34:	e59f30b4 	ldr	r3, [pc, #180]	; 8df0 <udelay+0x110>
    8d38:	e08f3003 	add	r3, pc, r3
    8d3c:	e5933000 	ldr	r3, [r3]
    8d40:	e5933004 	ldr	r3, [r3, #4]
    8d44:	e50b3014 	str	r3, [fp, #-20]	; 0xffffffec
    8d48:	e59f30a4 	ldr	r3, [pc, #164]	; 8df4 <udelay+0x114>
    8d4c:	e08f3003 	add	r3, pc, r3
    8d50:	e5933000 	ldr	r3, [r3]
    8d54:	e5933008 	ldr	r3, [r3, #8]
    8d58:	e50b3010 	str	r3, [fp, #-16]
    8d5c:	e51b3014 	ldr	r3, [fp, #-20]	; 0xffffffec
    8d60:	e1a01003 	mov	r1, r3
    8d64:	e59f308c 	ldr	r3, [pc, #140]	; 8df8 <udelay+0x118>
    8d68:	e08f3003 	add	r3, pc, r3
    8d6c:	e1a00003 	mov	r0, r3
    8d70:	eb000325 	bl	9a0c <printf>
    8d74:	e51b3010 	ldr	r3, [fp, #-16]
    8d78:	e1a01003 	mov	r1, r3
    8d7c:	e59f3078 	ldr	r3, [pc, #120]	; 8dfc <udelay+0x11c>
    8d80:	e08f3003 	add	r3, pc, r3
    8d84:	e1a00003 	mov	r0, r3
    8d88:	eb00031f 	bl	9a0c <printf>
    8d8c:	e28f304c 	add	r3, pc, #76	; 0x4c
    8d90:	e1c320d0 	ldrd	r2, [r3]
    8d94:	e59f1064 	ldr	r1, [pc, #100]	; 8e00 <udelay+0x120>
    8d98:	e08f1001 	add	r1, pc, r1
    8d9c:	e1a00001 	mov	r0, r1
    8da0:	eb000319 	bl	9a0c <printf>
    8da4:	e59f3058 	ldr	r3, [pc, #88]	; 8e04 <udelay+0x124>
    8da8:	e08f3003 	add	r3, pc, r3
    8dac:	e5933000 	ldr	r3, [r3]
    8db0:	e5932004 	ldr	r2, [r3, #4]
    8db4:	e51b3008 	ldr	r3, [fp, #-8]
    8db8:	e0633002 	rsb	r3, r3, r2
    8dbc:	e50b300c 	str	r3, [fp, #-12]
    8dc0:	e51b200c 	ldr	r2, [fp, #-12]
    8dc4:	e51b3018 	ldr	r3, [fp, #-24]	; 0xffffffe8
    8dc8:	e1520003 	cmp	r2, r3
    8dcc:	3affffd8 	bcc	8d34 <udelay+0x54>
    8dd0:	e1a00000 	nop			; (mov r0, r0)
    8dd4:	e24bd004 	sub	sp, fp, #4
    8dd8:	e8bd8800 	pop	{fp, pc}
    8ddc:	e320f000 	nop	{0}
    8de0:	12345678 	eorsne	r5, r4, #120, 12	; 0x7800000
    8de4:	12345678 	eorsne	r5, r4, #120, 12	; 0x7800000
    8de8:	0000c660 	andeq	ip, r0, r0, ror #12
    8dec:	0000c64c 	andeq	ip, r0, ip, asr #12
    8df0:	0000c61c 	andeq	ip, r0, ip, lsl r6
    8df4:	0000c608 	andeq	ip, r0, r8, lsl #12
    8df8:	00002290 	muleq	r0, r0, r2
    8dfc:	00002298 	muleq	r0, r8, r2
    8e00:	000022a0 	andeq	r2, r0, r0, lsr #5
    8e04:	0000c5ac 	andeq	ip, r0, ip, lsr #11

00008e08 <timer_getTickCount32>:
    8e08:	e59f300c 	ldr	r3, [pc, #12]	; 8e1c <timer_getTickCount32+0x14>
    8e0c:	e08f3003 	add	r3, pc, r3
    8e10:	e5933000 	ldr	r3, [r3]
    8e14:	e5930004 	ldr	r0, [r3, #4]
    8e18:	e12fff1e 	bx	lr
    8e1c:	0000c548 	andeq	ip, r0, r8, asr #10

00008e20 <timer_getTickCount64>:
    8e20:	e59f3064 	ldr	r3, [pc, #100]	; 8e8c <timer_getTickCount64+0x6c>
    8e24:	e24dd010 	sub	sp, sp, #16
    8e28:	e3e02000 	mvn	r2, #0
    8e2c:	e3e00000 	mvn	r0, #0
    8e30:	e08f3003 	add	r3, pc, r3
    8e34:	e3e01000 	mvn	r1, #0
    8e38:	e1cd00f8 	strd	r0, [sp, #8]
    8e3c:	e58d2004 	str	r2, [sp, #4]
    8e40:	e5933000 	ldr	r3, [r3]
    8e44:	e5932008 	ldr	r2, [r3, #8]
    8e48:	e593c004 	ldr	ip, [r3, #4]
    8e4c:	e3a03000 	mov	r3, #0
    8e50:	e1cd20f8 	strd	r2, [sp, #8]
    8e54:	e58dc004 	str	ip, [sp, #4]
    8e58:	e1cd00d8 	ldrd	r0, [sp, #8]
    8e5c:	e1510003 	cmp	r1, r3
    8e60:	01500002 	cmpeq	r0, r2
    8e64:	1afffff9 	bne	8e50 <timer_getTickCount64+0x30>
    8e68:	e1cd00d8 	ldrd	r0, [sp, #8]
    8e6c:	e59d1004 	ldr	r1, [sp, #4]
    8e70:	e3a02000 	mov	r2, #0
    8e74:	e1a03000 	mov	r3, r0
    8e78:	e1822001 	orr	r2, r2, r1
    8e7c:	e1cd20f8 	strd	r2, [sp, #8]
    8e80:	e1cd00d8 	ldrd	r0, [sp, #8]
    8e84:	e28dd010 	add	sp, sp, #16
    8e88:	e12fff1e 	bx	lr
    8e8c:	0000c524 	andeq	ip, r0, r4, lsr #10

00008e90 <mmu_section>:
    8e90:	e59f3030 	ldr	r3, [pc, #48]	; 8ec8 <mmu_section+0x38>
    8e94:	e1a01a21 	lsr	r1, r1, #20
    8e98:	e3822b03 	orr	r2, r2, #3072	; 0xc00
    8e9c:	e1a00a20 	lsr	r0, r0, #20
    8ea0:	e08f3003 	add	r3, pc, r3
    8ea4:	e3822002 	orr	r2, r2, #2
    8ea8:	e1a01a01 	lsl	r1, r1, #20
    8eac:	e92d4010 	push	{r4, lr}
    8eb0:	e5933000 	ldr	r3, [r3]
    8eb4:	e1821001 	orr	r1, r2, r1
    8eb8:	e1830100 	orr	r0, r3, r0, lsl #2
    8ebc:	ebfffc8a 	bl	80ec <PUT32>
    8ec0:	e3a00000 	mov	r0, #0
    8ec4:	e8bd8010 	pop	{r4, pc}
    8ec8:	0000c4b8 			; <UNDEFINED> instruction: 0x0000c4b8

00008ecc <initialize_virtual_memory>:
    8ecc:	e59f3088 	ldr	r3, [pc, #136]	; 8f5c <initialize_virtual_memory+0x90>
    8ed0:	e59f1088 	ldr	r1, [pc, #136]	; 8f60 <initialize_virtual_memory+0x94>
    8ed4:	e92d4070 	push	{r4, r5, r6, lr}
    8ed8:	e08f3003 	add	r3, pc, r3
    8edc:	e59f0080 	ldr	r0, [pc, #128]	; 8f64 <initialize_virtual_memory+0x98>
    8ee0:	e08f1001 	add	r1, pc, r1
    8ee4:	e59f207c 	ldr	r2, [pc, #124]	; 8f68 <initialize_virtual_memory+0x9c>
    8ee8:	e3a04000 	mov	r4, #0
    8eec:	e7930000 	ldr	r0, [r3, r0]
    8ef0:	e5810000 	str	r0, [r1]
    8ef4:	e7935002 	ldr	r5, [r3, r2]
    8ef8:	e1a01004 	mov	r1, r4
    8efc:	e1a00004 	mov	r0, r4
    8f00:	e3a02000 	mov	r2, #0
    8f04:	ebffffe1 	bl	8e90 <mmu_section>
    8f08:	e1540005 	cmp	r4, r5
    8f0c:	e2844601 	add	r4, r4, #1048576	; 0x100000
    8f10:	3afffff8 	bcc	8ef8 <initialize_virtual_memory+0x2c>
    8f14:	e3a0143f 	mov	r1, #1056964608	; 0x3f000000
    8f18:	e3a02000 	mov	r2, #0
    8f1c:	e1a00001 	mov	r0, r1
    8f20:	ebffffda 	bl	8e90 <mmu_section>
    8f24:	e3a01000 	mov	r1, #0
    8f28:	e3431f20 	movt	r1, #16160	; 0x3f20
    8f2c:	e1a00001 	mov	r0, r1
    8f30:	e3a02000 	mov	r2, #0
    8f34:	ebffffd5 	bl	8e90 <mmu_section>
    8f38:	e59f002c 	ldr	r0, [pc, #44]	; 8f6c <initialize_virtual_memory+0xa0>
    8f3c:	e08f0000 	add	r0, pc, r0
    8f40:	eb0002b1 	bl	9a0c <printf>
    8f44:	e59f3024 	ldr	r3, [pc, #36]	; 8f70 <initialize_virtual_memory+0xa4>
    8f48:	e3a01005 	mov	r1, #5
    8f4c:	e08f3003 	add	r3, pc, r3
    8f50:	e8bd4070 	pop	{r4, r5, r6, lr}
    8f54:	e5930000 	ldr	r0, [r3]
    8f58:	eafffc7f 	b	815c <start_mmu>
    8f5c:	00003128 	andeq	r3, r0, r8, lsr #2
    8f60:	0000c478 	andeq	ip, r0, r8, ror r4
    8f64:	00000008 	andeq	r0, r0, r8
    8f68:	0000000c 	andeq	r0, r0, ip
    8f6c:	0000222c 	andeq	r2, r0, ip, lsr #4
    8f70:	0000c40c 	andeq	ip, r0, ip, lsl #8

00008f74 <append_page_list>:
    8f74:	e990000c 	ldmib	r0, {r2, r3}
    8f78:	e5821008 	str	r1, [r2, #8]
    8f7c:	e3a0c000 	mov	ip, #0
    8f80:	e581200c 	str	r2, [r1, #12]
    8f84:	e2833001 	add	r3, r3, #1
    8f88:	e5801004 	str	r1, [r0, #4]
    8f8c:	e581c008 	str	ip, [r1, #8]
    8f90:	e5803008 	str	r3, [r0, #8]
    8f94:	e12fff1e 	bx	lr

00008f98 <push_page_list>:
    8f98:	e5903008 	ldr	r3, [r0, #8]
    8f9c:	e3a02000 	mov	r2, #0
    8fa0:	e590c000 	ldr	ip, [r0]
    8fa4:	e581c008 	str	ip, [r1, #8]
    8fa8:	e2833001 	add	r3, r3, #1
    8fac:	e581200c 	str	r2, [r1, #12]
    8fb0:	e5801000 	str	r1, [r0]
    8fb4:	e5803008 	str	r3, [r0, #8]
    8fb8:	e12fff1e 	bx	lr

00008fbc <peek_page_list>:
    8fbc:	e5900000 	ldr	r0, [r0]
    8fc0:	e12fff1e 	bx	lr

00008fc4 <pop_page_list>:
    8fc4:	e5901000 	ldr	r1, [r0]
    8fc8:	e1a03000 	mov	r3, r0
    8fcc:	e5902008 	ldr	r2, [r0, #8]
    8fd0:	e3a0c000 	mov	ip, #0
    8fd4:	e1a00001 	mov	r0, r1
    8fd8:	e5911008 	ldr	r1, [r1, #8]
    8fdc:	e2422001 	sub	r2, r2, #1
    8fe0:	e5831000 	str	r1, [r3]
    8fe4:	e581c00c 	str	ip, [r1, #12]
    8fe8:	e5832008 	str	r2, [r3, #8]
    8fec:	e12fff1e 	bx	lr

00008ff0 <size_page_list>:
    8ff0:	e5900008 	ldr	r0, [r0, #8]
    8ff4:	e12fff1e 	bx	lr

00008ff8 <next_page_list>:
    8ff8:	e5900008 	ldr	r0, [r0, #8]
    8ffc:	e12fff1e 	bx	lr

00009000 <get_num_of_free_pages>:
    9000:	e59f300c 	ldr	r3, [pc, #12]	; 9014 <get_num_of_free_pages+0x14>
    9004:	e59f200c 	ldr	r2, [pc, #12]	; 9018 <get_num_of_free_pages+0x18>
    9008:	e08f3003 	add	r3, pc, r3
    900c:	e7930002 	ldr	r0, [r3, r2]
    9010:	eafffff6 	b	8ff0 <size_page_list>
    9014:	00002ff8 	strdeq	r2, [r0], -r8
    9018:	00000004 	andeq	r0, r0, r4

0000901c <alloc_page>:
    901c:	e59f3058 	ldr	r3, [pc, #88]	; 907c <alloc_page+0x60>
    9020:	e92d4010 	push	{r4, lr}
    9024:	e08f3003 	add	r3, pc, r3
    9028:	e59f2050 	ldr	r2, [pc, #80]	; 9080 <alloc_page+0x64>
    902c:	e7934002 	ldr	r4, [r3, r2]
    9030:	e1a00004 	mov	r0, r4
    9034:	ebffffed 	bl	8ff0 <size_page_list>
    9038:	e3500000 	cmp	r0, #0
    903c:	08bd8010 	popeq	{r4, pc}
    9040:	e1a00004 	mov	r0, r4
    9044:	ebffffde 	bl	8fc4 <pop_page_list>
    9048:	e59f2034 	ldr	r2, [pc, #52]	; 9084 <alloc_page+0x68>
    904c:	e5d03004 	ldrb	r3, [r0, #4]
    9050:	e3a01a01 	mov	r1, #4096	; 0x1000
    9054:	e08f2002 	add	r2, pc, r2
    9058:	e3833003 	orr	r3, r3, #3
    905c:	e5c03004 	strb	r3, [r0, #4]
    9060:	e5924000 	ldr	r4, [r2]
    9064:	e0640000 	rsb	r0, r4, r0
    9068:	e1a04400 	lsl	r4, r0, #8
    906c:	e1a00004 	mov	r0, r4
    9070:	ebfffd5c 	bl	85e8 <bzero>
    9074:	e1a00004 	mov	r0, r4
    9078:	e8bd8010 	pop	{r4, pc}
    907c:	00002fdc 	ldrdeq	r2, [r0], -ip
    9080:	00000004 	andeq	r0, r0, r4
    9084:	0000c308 	andeq	ip, r0, r8, lsl #6

00009088 <free_page>:
    9088:	e59f3030 	ldr	r3, [pc, #48]	; 90c0 <free_page+0x38>
    908c:	e1a00620 	lsr	r0, r0, #12
    9090:	e59fc02c 	ldr	ip, [pc, #44]	; 90c4 <free_page+0x3c>
    9094:	e08f3003 	add	r3, pc, r3
    9098:	e59f2028 	ldr	r2, [pc, #40]	; 90c8 <free_page+0x40>
    909c:	e08fc00c 	add	ip, pc, ip
    90a0:	e5933000 	ldr	r3, [r3]
    90a4:	e0830200 	add	r0, r3, r0, lsl #4
    90a8:	e1a01000 	mov	r1, r0
    90ac:	e5d03004 	ldrb	r3, [r0, #4]
    90b0:	e7c0301f 	bfc	r3, #0, #1
    90b4:	e5c03004 	strb	r3, [r0, #4]
    90b8:	e79c0002 	ldr	r0, [ip, r2]
    90bc:	eaffffac 	b	8f74 <append_page_list>
    90c0:	0000c2c8 	andeq	ip, r0, r8, asr #5
    90c4:	00002f64 	andeq	r2, r0, r4, ror #30
    90c8:	00000004 	andeq	r0, r0, r4

000090cc <get_mem_size>:
    90cc:	e92d4010 	push	{r4, lr}
    90d0:	e59f4040 	ldr	r4, [pc, #64]	; 9118 <get_mem_size+0x4c>
    90d4:	e08f4004 	add	r4, pc, r4
    90d8:	e5940004 	ldr	r0, [r4, #4]
    90dc:	e3500000 	cmp	r0, #0
    90e0:	18bd8010 	popne	{r4, pc}
    90e4:	ebfffd77 	bl	86c8 <RPI_PropertyInit>
    90e8:	e3a00005 	mov	r0, #5
    90ec:	e3400001 	movt	r0, #1
    90f0:	ebfffd82 	bl	8700 <RPI_PropertyAddTag>
    90f4:	ebfffea9 	bl	8ba0 <RPI_PropertyProcess>
    90f8:	e3a00005 	mov	r0, #5
    90fc:	e3400001 	movt	r0, #1
    9100:	ebfffeb9 	bl	8bec <RPI_PropertyGet>
    9104:	e3500000 	cmp	r0, #0
    9108:	1590000c 	ldrne	r0, [r0, #12]
    910c:	03e00000 	mvneq	r0, #0
    9110:	15840004 	strne	r0, [r4, #4]
    9114:	e8bd8010 	pop	{r4, pc}
    9118:	0000c288 	andeq	ip, r0, r8, lsl #5

0000911c <mem_init>:
    911c:	e92d41f0 	push	{r4, r5, r6, r7, r8, lr}
    9120:	ebffffe9 	bl	90cc <get_mem_size>
    9124:	e1a01000 	mov	r1, r0
    9128:	e1a04000 	mov	r4, r0
    912c:	e59f00e4 	ldr	r0, [pc, #228]	; 9218 <mem_init+0xfc>
    9130:	e59f60e4 	ldr	r6, [pc, #228]	; 921c <mem_init+0x100>
    9134:	e08f0000 	add	r0, pc, r0
    9138:	e1a04624 	lsr	r4, r4, #12
    913c:	eb000232 	bl	9a0c <printf>
    9140:	e08f6006 	add	r6, pc, r6
    9144:	e59f00d4 	ldr	r0, [pc, #212]	; 9220 <mem_init+0x104>
    9148:	e1a01004 	mov	r1, r4
    914c:	e59f50d0 	ldr	r5, [pc, #208]	; 9224 <mem_init+0x108>
    9150:	e08f0000 	add	r0, pc, r0
    9154:	e5864008 	str	r4, [r6, #8]
    9158:	e08f5005 	add	r5, pc, r5
    915c:	eb00022a 	bl	9a0c <printf>
    9160:	e59f30c0 	ldr	r3, [pc, #192]	; 9228 <mem_init+0x10c>
    9164:	e5961008 	ldr	r1, [r6, #8]
    9168:	e7954003 	ldr	r4, [r5, r3]
    916c:	e1a01201 	lsl	r1, r1, #4
    9170:	e5864000 	str	r4, [r6]
    9174:	e1a00004 	mov	r0, r4
    9178:	ebfffd1a 	bl	85e8 <bzero>
    917c:	e59f20a8 	ldr	r2, [pc, #168]	; 922c <mem_init+0x110>
    9180:	e1b04624 	lsrs	r4, r4, #12
    9184:	e3a03000 	mov	r3, #0
    9188:	e7955002 	ldr	r5, [r5, r2]
    918c:	e5853004 	str	r3, [r5, #4]
    9190:	e5853000 	str	r3, [r5]
    9194:	e5853008 	str	r3, [r5, #8]
    9198:	0a00000a 	beq	91c8 <mem_init+0xac>
    919c:	e5960000 	ldr	r0, [r6]
    91a0:	e1a02000 	mov	r2, r0
    91a4:	e1a01603 	lsl	r1, r3, #12
    91a8:	e7801203 	str	r1, [r0, r3, lsl #4]
    91ac:	e2833001 	add	r3, r3, #1
    91b0:	e5d21004 	ldrb	r1, [r2, #4]
    91b4:	e1540003 	cmp	r4, r3
    91b8:	e2822010 	add	r2, r2, #16
    91bc:	e3811003 	orr	r1, r1, #3
    91c0:	e542100c 	strb	r1, [r2, #-12]
    91c4:	1afffff6 	bne	91a4 <mem_init+0x88>
    91c8:	e59f7060 	ldr	r7, [pc, #96]	; 9230 <mem_init+0x114>
    91cc:	e08f7007 	add	r7, pc, r7
    91d0:	e5973008 	ldr	r3, [r7, #8]
    91d4:	e1540003 	cmp	r4, r3
    91d8:	28bd81f0 	popcs	{r4, r5, r6, r7, r8, pc}
    91dc:	e1a06204 	lsl	r6, r4, #4
    91e0:	e5973000 	ldr	r3, [r7]
    91e4:	e1a00005 	mov	r0, r5
    91e8:	e2844001 	add	r4, r4, #1
    91ec:	e0833006 	add	r3, r3, r6
    91f0:	e2866010 	add	r6, r6, #16
    91f4:	e1a01003 	mov	r1, r3
    91f8:	e5d32004 	ldrb	r2, [r3, #4]
    91fc:	e7c0201f 	bfc	r2, #0, #1
    9200:	e5c32004 	strb	r2, [r3, #4]
    9204:	ebffff5a 	bl	8f74 <append_page_list>
    9208:	e5973008 	ldr	r3, [r7, #8]
    920c:	e1530004 	cmp	r3, r4
    9210:	8afffff2 	bhi	91e0 <mem_init+0xc4>
    9214:	e8bd81f0 	pop	{r4, r5, r6, r7, r8, pc}
    9218:	00002044 	andeq	r2, r0, r4, asr #32
    921c:	0000c21c 	andeq	ip, r0, ip, lsl r2
    9220:	00002044 	andeq	r2, r0, r4, asr #32
    9224:	00002ea8 	andeq	r2, r0, r8, lsr #29
    9228:	0000000c 	andeq	r0, r0, ip
    922c:	00000004 	andeq	r0, r0, r4
    9230:	0000c190 	muleq	r0, r0, r1

00009234 <uart_init>:
    9234:	e3a03a01 	mov	r3, #4096	; 0x1000
    9238:	e3433f20 	movt	r3, #16160	; 0x3f20
    923c:	e3a01000 	mov	r1, #0
    9240:	e3431f20 	movt	r1, #16160	; 0x3f20
    9244:	e3a02096 	mov	r2, #150	; 0x96
    9248:	e3a00000 	mov	r0, #0
    924c:	e1a0c002 	mov	ip, r2
    9250:	e5830030 	str	r0, [r3, #48]	; 0x30
    9254:	e5810094 	str	r0, [r1, #148]	; 0x94

00009258 <__delay_53>:
    9258:	e25cc001 	subs	ip, ip, #1
    925c:	1afffffd 	bne	9258 <__delay_53>
    9260:	e3a0c903 	mov	ip, #49152	; 0xc000
    9264:	e581c098 	str	ip, [r1, #152]	; 0x98

00009268 <__delay_70>:
    9268:	e2522001 	subs	r2, r2, #1
    926c:	1afffffd 	bne	9268 <__delay_70>
    9270:	e3a02001 	mov	r2, #1
    9274:	e5810098 	str	r0, [r1, #152]	; 0x98
    9278:	e300c7ff 	movw	ip, #2047	; 0x7ff
    927c:	e3a01028 	mov	r1, #40	; 0x28
    9280:	e583c044 	str	ip, [r3, #68]	; 0x44
    9284:	e5832024 	str	r2, [r3, #36]	; 0x24
    9288:	e3a02070 	mov	r2, #112	; 0x70
    928c:	e5831028 	str	r1, [r3, #40]	; 0x28
    9290:	e30017f2 	movw	r1, #2034	; 0x7f2
    9294:	e583202c 	str	r2, [r3, #44]	; 0x2c
    9298:	e3002301 	movw	r2, #769	; 0x301
    929c:	e5831038 	str	r1, [r3, #56]	; 0x38
    92a0:	e5832030 	str	r2, [r3, #48]	; 0x30
    92a4:	e12fff1e 	bx	lr

000092a8 <uart_putc>:
    92a8:	e3a01a01 	mov	r1, #4096	; 0x1000
    92ac:	e3431f20 	movt	r1, #16160	; 0x3f20
    92b0:	e5912018 	ldr	r2, [r1, #24]
    92b4:	e3a03a01 	mov	r3, #4096	; 0x1000
    92b8:	e3433f20 	movt	r3, #16160	; 0x3f20
    92bc:	e3120020 	tst	r2, #32
    92c0:	1afffffa 	bne	92b0 <uart_putc+0x8>
    92c4:	e5830000 	str	r0, [r3]
    92c8:	e12fff1e 	bx	lr

000092cc <uart_getc>:
    92cc:	e3a01a01 	mov	r1, #4096	; 0x1000
    92d0:	e3431f20 	movt	r1, #16160	; 0x3f20
    92d4:	e5912018 	ldr	r2, [r1, #24]
    92d8:	e3a03a01 	mov	r3, #4096	; 0x1000
    92dc:	e3433f20 	movt	r3, #16160	; 0x3f20
    92e0:	e3120010 	tst	r2, #16
    92e4:	1afffffa 	bne	92d4 <uart_getc+0x8>
    92e8:	e5930000 	ldr	r0, [r3]
    92ec:	e6ef0070 	uxtb	r0, r0
    92f0:	e12fff1e 	bx	lr

000092f4 <uart_puts>:
    92f4:	e92d4010 	push	{r4, lr}
    92f8:	e1a04000 	mov	r4, r0
    92fc:	e5d00000 	ldrb	r0, [r0]
    9300:	e3500000 	cmp	r0, #0
    9304:	08bd8010 	popeq	{r4, pc}
    9308:	ebffffe6 	bl	92a8 <uart_putc>
    930c:	e5f40001 	ldrb	r0, [r4, #1]!
    9310:	e3500000 	cmp	r0, #0
    9314:	1afffffb 	bne	9308 <uart_puts+0x14>
    9318:	e8bd8010 	pop	{r4, pc}

0000931c <hexstrings>:
    931c:	e92d4070 	push	{r4, r5, r6, lr}
    9320:	e1a05000 	mov	r5, r0
    9324:	e3a04020 	mov	r4, #32
    9328:	e2444004 	sub	r4, r4, #4
    932c:	e1a03435 	lsr	r3, r5, r4
    9330:	e203300f 	and	r3, r3, #15
    9334:	e3530009 	cmp	r3, #9
    9338:	e2830030 	add	r0, r3, #48	; 0x30
    933c:	82830037 	addhi	r0, r3, #55	; 0x37
    9340:	e6ef0070 	uxtb	r0, r0
    9344:	ebffffd7 	bl	92a8 <uart_putc>
    9348:	e3540000 	cmp	r4, #0
    934c:	1afffff5 	bne	9328 <hexstrings+0xc>
    9350:	e3a00020 	mov	r0, #32
    9354:	e8bd4070 	pop	{r4, r5, r6, lr}
    9358:	eaffffd2 	b	92a8 <uart_putc>

0000935c <dma_0_irq_clearer>:
    935c:	e59f302c 	ldr	r3, [pc, #44]	; 9390 <dma_0_irq_clearer+0x34>
    9360:	e3a01004 	mov	r1, #4
    9364:	e59f2028 	ldr	r2, [pc, #40]	; 9394 <dma_0_irq_clearer+0x38>
    9368:	e08f3003 	add	r3, pc, r3
    936c:	e59f0024 	ldr	r0, [pc, #36]	; 9398 <dma_0_irq_clearer+0x3c>
    9370:	e08f0000 	add	r0, pc, r0
    9374:	e7933002 	ldr	r3, [r3, r2]
    9378:	e5933000 	ldr	r3, [r3]
    937c:	e1a03403 	lsl	r3, r3, #8
    9380:	e283343f 	add	r3, r3, #1056964608	; 0x3f000000
    9384:	e2833a07 	add	r3, r3, #28672	; 0x7000
    9388:	e5831000 	str	r1, [r3]
    938c:	ea00019e 	b	9a0c <printf>
    9390:	00002c98 	muleq	r0, r8, ip
    9394:	00000020 	andeq	r0, r0, r0, lsr #32
    9398:	00001e4c 	andeq	r1, r0, ip, asr #28

0000939c <dma_0_irq_handler>:
    939c:	e59f0004 	ldr	r0, [pc, #4]	; 93a8 <dma_0_irq_handler+0xc>
    93a0:	e08f0000 	add	r0, pc, r0
    93a4:	ea000198 	b	9a0c <printf>
    93a8:	00001e58 	andeq	r1, r0, r8, asr lr

000093ac <print_area>:
    93ac:	e92d4070 	push	{r4, r5, r6, lr}
    93b0:	e1a04000 	mov	r4, r0
    93b4:	e59f0034 	ldr	r0, [pc, #52]	; 93f0 <print_area+0x44>
    93b8:	e1a05001 	mov	r5, r1
    93bc:	e08f0000 	add	r0, pc, r0
    93c0:	ebffffcb 	bl	92f4 <uart_puts>
    93c4:	e3550000 	cmp	r5, #0
    93c8:	c0845005 	addgt	r5, r4, r5
    93cc:	da000003 	ble	93e0 <print_area+0x34>
    93d0:	e4d40001 	ldrb	r0, [r4], #1
    93d4:	ebffffb3 	bl	92a8 <uart_putc>
    93d8:	e1550004 	cmp	r5, r4
    93dc:	1afffffb 	bne	93d0 <print_area+0x24>
    93e0:	e59f000c 	ldr	r0, [pc, #12]	; 93f4 <print_area+0x48>
    93e4:	e8bd4070 	pop	{r4, r5, r6, lr}
    93e8:	e08f0000 	add	r0, pc, r0
    93ec:	eaffffc0 	b	92f4 <uart_puts>
    93f0:	00001e7c 	andeq	r1, r0, ip, ror lr
    93f4:	00001e50 	andeq	r1, r0, r0, asr lr

000093f8 <copy>:
    93f8:	e3520000 	cmp	r2, #0
    93fc:	d12fff1e 	bxle	lr
    9400:	e2400001 	sub	r0, r0, #1
    9404:	e0812002 	add	r2, r1, r2
    9408:	e5f03001 	ldrb	r3, [r0, #1]!
    940c:	e4c13001 	strb	r3, [r1], #1
    9410:	e1510002 	cmp	r1, r2
    9414:	1afffffb 	bne	9408 <copy+0x10>
    9418:	e12fff1e 	bx	lr

0000941c <writeBitmasked>:
    941c:	e5903000 	ldr	r3, [r0]
    9420:	e0222003 	eor	r2, r2, r3
    9424:	e0011002 	and	r1, r1, r2
    9428:	e0233001 	eor	r3, r3, r1
    942c:	e5803000 	str	r3, [r0]
    9430:	e5803000 	str	r3, [r0]
    9434:	e12fff1e 	bx	lr

00009438 <show_dma_demo>:
    9438:	e92d4ff0 	push	{r4, r5, r6, r7, r8, r9, sl, fp, lr}
    943c:	e59f21ec 	ldr	r2, [pc, #492]	; 9630 <show_dma_demo+0x1f8>
    9440:	e3a00014 	mov	r0, #20
    9444:	e59f11e8 	ldr	r1, [pc, #488]	; 9634 <show_dma_demo+0x1fc>
    9448:	e24dd014 	sub	sp, sp, #20
    944c:	e08f2002 	add	r2, pc, r2
    9450:	e59f51e0 	ldr	r5, [pc, #480]	; 9638 <show_dma_demo+0x200>
    9454:	e08f1001 	add	r1, pc, r1
    9458:	e3a0600c 	mov	r6, #12
    945c:	ebfffbf7 	bl	8440 <register_irq_handler>
    9460:	e59f21d4 	ldr	r2, [pc, #468]	; 963c <show_dma_demo+0x204>
    9464:	e28d3004 	add	r3, sp, #4
    9468:	e08f5005 	add	r5, pc, r5
    946c:	e08f2002 	add	r2, pc, r2
    9470:	e59f41c8 	ldr	r4, [pc, #456]	; 9640 <show_dma_demo+0x208>
    9474:	e3a09001 	mov	r9, #1
    9478:	e59fa1c4 	ldr	sl, [pc, #452]	; 9644 <show_dma_demo+0x20c>
    947c:	e08f4004 	add	r4, pc, r4
    9480:	e5920000 	ldr	r0, [r2]
    9484:	e08fa00a 	add	sl, pc, sl
    9488:	e5921004 	ldr	r1, [r2, #4]
    948c:	e5922008 	ldr	r2, [r2, #8]
    9490:	e8a30007 	stmia	r3!, {r0, r1, r2}
    9494:	e59f01ac 	ldr	r0, [pc, #428]	; 9648 <show_dma_demo+0x210>
    9498:	e08f0000 	add	r0, pc, r0
    949c:	ebffff94 	bl	92f4 <uart_puts>
    94a0:	e59f31a4 	ldr	r3, [pc, #420]	; 964c <show_dma_demo+0x214>
    94a4:	e1a01006 	mov	r1, r6
    94a8:	e795b003 	ldr	fp, [r5, r3]
    94ac:	e1a0000b 	mov	r0, fp
    94b0:	ebffffbd 	bl	93ac <print_area>
    94b4:	e1a02006 	mov	r2, r6
    94b8:	e1a0100b 	mov	r1, fp
    94bc:	e28d0004 	add	r0, sp, #4
    94c0:	ebffffcc 	bl	93f8 <copy>
    94c4:	e59f0184 	ldr	r0, [pc, #388]	; 9650 <show_dma_demo+0x218>
    94c8:	e08f0000 	add	r0, pc, r0
    94cc:	ebffff88 	bl	92f4 <uart_puts>
    94d0:	e1a01006 	mov	r1, r6
    94d4:	e1a0000b 	mov	r0, fp
    94d8:	ebffffb3 	bl	93ac <print_area>
    94dc:	e1a00004 	mov	r0, r4
    94e0:	ebffff83 	bl	92f4 <uart_puts>
    94e4:	e59f3168 	ldr	r3, [pc, #360]	; 9654 <show_dma_demo+0x21c>
    94e8:	e1a01006 	mov	r1, r6
    94ec:	e7958003 	ldr	r8, [r5, r3]
    94f0:	e1a00008 	mov	r0, r8
    94f4:	ebffffac 	bl	93ac <print_area>
    94f8:	e1a00004 	mov	r0, r4
    94fc:	ebffff7c 	bl	92f4 <uart_puts>
    9500:	e59f3150 	ldr	r3, [pc, #336]	; 9658 <show_dma_demo+0x220>
    9504:	e1a01006 	mov	r1, r6
    9508:	e7957003 	ldr	r7, [r5, r3]
    950c:	e1a00007 	mov	r0, r7
    9510:	ebffffa5 	bl	93ac <print_area>
    9514:	e59f3140 	ldr	r3, [pc, #320]	; 965c <show_dma_demo+0x224>
    9518:	e59f0140 	ldr	r0, [pc, #320]	; 9660 <show_dma_demo+0x228>
    951c:	e3002111 	movw	r2, #273	; 0x111
    9520:	e3a01e11 	mov	r1, #272	; 0x110
    9524:	e7954003 	ldr	r4, [r5, r3]
    9528:	e08f0000 	add	r0, pc, r0
    952c:	e3a03000 	mov	r3, #0
    9530:	e5842020 	str	r2, [r4, #32]
    9534:	e5843010 	str	r3, [r4, #16]
    9538:	e5843030 	str	r3, [r4, #48]	; 0x30
    953c:	e5843034 	str	r3, [r4, #52]	; 0x34
    9540:	e584b004 	str	fp, [r4, #4]
    9544:	e584b024 	str	fp, [r4, #36]	; 0x24
    9548:	e284b020 	add	fp, r4, #32
    954c:	e5841000 	str	r1, [r4]
    9550:	e1a01004 	mov	r1, r4
    9554:	e5848008 	str	r8, [r4, #8]
    9558:	e5847028 	str	r7, [r4, #40]	; 0x28
    955c:	e584b014 	str	fp, [r4, #20]
    9560:	e584600c 	str	r6, [r4, #12]
    9564:	e584602c 	str	r6, [r4, #44]	; 0x2c
    9568:	eb000127 	bl	9a0c <printf>
    956c:	e59f00f0 	ldr	r0, [pc, #240]	; 9664 <show_dma_demo+0x22c>
    9570:	e1a0100b 	mov	r1, fp
    9574:	e08f0000 	add	r0, pc, r0
    9578:	eb000123 	bl	9a0c <printf>
    957c:	e59f30e4 	ldr	r3, [pc, #228]	; 9668 <show_dma_demo+0x230>
    9580:	e3070ff0 	movw	r0, #32752	; 0x7ff0
    9584:	e3430f00 	movt	r0, #16128	; 0x3f00
    9588:	e7955003 	ldr	r5, [r5, r3]
    958c:	e5952000 	ldr	r2, [r5]
    9590:	e1a02219 	lsl	r2, r9, r2
    9594:	e1a01002 	mov	r1, r2
    9598:	ebffff9f 	bl	941c <writeBitmasked>
    959c:	e5955000 	ldr	r5, [r5]
    95a0:	e59f00c4 	ldr	r0, [pc, #196]	; 966c <show_dma_demo+0x234>
    95a4:	e3a03102 	mov	r3, #-2147483648	; 0x80000000
    95a8:	e1a05405 	lsl	r5, r5, #8
    95ac:	e08f0000 	add	r0, pc, r0
    95b0:	e285543f 	add	r5, r5, #1056964608	; 0x3f000000
    95b4:	e2855a07 	add	r5, r5, #28672	; 0x7000
    95b8:	e5853000 	str	r3, [r5]
    95bc:	ebffff4c 	bl	92f4 <uart_puts>
    95c0:	e59f00a8 	ldr	r0, [pc, #168]	; 9670 <show_dma_demo+0x238>
    95c4:	e3a03007 	mov	r3, #7
    95c8:	e5853020 	str	r3, [r5, #32]
    95cc:	e08f0000 	add	r0, pc, r0
    95d0:	ebffff47 	bl	92f4 <uart_puts>
    95d4:	e59f0098 	ldr	r0, [pc, #152]	; 9674 <show_dma_demo+0x23c>
    95d8:	e5854004 	str	r4, [r5, #4]
    95dc:	e08f0000 	add	r0, pc, r0
    95e0:	ebffff43 	bl	92f4 <uart_puts>
    95e4:	e59f008c 	ldr	r0, [pc, #140]	; 9678 <show_dma_demo+0x240>
    95e8:	e5859000 	str	r9, [r5]
    95ec:	e08f0000 	add	r0, pc, r0
    95f0:	ebffff3f 	bl	92f4 <uart_puts>
    95f4:	e59f0080 	ldr	r0, [pc, #128]	; 967c <show_dma_demo+0x244>
    95f8:	e08f0000 	add	r0, pc, r0
    95fc:	ebffff3c 	bl	92f4 <uart_puts>
    9600:	e1a0000a 	mov	r0, sl
    9604:	ebffff3a 	bl	92f4 <uart_puts>
    9608:	e1a01006 	mov	r1, r6
    960c:	e1a00008 	mov	r0, r8
    9610:	ebffff65 	bl	93ac <print_area>
    9614:	e1a0000a 	mov	r0, sl
    9618:	ebffff35 	bl	92f4 <uart_puts>
    961c:	e1a01006 	mov	r1, r6
    9620:	e1a00007 	mov	r0, r7
    9624:	ebffff60 	bl	93ac <print_area>
    9628:	e28dd014 	add	sp, sp, #20
    962c:	e8bd8ff0 	pop	{r4, r5, r6, r7, r8, r9, sl, fp, pc}
    9630:	ffffff08 			; <UNDEFINED> instruction: 0xffffff08
    9634:	ffffff40 			; <UNDEFINED> instruction: 0xffffff40
    9638:	00002b98 	muleq	r0, r8, fp
    963c:	00001bec 	andeq	r1, r0, ip, ror #23
    9640:	00001e14 	andeq	r1, r0, r4, lsl lr
    9644:	00001eb0 			; <UNDEFINED> instruction: 0x00001eb0
    9648:	00001db8 			; <UNDEFINED> instruction: 0x00001db8
    964c:	00000018 	andeq	r0, r0, r8, lsl r0
    9650:	00001da8 	andeq	r1, r0, r8, lsr #27
    9654:	00000014 	andeq	r0, r0, r4, lsl r0
    9658:	00000024 	andeq	r0, r0, r4, lsr #32
    965c:	00000028 	andeq	r0, r0, r8, lsr #32
    9660:	00001d90 	muleq	r0, r0, sp
    9664:	00001d50 	andeq	r1, r0, r0, asr sp
    9668:	00000020 	andeq	r0, r0, r0, lsr #32
    966c:	00001d24 	andeq	r1, r0, r4, lsr #26
    9670:	00001d18 	andeq	r1, r0, r8, lsl sp
    9674:	00001d1c 	andeq	r1, r0, ip, lsl sp
    9678:	00001d20 	andeq	r1, r0, r0, lsr #26
    967c:	00001d2c 	andeq	r1, r0, ip, lsr #26

00009680 <turn_off_usb>:
    9680:	e92d4010 	push	{r4, lr}
    9684:	ebfffc0f 	bl	86c8 <RPI_PropertyInit>
    9688:	e59f3030 	ldr	r3, [pc, #48]	; 96c0 <turn_off_usb+0x40>
    968c:	e59f1030 	ldr	r1, [pc, #48]	; 96c4 <turn_off_usb+0x44>
    9690:	e3084001 	movw	r4, #32769	; 0x8001
    9694:	e3404002 	movt	r4, #2
    9698:	e08f3003 	add	r3, pc, r3
    969c:	e1a00004 	mov	r0, r4
    96a0:	e3a02000 	mov	r2, #0
    96a4:	e7931001 	ldr	r1, [r3, r1]
    96a8:	e5911000 	ldr	r1, [r1]
    96ac:	ebfffc13 	bl	8700 <RPI_PropertyAddTag>
    96b0:	ebfffd3a 	bl	8ba0 <RPI_PropertyProcess>
    96b4:	e1a00004 	mov	r0, r4
    96b8:	e8bd4010 	pop	{r4, lr}
    96bc:	eafffd4a 	b	8bec <RPI_PropertyGet>
    96c0:	00002968 	andeq	r2, r0, r8, ror #18
    96c4:	00000000 	andeq	r0, r0, r0

000096c8 <turn_on_usb>:
    96c8:	e92d4010 	push	{r4, lr}
    96cc:	ebfffbfd 	bl	86c8 <RPI_PropertyInit>
    96d0:	e59f3030 	ldr	r3, [pc, #48]	; 9708 <turn_on_usb+0x40>
    96d4:	e59f1030 	ldr	r1, [pc, #48]	; 970c <turn_on_usb+0x44>
    96d8:	e3084001 	movw	r4, #32769	; 0x8001
    96dc:	e3404002 	movt	r4, #2
    96e0:	e08f3003 	add	r3, pc, r3
    96e4:	e1a00004 	mov	r0, r4
    96e8:	e3a02001 	mov	r2, #1
    96ec:	e7931001 	ldr	r1, [r3, r1]
    96f0:	e5911000 	ldr	r1, [r1]
    96f4:	ebfffc01 	bl	8700 <RPI_PropertyAddTag>
    96f8:	ebfffd28 	bl	8ba0 <RPI_PropertyProcess>
    96fc:	e1a00004 	mov	r0, r4
    9700:	e8bd4010 	pop	{r4, lr}
    9704:	eafffd38 	b	8bec <RPI_PropertyGet>
    9708:	00002920 	andeq	r2, r0, r0, lsr #18
    970c:	00000000 	andeq	r0, r0, r0

00009710 <print_usb_power_state>:
    9710:	e92d4010 	push	{r4, lr}
    9714:	ebfffbeb 	bl	86c8 <RPI_PropertyInit>
    9718:	e59f3050 	ldr	r3, [pc, #80]	; 9770 <print_usb_power_state+0x60>
    971c:	e59f2050 	ldr	r2, [pc, #80]	; 9774 <print_usb_power_state+0x64>
    9720:	e3a04001 	mov	r4, #1
    9724:	e3404002 	movt	r4, #2
    9728:	e08f3003 	add	r3, pc, r3
    972c:	e1a00004 	mov	r0, r4
    9730:	e7933002 	ldr	r3, [r3, r2]
    9734:	e5931000 	ldr	r1, [r3]
    9738:	ebfffbf0 	bl	8700 <RPI_PropertyAddTag>
    973c:	ebfffd17 	bl	8ba0 <RPI_PropertyProcess>
    9740:	e1a00004 	mov	r0, r4
    9744:	ebfffd28 	bl	8bec <RPI_PropertyGet>
    9748:	e1a04000 	mov	r4, r0
    974c:	e59f0024 	ldr	r0, [pc, #36]	; 9778 <print_usb_power_state+0x68>
    9750:	e5941008 	ldr	r1, [r4, #8]
    9754:	e08f0000 	add	r0, pc, r0
    9758:	eb0000ab 	bl	9a0c <printf>
    975c:	e59f0018 	ldr	r0, [pc, #24]	; 977c <print_usb_power_state+0x6c>
    9760:	e594100c 	ldr	r1, [r4, #12]
    9764:	e08f0000 	add	r0, pc, r0
    9768:	e8bd4010 	pop	{r4, lr}
    976c:	ea0000a6 	b	9a0c <printf>
    9770:	000028d8 	ldrdeq	r2, [r0], -r8
    9774:	00000000 	andeq	r0, r0, r0
    9778:	00001c04 	andeq	r1, r0, r4, lsl #24
    977c:	00001c04 	andeq	r1, r0, r4, lsl #24

00009780 <power_on_host_controller>:
    9780:	e92d4010 	push	{r4, lr}
    9784:	ebffffcf 	bl	96c8 <turn_on_usb>
    9788:	ebffffe0 	bl	9710 <print_usb_power_state>
    978c:	e3a02000 	mov	r2, #0
    9790:	e3432f98 	movt	r2, #16280	; 0x3f98
    9794:	e3a00a02 	mov	r0, #8192	; 0x2000
    9798:	e3440f54 	movt	r0, #20308	; 0x4f54
    979c:	e5921040 	ldr	r1, [r2, #64]	; 0x40
    97a0:	e3c13eff 	bic	r3, r1, #4080	; 0xff0
    97a4:	e3c3300f 	bic	r3, r3, #15
    97a8:	e1530000 	cmp	r3, r0
    97ac:	1a000006 	bne	97cc <power_on_host_controller+0x4c>
    97b0:	e592103c 	ldr	r1, [r2, #60]	; 0x3c
    97b4:	e3a03a0a 	mov	r3, #40960	; 0xa000
    97b8:	e3423708 	movt	r3, #9992	; 0x2708
    97bc:	e1510003 	cmp	r1, r3
    97c0:	1a000006 	bne	97e0 <power_on_host_controller+0x60>
    97c4:	e3a00000 	mov	r0, #0
    97c8:	e8bd8010 	pop	{r4, pc}
    97cc:	e59f0020 	ldr	r0, [pc, #32]	; 97f4 <power_on_host_controller+0x74>
    97d0:	e08f0000 	add	r0, pc, r0
    97d4:	eb00008c 	bl	9a0c <printf>
    97d8:	e3e00000 	mvn	r0, #0
    97dc:	e8bd8010 	pop	{r4, pc}
    97e0:	e59f0010 	ldr	r0, [pc, #16]	; 97f8 <power_on_host_controller+0x78>
    97e4:	e08f0000 	add	r0, pc, r0
    97e8:	eb000087 	bl	9a0c <printf>
    97ec:	e3e00000 	mvn	r0, #0
    97f0:	e8bd8010 	pop	{r4, pc}
    97f4:	00001bac 	andeq	r1, r0, ip, lsr #23
    97f8:	00001bdc 	ldrdeq	r1, [r0], -ip

000097fc <tick_difference>:
    97fc:	e0520000 	subs	r0, r2, r0
    9800:	e0c31001 	sbc	r1, r3, r1
    9804:	e12fff1e 	bx	lr

00009808 <hcd_reset>:
    9808:	e92d47f0 	push	{r4, r5, r6, r7, r8, r9, sl, lr}
    980c:	ebfffd83 	bl	8e20 <timer_getTickCount64>
    9810:	e3a08000 	mov	r8, #0
    9814:	e3438f98 	movt	r8, #16280	; 0x3f98
    9818:	e30846a0 	movw	r4, #34464	; 0x86a0
    981c:	e3404001 	movt	r4, #1
    9820:	e1a06000 	mov	r6, r0
    9824:	e1a07001 	mov	r7, r1
    9828:	e3a05000 	mov	r5, #0
    982c:	ea000002 	b	983c <hcd_reset+0x34>
    9830:	e5d82013 	ldrb	r2, [r8, #19]
    9834:	e1b023a2 	lsrs	r2, r2, #7
    9838:	1a00000f 	bne	987c <hcd_reset+0x74>
    983c:	ebfffd77 	bl	8e20 <timer_getTickCount64>
    9840:	e1a03001 	mov	r3, r1
    9844:	e1a02000 	mov	r2, r0
    9848:	e1a01007 	mov	r1, r7
    984c:	e1a00006 	mov	r0, r6
    9850:	ebffffe9 	bl	97fc <tick_difference>
    9854:	e1510005 	cmp	r1, r5
    9858:	01500004 	cmpeq	r0, r4
    985c:	e3a03000 	mov	r3, #0
    9860:	e3433f98 	movt	r3, #16280	; 0x3f98
    9864:	9afffff1 	bls	9830 <hcd_reset+0x28>
    9868:	e59f0098 	ldr	r0, [pc, #152]	; 9908 <hcd_reset+0x100>
    986c:	e08f0000 	add	r0, pc, r0
    9870:	eb000065 	bl	9a0c <printf>
    9874:	e3e00000 	mvn	r0, #0
    9878:	e8bd87f0 	pop	{r4, r5, r6, r7, r8, r9, sl, pc}
    987c:	e5d32010 	ldrb	r2, [r3, #16]
    9880:	e1a09003 	mov	r9, r3
    9884:	e30866a0 	movw	r6, #34464	; 0x86a0
    9888:	e3406001 	movt	r6, #1
    988c:	e3822001 	orr	r2, r2, #1
    9890:	e5c32010 	strb	r2, [r3, #16]
    9894:	ebfffd61 	bl	8e20 <timer_getTickCount64>
    9898:	e3a07000 	mov	r7, #0
    989c:	e1a04000 	mov	r4, r0
    98a0:	e1a05001 	mov	r5, r1
    98a4:	ebfffd5d 	bl	8e20 <timer_getTickCount64>
    98a8:	e1a02000 	mov	r2, r0
    98ac:	e1a03001 	mov	r3, r1
    98b0:	e1a00004 	mov	r0, r4
    98b4:	e1a01005 	mov	r1, r5
    98b8:	ebffffcf 	bl	97fc <tick_difference>
    98bc:	e1510007 	cmp	r1, r7
    98c0:	01500006 	cmpeq	r0, r6
    98c4:	8a00000a 	bhi	98f4 <hcd_reset+0xec>
    98c8:	e5d90010 	ldrb	r0, [r9, #16]
    98cc:	e2108001 	ands	r8, r0, #1
    98d0:	1afffff3 	bne	98a4 <hcd_reset+0x9c>
    98d4:	e5d93013 	ldrb	r3, [r9, #19]
    98d8:	e1b033a3 	lsrs	r3, r3, #7
    98dc:	0afffff0 	beq	98a4 <hcd_reset+0x9c>
    98e0:	e59f0024 	ldr	r0, [pc, #36]	; 990c <hcd_reset+0x104>
    98e4:	e08f0000 	add	r0, pc, r0
    98e8:	eb000047 	bl	9a0c <printf>
    98ec:	e1a00008 	mov	r0, r8
    98f0:	e8bd87f0 	pop	{r4, r5, r6, r7, r8, r9, sl, pc}
    98f4:	e59f0014 	ldr	r0, [pc, #20]	; 9910 <hcd_reset+0x108>
    98f8:	e08f0000 	add	r0, pc, r0
    98fc:	eb000042 	bl	9a0c <printf>
    9900:	e3e00000 	mvn	r0, #0
    9904:	e8bd87f0 	pop	{r4, r5, r6, r7, r8, r9, sl, pc}
    9908:	00001b94 	muleq	r0, r4, fp
    990c:	00001b48 	andeq	r1, r0, r8, asr #22
    9910:	00001b20 	andeq	r1, r0, r0, lsr #22

00009914 <hcd_start>:
    9914:	e92d4010 	push	{r4, lr}
    9918:	e3a03000 	mov	r3, #0
    991c:	e3433f98 	movt	r3, #16280	; 0x3f98
    9920:	e5d3200e 	ldrb	r2, [r3, #14]
    9924:	e7c4221f 	bfc	r2, #4, #1
    9928:	e5c3200e 	strb	r2, [r3, #14]
    992c:	e5d3200e 	ldrb	r2, [r3, #14]
    9930:	e7c6231f 	bfc	r2, #6, #1
    9934:	e5c3200e 	strb	r2, [r3, #14]
    9938:	ebffffb2 	bl	9808 <hcd_reset>
    993c:	e3500000 	cmp	r0, #0
    9940:	1a000004 	bne	9958 <hcd_start+0x44>
    9944:	e59f0020 	ldr	r0, [pc, #32]	; 996c <hcd_start+0x58>
    9948:	e08f0000 	add	r0, pc, r0
    994c:	eb00002e 	bl	9a0c <printf>
    9950:	e3a00000 	mov	r0, #0
    9954:	e8bd8010 	pop	{r4, pc}
    9958:	e59f0010 	ldr	r0, [pc, #16]	; 9970 <hcd_start+0x5c>
    995c:	e08f0000 	add	r0, pc, r0
    9960:	eb000029 	bl	9a0c <printf>
    9964:	e3a00000 	mov	r0, #0
    9968:	e8bd8010 	pop	{r4, pc}
    996c:	00001ae4 	andeq	r1, r0, r4, ror #21
    9970:	00001ae4 	andeq	r1, r0, r4, ror #21

00009974 <usb_initialise>:
    9974:	e92d4010 	push	{r4, lr}
    9978:	ebffff80 	bl	9780 <power_on_host_controller>
    997c:	e8bd4010 	pop	{r4, lr}
    9980:	eaffffe3 	b	9914 <hcd_start>

00009984 <kernel_main>:
    9984:	e59f0034 	ldr	r0, [pc, #52]	; 99c0 <kernel_main+0x3c>
    9988:	e92d4010 	push	{r4, lr}
    998c:	e59f4030 	ldr	r4, [pc, #48]	; 99c4 <kernel_main+0x40>
    9990:	e08f0000 	add	r0, pc, r0
    9994:	eb00001c 	bl	9a0c <printf>
    9998:	e08f4004 	add	r4, pc, r4
    999c:	ebfffe24 	bl	9234 <uart_init>
    99a0:	ebfffcbc 	bl	8c98 <timer_init>
    99a4:	e59f301c 	ldr	r3, [pc, #28]	; 99c8 <kernel_main+0x44>
    99a8:	e59f001c 	ldr	r0, [pc, #28]	; 99cc <kernel_main+0x48>
    99ac:	e7941003 	ldr	r1, [r4, r3]
    99b0:	e08f0000 	add	r0, pc, r0
    99b4:	eb000014 	bl	9a0c <printf>
    99b8:	ebffffed 	bl	9974 <usb_initialise>
    99bc:	eafffffe 	b	99bc <kernel_main+0x38>
    99c0:	00001ac8 	andeq	r1, r0, r8, asr #21
    99c4:	00002668 	andeq	r2, r0, r8, ror #12
    99c8:	0000000c 	andeq	r0, r0, ip
    99cc:	00001ae8 	andeq	r1, r0, r8, ror #21

000099d0 <memcpy>:
    99d0:	e3520000 	cmp	r2, #0
    99d4:	012fff1e 	bxeq	lr
    99d8:	e2403001 	sub	r3, r0, #1
    99dc:	e0812002 	add	r2, r1, r2
    99e0:	e4d1c001 	ldrb	ip, [r1], #1
    99e4:	e1510002 	cmp	r1, r2
    99e8:	e5e3c001 	strb	ip, [r3, #1]!
    99ec:	1afffffb 	bne	99e0 <memcpy+0x10>
    99f0:	e12fff1e 	bx	lr

000099f4 <fputc>:
    99f4:	e92d4010 	push	{r4, lr}
    99f8:	e20000ff 	and	r0, r0, #255	; 0xff
    99fc:	ebfffe29 	bl	92a8 <uart_putc>
    9a00:	e3a00001 	mov	r0, #1
    9a04:	e8bd4010 	pop	{r4, lr}
    9a08:	e12fff1e 	bx	lr

00009a0c <printf>:
    9a0c:	e92d000f 	push	{r0, r1, r2, r3}
    9a10:	e52de004 	push	{lr}		; (str lr, [sp, #-4]!)
    9a14:	e24dd00c 	sub	sp, sp, #12
    9a18:	e28dc014 	add	ip, sp, #20
    9a1c:	e1a0100c 	mov	r1, ip
    9a20:	e3a03001 	mov	r3, #1
    9a24:	e59f2018 	ldr	r2, [pc, #24]	; 9a44 <printf+0x38>
    9a28:	e59d0010 	ldr	r0, [sp, #16]
    9a2c:	e58dc004 	str	ip, [sp, #4]
    9a30:	eb000004 	bl	9a48 <_doprnt>
    9a34:	e28dd00c 	add	sp, sp, #12
    9a38:	e49de004 	pop	{lr}		; (ldr lr, [sp], #4)
    9a3c:	e28dd010 	add	sp, sp, #16
    9a40:	e12fff1e 	bx	lr
    9a44:	000099f4 	strdeq	r9, [r0], -r4

00009a48 <_doprnt>:
    9a48:	e92d4ff0 	push	{r4, r5, r6, r7, r8, r9, sl, fp, lr}
    9a4c:	e3a0b000 	mov	fp, #0
    9a50:	e1a07002 	mov	r7, r2
    9a54:	e1a0a003 	mov	sl, r3
    9a58:	e24dd074 	sub	sp, sp, #116	; 0x74
    9a5c:	e58d0004 	str	r0, [sp, #4]
    9a60:	e58d1010 	str	r1, [sp, #16]
    9a64:	e59d3004 	ldr	r3, [sp, #4]
    9a68:	e5d30000 	ldrb	r0, [r3]
    9a6c:	e3500000 	cmp	r0, #0
    9a70:	0a0001ac 	beq	a128 <_doprnt+0x6e0>
    9a74:	e3500025 	cmp	r0, #37	; 0x25
    9a78:	1a000014 	bne	9ad0 <_doprnt+0x88>
    9a7c:	e59d3004 	ldr	r3, [sp, #4]
    9a80:	e5d30001 	ldrb	r0, [r3, #1]
    9a84:	e3500025 	cmp	r0, #37	; 0x25
    9a88:	e2833001 	add	r3, r3, #1
    9a8c:	0a0000aa 	beq	9d3c <_doprnt+0x2f4>
    9a90:	e3a02020 	mov	r2, #32
    9a94:	e58d2008 	str	r2, [sp, #8]
    9a98:	e3a02000 	mov	r2, #0
    9a9c:	e350002d 	cmp	r0, #45	; 0x2d
    9aa0:	e58d200c 	str	r2, [sp, #12]
    9aa4:	0a000005 	beq	9ac0 <_doprnt+0x78>
    9aa8:	e3500030 	cmp	r0, #48	; 0x30
    9aac:	1a000011 	bne	9af8 <_doprnt+0xb0>
    9ab0:	e58d0008 	str	r0, [sp, #8]
    9ab4:	e5f30001 	ldrb	r0, [r3, #1]!
    9ab8:	e350002d 	cmp	r0, #45	; 0x2d
    9abc:	1afffff9 	bne	9aa8 <_doprnt+0x60>
    9ac0:	e3a02001 	mov	r2, #1
    9ac4:	e58d200c 	str	r2, [sp, #12]
    9ac8:	eafffff9 	b	9ab4 <_doprnt+0x6c>
    9acc:	e3a00025 	mov	r0, #37	; 0x25
    9ad0:	e1a0100a 	mov	r1, sl
    9ad4:	e1a0e00f 	mov	lr, pc
    9ad8:	e12fff17 	bx	r7
    9adc:	e3700001 	cmn	r0, #1
    9ae0:	0a000091 	beq	9d2c <_doprnt+0x2e4>
    9ae4:	e59d3004 	ldr	r3, [sp, #4]
    9ae8:	e2833001 	add	r3, r3, #1
    9aec:	e28bb001 	add	fp, fp, #1
    9af0:	e58d3004 	str	r3, [sp, #4]
    9af4:	eaffffda 	b	9a64 <_doprnt+0x1c>
    9af8:	e350002a 	cmp	r0, #42	; 0x2a
    9afc:	0a000090 	beq	9d44 <_doprnt+0x2fc>
    9b00:	e2402030 	sub	r2, r0, #48	; 0x30
    9b04:	e20210ff 	and	r1, r2, #255	; 0xff
    9b08:	e3510009 	cmp	r1, #9
    9b0c:	e3a05000 	mov	r5, #0
    9b10:	8a000006 	bhi	9b30 <_doprnt+0xe8>
    9b14:	e5f30001 	ldrb	r0, [r3, #1]!
    9b18:	e0855105 	add	r5, r5, r5, lsl #2
    9b1c:	e0825085 	add	r5, r2, r5, lsl #1
    9b20:	e2402030 	sub	r2, r0, #48	; 0x30
    9b24:	e20210ff 	and	r1, r2, #255	; 0xff
    9b28:	e3510009 	cmp	r1, #9
    9b2c:	9afffff8 	bls	9b14 <_doprnt+0xcc>
    9b30:	e59d100c 	ldr	r1, [sp, #12]
    9b34:	e3510000 	cmp	r1, #0
    9b38:	e59d2008 	ldr	r2, [sp, #8]
    9b3c:	13a02020 	movne	r2, #32
    9b40:	e350002e 	cmp	r0, #46	; 0x2e
    9b44:	e58d2008 	str	r2, [sp, #8]
    9b48:	13e08000 	mvnne	r8, #0
    9b4c:	0a00008a 	beq	9d7c <_doprnt+0x334>
    9b50:	e350006c 	cmp	r0, #108	; 0x6c
    9b54:	0a000085 	beq	9d70 <_doprnt+0x328>
    9b58:	e3500068 	cmp	r0, #104	; 0x68
    9b5c:	0a000097 	beq	9dc0 <_doprnt+0x378>
    9b60:	e2400058 	sub	r0, r0, #88	; 0x58
    9b64:	e3500020 	cmp	r0, #32
    9b68:	979ff100 	ldrls	pc, [pc, r0, lsl #2]
    9b6c:	eaffffd6 	b	9acc <_doprnt+0x84>
    9b70:	00009ef0 	strdeq	r9, [r0], -r0
    9b74:	00009acc 	andeq	r9, r0, ip, asr #21
    9b78:	00009acc 	andeq	r9, r0, ip, asr #21
    9b7c:	00009acc 	andeq	r9, r0, ip, asr #21
    9b80:	00009acc 	andeq	r9, r0, ip, asr #21
    9b84:	00009acc 	andeq	r9, r0, ip, asr #21
    9b88:	00009acc 	andeq	r9, r0, ip, asr #21
    9b8c:	00009acc 	andeq	r9, r0, ip, asr #21
    9b90:	00009acc 	andeq	r9, r0, ip, asr #21
    9b94:	00009acc 	andeq	r9, r0, ip, asr #21
    9b98:	00009f04 	andeq	r9, r0, r4, lsl #30
    9b9c:	00009f18 	andeq	r9, r0, r8, lsl pc
    9ba0:	00009f3c 	andeq	r9, r0, ip, lsr pc
    9ba4:	00009acc 	andeq	r9, r0, ip, asr #21
    9ba8:	00009acc 	andeq	r9, r0, ip, asr #21
    9bac:	00009acc 	andeq	r9, r0, ip, asr #21
    9bb0:	00009acc 	andeq	r9, r0, ip, asr #21
    9bb4:	00009acc 	andeq	r9, r0, ip, asr #21
    9bb8:	00009acc 	andeq	r9, r0, ip, asr #21
    9bbc:	00009acc 	andeq	r9, r0, ip, asr #21
    9bc0:	00009acc 	andeq	r9, r0, ip, asr #21
    9bc4:	00009acc 	andeq	r9, r0, ip, asr #21
    9bc8:	00009acc 	andeq	r9, r0, ip, asr #21
    9bcc:	00009bf4 	strdeq	r9, [r0], -r4
    9bd0:	00009acc 	andeq	r9, r0, ip, asr #21
    9bd4:	00009acc 	andeq	r9, r0, ip, asr #21
    9bd8:	00009acc 	andeq	r9, r0, ip, asr #21
    9bdc:	00009dd8 	ldrdeq	r9, [r0], -r8
    9be0:	00009acc 	andeq	r9, r0, ip, asr #21
    9be4:	00009ec8 	andeq	r9, r0, r8, asr #29
    9be8:	00009acc 	andeq	r9, r0, ip, asr #21
    9bec:	00009acc 	andeq	r9, r0, ip, asr #21
    9bf0:	00009edc 	ldrdeq	r9, [r0], -ip
    9bf4:	e3a00008 	mov	r0, #8
    9bf8:	e3a01003 	mov	r1, #3
    9bfc:	e3a06000 	mov	r6, #0
    9c00:	e58d001c 	str	r0, [sp, #28]
    9c04:	e59d2010 	ldr	r2, [sp, #16]
    9c08:	e5924000 	ldr	r4, [r2]
    9c0c:	e282e004 	add	lr, r2, #4
    9c10:	e59f2574 	ldr	r2, [pc, #1396]	; a18c <_doprnt+0x744>
    9c14:	e3560000 	cmp	r6, #0
    9c18:	e2833001 	add	r3, r3, #1
    9c1c:	e2420010 	sub	r0, r2, #16
    9c20:	11a02000 	movne	r2, r0
    9c24:	e58d3004 	str	r3, [sp, #4]
    9c28:	e3a03000 	mov	r3, #0
    9c2c:	e3510000 	cmp	r1, #0
    9c30:	e1a06002 	mov	r6, r2
    9c34:	e5cd304c 	strb	r3, [sp, #76]	; 0x4c
    9c38:	0a000148 	beq	a160 <_doprnt+0x718>
    9c3c:	e3a03001 	mov	r3, #1
    9c40:	e1a0c113 	lsl	ip, r3, r1
    9c44:	e24cc001 	sub	ip, ip, #1
    9c48:	e00c3004 	and	r3, ip, r4
    9c4c:	e7d29003 	ldrb	r9, [r2, r3]
    9c50:	e1b02134 	lsrs	r2, r4, r1
    9c54:	e5cd904d 	strb	r9, [sp, #77]	; 0x4d
    9c58:	0a000146 	beq	a178 <_doprnt+0x730>
    9c5c:	e3a04001 	mov	r4, #1
    9c60:	e28d004d 	add	r0, sp, #77	; 0x4d
    9c64:	e00c3002 	and	r3, ip, r2
    9c68:	e7d69003 	ldrb	r9, [r6, r3]
    9c6c:	e1b02132 	lsrs	r2, r2, r1
    9c70:	e2844001 	add	r4, r4, #1
    9c74:	e5e09001 	strb	r9, [r0, #1]!
    9c78:	1afffff9 	bne	9c64 <_doprnt+0x21c>
    9c7c:	e58d2014 	str	r2, [sp, #20]
    9c80:	e58de010 	str	lr, [sp, #16]
    9c84:	e58d2018 	str	r2, [sp, #24]
    9c88:	e28d104c 	add	r1, sp, #76	; 0x4c
    9c8c:	e0814004 	add	r4, r1, r4
    9c90:	e28d2027 	add	r2, sp, #39	; 0x27
    9c94:	ea000000 	b	9c9c <_doprnt+0x254>
    9c98:	e5749001 	ldrb	r9, [r4, #-1]!
    9c9c:	e1540001 	cmp	r4, r1
    9ca0:	e5e29001 	strb	r9, [r2, #1]!
    9ca4:	1afffffb 	bne	9c98 <_doprnt+0x250>
    9ca8:	e28d0028 	add	r0, sp, #40	; 0x28
    9cac:	eb000138 	bl	a194 <strlen>
    9cb0:	e3580000 	cmp	r8, #0
    9cb4:	e1a06000 	mov	r6, r0
    9cb8:	ba0000ec 	blt	a070 <_doprnt+0x628>
    9cbc:	e1580000 	cmp	r8, r0
    9cc0:	c0608008 	rsbgt	r8, r0, r8
    9cc4:	d3a08000 	movle	r8, #0
    9cc8:	e59d3014 	ldr	r3, [sp, #20]
    9ccc:	e0864008 	add	r4, r6, r8
    9cd0:	e0844003 	add	r4, r4, r3
    9cd4:	e1550004 	cmp	r5, r4
    9cd8:	e28d9028 	add	r9, sp, #40	; 0x28
    9cdc:	ca0000fe 	bgt	a0dc <_doprnt+0x694>
    9ce0:	e3a03020 	mov	r3, #32
    9ce4:	e3a05000 	mov	r5, #0
    9ce8:	e58d3008 	str	r3, [sp, #8]
    9cec:	e59d3018 	ldr	r3, [sp, #24]
    9cf0:	e3530000 	cmp	r3, #0
    9cf4:	1a0000d5 	bne	a050 <_doprnt+0x608>
    9cf8:	e3580000 	cmp	r8, #0
    9cfc:	0a0000c3 	beq	a010 <_doprnt+0x5c8>
    9d00:	e088800b 	add	r8, r8, fp
    9d04:	ea000001 	b	9d10 <_doprnt+0x2c8>
    9d08:	e15b0008 	cmp	fp, r8
    9d0c:	0a0000c0 	beq	a014 <_doprnt+0x5cc>
    9d10:	e1a0100a 	mov	r1, sl
    9d14:	e3a00030 	mov	r0, #48	; 0x30
    9d18:	e1a0e00f 	mov	lr, pc
    9d1c:	e12fff17 	bx	r7
    9d20:	e3700001 	cmn	r0, #1
    9d24:	e28bb001 	add	fp, fp, #1
    9d28:	1afffff6 	bne	9d08 <_doprnt+0x2c0>
    9d2c:	e3e00000 	mvn	r0, #0
    9d30:	e28dd074 	add	sp, sp, #116	; 0x74
    9d34:	e8bd4ff0 	pop	{r4, r5, r6, r7, r8, r9, sl, fp, lr}
    9d38:	e12fff1e 	bx	lr
    9d3c:	e58d3004 	str	r3, [sp, #4]
    9d40:	eaffff62 	b	9ad0 <_doprnt+0x88>
    9d44:	e59d2010 	ldr	r2, [sp, #16]
    9d48:	e5925000 	ldr	r5, [r2]
    9d4c:	e3550000 	cmp	r5, #0
    9d50:	b3a01001 	movlt	r1, #1
    9d54:	e2822004 	add	r2, r2, #4
    9d58:	e5d30001 	ldrb	r0, [r3, #1]
    9d5c:	b58d100c 	strlt	r1, [sp, #12]
    9d60:	b2655000 	rsblt	r5, r5, #0
    9d64:	e58d2010 	str	r2, [sp, #16]
    9d68:	e2833001 	add	r3, r3, #1
    9d6c:	eaffff6f 	b	9b30 <_doprnt+0xe8>
    9d70:	e5d30001 	ldrb	r0, [r3, #1]
    9d74:	e2833001 	add	r3, r3, #1
    9d78:	eaffff78 	b	9b60 <_doprnt+0x118>
    9d7c:	e5d30001 	ldrb	r0, [r3, #1]
    9d80:	e350002a 	cmp	r0, #42	; 0x2a
    9d84:	0a0000d8 	beq	a0ec <_doprnt+0x6a4>
    9d88:	e2402030 	sub	r2, r0, #48	; 0x30
    9d8c:	e20210ff 	and	r1, r2, #255	; 0xff
    9d90:	e3510009 	cmp	r1, #9
    9d94:	e3a08000 	mov	r8, #0
    9d98:	e2833001 	add	r3, r3, #1
    9d9c:	8affff6b 	bhi	9b50 <_doprnt+0x108>
    9da0:	e5f30001 	ldrb	r0, [r3, #1]!
    9da4:	e0888108 	add	r8, r8, r8, lsl #2
    9da8:	e0828088 	add	r8, r2, r8, lsl #1
    9dac:	e2402030 	sub	r2, r0, #48	; 0x30
    9db0:	e20210ff 	and	r1, r2, #255	; 0xff
    9db4:	e3510009 	cmp	r1, #9
    9db8:	9afffff8 	bls	9da0 <_doprnt+0x358>
    9dbc:	eaffff63 	b	9b50 <_doprnt+0x108>
    9dc0:	e5d30001 	ldrb	r0, [r3, #1]
    9dc4:	e3500068 	cmp	r0, #104	; 0x68
    9dc8:	05d30002 	ldrbeq	r0, [r3, #2]
    9dcc:	12833001 	addne	r3, r3, #1
    9dd0:	02833002 	addeq	r3, r3, #2
    9dd4:	eaffff61 	b	9b60 <_doprnt+0x118>
    9dd8:	e59d2010 	ldr	r2, [sp, #16]
    9ddc:	e5929000 	ldr	r9, [r2]
    9de0:	e2822004 	add	r2, r2, #4
    9de4:	e3590000 	cmp	r9, #0
    9de8:	e58d2010 	str	r2, [sp, #16]
    9dec:	0a0000df 	beq	a170 <_doprnt+0x728>
    9df0:	e2833001 	add	r3, r3, #1
    9df4:	e1a00009 	mov	r0, r9
    9df8:	e58d3004 	str	r3, [sp, #4]
    9dfc:	eb0000e4 	bl	a194 <strlen>
    9e00:	e3a03000 	mov	r3, #0
    9e04:	e3580000 	cmp	r8, #0
    9e08:	e1a06000 	mov	r6, r0
    9e0c:	e1a02003 	mov	r2, r3
    9e10:	e58d3014 	str	r3, [sp, #20]
    9e14:	ba0000bb 	blt	a108 <_doprnt+0x6c0>
    9e18:	e59d300c 	ldr	r3, [sp, #12]
    9e1c:	e58d2018 	str	r2, [sp, #24]
    9e20:	e59d2008 	ldr	r2, [sp, #8]
    9e24:	e1560008 	cmp	r6, r8
    9e28:	e2233001 	eor	r3, r3, #1
    9e2c:	a1a06008 	movge	r6, r8
    9e30:	e3520030 	cmp	r2, #48	; 0x30
    9e34:	13a03000 	movne	r3, #0
    9e38:	02033001 	andeq	r3, r3, #1
    9e3c:	e3a08000 	mov	r8, #0
    9e40:	e59d2014 	ldr	r2, [sp, #20]
    9e44:	e0864002 	add	r4, r6, r2
    9e48:	e1550004 	cmp	r5, r4
    9e4c:	d1a05008 	movle	r5, r8
    9e50:	da000000 	ble	9e58 <_doprnt+0x410>
    9e54:	e0645005 	rsb	r5, r4, r5
    9e58:	e3530000 	cmp	r3, #0
    9e5c:	11a08005 	movne	r8, r5
    9e60:	13a05000 	movne	r5, #0
    9e64:	1affffa0 	bne	9cec <_doprnt+0x2a4>
    9e68:	e59d300c 	ldr	r3, [sp, #12]
    9e6c:	e3530000 	cmp	r3, #0
    9e70:	1affff9d 	bne	9cec <_doprnt+0x2a4>
    9e74:	e3550000 	cmp	r5, #0
    9e78:	0affff9b 	beq	9cec <_doprnt+0x2a4>
    9e7c:	e085400b 	add	r4, r5, fp
    9e80:	e58d6014 	str	r6, [sp, #20]
    9e84:	e1a0600b 	mov	r6, fp
    9e88:	e1a0b009 	mov	fp, r9
    9e8c:	e1a09008 	mov	r9, r8
    9e90:	e1a08005 	mov	r8, r5
    9e94:	e1a05004 	mov	r5, r4
    9e98:	e59d4008 	ldr	r4, [sp, #8]
    9e9c:	ea000001 	b	9ea8 <_doprnt+0x460>
    9ea0:	e1560005 	cmp	r6, r5
    9ea4:	0a0000a1 	beq	a130 <_doprnt+0x6e8>
    9ea8:	e1a0100a 	mov	r1, sl
    9eac:	e1a00004 	mov	r0, r4
    9eb0:	e1a0e00f 	mov	lr, pc
    9eb4:	e12fff17 	bx	r7
    9eb8:	e3700001 	cmn	r0, #1
    9ebc:	e2866001 	add	r6, r6, #1
    9ec0:	1afffff6 	bne	9ea0 <_doprnt+0x458>
    9ec4:	eaffff98 	b	9d2c <_doprnt+0x2e4>
    9ec8:	e3a01000 	mov	r1, #0
    9ecc:	e3a0000a 	mov	r0, #10
    9ed0:	e1a06001 	mov	r6, r1
    9ed4:	e58d001c 	str	r0, [sp, #28]
    9ed8:	eaffff49 	b	9c04 <_doprnt+0x1bc>
    9edc:	e3a00010 	mov	r0, #16
    9ee0:	e3a01004 	mov	r1, #4
    9ee4:	e58d001c 	str	r0, [sp, #28]
    9ee8:	e3a06000 	mov	r6, #0
    9eec:	eaffff44 	b	9c04 <_doprnt+0x1bc>
    9ef0:	e3a00010 	mov	r0, #16
    9ef4:	e3a01004 	mov	r1, #4
    9ef8:	e58d001c 	str	r0, [sp, #28]
    9efc:	e3a06001 	mov	r6, #1
    9f00:	eaffff3f 	b	9c04 <_doprnt+0x1bc>
    9f04:	e3a00002 	mov	r0, #2
    9f08:	e3a01001 	mov	r1, #1
    9f0c:	e58d001c 	str	r0, [sp, #28]
    9f10:	e3a06000 	mov	r6, #0
    9f14:	eaffff3a 	b	9c04 <_doprnt+0x1bc>
    9f18:	e3a00000 	mov	r0, #0
    9f1c:	e59d1010 	ldr	r1, [sp, #16]
    9f20:	e5912000 	ldr	r2, [r1]
    9f24:	e5cd2028 	strb	r2, [sp, #40]	; 0x28
    9f28:	e2812004 	add	r2, r1, #4
    9f2c:	e5cd0029 	strb	r0, [sp, #41]	; 0x29
    9f30:	e58d2010 	str	r2, [sp, #16]
    9f34:	e28d9028 	add	r9, sp, #40	; 0x28
    9f38:	eaffffac 	b	9df0 <_doprnt+0x3a8>
    9f3c:	e59d2010 	ldr	r2, [sp, #16]
    9f40:	e5924000 	ldr	r4, [r2]
    9f44:	e2822004 	add	r2, r2, #4
    9f48:	e3540000 	cmp	r4, #0
    9f4c:	e58d2010 	str	r2, [sp, #16]
    9f50:	a3a02000 	movge	r2, #0
    9f54:	a58d2014 	strge	r2, [sp, #20]
    9f58:	a58d2018 	strge	r2, [sp, #24]
    9f5c:	ba000079 	blt	a148 <_doprnt+0x700>
    9f60:	e2833001 	add	r3, r3, #1
    9f64:	e58d3004 	str	r3, [sp, #4]
    9f68:	e3a03000 	mov	r3, #0
    9f6c:	e5cd304c 	strb	r3, [sp, #76]	; 0x4c
    9f70:	e3a0300a 	mov	r3, #10
    9f74:	e59f6210 	ldr	r6, [pc, #528]	; a18c <_doprnt+0x744>
    9f78:	e58d301c 	str	r3, [sp, #28]
    9f7c:	e1a00004 	mov	r0, r4
    9f80:	e59d101c 	ldr	r1, [sp, #28]
    9f84:	eb0000cb 	bl	a2b8 <__aeabi_uidivmod>
    9f88:	e7d69001 	ldrb	r9, [r6, r1]
    9f8c:	e1a00004 	mov	r0, r4
    9f90:	e59d101c 	ldr	r1, [sp, #28]
    9f94:	e5cd904d 	strb	r9, [sp, #77]	; 0x4d
    9f98:	eb000089 	bl	a1c4 <__aeabi_uidiv>
    9f9c:	e2502000 	subs	r2, r0, #0
    9fa0:	e3a04001 	mov	r4, #1
    9fa4:	0affff37 	beq	9c88 <_doprnt+0x240>
    9fa8:	e28d304d 	add	r3, sp, #77	; 0x4d
    9fac:	e58db020 	str	fp, [sp, #32]
    9fb0:	e1a09003 	mov	r9, r3
    9fb4:	e1a0b002 	mov	fp, r2
    9fb8:	e58d5024 	str	r5, [sp, #36]	; 0x24
    9fbc:	e1a05004 	mov	r5, r4
    9fc0:	e1a04006 	mov	r4, r6
    9fc4:	e59d601c 	ldr	r6, [sp, #28]
    9fc8:	e58d701c 	str	r7, [sp, #28]
    9fcc:	e1a0000b 	mov	r0, fp
    9fd0:	e1a01006 	mov	r1, r6
    9fd4:	eb0000b7 	bl	a2b8 <__aeabi_uidivmod>
    9fd8:	e7d47001 	ldrb	r7, [r4, r1]
    9fdc:	e1a0000b 	mov	r0, fp
    9fe0:	e1a01006 	mov	r1, r6
    9fe4:	e5e97001 	strb	r7, [r9, #1]!
    9fe8:	eb000075 	bl	a1c4 <__aeabi_uidiv>
    9fec:	e250b000 	subs	fp, r0, #0
    9ff0:	e2855001 	add	r5, r5, #1
    9ff4:	1afffff4 	bne	9fcc <_doprnt+0x584>
    9ff8:	e1a04005 	mov	r4, r5
    9ffc:	e1a09007 	mov	r9, r7
    a000:	e59db020 	ldr	fp, [sp, #32]
    a004:	e59d5024 	ldr	r5, [sp, #36]	; 0x24
    a008:	e59d701c 	ldr	r7, [sp, #28]
    a00c:	eaffff1d 	b	9c88 <_doprnt+0x240>
    a010:	e1a0800b 	mov	r8, fp
    a014:	e3560000 	cmp	r6, #0
    a018:	da00001c 	ble	a090 <_doprnt+0x648>
    a01c:	e2499001 	sub	r9, r9, #1
    a020:	e086b008 	add	fp, r6, r8
    a024:	ea000001 	b	a030 <_doprnt+0x5e8>
    a028:	e158000b 	cmp	r8, fp
    a02c:	0a000018 	beq	a094 <_doprnt+0x64c>
    a030:	e1a0100a 	mov	r1, sl
    a034:	e5f90001 	ldrb	r0, [r9, #1]!
    a038:	e1a0e00f 	mov	lr, pc
    a03c:	e12fff17 	bx	r7
    a040:	e3700001 	cmn	r0, #1
    a044:	e2888001 	add	r8, r8, #1
    a048:	1afffff6 	bne	a028 <_doprnt+0x5e0>
    a04c:	eaffff36 	b	9d2c <_doprnt+0x2e4>
    a050:	e1a00003 	mov	r0, r3
    a054:	e1a0100a 	mov	r1, sl
    a058:	e1a0e00f 	mov	lr, pc
    a05c:	e12fff17 	bx	r7
    a060:	e3700001 	cmn	r0, #1
    a064:	0affff30 	beq	9d2c <_doprnt+0x2e4>
    a068:	e28bb001 	add	fp, fp, #1
    a06c:	eaffff21 	b	9cf8 <_doprnt+0x2b0>
    a070:	e59d300c 	ldr	r3, [sp, #12]
    a074:	e59d2008 	ldr	r2, [sp, #8]
    a078:	e2233001 	eor	r3, r3, #1
    a07c:	e28d9028 	add	r9, sp, #40	; 0x28
    a080:	e3520030 	cmp	r2, #48	; 0x30
    a084:	13a03000 	movne	r3, #0
    a088:	02033001 	andeq	r3, r3, #1
    a08c:	eaffff6a 	b	9e3c <_doprnt+0x3f4>
    a090:	e1a0b008 	mov	fp, r8
    a094:	e59d300c 	ldr	r3, [sp, #12]
    a098:	e3530000 	cmp	r3, #0
    a09c:	0afffe70 	beq	9a64 <_doprnt+0x1c>
    a0a0:	e3550000 	cmp	r5, #0
    a0a4:	0afffe6e 	beq	9a64 <_doprnt+0x1c>
    a0a8:	e085500b 	add	r5, r5, fp
    a0ac:	e59d4008 	ldr	r4, [sp, #8]
    a0b0:	ea000001 	b	a0bc <_doprnt+0x674>
    a0b4:	e15b0005 	cmp	fp, r5
    a0b8:	0afffe69 	beq	9a64 <_doprnt+0x1c>
    a0bc:	e1a0100a 	mov	r1, sl
    a0c0:	e1a00004 	mov	r0, r4
    a0c4:	e1a0e00f 	mov	lr, pc
    a0c8:	e12fff17 	bx	r7
    a0cc:	e3700001 	cmn	r0, #1
    a0d0:	e28bb001 	add	fp, fp, #1
    a0d4:	1afffff6 	bne	a0b4 <_doprnt+0x66c>
    a0d8:	eaffff13 	b	9d2c <_doprnt+0x2e4>
    a0dc:	e3a02020 	mov	r2, #32
    a0e0:	e3a03000 	mov	r3, #0
    a0e4:	e58d2008 	str	r2, [sp, #8]
    a0e8:	eaffff59 	b	9e54 <_doprnt+0x40c>
    a0ec:	e59d2010 	ldr	r2, [sp, #16]
    a0f0:	e5928000 	ldr	r8, [r2]
    a0f4:	e2822004 	add	r2, r2, #4
    a0f8:	e5d30002 	ldrb	r0, [r3, #2]
    a0fc:	e58d2010 	str	r2, [sp, #16]
    a100:	e2833002 	add	r3, r3, #2
    a104:	eafffe91 	b	9b50 <_doprnt+0x108>
    a108:	e59d300c 	ldr	r3, [sp, #12]
    a10c:	e58d2018 	str	r2, [sp, #24]
    a110:	e59d2008 	ldr	r2, [sp, #8]
    a114:	e2233001 	eor	r3, r3, #1
    a118:	e3520030 	cmp	r2, #48	; 0x30
    a11c:	13a03000 	movne	r3, #0
    a120:	02033001 	andeq	r3, r3, #1
    a124:	eaffff44 	b	9e3c <_doprnt+0x3f4>
    a128:	e1a0000b 	mov	r0, fp
    a12c:	eafffeff 	b	9d30 <_doprnt+0x2e8>
    a130:	e1a05008 	mov	r5, r8
    a134:	e1a08009 	mov	r8, r9
    a138:	e1a0900b 	mov	r9, fp
    a13c:	e1a0b006 	mov	fp, r6
    a140:	e59d6014 	ldr	r6, [sp, #20]
    a144:	eafffee8 	b	9cec <_doprnt+0x2a4>
    a148:	e3a02001 	mov	r2, #1
    a14c:	e58d2014 	str	r2, [sp, #20]
    a150:	e3a0202d 	mov	r2, #45	; 0x2d
    a154:	e2644000 	rsb	r4, r4, #0
    a158:	e58d2018 	str	r2, [sp, #24]
    a15c:	eaffff7f 	b	9f60 <_doprnt+0x518>
    a160:	e58d1014 	str	r1, [sp, #20]
    a164:	e58de010 	str	lr, [sp, #16]
    a168:	e58d1018 	str	r1, [sp, #24]
    a16c:	eaffff82 	b	9f7c <_doprnt+0x534>
    a170:	e59f9018 	ldr	r9, [pc, #24]	; a190 <_doprnt+0x748>
    a174:	eaffff1d 	b	9df0 <_doprnt+0x3a8>
    a178:	e58d2014 	str	r2, [sp, #20]
    a17c:	e58de010 	str	lr, [sp, #16]
    a180:	e58d2018 	str	r2, [sp, #24]
    a184:	e3a04001 	mov	r4, #1
    a188:	eafffebe 	b	9c88 <_doprnt+0x240>
    a18c:	0000b07c 	andeq	fp, r0, ip, ror r0
    a190:	0000b4b8 			; <UNDEFINED> instruction: 0x0000b4b8

0000a194 <strlen>:
    a194:	e5d03000 	ldrb	r3, [r0]
    a198:	e3530000 	cmp	r3, #0
    a19c:	0a000006 	beq	a1bc <strlen+0x28>
    a1a0:	e1a03000 	mov	r3, r0
    a1a4:	e3a00000 	mov	r0, #0
    a1a8:	e5f32001 	ldrb	r2, [r3, #1]!
    a1ac:	e3520000 	cmp	r2, #0
    a1b0:	e2800001 	add	r0, r0, #1
    a1b4:	1afffffb 	bne	a1a8 <strlen+0x14>
    a1b8:	e12fff1e 	bx	lr
    a1bc:	e1a00003 	mov	r0, r3
    a1c0:	e12fff1e 	bx	lr

0000a1c4 <__aeabi_uidiv>:
    a1c4:	e2512001 	subs	r2, r1, #1
    a1c8:	012fff1e 	bxeq	lr
    a1cc:	3a000036 	bcc	a2ac <__aeabi_uidiv+0xe8>
    a1d0:	e1500001 	cmp	r0, r1
    a1d4:	9a000022 	bls	a264 <__aeabi_uidiv+0xa0>
    a1d8:	e1110002 	tst	r1, r2
    a1dc:	0a000023 	beq	a270 <__aeabi_uidiv+0xac>
    a1e0:	e311020e 	tst	r1, #-536870912	; 0xe0000000
    a1e4:	01a01181 	lsleq	r1, r1, #3
    a1e8:	03a03008 	moveq	r3, #8
    a1ec:	13a03001 	movne	r3, #1
    a1f0:	e3510201 	cmp	r1, #268435456	; 0x10000000
    a1f4:	31510000 	cmpcc	r1, r0
    a1f8:	31a01201 	lslcc	r1, r1, #4
    a1fc:	31a03203 	lslcc	r3, r3, #4
    a200:	3afffffa 	bcc	a1f0 <__aeabi_uidiv+0x2c>
    a204:	e3510102 	cmp	r1, #-2147483648	; 0x80000000
    a208:	31510000 	cmpcc	r1, r0
    a20c:	31a01081 	lslcc	r1, r1, #1
    a210:	31a03083 	lslcc	r3, r3, #1
    a214:	3afffffa 	bcc	a204 <__aeabi_uidiv+0x40>
    a218:	e3a02000 	mov	r2, #0
    a21c:	e1500001 	cmp	r0, r1
    a220:	20400001 	subcs	r0, r0, r1
    a224:	21822003 	orrcs	r2, r2, r3
    a228:	e15000a1 	cmp	r0, r1, lsr #1
    a22c:	204000a1 	subcs	r0, r0, r1, lsr #1
    a230:	218220a3 	orrcs	r2, r2, r3, lsr #1
    a234:	e1500121 	cmp	r0, r1, lsr #2
    a238:	20400121 	subcs	r0, r0, r1, lsr #2
    a23c:	21822123 	orrcs	r2, r2, r3, lsr #2
    a240:	e15001a1 	cmp	r0, r1, lsr #3
    a244:	204001a1 	subcs	r0, r0, r1, lsr #3
    a248:	218221a3 	orrcs	r2, r2, r3, lsr #3
    a24c:	e3500000 	cmp	r0, #0
    a250:	11b03223 	lsrsne	r3, r3, #4
    a254:	11a01221 	lsrne	r1, r1, #4
    a258:	1affffef 	bne	a21c <__aeabi_uidiv+0x58>
    a25c:	e1a00002 	mov	r0, r2
    a260:	e12fff1e 	bx	lr
    a264:	03a00001 	moveq	r0, #1
    a268:	13a00000 	movne	r0, #0
    a26c:	e12fff1e 	bx	lr
    a270:	e3510801 	cmp	r1, #65536	; 0x10000
    a274:	21a01821 	lsrcs	r1, r1, #16
    a278:	23a02010 	movcs	r2, #16
    a27c:	33a02000 	movcc	r2, #0
    a280:	e3510c01 	cmp	r1, #256	; 0x100
    a284:	21a01421 	lsrcs	r1, r1, #8
    a288:	22822008 	addcs	r2, r2, #8
    a28c:	e3510010 	cmp	r1, #16
    a290:	21a01221 	lsrcs	r1, r1, #4
    a294:	22822004 	addcs	r2, r2, #4
    a298:	e3510004 	cmp	r1, #4
    a29c:	82822003 	addhi	r2, r2, #3
    a2a0:	908220a1 	addls	r2, r2, r1, lsr #1
    a2a4:	e1a00230 	lsr	r0, r0, r2
    a2a8:	e12fff1e 	bx	lr
    a2ac:	e3500000 	cmp	r0, #0
    a2b0:	13e00000 	mvnne	r0, #0
    a2b4:	ea000007 	b	a2d8 <__aeabi_idiv0>

0000a2b8 <__aeabi_uidivmod>:
    a2b8:	e3510000 	cmp	r1, #0
    a2bc:	0afffffa 	beq	a2ac <__aeabi_uidiv+0xe8>
    a2c0:	e92d4003 	push	{r0, r1, lr}
    a2c4:	ebffffbe 	bl	a1c4 <__aeabi_uidiv>
    a2c8:	e8bd4006 	pop	{r1, r2, lr}
    a2cc:	e0030092 	mul	r3, r2, r0
    a2d0:	e0411003 	sub	r1, r1, r3
    a2d4:	e12fff1e 	bx	lr

0000a2d8 <__aeabi_idiv0>:
    a2d8:	e12fff1e 	bx	lr

Disassembly of section .rodata:

0000b000 <__rodata_start>:
    b000:	6974200a 	ldmdbvs	r4!, {r1, r3, sp}^
    b004:	5f72656d 	svcpl	0x0072656d
    b008:	73676572 	cmnvc	r7, #478150656	; 0x1c800000
    b00c:	6f633e2d 	svcvs	0x00633e2d
    b010:	65746e75 	ldrbvs	r6, [r4, #-3701]!	; 0xfffff18b
    b014:	6f6c5f72 	svcvs	0x006c5f72
    b018:	25203a77 	strcs	r3, [r0, #-2679]!	; 0xfffff589
    b01c:	00000078 	andeq	r0, r0, r8, ror r0
    b020:	6974200a 	ldmdbvs	r4!, {r1, r3, sp}^
    b024:	5f72656d 	svcpl	0x0072656d
    b028:	73676572 	cmnvc	r7, #478150656	; 0x1c800000
    b02c:	6f633e2d 	svcvs	0x00633e2d
    b030:	65746e75 	ldrbvs	r6, [r4, #-3701]!	; 0xfffff18b
    b034:	69685f72 	stmdbvs	r8!, {r1, r4, r5, r6, r8, r9, sl, fp, ip, lr}^
    b038:	203a6867 	eorscs	r6, sl, r7, ror #16
    b03c:	00007825 	andeq	r7, r0, r5, lsr #16
    b040:	3436200a 	ldrtcc	r2, [r6], #-10
    b044:	74696220 	strbtvc	r6, [r9], #-544	; 0xfffffde0
    b048:	6c25203a 	stcvs	0, cr2, [r5], #-232	; 0xffffff18
    b04c:	00000078 	andeq	r0, r0, r8, ror r0
    b050:	656d6974 	strbvs	r6, [sp, #-2420]!	; 0xfffff68c
    b054:	65725f72 	ldrbvs	r5, [r2, #-3954]!	; 0xfffff08e
    b058:	253a7367 	ldrcs	r7, [sl, #-871]!	; 0xfffffc99
    b05c:	00000078 	andeq	r0, r0, r8, ror r0
    b060:	44434241 	strbmi	r4, [r3], #-577	; 0xfffffdbf
    b064:	5a474645 	bpl	11dc980 <__kernel_end+0x107a980>
    b068:	004b4a49 	subeq	r4, fp, r9, asr #20

0000b06c <digits_uc>:
    b06c:	33323130 	teqcc	r2, #48, 2
    b070:	37363534 			; <UNDEFINED> instruction: 0x37363534
    b074:	42413938 	submi	r3, r1, #56, 18	; 0xe0000
    b078:	46454443 	strbmi	r4, [r5], -r3, asr #8

0000b07c <digits_lc>:
    b07c:	33323130 	teqcc	r2, #48, 2
    b080:	37363534 			; <UNDEFINED> instruction: 0x37363534
    b084:	62613938 	rsbvs	r3, r1, #56, 18	; 0xe0000
    b088:	66656463 	strbtvs	r6, [r5], -r3, ror #8

Disassembly of section .rodata.str1.4:

0000b08c <.rodata.str1.4>:
    b08c:	524f4241 	subpl	r4, pc, #268435460	; 0x10000004
    b090:	4e492054 	mcrmi	0, 2, r2, cr9, cr4, {2}
    b094:	52524554 	subspl	r4, r2, #84, 10	; 0x15000000
    b098:	20545055 	subscs	r5, r4, r5, asr r0
    b09c:	5543434f 	strbpl	r4, [r3, #-847]	; 0xfffffcb1
    b0a0:	44455252 	strbmi	r5, [r5], #-594	; 0xfffffdae
    b0a4:	00000000 	andeq	r0, r0, r0
    b0a8:	65646e55 	strbvs	r6, [r4, #-3669]!	; 0xfffff1ab
    b0ac:	6e492066 	cdpvs	0, 4, cr2, cr9, cr6, {3}
    b0b0:	72726574 	rsbsvc	r6, r2, #116, 10	; 0x1d000000
    b0b4:	20747075 	rsbscs	r7, r4, r5, ror r0
    b0b8:	7563634f 	strbvc	r6, [r3, #-847]!	; 0xfffffcb1
    b0bc:	64657272 	strbtvs	r7, [r5], #-626	; 0xfffffd8e
    b0c0:	00000000 	andeq	r0, r0, r0
    b0c4:	74666f53 	strbtvc	r6, [r6], #-3923	; 0xfffff0ad
    b0c8:	65726177 	ldrbvs	r6, [r2, #-375]!	; 0xfffffe89
    b0cc:	746e4920 	strbtvc	r4, [lr], #-2336	; 0xfffff6e0
    b0d0:	75727265 	ldrbvc	r7, [r2, #-613]!	; 0xfffffd9b
    b0d4:	4f207470 	svcmi	0x00207470
    b0d8:	72756363 	rsbsvc	r6, r5, #-1946157055	; 0x8c000001
    b0dc:	00646572 	rsbeq	r6, r4, r2, ror r5
    b0e0:	66657270 			; <UNDEFINED> instruction: 0x66657270
    b0e4:	68637465 	stmdavs	r3!, {r0, r2, r5, r6, sl, ip, sp, lr}^
    b0e8:	6f62615f 	svcvs	0x0062615f
    b0ec:	765f7472 			; <UNDEFINED> instruction: 0x765f7472
    b0f0:	6f746365 	svcvs	0x00746365
    b0f4:	6e492072 	mcrvs	0, 2, r2, cr9, cr2, {3}
    b0f8:	72726574 	rsbsvc	r6, r2, #116, 10	; 0x1d000000
    b0fc:	20747075 	rsbscs	r7, r4, r5, ror r0
    b100:	7563634f 	strbvc	r6, [r3, #-847]!	; 0xfffffcb1
    b104:	64657272 	strbtvs	r7, [r5], #-626	; 0xfffffd8e
    b108:	00000000 	andeq	r0, r0, r0
    b10c:	61746164 	cmnvs	r4, r4, ror #2
    b110:	6f62615f 	svcvs	0x0062615f
    b114:	765f7472 			; <UNDEFINED> instruction: 0x765f7472
    b118:	6f746365 	svcvs	0x00746365
    b11c:	6e492072 	mcrvs	0, 2, r2, cr9, cr2, {3}
    b120:	72726574 	rsbsvc	r6, r2, #116, 10	; 0x1d000000
    b124:	20747075 	rsbscs	r7, r4, r5, ror r0
    b128:	7563634f 	strbvc	r6, [r3, #-847]!	; 0xfffffcb1
    b12c:	64657272 	strbtvs	r7, [r5], #-626	; 0xfffffd8e
    b130:	00000000 	andeq	r0, r0, r0
    b134:	74736166 	ldrbtvc	r6, [r3], #-358	; 0xfffffe9a
    b138:	746e695f 	strbtvc	r6, [lr], #-2399	; 0xfffff6a1
    b13c:	75727265 	ldrbvc	r7, [r2, #-613]!	; 0xfffffd9b
    b140:	765f7470 			; <UNDEFINED> instruction: 0x765f7470
    b144:	6f746365 	svcvs	0x00746365
    b148:	6e492072 	mcrvs	0, 2, r2, cr9, cr2, {3}
    b14c:	72726574 	rsbsvc	r6, r2, #116, 10	; 0x1d000000
    b150:	20747075 	rsbscs	r7, r4, r5, ror r0
    b154:	7563634f 	strbvc	r6, [r3, #-847]!	; 0xfffffcb1
    b158:	64657272 	strbtvs	r7, [r5], #-626	; 0xfffffd8e
    b15c:	00000000 	andeq	r0, r0, r0
    b160:	20515249 	subscs	r5, r1, r9, asr #4
    b164:	67697274 			; <UNDEFINED> instruction: 0x67697274
    b168:	65726567 	ldrbvs	r6, [r2, #-1383]!	; 0xfffffa99
    b16c:	00000064 	andeq	r0, r0, r4, rrx
    b170:	62616e45 	rsbvs	r6, r1, #1104	; 0x450
    b174:	676e696c 	strbvs	r6, [lr, -ip, ror #18]!
    b178:	554d4d20 	strbpl	r4, [sp, #-3360]	; 0xfffff2e0
    b17c:	00200a20 	eoreq	r0, r0, r0, lsr #20
    b180:	61746f54 	cmnvs	r4, r4, asr pc
    b184:	654d206c 	strbvs	r2, [sp, #-108]	; 0xffffff94
    b188:	6953206d 	ldmdbvs	r3, {r0, r2, r3, r5, r6, sp}^
    b18c:	203a657a 	eorscs	r6, sl, sl, ror r5
    b190:	42206425 	eormi	r6, r0, #620756992	; 0x25000000
    b194:	73657479 	cmnvc	r5, #2030043136	; 0x79000000
    b198:	00000a20 	andeq	r0, r0, r0, lsr #20
    b19c:	61746f54 	cmnvs	r4, r4, asr pc
    b1a0:	7641206c 	strbvc	r2, [r1], -ip, rrx
    b1a4:	616c6961 	cmnvs	ip, r1, ror #18
    b1a8:	20656c62 	rsbcs	r6, r5, r2, ror #24
    b1ac:	294b3428 	stmdbcs	fp, {r3, r5, sl, ip, sp}^
    b1b0:	67615020 	strbvs	r5, [r1, -r0, lsr #32]!
    b1b4:	72462065 	subvc	r2, r6, #101	; 0x65
    b1b8:	73656d61 	cmnvc	r5, #6208	; 0x1840
    b1bc:	6425203a 	strtvs	r2, [r5], #-58	; 0xffffffc6
    b1c0:	00000a20 	andeq	r0, r0, r0, lsr #20
    b1c4:	414d440a 	cmpmi	sp, sl, lsl #8
    b1c8:	71726920 	cmnvc	r2, r0, lsr #18
    b1cc:	656c6320 	strbvs	r6, [ip, #-800]!	; 0xfffffce0
    b1d0:	72657261 	rsbvc	r7, r5, #268435462	; 0x10000006
    b1d4:	6c616320 	stclvs	3, cr6, [r1], #-128	; 0xffffff80
    b1d8:	2e64656c 	cdpcs	5, 6, cr6, cr4, cr12, {3}
    b1dc:	6f685320 	svcvs	0x00685320
    b1e0:	20646c75 	rsbcs	r6, r4, r5, ror ip
    b1e4:	63206562 			; <UNDEFINED> instruction: 0x63206562
    b1e8:	656c6c61 	strbvs	r6, [ip, #-3169]!	; 0xfffff39f
    b1ec:	65622064 	strbvs	r2, [r2, #-100]!	; 0xffffff9c
    b1f0:	65726f66 	ldrbvs	r6, [r2, #-3942]!	; 0xfffff09a
    b1f4:	6e616820 	cdpvs	8, 6, cr6, cr1, cr0, {1}
    b1f8:	72656c64 	rsbvc	r6, r5, #100, 24	; 0x6400
    b1fc:	00000a20 	andeq	r0, r0, r0, lsr #20
    b200:	414d440a 	cmpmi	sp, sl, lsl #8
    b204:	71726920 	cmnvc	r2, r0, lsr #18
    b208:	6e616820 	cdpvs	8, 6, cr6, cr1, cr0, {1}
    b20c:	72656c64 	rsbvc	r6, r5, #100, 24	; 0x6400
    b210:	6c616320 	stclvs	3, cr6, [r1], #-128	; 0xffffff80
    b214:	2e64656c 	cdpcs	5, 6, cr6, cr4, cr12, {3}
    b218:	69685420 	stmdbvs	r8!, {r5, sl, ip, lr}^
    b21c:	68732073 	ldmdavs	r3!, {r0, r1, r4, r5, r6, sp}^
    b220:	646c756f 	strbtvs	r7, [ip], #-1391	; 0xfffffa91
    b224:	20656220 	rsbcs	r6, r5, r0, lsr #4
    b228:	6c6c6163 	stfvse	f6, [ip], #-396	; 0xfffffe74
    b22c:	61206465 			; <UNDEFINED> instruction: 0x61206465
    b230:	72657466 	rsbvc	r7, r5, #1711276032	; 0x66000000
    b234:	656c6320 	strbvs	r6, [ip, #-800]!	; 0xfffffce0
    b238:	72657261 	rsbvc	r7, r5, #268435462	; 0x10000006
    b23c:	000a202e 	andeq	r2, sl, lr, lsr #32
    b240:	2d2d200a 	stccs	0, cr2, [sp, #-40]!	; 0xffffffd8
    b244:	2d2d2d2d 	stccs	13, cr2, [sp, #-180]!	; 0xffffff4c
    b248:	2d2d2d2d 	stccs	13, cr2, [sp, #-180]!	; 0xffffff4c
    b24c:	2d2d2d2d 	stccs	13, cr2, [sp, #-180]!	; 0xffffff4c
    b250:	202d2d2d 	eorcs	r2, sp, sp, lsr #26
    b254:	0000000a 	andeq	r0, r0, sl
    b258:	6f666542 	svcvs	0x00666542
    b25c:	73206572 			; <UNDEFINED> instruction: 0x73206572
    b260:	69747465 	ldmdbvs	r4!, {r0, r2, r5, r6, sl, ip, sp, lr}^
    b264:	7320676e 			; <UNDEFINED> instruction: 0x7320676e
    b268:	6372756f 	cmnvs	r2, #465567744	; 0x1bc00000
    b26c:	64612065 	strbtvs	r2, [r1], #-101	; 0xffffff9b
    b270:	73657264 	cmnvc	r5, #100, 4	; 0x40000006
    b274:	000a2073 	andeq	r2, sl, r3, ror r0
    b278:	65746641 	ldrbvs	r6, [r4, #-1601]!	; 0xfffff9bf
    b27c:	65732072 	ldrbvs	r2, [r3, #-114]!	; 0xffffff8e
    b280:	6e697474 	mcrvs	4, 3, r7, cr9, cr4, {3}
    b284:	6f732067 	svcvs	0x00732067
    b288:	65637275 	strbvs	r7, [r3, #-629]!	; 0xfffffd8b
    b28c:	64646120 	strbtvs	r6, [r4], #-288	; 0xfffffee0
    b290:	73736572 	cmnvc	r3, #478150656	; 0x1c800000
    b294:	00000a20 	andeq	r0, r0, r0, lsr #20
    b298:	6f666542 	svcvs	0x00666542
    b29c:	63206572 			; <UNDEFINED> instruction: 0x63206572
    b2a0:	6979706f 	ldmdbvs	r9!, {r0, r1, r2, r3, r5, r6, ip, sp, lr}^
    b2a4:	6420676e 	strtvs	r6, [r0], #-1902	; 0xfffff892
    b2a8:	69747365 	ldmdbvs	r4!, {r0, r2, r5, r6, r8, r9, ip, sp, lr}^
    b2ac:	6974616e 	ldmdbvs	r4!, {r1, r2, r3, r5, r6, r8, sp, lr}^
    b2b0:	6c206e6f 	stcvs	14, cr6, [r0], #-444	; 0xfffffe44
    b2b4:	736b6f6f 	cmnvc	fp, #444	; 0x1bc
    b2b8:	656b696c 	strbvs	r6, [fp, #-2412]!	; 0xfffff694
    b2bc:	00000a20 	andeq	r0, r0, r0, lsr #20
    b2c0:	6263200a 	rsbvs	r2, r3, #10
    b2c4:	25203a31 	strcs	r3, [r0, #-2609]!	; 0xfffff5cf
    b2c8:	00000078 	andeq	r0, r0, r8, ror r0
    b2cc:	6263200a 	rsbvs	r2, r3, #10
    b2d0:	25203a32 	strcs	r3, [r0, #-2610]!	; 0xfffff5ce
    b2d4:	00000078 	andeq	r0, r0, r8, ror r0
    b2d8:	65746641 	ldrbvs	r6, [r4, #-1601]!	; 0xfffff9bf
    b2dc:	4d442072 	stclmi	0, cr2, [r4, #-456]	; 0xfffffe38
    b2e0:	65722041 	ldrbvs	r2, [r2, #-65]!	; 0xffffffbf
    b2e4:	20746573 	rsbscs	r6, r4, r3, ror r5
    b2e8:	0000000a 	andeq	r0, r0, sl
    b2ec:	65746641 	ldrbvs	r6, [r4, #-1601]!	; 0xfffff9bf
    b2f0:	4d442072 	stclmi	0, cr2, [r4, #-456]	; 0xfffffe38
    b2f4:	65642041 	strbvs	r2, [r4, #-65]!	; 0xffffffbf
    b2f8:	20677562 	rsbcs	r7, r7, r2, ror #10
    b2fc:	0000000a 	andeq	r0, r0, sl
    b300:	65746641 	ldrbvs	r6, [r4, #-1601]!	; 0xfffff9bf
    b304:	4d442072 	stclmi	0, cr2, [r4, #-456]	; 0xfffffe38
    b308:	64612041 	strbtvs	r2, [r1], #-65	; 0xffffffbf
    b30c:	73657264 	cmnvc	r5, #100, 4	; 0x40000006
    b310:	000a2073 	andeq	r2, sl, r3, ror r0
    b314:	65746641 	ldrbvs	r6, [r4, #-1601]!	; 0xfffff9bf
    b318:	4d442072 	stclmi	0, cr2, [r4, #-456]	; 0xfffffe38
    b31c:	63612041 	cmnvs	r1, #65	; 0x41
    b320:	61766974 	cmnvs	r6, r4, ror r9
    b324:	0a206574 	beq	8248fc <__kernel_end+0x6c28fc>
    b328:	00000000 	andeq	r0, r0, r0
    b32c:	65746641 	ldrbvs	r6, [r4, #-1601]!	; 0xfffff9bf
    b330:	4d442072 	stclmi	0, cr2, [r4, #-456]	; 0xfffffe38
    b334:	706f2041 	rsbvc	r2, pc, r1, asr #32
    b338:	000a2073 	andeq	r2, sl, r3, ror r0
    b33c:	65746641 	ldrbvs	r6, [r4, #-1601]!	; 0xfffff9bf
    b340:	4d442072 	stclmi	0, cr2, [r4, #-456]	; 0xfffffe38
    b344:	65642041 	strbvs	r2, [r4, #-65]!	; 0xffffffbf
    b348:	6e697473 	mcrvs	4, 3, r7, cr9, cr3, {3}
    b34c:	6f697461 	svcvs	0x00697461
    b350:	6f6c206e 	svcvs	0x006c206e
    b354:	6c736b6f 	ldclvs	11, cr6, [r3], #-444	; 0xfffffe44
    b358:	20656b69 	rsbcs	r6, r5, r9, ror #22
    b35c:	0000000a 	andeq	r0, r0, sl
    b360:	6564200a 	strbvs	r2, [r4, #-10]!
    b364:	65636976 	strbvs	r6, [r3, #-2422]!	; 0xfffff68a
    b368:	3a646920 	bcc	19257f0 <__kernel_end+0x17c37f0>
    b36c:	00782520 	rsbseq	r2, r8, r0, lsr #10
    b370:	6564200a 	strbvs	r2, [r4, #-10]!
    b374:	65636976 	strbvs	r6, [r3, #-2422]!	; 0xfffff68a
    b378:	61747320 	cmnvs	r4, r0, lsr #6
    b37c:	203a6574 	eorscs	r6, sl, r4, ror r5
    b380:	00007825 	andeq	r7, r0, r5, lsr #16
    b384:	6f48200a 	svcvs	0x0048200a
    b388:	63207473 			; <UNDEFINED> instruction: 0x63207473
    b38c:	72746e6f 	rsbsvc	r6, r4, #1776	; 0x6f0
    b390:	656c6c6f 	strbvs	r6, [ip, #-3183]!	; 0xfffff391
    b394:	69772072 	ldmdbvs	r7!, {r1, r4, r5, r6, sp}^
    b398:	65206874 	strvs	r6, [r0, #-2164]!	; 0xfffff78c
    b39c:	63657078 	cmnvs	r5, #120	; 0x78
    b3a0:	20646574 	rsbcs	r6, r4, r4, ror r5
    b3a4:	646e6576 	strbtvs	r6, [lr], #-1398	; 0xfffffa8a
    b3a8:	6920726f 	stmdbvs	r0!, {r0, r1, r2, r3, r5, r6, r9, ip, sp, lr}
    b3ac:	6f6e2064 	svcvs	0x006e2064
    b3b0:	6f662074 	svcvs	0x00662074
    b3b4:	2e646e75 	mcrcs	14, 3, r6, cr4, cr5, {3}
    b3b8:	6e657620 	cdpvs	6, 6, cr7, cr5, cr0, {1}
    b3bc:	5f726f64 	svcpl	0x00726f64
    b3c0:	203a6469 	eorscs	r6, sl, r9, ror #8
    b3c4:	00207825 	eoreq	r7, r0, r5, lsr #16
    b3c8:	6f48200a 	svcvs	0x0048200a
    b3cc:	63207473 			; <UNDEFINED> instruction: 0x63207473
    b3d0:	72746e6f 	rsbsvc	r6, r4, #1776	; 0x6f0
    b3d4:	656c6c6f 	strbvs	r6, [ip, #-3183]!	; 0xfffff391
    b3d8:	69772072 	ldmdbvs	r7!, {r1, r4, r5, r6, sp}^
    b3dc:	65206874 	strvs	r6, [r0, #-2164]!	; 0xfffff78c
    b3e0:	63657078 	cmnvs	r5, #120	; 0x78
    b3e4:	20646574 	rsbcs	r6, r4, r4, ror r5
    b3e8:	72657375 	rsbvc	r7, r5, #-738197503	; 0xd4000001
    b3ec:	20646920 	rsbcs	r6, r4, r0, lsr #18
    b3f0:	20746f6e 	rsbscs	r6, r4, lr, ror #30
    b3f4:	6e756f66 	cdpvs	15, 7, cr6, cr5, cr6, {3}
    b3f8:	75202e64 	strvc	r2, [r0, #-3684]!	; 0xfffff19c
    b3fc:	5f726573 	svcpl	0x00726573
    b400:	203a6469 	eorscs	r6, sl, r9, ror #8
    b404:	00207825 	eoreq	r7, r0, r5, lsr #16
    b408:	64636820 	strbtvs	r6, [r3], #-2080	; 0xfffff7e0
    b40c:	73657220 	cmnvc	r5, #32, 4
    b410:	74207465 	strtvc	r7, [r0], #-1125	; 0xfffffb9b
    b414:	6f656d69 	svcvs	0x00656d69
    b418:	31207475 			; <UNDEFINED> instruction: 0x31207475
    b41c:	00000000 	andeq	r0, r0, r0
    b420:	64636820 	strbtvs	r6, [r3], #-2080	; 0xfffff7e0
    b424:	73657220 	cmnvc	r5, #32, 4
    b428:	74207465 	strtvc	r7, [r0], #-1125	; 0xfffffb9b
    b42c:	6f656d69 	svcvs	0x00656d69
    b430:	00007475 	andeq	r7, r0, r5, ror r4
    b434:	63637573 	cmnvs	r3, #482344960	; 0x1cc00000
    b438:	20737365 	rsbscs	r7, r3, r5, ror #6
    b43c:	20646368 	rsbcs	r6, r4, r8, ror #6
    b440:	65736572 	ldrbvs	r6, [r3, #-1394]!	; 0xfffffa8e
    b444:	00000074 	andeq	r0, r0, r4, ror r0
    b448:	6f727265 	svcvs	0x00727265
    b44c:	68772072 	ldmdavs	r7!, {r1, r4, r5, r6, sp}^
    b450:	20656c69 	rsbcs	r6, r5, r9, ror #24
    b454:	20646368 	rsbcs	r6, r4, r8, ror #6
    b458:	65736572 	ldrbvs	r6, [r3, #-1394]!	; 0xfffffa8e
    b45c:	00000074 	andeq	r0, r0, r4, ror r0
    b460:	2d2d2d0a 	stccs	13, cr2, [sp, #-40]!	; 0xffffffd8
    b464:	2d2d2d2d 	stccs	13, cr2, [sp, #-180]!	; 0xffffff4c
    b468:	2d2d2d2d 	stccs	13, cr2, [sp, #-180]!	; 0xffffff4c
    b46c:	2d2d2d2d 	stccs	13, cr2, [sp, #-180]!	; 0xffffff4c
    b470:	654b2d2d 	strbvs	r2, [fp, #-3373]	; 0xfffff2d3
    b474:	6c656e72 	stclvs	14, cr6, [r5], #-456	; 0xfffffe38
    b478:	61745320 	cmnvs	r4, r0, lsr #6
    b47c:	64657472 	strbtvs	r7, [r5], #-1138	; 0xfffffb8e
    b480:	64754420 	ldrbtvs	r4, [r5], #-1056	; 0xfffffbe0
    b484:	2e2e2e65 	cdpcs	14, 2, cr2, cr14, cr5, {3}
    b488:	2e2e2e2e 	cdpcs	14, 2, cr2, cr14, cr14, {1}
    b48c:	2e2e2e2e 	cdpcs	14, 2, cr2, cr14, cr14, {1}
    b490:	2e2e2e2e 	cdpcs	14, 2, cr2, cr14, cr14, {1}
    b494:	2e2e2e2e 	cdpcs	14, 2, cr2, cr14, cr14, {1}
    b498:	2e2e2e2e 	cdpcs	14, 2, cr2, cr14, cr14, {1}
    b49c:	00000a2e 	andeq	r0, r0, lr, lsr #20
    b4a0:	654b200a 	strbvs	r2, [fp, #-10]
    b4a4:	6c656e72 	stclvs	14, cr6, [r5], #-456	; 0xfffffe38
    b4a8:	646e4520 	strbtvs	r4, [lr], #-1312	; 0xfffffae0
    b4ac:	7830203a 	ldmdavc	r0!, {r1, r3, r4, r5, sp}
    b4b0:	0a207825 	beq	82954c <__kernel_end+0x6c754c>
    b4b4:	00000000 	andeq	r0, r0, r0
    b4b8:	6c756e28 	ldclvs	14, cr6, [r5], #-160	; 0xffffff60
    b4bc:	0000296c 	andeq	r2, r0, ip, ror #18

Disassembly of section .data:

0000c000 <__data_start>:
    c000:	00000004 	andeq	r0, r0, r4

0000c004 <usb_hcd_device_id>:
    c004:	00000003 	andeq	r0, r0, r3

Disassembly of section .got:

0000c008 <.got>:
    c008:	0000c004 	andeq	ip, r0, r4
    c00c:	00015370 	andeq	r5, r1, r0, ror r3
    c010:	00020000 	andeq	r0, r2, r0
    c014:	00162000 	andseq	r2, r6, r0
    c018:	00016000 	andeq	r6, r1, r0
    c01c:	00142000 	andseq	r2, r4, r0
    c020:	00122000 	andseq	r2, r2, r0
    c024:	0000d000 	andeq	sp, r0, r0
    c028:	0000c000 	andeq	ip, r0, r0
    c02c:	00152000 	andseq	r2, r5, r0
    c030:	00121000 	andseq	r1, r2, r0

Disassembly of section .got.plt:

0000c034 <_GLOBAL_OFFSET_TABLE_>:
	...

Disassembly of section .bss:

0000d000 <__bss_start>:
	...

0000d120 <clearers>:
	...

0000d240 <count_irqs>:
	...

0000d250 <pt>:
	...

00015250 <pt_index>:
   15250:	00000000 	andeq	r0, r0, r0

00015254 <property.4299>:
	...

0001535c <timer_regs>:
   1535c:	00000000 	andeq	r0, r0, r0

00015360 <MMUTABLEBASE>:
   15360:	00000000 	andeq	r0, r0, r0

00015364 <all_pages_array>:
   15364:	00000000 	andeq	r0, r0, r0

00015368 <arm_mem_size>:
   15368:	00000000 	andeq	r0, r0, r0

0001536c <num_pages>:
   1536c:	00000000 	andeq	r0, r0, r0

00015370 <free_pages>:
	...

Disassembly of section .ARM.attributes:

00000000 <.ARM.attributes>:
   0:	00003241 	andeq	r3, r0, r1, asr #4
   4:	61656100 	cmnvs	r5, r0, lsl #2
   8:	01006962 	tsteq	r0, r2, ror #18
   c:	00000028 	andeq	r0, r0, r8, lsr #32
  10:	412d3805 			; <UNDEFINED> instruction: 0x412d3805
  14:	070e0600 	streq	r0, [lr, -r0, lsl #12]
  18:	09010841 	stmdbeq	r1, {r0, r6, fp}
  1c:	0c070a02 	stceq	10, cr0, [r7], {2}
  20:	14041203 	strne	r1, [r4], #-515	; 0xfffffdfd
  24:	17011501 	strne	r1, [r1, -r1, lsl #10]
  28:	1a011803 	bne	4603c <__first_lvl_tbl_end+0x2503c>
  2c:	2a012201 	bcs	48838 <__first_lvl_tbl_end+0x27838>
  30:	Address 0x0000000000000030 is out of bounds.


Disassembly of section .comment:

00000000 <.comment>:
   0:	3a434347 	bcc	10d0d24 <__kernel_end+0xf6ed24>
   4:	4e472820 	cdpmi	8, 4, cr2, cr7, cr0, {1}
   8:	6f542055 	svcvs	0x00542055
   c:	20736c6f 	rsbscs	r6, r3, pc, ror #24
  10:	20726f66 	rsbscs	r6, r2, r6, ror #30
  14:	204d5241 	subcs	r5, sp, r1, asr #4
  18:	65626d45 	strbvs	r6, [r2, #-3397]!	; 0xfffff2bb
  1c:	64656464 	strbtvs	r6, [r5], #-1124	; 0xfffffb9c
  20:	6f725020 	svcvs	0x00725020
  24:	73736563 	cmnvc	r3, #415236096	; 0x18c00000
  28:	2973726f 	ldmdbcs	r3!, {r0, r1, r2, r3, r5, r6, r9, ip, sp, lr}^
  2c:	342e3520 	strtcc	r3, [lr], #-1312	; 0xfffffae0
  30:	3220312e 	eorcc	r3, r0, #-2147483637	; 0x8000000b
  34:	30363130 	eorscc	r3, r6, r0, lsr r1
  38:	20393139 	eorscs	r3, r9, r9, lsr r1
  3c:	6c657228 	sfmvs	f7, 2, [r5], #-160	; 0xffffff60
  40:	65736165 	ldrbvs	r6, [r3, #-357]!	; 0xfffffe9b
  44:	415b2029 	cmpmi	fp, r9, lsr #32
  48:	652f4d52 	strvs	r4, [pc, #-3410]!	; fffff2fe <__kernel_end+0xffe9d2fe>
  4c:	6465626d 	strbtvs	r6, [r5], #-621	; 0xfffffd93
  50:	2d646564 	cfstr64cs	mvdx6, [r4, #-400]!	; 0xfffffe70
  54:	72622d35 	rsbvc	r2, r2, #3392	; 0xd40
  58:	68636e61 	stmdavs	r3!, {r0, r5, r6, r9, sl, fp, sp, lr}^
  5c:	76657220 	strbtvc	r7, [r5], -r0, lsr #4
  60:	6f697369 	svcvs	0x00697369
  64:	3432206e 	ldrtcc	r2, [r2], #-110	; 0xffffff92
  68:	36393430 			; <UNDEFINED> instruction: 0x36393430
  6c:	Address 0x000000000000006c is out of bounds.


Disassembly of section .debug_line:

00000000 <.debug_line>:
       0:	000000bd 	strheq	r0, [r0], -sp
       4:	00260002 	eoreq	r0, r6, r2
       8:	01020000 	mrseq	r0, (UNDEF: 2)
       c:	000d0efb 	strdeq	r0, [sp], -fp
      10:	01010101 	tsteq	r1, r1, lsl #2
      14:	01000000 	mrseq	r0, (UNDEF: 0)
      18:	61010000 	mrsvs	r0, (UNDEF: 1)
      1c:	2f686372 	svccs	0x00686372
      20:	006d7261 	rsbeq	r7, sp, r1, ror #4
      24:	6f6f6200 	svcvs	0x006f6200
      28:	00532e74 	subseq	r2, r3, r4, ror lr
      2c:	00000001 	andeq	r0, r0, r1
      30:	00020500 	andeq	r0, r2, r0, lsl #10
      34:	03000080 	movweq	r0, #128	; 0x80
      38:	2f2f012a 	svccs	0x002f012a
      3c:	2f2f2f2f 	svccs	0x002f2f2f
      40:	080d032f 	stmdaeq	sp, {r0, r1, r2, r3, r5, r8, r9}
      44:	2f2f2f20 	svccs	0x002f2f20
      48:	322f302f 	eorcc	r3, pc, #47	; 0x2f
      4c:	302f2f2f 	eorcc	r2, pc, pc, lsr #30
      50:	2f2f2f2f 	svccs	0x002f2f2f
      54:	312f302f 			; <UNDEFINED> instruction: 0x312f302f
      58:	2f2f2f2f 	svccs	0x002f2f2f
      5c:	2f2f312f 	svccs	0x002f312f
      60:	312f2f32 			; <UNDEFINED> instruction: 0x312f2f32
      64:	30332f2f 	eorscc	r2, r3, pc, lsr #30
      68:	31302f30 	teqcc	r0, r0, lsr pc
      6c:	32333230 	eorscc	r3, r3, #48, 4
      70:	322f322f 	eorcc	r3, pc, #-268435454	; 0xf0000002
      74:	2f2f2f32 	svccs	0x002f2f32
      78:	32312f32 	eorscc	r2, r1, #50, 30	; 0xc8
      7c:	312f2f2f 			; <UNDEFINED> instruction: 0x312f2f2f
      80:	2f2f2f2f 	svccs	0x002f2f2f
      84:	2f2f2f2f 	svccs	0x002f2f2f
      88:	322f2f2f 	eorcc	r2, pc, #47, 30	; 0xbc
      8c:	2f312f2f 	svccs	0x00312f2f
      90:	302f302f 	eorcc	r3, pc, pc, lsr #32
      94:	31302f2f 	teqcc	r0, pc, lsr #30
      98:	2f2f2f2f 	svccs	0x002f2f2f
      9c:	2f2f2f2f 	svccs	0x002f2f2f
      a0:	2f2f2f2f 	svccs	0x002f2f2f
      a4:	302f2f2f 	eorcc	r2, pc, pc, lsr #30
      a8:	2f2f2f32 	svccs	0x002f2f32
      ac:	2f322f2f 	svccs	0x00322f2f
      b0:	2f342f2f 	svccs	0x00342f2f
      b4:	032f2f32 			; <UNDEFINED> instruction: 0x032f2f32
      b8:	342e7ee4 	strtcc	r7, [lr], #-3812	; 0xfffff11c
      bc:	01000202 	tsteq	r0, r2, lsl #4
      c0:	00009f01 	andeq	r9, r0, r1, lsl #30
      c4:	86000200 	strhi	r0, [r0], -r0, lsl #4
      c8:	02000000 	andeq	r0, r0, #0
      cc:	0d0efb01 	vstreq	d15, [lr, #-4]
      d0:	01010100 	mrseq	r0, (UNDEF: 17)
      d4:	00000001 	andeq	r0, r0, r1
      d8:	01000001 	tsteq	r0, r1
      dc:	68637261 	stmdavs	r3!, {r0, r5, r6, r9, ip, sp, lr}^
      e0:	6d72612f 	ldfvse	f6, [r2, #-188]!	; 0xffffff44
      e4:	73552f00 	cmpvc	r5, #0, 30
      e8:	2f737265 	svccs	0x00737265
      ec:	6b617270 	blvs	185cab4 <__kernel_end+0x16faab4>
      f0:	62687361 	rsbvs	r7, r8, #-2080374783	; 0x84000001
      f4:	616b726f 	cmnvs	fp, pc, ror #4
      f8:	63672f72 	cmnvs	r7, #456	; 0x1c8
      fc:	72612d63 	rsbvc	r2, r1, #6336	; 0x18c0
     100:	6f6e2d6d 	svcvs	0x006e2d6d
     104:	652d656e 	strvs	r6, [sp, #-1390]!	; 0xfffffa92
     108:	2f696261 	svccs	0x00696261
     10c:	2f62696c 	svccs	0x0062696c
     110:	2f636367 	svccs	0x00636367
     114:	2d6d7261 	sfmcs	f7, 2, [sp, #-388]!	; 0xfffffe7c
     118:	656e6f6e 	strbvs	r6, [lr, #-3950]!	; 0xfffff092
     11c:	6261652d 	rsbvs	r6, r1, #188743680	; 0xb400000
     120:	2e352f69 	cdpcs	15, 3, cr2, cr5, cr9, {3}
     124:	2f312e34 	svccs	0x00312e34
     128:	6c636e69 	stclvs	14, cr6, [r3], #-420	; 0xfffffe5c
     12c:	00656475 	rsbeq	r6, r5, r5, ror r4
     130:	73736200 	cmnvc	r3, #0, 4
     134:	656c632d 	strbvs	r6, [ip, #-813]!	; 0xfffffcd3
     138:	632e7261 			; <UNDEFINED> instruction: 0x632e7261
     13c:	00000100 	andeq	r0, r0, r0, lsl #2
     140:	69647473 	stmdbvs	r4!, {r0, r1, r4, r5, r6, sl, ip, sp, lr}^
     144:	672d746e 	strvs	r7, [sp, -lr, ror #8]!
     148:	682e6363 	stmdavs	lr!, {r0, r1, r5, r6, r8, r9, sp, lr}
     14c:	00000200 	andeq	r0, r0, r0, lsl #4
     150:	02050000 	andeq	r0, r5, #0
     154:	00008214 	andeq	r8, r0, r4, lsl r2
     158:	08324a19 	ldmdaeq	r2!, {r0, r3, r4, r9, fp, lr}
     15c:	024d9d21 	subeq	r9, sp, #2112	; 0x840
     160:	0101000a 	tsteq	r1, sl
     164:	000000d6 	ldrdeq	r0, [r0], -r6
     168:	00be0002 	adcseq	r0, lr, r2
     16c:	01020000 	mrseq	r0, (UNDEF: 2)
     170:	000d0efb 	strdeq	r0, [sp], -fp
     174:	01010101 	tsteq	r1, r1, lsl #2
     178:	01000000 	mrseq	r0, (UNDEF: 0)
     17c:	61010000 	mrsvs	r0, (UNDEF: 1)
     180:	2f686372 	svccs	0x00686372
     184:	006d7261 	rsbeq	r7, sp, r1, ror #4
     188:	6c636e69 	stclvs	14, cr6, [r3], #-420	; 0xfffffe5c
     18c:	2f656475 	svccs	0x00656475
     190:	6e72656b 	cdpvs	5, 7, cr6, cr2, cr11, {3}
     194:	2f006c65 	svccs	0x00006c65
     198:	72657355 	rsbvc	r7, r5, #1409286145	; 0x54000001
     19c:	72702f73 	rsbsvc	r2, r0, #460	; 0x1cc
     1a0:	73616b61 	cmnvc	r1, #99328	; 0x18400
     1a4:	726f6268 	rsbvc	r6, pc, #104, 4	; 0x80000006
     1a8:	2f72616b 	svccs	0x0072616b
     1ac:	2d636367 	stclcs	3, cr6, [r3, #-412]!	; 0xfffffe64
     1b0:	2d6d7261 	sfmcs	f7, 2, [sp, #-388]!	; 0xfffffe7c
     1b4:	656e6f6e 	strbvs	r6, [lr, #-3950]!	; 0xfffff092
     1b8:	6261652d 	rsbvs	r6, r1, #188743680	; 0xb400000
     1bc:	696c2f69 	stmdbvs	ip!, {r0, r3, r5, r6, r8, r9, sl, fp, sp}^
     1c0:	63672f62 	cmnvs	r7, #392	; 0x188
     1c4:	72612f63 	rsbvc	r2, r1, #396	; 0x18c
     1c8:	6f6e2d6d 	svcvs	0x006e2d6d
     1cc:	652d656e 	strvs	r6, [sp, #-1390]!	; 0xfffffa92
     1d0:	2f696261 	svccs	0x00696261
     1d4:	2e342e35 	mrccs	14, 1, r2, cr4, cr5, {1}
     1d8:	6e692f31 	mcrvs	15, 3, r2, cr9, cr1, {1}
     1dc:	64756c63 	ldrbtvs	r6, [r5], #-3171	; 0xfffff39d
     1e0:	72000065 	andvc	r0, r0, #101	; 0x65
     1e4:	612d6970 			; <UNDEFINED> instruction: 0x612d6970
     1e8:	69746d72 	ldmdbvs	r4!, {r1, r4, r5, r6, r8, sl, fp, sp, lr}^
     1ec:	2e72656d 	cdpcs	5, 7, cr6, cr2, cr13, {3}
     1f0:	00010063 	andeq	r0, r1, r3, rrx
     1f4:	69707200 	ldmdbvs	r0!, {r9, ip, sp, lr}^
     1f8:	6d72612d 	ldfvse	f6, [r2, #-180]!	; 0xffffff4c
     1fc:	656d6974 	strbvs	r6, [sp, #-2420]!	; 0xfffff68c
     200:	00682e72 	rsbeq	r2, r8, r2, ror lr
     204:	73000002 	movwvc	r0, #2
     208:	6e696474 	mcrvs	4, 3, r6, cr9, cr4, {3}
     20c:	63672d74 	cmnvs	r7, #116, 26	; 0x1d00
     210:	00682e63 	rsbeq	r2, r8, r3, ror #28
     214:	72000003 	andvc	r0, r0, #3
     218:	692d6970 	pushvs	{r4, r5, r6, r8, fp, sp, lr}
     21c:	7265746e 	rsbvc	r7, r5, #1845493760	; 0x6e000000
     220:	74707572 	ldrbtvc	r7, [r0], #-1394	; 0xfffffa8e
     224:	00682e73 	rsbeq	r2, r8, r3, ror lr
     228:	00000002 	andeq	r0, r0, r2
     22c:	74020500 	strvc	r0, [r2], #-1280	; 0xfffffb00
     230:	19000082 	stmdbne	r0, {r1, r7}
     234:	672f6914 			; <UNDEFINED> instruction: 0x672f6914
     238:	00080267 	andeq	r0, r8, r7, ror #4
     23c:	023d0101 	eorseq	r0, sp, #1073741824	; 0x40000000
     240:	00020000 	andeq	r0, r2, r0
     244:	00000143 	andeq	r0, r0, r3, asr #2
     248:	0efb0102 	cdpeq	1, 15, cr0, cr11, cr2, {0}
     24c:	0101000d 	tsteq	r1, sp
     250:	00000101 	andeq	r0, r0, r1, lsl #2
     254:	00000100 	andeq	r0, r0, r0, lsl #2
     258:	63726101 	cmnvs	r2, #1073741824	; 0x40000000
     25c:	72612f68 	rsbvc	r2, r1, #104, 30	; 0x1a0
     260:	6e69006d 	cdpvs	0, 6, cr0, cr9, cr13, {3}
     264:	64756c63 	ldrbtvs	r6, [r5], #-3171	; 0xfffff39d
     268:	656b2f65 	strbvs	r2, [fp, #-3941]!	; 0xfffff09b
     26c:	6c656e72 	stclvs	14, cr6, [r5], #-456	; 0xfffffe38
     270:	73552f00 	cmpvc	r5, #0, 30
     274:	2f737265 	svccs	0x00737265
     278:	6b617270 	blvs	185cc40 <__kernel_end+0x16fac40>
     27c:	62687361 	rsbvs	r7, r8, #-2080374783	; 0x84000001
     280:	616b726f 	cmnvs	fp, pc, ror #4
     284:	63672f72 	cmnvs	r7, #456	; 0x1c8
     288:	72612d63 	rsbvc	r2, r1, #6336	; 0x18c0
     28c:	6f6e2d6d 	svcvs	0x006e2d6d
     290:	652d656e 	strvs	r6, [sp, #-1390]!	; 0xfffffa92
     294:	2f696261 	svccs	0x00696261
     298:	2f62696c 	svccs	0x0062696c
     29c:	2f636367 	svccs	0x00636367
     2a0:	2d6d7261 	sfmcs	f7, 2, [sp, #-388]!	; 0xfffffe7c
     2a4:	656e6f6e 	strbvs	r6, [lr, #-3950]!	; 0xfffff092
     2a8:	6261652d 	rsbvs	r6, r1, #188743680	; 0xb400000
     2ac:	2e352f69 	cdpcs	15, 3, cr2, cr5, cr9, {3}
     2b0:	2f312e34 	svccs	0x00312e34
     2b4:	6c636e69 	stclvs	14, cr6, [r3], #-420	; 0xfffffe5c
     2b8:	00656475 	rsbeq	r6, r5, r5, ror r4
     2bc:	6c636e69 	stclvs	14, cr6, [r3], #-420	; 0xfffffe5c
     2c0:	2f656475 	svccs	0x00656475
     2c4:	69766564 	ldmdbvs	r6!, {r2, r5, r6, r8, sl, sp, lr}^
     2c8:	2f006563 	svccs	0x00006563
     2cc:	72657355 	rsbvc	r7, r5, #1409286145	; 0x54000001
     2d0:	72702f73 	rsbsvc	r2, r0, #460	; 0x1cc
     2d4:	73616b61 	cmnvc	r1, #99328	; 0x18400
     2d8:	726f6268 	rsbvc	r6, pc, #104, 4	; 0x80000006
     2dc:	2f72616b 	svccs	0x0072616b
     2e0:	6b736544 	blvs	1cd97f8 <__kernel_end+0x1b777f8>
     2e4:	2f706f74 	svccs	0x00706f74
     2e8:	6f6d6552 	svcvs	0x006d6552
     2ec:	525f6574 	subspl	r6, pc, #116, 10	; 0x1d000000
     2f0:	2f6f7065 	svccs	0x006f7065
     2f4:	2d697072 	stclcs	0, cr7, [r9, #-456]!	; 0xfffffe38
     2f8:	752d736f 	strvc	r7, [sp, #-879]!	; 0xfffffc91
     2fc:	2f747261 	svccs	0x00747261
     300:	33697072 	cmncc	r9, #114	; 0x72
     304:	656d2d62 	strbvs	r2, [sp, #-3426]!	; 0xfffff29e
     308:	2d797461 	cfldrdcs	mvd7, [r9, #-388]!	; 0xfffffe7c
     30c:	6c656b73 	stclvs	11, cr6, [r5], #-460	; 0xfffffe34
     310:	6e6f7465 	cdpvs	4, 6, cr7, cr15, cr5, {3}
     314:	7379732f 	cmnvc	r9, #-1140850688	; 0xbc000000
     318:	746f6f72 	strbtvc	r6, [pc], #-3954	; 320 <ARM_I_BIT+0x2a0>
     31c:	7273752f 	rsbsvc	r7, r3, #197132288	; 0xbc00000
     320:	636e692f 	cmnvs	lr, #770048	; 0xbc000
     324:	6564756c 	strbvs	r7, [r4, #-1388]!	; 0xfffffa94
     328:	696c702f 	stmdbvs	ip!, {r0, r1, r2, r3, r5, ip, sp, lr}^
     32c:	00006362 	andeq	r6, r0, r2, ror #6
     330:	2d697072 	stclcs	0, cr7, [r9, #-456]!	; 0xfffffe38
     334:	65746e69 	ldrbvs	r6, [r4, #-3689]!	; 0xfffff197
     338:	70757272 	rsbsvc	r7, r5, r2, ror r2
     33c:	632e7374 			; <UNDEFINED> instruction: 0x632e7374
     340:	00000100 	andeq	r0, r0, r0, lsl #2
     344:	2d697072 	stclcs	0, cr7, [r9, #-456]!	; 0xfffffe38
     348:	65746e69 	ldrbvs	r6, [r4, #-3689]!	; 0xfffff197
     34c:	70757272 	rsbsvc	r7, r5, r2, ror r2
     350:	682e7374 	stmdavs	lr!, {r2, r4, r5, r6, r8, r9, ip, sp, lr}
     354:	00000200 	andeq	r0, r0, r0, lsl #4
     358:	64647473 	strbtvs	r7, [r4], #-1139	; 0xfffffb8d
     35c:	682e6665 	stmdavs	lr!, {r0, r2, r5, r6, r9, sl, sp, lr}
     360:	00000300 	andeq	r0, r0, r0, lsl #6
     364:	69647473 	stmdbvs	r4!, {r0, r1, r4, r5, r6, sl, ip, sp, lr}^
     368:	672d746e 	strvs	r7, [sp, -lr, ror #8]!
     36c:	682e6363 	stmdavs	lr!, {r0, r1, r5, r6, r8, r9, sp, lr}
     370:	00000300 	andeq	r0, r0, r0, lsl #6
     374:	74726175 	ldrbtvc	r6, [r2], #-373	; 0xfffffe8b
     378:	00682e30 	rsbeq	r2, r8, r0, lsr lr
     37c:	73000004 	movwvc	r0, #4
     380:	6f696474 	svcvs	0x00696474
     384:	0500682e 	streq	r6, [r0, #-2094]	; 0xfffff7d2
     388:	00000000 	andeq	r0, r0, r0
     38c:	82ac0205 	adchi	r0, ip, #1342177280	; 0x50000000
     390:	21030000 	mrscs	r0, (UNDEF: 3)
     394:	0a031401 	beq	c53a0 <__first_lvl_tbl_end+0xa43a0>
     398:	0c034b66 	stceq	11, cr4, [r3], {102}	; 0x66
     39c:	0c032f9e 	stceq	15, cr2, [r3], {158}	; 0x9e
     3a0:	4ba22f9e 	blmi	fe88c220 <__kernel_end+0xfe72a220>
     3a4:	4ba44ba4 	blmi	fe91323c <__kernel_end+0xfe7b123c>
     3a8:	139e1303 	orrsne	r1, lr, #201326592	; 0xc000000
     3ac:	2c302f2d 	ldccs	15, cr2, [r0], #-180	; 0xffffff4c
     3b0:	00337d33 	eorseq	r7, r3, r3, lsr sp
     3b4:	47020402 	strmi	r0, [r2, -r2, lsl #8]
     3b8:	04020085 	streq	r0, [r2], #-133	; 0xffffff7b
     3bc:	004a0604 	subeq	r0, sl, r4, lsl #12
     3c0:	4a080402 	bmi	2013d0 <__kernel_end+0x9f3d0>
     3c4:	09040200 	stmdbeq	r4, {r9}
     3c8:	0402004a 	streq	r0, [r2], #-74	; 0xffffffb6
     3cc:	8406660a 	strhi	r6, [r6], #-1546	; 0xfffff9f6
     3d0:	4e030204 	cdpmi	2, 0, cr0, cr3, cr4, {0}
     3d4:	044c3566 	strbeq	r3, [ip], #-1382	; 0xfffffa9a
     3d8:	2e2b0301 	cdpcs	3, 2, cr0, cr11, cr1, {0}
     3dc:	4c030204 	sfmmi	f0, 4, [r3], {4}
     3e0:	2e110382 	cdpcs	3, 1, cr0, cr1, cr2, {4}
     3e4:	0001044c 	andeq	r0, r1, ip, asr #8
     3e8:	03010402 	movweq	r0, #5122	; 0x1402
     3ec:	02004a1d 	andeq	r4, r0, #118784	; 0x1d000
     3f0:	ba060504 	blt	181808 <__kernel_end+0x1f808>
     3f4:	d60c0306 	strle	r0, [ip], -r6, lsl #6
     3f8:	35302c14 	ldrcc	r2, [r0, #-3092]!	; 0xfffff3ec
     3fc:	30820a03 	addcc	r0, r2, r3, lsl #20
     400:	2f2d3048 	svccs	0x002d3048
     404:	032f2f2c 			; <UNDEFINED> instruction: 0x032f2f2c
     408:	48306677 	ldmdami	r0!, {r0, r1, r2, r4, r5, r6, r9, sl, sp, lr}
     40c:	2c2f2d30 	stccs	13, cr2, [pc], #-192	; 354 <ARM_I_BIT+0x2d4>
     410:	032f2d30 			; <UNDEFINED> instruction: 0x032f2d30
     414:	48304a77 	ldmdami	r0!, {r0, r1, r2, r4, r5, r6, r9, fp, lr}
     418:	482f2d30 	stmdami	pc!, {r4, r5, r8, sl, fp, sp}	; <UNPREDICTABLE>
     41c:	16032f2f 	strne	r2, [r3], -pc, lsr #30
     420:	302c14ba 	strhtcc	r1, [ip], -sl
     424:	820a0336 	andhi	r0, sl, #-671088640	; 0xd8000000
     428:	2d304830 	ldccs	8, cr4, [r0, #-192]!	; 0xffffff40
     42c:	2f2c302d 	svccs	0x002c302d
     430:	6677032f 	ldrbtvs	r0, [r7], -pc, lsr #6
     434:	2d304830 	ldccs	8, cr4, [r0, #-192]!	; 0xffffff40
     438:	302c302d 	eorcc	r3, ip, sp, lsr #32
     43c:	76032f2d 	strvc	r2, [r3], -sp, lsr #30
     440:	3147314a 	cmpcc	r7, sl, asr #2
     444:	4b47302c 	blmi	11cc4fc <__kernel_end+0x106a4fc>
     448:	ba170330 	blt	5c1110 <__kernel_end+0x45f110>
     44c:	00312b17 	eorseq	r2, r1, r7, lsl fp
     450:	68030402 	stmdavs	r3, {r1, sl}
     454:	03040200 	movweq	r0, #16896	; 0x4200
     458:	13314f2c 	teqne	r1, #44, 30	; 0xb0
     45c:	667f9503 	ldrbtvs	r9, [pc], -r3, lsl #10
     460:	0302042f 	movweq	r0, #9263	; 0x242f
     464:	11032e64 	tstne	r3, r4, ror #28
     468:	01044c2e 	tsteq	r4, lr, lsr #24
     46c:	9f2e0b03 	svcls	0x002e0b03
     470:	042f8367 	strteq	r8, [pc], #-871	; 478 <ARM_I_BIT+0x3f8>
     474:	2e5e0302 	cdpcs	3, 5, cr0, cr14, cr2, {0}
     478:	06024c35 			; <UNDEFINED> instruction: 0x06024c35
     47c:	d4010100 	strle	r0, [r1], #-256	; 0xffffff00
     480:	02000000 	andeq	r0, r0, #0
     484:	0000a800 	andeq	sl, r0, r0, lsl #16
     488:	fb010200 	blx	40c92 <__first_lvl_tbl_end+0x1fc92>
     48c:	01000d0e 	tsteq	r0, lr, lsl #26
     490:	00010101 	andeq	r0, r1, r1, lsl #2
     494:	00010000 	andeq	r0, r1, r0
     498:	72610100 	rsbvc	r0, r1, #0, 2
     49c:	612f6863 			; <UNDEFINED> instruction: 0x612f6863
     4a0:	2f006d72 	svccs	0x00006d72
     4a4:	72657355 	rsbvc	r7, r5, #1409286145	; 0x54000001
     4a8:	72702f73 	rsbsvc	r2, r0, #460	; 0x1cc
     4ac:	73616b61 	cmnvc	r1, #99328	; 0x18400
     4b0:	726f6268 	rsbvc	r6, pc, #104, 4	; 0x80000006
     4b4:	2f72616b 	svccs	0x0072616b
     4b8:	2d636367 	stclcs	3, cr6, [r3, #-412]!	; 0xfffffe64
     4bc:	2d6d7261 	sfmcs	f7, 2, [sp, #-388]!	; 0xfffffe7c
     4c0:	656e6f6e 	strbvs	r6, [lr, #-3950]!	; 0xfffff092
     4c4:	6261652d 	rsbvs	r6, r1, #188743680	; 0xb400000
     4c8:	696c2f69 	stmdbvs	ip!, {r0, r3, r5, r6, r8, r9, sl, fp, sp}^
     4cc:	63672f62 	cmnvs	r7, #392	; 0x188
     4d0:	72612f63 	rsbvc	r2, r1, #396	; 0x18c
     4d4:	6f6e2d6d 	svcvs	0x006e2d6d
     4d8:	652d656e 	strvs	r6, [sp, #-1390]!	; 0xfffffa92
     4dc:	2f696261 	svccs	0x00696261
     4e0:	2e342e35 	mrccs	14, 1, r2, cr4, cr5, {1}
     4e4:	6e692f31 	mcrvs	15, 3, r2, cr9, cr1, {1}
     4e8:	64756c63 	ldrbtvs	r6, [r5], #-3171	; 0xfffff39d
     4ec:	6e690065 	cdpvs	0, 6, cr0, cr9, cr5, {3}
     4f0:	64756c63 	ldrbtvs	r6, [r5], #-3171	; 0xfffff39d
     4f4:	656b2f65 	strbvs	r2, [fp, #-3941]!	; 0xfffff09b
     4f8:	6c656e72 	stclvs	14, cr6, [r5], #-456	; 0xfffffe38
     4fc:	70720000 	rsbsvc	r0, r2, r0
     500:	616d2d69 	cmnvs	sp, r9, ror #26
     504:	6f626c69 	svcvs	0x00626c69
     508:	00632e78 	rsbeq	r2, r3, r8, ror lr
     50c:	73000001 	movwvc	r0, #1
     510:	6e696474 	mcrvs	4, 3, r6, cr9, cr4, {3}
     514:	63672d74 	cmnvs	r7, #116, 26	; 0x1d00
     518:	00682e63 	rsbeq	r2, r8, r3, ror #28
     51c:	72000002 	andvc	r0, r0, #2
     520:	6d2d6970 	stcvs	9, cr6, [sp, #-448]!	; 0xfffffe40
     524:	626c6961 	rsbvs	r6, ip, #1589248	; 0x184000
     528:	682e786f 	stmdavs	lr!, {r0, r1, r2, r3, r5, r6, fp, ip, sp, lr}
     52c:	00000300 	andeq	r0, r0, r0, lsl #6
     530:	02050000 	andeq	r0, r5, #0
     534:	0000865c 	andeq	r8, r0, ip, asr r6
     538:	17010a03 	strne	r0, [r1, -r3, lsl #20]
     53c:	02004633 	andeq	r4, r0, #53477376	; 0x3300000
     540:	a3320104 	teqge	r2, #4, 2
     544:	0200184e 	andeq	r1, r0, #5111808	; 0x4e0000
     548:	c04e0104 	subgt	r0, lr, r4, lsl #2
     54c:	032e7603 			; <UNDEFINED> instruction: 0x032e7603
     550:	0202ba0f 	andeq	fp, r2, #61440	; 0xf000
     554:	67010100 	strvs	r0, [r1, -r0, lsl #2]
     558:	02000002 	andeq	r0, r0, #2
     55c:	00013000 	andeq	r3, r1, r0
     560:	fb010200 	blx	40d6a <__first_lvl_tbl_end+0x1fd6a>
     564:	01000d0e 	tsteq	r0, lr, lsl #26
     568:	00010101 	andeq	r0, r1, r1, lsl #2
     56c:	00010000 	andeq	r0, r1, r0
     570:	72610100 	rsbvc	r0, r1, #0, 2
     574:	612f6863 			; <UNDEFINED> instruction: 0x612f6863
     578:	2f006d72 	svccs	0x00006d72
     57c:	72657355 	rsbvc	r7, r5, #1409286145	; 0x54000001
     580:	72702f73 	rsbsvc	r2, r0, #460	; 0x1cc
     584:	73616b61 	cmnvc	r1, #99328	; 0x18400
     588:	726f6268 	rsbvc	r6, pc, #104, 4	; 0x80000006
     58c:	2f72616b 	svccs	0x0072616b
     590:	2d636367 	stclcs	3, cr6, [r3, #-412]!	; 0xfffffe64
     594:	2d6d7261 	sfmcs	f7, 2, [sp, #-388]!	; 0xfffffe7c
     598:	656e6f6e 	strbvs	r6, [lr, #-3950]!	; 0xfffff092
     59c:	6261652d 	rsbvs	r6, r1, #188743680	; 0xb400000
     5a0:	696c2f69 	stmdbvs	ip!, {r0, r3, r5, r6, r8, r9, sl, fp, sp}^
     5a4:	63672f62 	cmnvs	r7, #392	; 0x188
     5a8:	72612f63 	rsbvc	r2, r1, #396	; 0x18c
     5ac:	6f6e2d6d 	svcvs	0x006e2d6d
     5b0:	652d656e 	strvs	r6, [sp, #-1390]!	; 0xfffffa92
     5b4:	2f696261 	svccs	0x00696261
     5b8:	2e342e35 	mrccs	14, 1, r2, cr4, cr5, {1}
     5bc:	6e692f31 	mcrvs	15, 3, r2, cr9, cr1, {1}
     5c0:	64756c63 	ldrbtvs	r6, [r5], #-3171	; 0xfffff39d
     5c4:	6e690065 	cdpvs	0, 6, cr0, cr9, cr5, {3}
     5c8:	64756c63 	ldrbtvs	r6, [r5], #-3171	; 0xfffff39d
     5cc:	656b2f65 	strbvs	r2, [fp, #-3941]!	; 0xfffff09b
     5d0:	6c656e72 	stclvs	14, cr6, [r5], #-456	; 0xfffffe38
     5d4:	73552f00 	cmpvc	r5, #0, 30
     5d8:	2f737265 	svccs	0x00737265
     5dc:	6b617270 	blvs	185cfa4 <__kernel_end+0x16fafa4>
     5e0:	62687361 	rsbvs	r7, r8, #-2080374783	; 0x84000001
     5e4:	616b726f 	cmnvs	fp, pc, ror #4
     5e8:	63672f72 	cmnvs	r7, #456	; 0x1c8
     5ec:	72612d63 	rsbvc	r2, r1, #6336	; 0x18c0
     5f0:	6f6e2d6d 	svcvs	0x006e2d6d
     5f4:	652d656e 	strvs	r6, [sp, #-1390]!	; 0xfffffa92
     5f8:	2f696261 	svccs	0x00696261
     5fc:	2d6d7261 	sfmcs	f7, 2, [sp, #-388]!	; 0xfffffe7c
     600:	656e6f6e 	strbvs	r6, [lr, #-3950]!	; 0xfffff092
     604:	6261652d 	rsbvs	r6, r1, #188743680	; 0xb400000
     608:	6e692f69 	cdpvs	15, 6, cr2, cr9, cr9, {3}
     60c:	64756c63 	ldrbtvs	r6, [r5], #-3171	; 0xfffff39d
     610:	72000065 	andvc	r0, r0, #101	; 0x65
     614:	6d2d6970 	stcvs	9, cr6, [sp, #-448]!	; 0xfffffe40
     618:	626c6961 	rsbvs	r6, ip, #1589248	; 0x184000
     61c:	692d786f 	pushvs	{r0, r1, r2, r3, r5, r6, fp, ip, sp, lr}
     620:	7265746e 	rsbvc	r7, r5, #1845493760	; 0x6e000000
     624:	65636166 	strbvs	r6, [r3, #-358]!	; 0xfffffe9a
     628:	0100632e 	tsteq	r0, lr, lsr #6
     62c:	74730000 	ldrbtvc	r0, [r3], #-0
     630:	67726164 	ldrbvs	r6, [r2, -r4, ror #2]!
     634:	0200682e 	andeq	r6, r0, #3014656	; 0x2e0000
     638:	74730000 	ldrbtvc	r0, [r3], #-0
     63c:	746e6964 	strbtvc	r6, [lr], #-2404	; 0xfffff69c
     640:	6363672d 	cmnvs	r3, #11796480	; 0xb40000
     644:	0200682e 	andeq	r6, r0, #3014656	; 0x2e0000
     648:	70720000 	rsbsvc	r0, r2, r0
     64c:	616d2d69 	cmnvs	sp, r9, ror #26
     650:	6f626c69 	svcvs	0x00626c69
     654:	00682e78 	rsbeq	r2, r8, r8, ror lr
     658:	72000003 	andvc	r0, r0, #3
     65c:	6d2d6970 	stcvs	9, cr6, [sp, #-448]!	; 0xfffffe40
     660:	626c6961 	rsbvs	r6, ip, #1589248	; 0x184000
     664:	692d786f 	pushvs	{r0, r1, r2, r3, r5, r6, fp, ip, sp, lr}
     668:	7265746e 	rsbvc	r7, r5, #1845493760	; 0x6e000000
     66c:	65636166 	strbvs	r6, [r3, #-358]!	; 0xfffffe9a
     670:	0300682e 	movweq	r6, #2094	; 0x82e
     674:	74730000 	ldrbtvc	r0, [r3], #-0
     678:	676e6972 			; <UNDEFINED> instruction: 0x676e6972
     67c:	0400682e 	streq	r6, [r0], #-2094	; 0xfffff7d2
     680:	623c0000 	eorsvs	r0, ip, #0
     684:	746c6975 	strbtvc	r6, [ip], #-2421	; 0xfffff68b
     688:	3e6e692d 	cdpcc	9, 6, cr6, cr14, cr13, {1}
     68c:	00000000 	andeq	r0, r0, r0
     690:	02050000 	andeq	r0, r5, #0
     694:	000086c8 	andeq	r8, r0, r8, asr #13
     698:	14011803 	strne	r1, [r1], #-2051	; 0xfffff7fd
     69c:	7a033131 	bvc	ccb68 <__first_lvl_tbl_end+0xabb68>
     6a0:	7a03502e 	bvc	d4760 <__first_lvl_tbl_end+0xb3760>
     6a4:	2b34314a 	blcs	d0cbd4 <__kernel_end+0xbaabd4>
     6a8:	32820b03 	addcc	r0, r2, #3072	; 0xc00
     6ac:	4a7a0330 	bmi	1e81374 <__kernel_end+0x1d1f374>
     6b0:	2c324632 	ldccs	6, cr4, [r2], #-200	; 0xffffff38
     6b4:	32302a30 	eorscc	r2, r0, #48, 20	; 0x30000
     6b8:	f003682c 			; <UNDEFINED> instruction: 0xf003682c
     6bc:	012c0200 			; <UNDEFINED> instruction: 0x012c0200
     6c0:	2b31482f 	blcs	c52784 <__kernel_end+0xaf0784>
     6c4:	2c302c31 	ldccs	12, cr2, [r0], #-196	; 0xffffff3c
     6c8:	0a032f2f 	beq	cc38c <__first_lvl_tbl_end+0xab38c>
     6cc:	8103852e 	tsthi	r3, lr, lsr #10
     6d0:	1d03827f 	sfmne	f0, 1, [r3, #-508]	; 0xfffffe04
     6d4:	302f9008 	eorcc	r9, pc, r8
     6d8:	2f30482d 	svccs	0x0030482d
     6dc:	2f2d312b 	svccs	0x002d312b
     6e0:	2f4b2f2b 	svccs	0x004b2f2b
     6e4:	2e5f032f 	cdpcs	3, 5, cr0, cr15, cr15, {1}
     6e8:	0200de03 	andeq	sp, r0, #3, 28	; 0x30
     6ec:	4c2f012a 	stfmis	f0, [pc], #-168	; 64c <ARM_I_BIT+0x5cc>
     6f0:	2b302f47 	blcs	c0c414 <__kernel_end+0xaaa414>
     6f4:	032f2d2f 			; <UNDEFINED> instruction: 0x032f2d2f
     6f8:	75034a0b 	strvc	r4, [r3, #-2571]	; 0xfffff5f5
     6fc:	2e0b032e 	cdpcs	3, 0, cr0, cr11, cr14, {1}
     700:	302e7703 	eorcc	r7, lr, r3, lsl #14
     704:	474b2f2f 	strbmi	r2, [fp, -pc, lsr #30]
     708:	2c2f2f4b 	stccs	15, cr2, [pc], #-300	; 5e4 <ARM_I_BIT+0x564>
     70c:	bf032f2f 	svclt	0x00032f2f
     710:	2f2f4a7f 	svccs	0x002f4a7f
     714:	2f2a3247 	svccs	0x002a3247
     718:	302f2b31 	eorcc	r2, pc, r1, lsr fp	; <UNPREDICTABLE>
     71c:	2f2f2f2c 	svccs	0x002f2f2c
     720:	032e5703 			; <UNDEFINED> instruction: 0x032e5703
     724:	318200cc 	orrcc	r0, r2, ip, asr #1
     728:	312b302c 			; <UNDEFINED> instruction: 0x312b302c
     72c:	2f2d2f2b 	svccs	0x002d2f2b
     730:	2e790351 	mrccs	3, 3, r0, cr9, cr1, {2}
     734:	2a2e0b03 	bcs	b83348 <__kernel_end+0xa21348>
     738:	352e7903 	strcc	r7, [lr, #-2307]!	; 0xfffff6fd
     73c:	7fa8036a 	svcvc	0x00a8036a
     740:	00f7034a 	rscseq	r0, r7, sl, asr #6
     744:	88036782 	stmdahi	r3, {r1, r7, r8, r9, sl, sp, lr}
     748:	33032e7f 	movwcc	r2, #15999	; 0x3e7f
     74c:	4c2f9008 	stcmi	0, cr9, [pc], #-32	; 734 <ARM_I_BIT+0x6b4>
     750:	2c302f47 	ldccs	15, cr2, [r0], #-284	; 0xfffffee4
     754:	31684b2d 	cmncc	r8, sp, lsr #22
     758:	4a78038a 	bmi	1e01588 <__kernel_end+0x1c9f588>
     75c:	4b494b31 	blmi	1253428 <__kernel_end+0x10f1428>
     760:	2f492f2d 	svccs	0x00492f2d
     764:	034a4303 	movteq	r4, #41731	; 0xa303
     768:	2f2f820b 	svccs	0x002f820b
     76c:	2d494c2c 	stclcs	12, cr4, [r9, #-176]	; 0xffffff50
     770:	33302d30 	teqcc	r0, #48, 26	; 0xc00
     774:	4c2c2f2f 	stcmi	15, cr2, [ip], #-188	; 0xffffff44
     778:	2d302d49 	ldccs	13, cr2, [r0, #-292]!	; 0xfffffedc
     77c:	2e6a0330 	mcrcs	3, 3, r0, cr10, cr0, {1}
     780:	02018203 	andeq	r8, r1, #805306368	; 0x30000000
     784:	31160138 	tstcc	r6, r8, lsr r1
     788:	2a2d2f2b 	bcs	b4c43c <__kernel_end+0x9ea43c>
     78c:	2f2b4d32 	svccs	0x002b4d32
     790:	302f4d2d 	eorcc	r4, pc, sp, lsr #26
     794:	09036b2c 	stmdbeq	r3, {r2, r3, r5, r8, r9, fp, sp, lr}
     798:	29332901 	ldmdbcs	r3!, {r0, r8, fp, sp}
     79c:	2e09032a 	cdpcs	3, 0, cr0, cr9, cr10, {1}
     7a0:	45693329 	strbmi	r3, [r9, #-809]!	; 0xfffffcd7
     7a4:	7603a533 			; <UNDEFINED> instruction: 0x7603a533
     7a8:	4a0f0382 	bmi	3c15b8 <__kernel_end+0x25f5b8>
     7ac:	2e6f0335 	mcrcs	3, 3, r0, cr15, cr5, {1}
     7b0:	032e0d03 			; <UNDEFINED> instruction: 0x032e0d03
     7b4:	0d032e73 	stceq	14, cr2, [r3, #-460]	; 0xfffffe34
     7b8:	4b652f4a 	blmi	194c4e8 <__kernel_end+0x17ea4e8>
     7bc:	000c0230 	andeq	r0, ip, r0, lsr r2
     7c0:	01570101 	cmpeq	r7, r1, lsl #2
     7c4:	00020000 	andeq	r0, r2, r0
     7c8:	00000111 	andeq	r0, r0, r1, lsl r1
     7cc:	0efb0102 	cdpeq	1, 15, cr0, cr11, cr2, {0}
     7d0:	0101000d 	tsteq	r1, sp
     7d4:	00000101 	andeq	r0, r0, r1, lsl #2
     7d8:	00000100 	andeq	r0, r0, r0, lsl #2
     7dc:	63726101 	cmnvs	r2, #1073741824	; 0x40000000
     7e0:	72612f68 	rsbvc	r2, r1, #104, 30	; 0x1a0
     7e4:	552f006d 	strpl	r0, [pc, #-109]!	; 77f <ARM_I_BIT+0x6ff>
     7e8:	73726573 	cmnvc	r2, #482344960	; 0x1cc00000
     7ec:	6172702f 	cmnvs	r2, pc, lsr #32
     7f0:	6873616b 	ldmdavs	r3!, {r0, r1, r3, r5, r6, r8, sp, lr}^
     7f4:	6b726f62 	blvs	1c9c584 <__kernel_end+0x1b3a584>
     7f8:	672f7261 	strvs	r7, [pc, -r1, ror #4]!
     7fc:	612d6363 			; <UNDEFINED> instruction: 0x612d6363
     800:	6e2d6d72 	mcrvs	13, 1, r6, cr13, cr2, {3}
     804:	2d656e6f 	stclcs	14, cr6, [r5, #-444]!	; 0xfffffe44
     808:	69626165 	stmdbvs	r2!, {r0, r2, r5, r6, r8, sp, lr}^
     80c:	62696c2f 	rsbvs	r6, r9, #12032	; 0x2f00
     810:	6363672f 	cmnvs	r3, #12320768	; 0xbc0000
     814:	6d72612f 	ldfvse	f6, [r2, #-188]!	; 0xffffff44
     818:	6e6f6e2d 	cdpvs	14, 6, cr6, cr15, cr13, {1}
     81c:	61652d65 	cmnvs	r5, r5, ror #26
     820:	352f6962 	strcc	r6, [pc, #-2402]!	; fffffec6 <__kernel_end+0xffe9dec6>
     824:	312e342e 			; <UNDEFINED> instruction: 0x312e342e
     828:	636e692f 	cmnvs	lr, #770048	; 0xbc000
     82c:	6564756c 	strbvs	r7, [r4, #-1388]!	; 0xfffffa94
     830:	636e6900 	cmnvs	lr, #0, 18
     834:	6564756c 	strbvs	r7, [r4, #-1388]!	; 0xfffffa94
     838:	72656b2f 	rsbvc	r6, r5, #48128	; 0xbc00
     83c:	006c656e 	rsbeq	r6, ip, lr, ror #10
     840:	6573552f 	ldrbvs	r5, [r3, #-1327]!	; 0xfffffad1
     844:	702f7372 	eorvc	r7, pc, r2, ror r3	; <UNPREDICTABLE>
     848:	616b6172 	smcvs	46610	; 0xb612
     84c:	6f626873 	svcvs	0x00626873
     850:	72616b72 	rsbvc	r6, r1, #116736	; 0x1c800
     854:	7365442f 	cmnvc	r5, #788529152	; 0x2f000000
     858:	706f746b 	rsbvc	r7, pc, fp, ror #8
     85c:	6d65522f 	sfmvs	f5, 2, [r5, #-188]!	; 0xffffff44
     860:	5f65746f 	svcpl	0x0065746f
     864:	6f706552 	svcvs	0x00706552
     868:	6970722f 	ldmdbvs	r0!, {r0, r1, r2, r3, r5, r9, ip, sp, lr}^
     86c:	2d736f2d 	ldclcs	15, cr6, [r3, #-180]!	; 0xffffff4c
     870:	74726175 	ldrbtvc	r6, [r2], #-373	; 0xfffffe8b
     874:	6970722f 	ldmdbvs	r0!, {r0, r1, r2, r3, r5, r9, ip, sp, lr}^
     878:	6d2d6233 	sfmvs	f6, 4, [sp, #-204]!	; 0xffffff34
     87c:	79746165 	ldmdbvc	r4!, {r0, r2, r5, r6, r8, sp, lr}^
     880:	656b732d 	strbvs	r7, [fp, #-813]!	; 0xfffffcd3
     884:	6f74656c 	svcvs	0x0074656c
     888:	79732f6e 	ldmdbvc	r3!, {r1, r2, r3, r5, r6, r8, r9, sl, fp, sp}^
     88c:	6f6f7273 	svcvs	0x006f7273
     890:	73752f74 	cmnvc	r5, #116, 30	; 0x1d0
     894:	6e692f72 	mcrvs	15, 3, r2, cr9, cr2, {3}
     898:	64756c63 	ldrbtvs	r6, [r5], #-3171	; 0xfffff39d
     89c:	6c702f65 	ldclvs	15, cr2, [r0], #-404	; 0xfffffe6c
     8a0:	00636269 	rsbeq	r6, r3, r9, ror #4
     8a4:	73797300 	cmnvc	r9, #0, 6
     8a8:	656d6974 	strbvs	r6, [sp, #-2420]!	; 0xfffff68c
     8ac:	00632e72 	rsbeq	r2, r3, r2, ror lr
     8b0:	73000001 	movwvc	r0, #1
     8b4:	6e696474 	mcrvs	4, 3, r6, cr9, cr4, {3}
     8b8:	63672d74 	cmnvs	r7, #116, 26	; 0x1d00
     8bc:	00682e63 	rsbeq	r2, r8, r3, ror #28
     8c0:	73000002 	movwvc	r0, #2
     8c4:	69747379 	ldmdbvs	r4!, {r0, r3, r4, r5, r6, r8, r9, ip, sp, lr}^
     8c8:	2e72656d 	cdpcs	5, 7, cr6, cr2, cr13, {3}
     8cc:	00030068 	andeq	r0, r3, r8, rrx
     8d0:	64747300 	ldrbtvs	r7, [r4], #-768	; 0xfffffd00
     8d4:	682e6f69 	stmdavs	lr!, {r0, r3, r5, r6, r8, r9, sl, fp, sp, lr}
     8d8:	00000400 	andeq	r0, r0, r0, lsl #8
     8dc:	02050000 	andeq	r0, r5, #0
     8e0:	00008c98 	muleq	r0, r8, ip
     8e4:	13011503 	movwne	r1, #5379	; 0x1503
     8e8:	6b2f6583 	blvs	bd9efc <__kernel_end+0xa77efc>
     8ec:	9f83da13 	svcls	0x0083da13
     8f0:	304b4bd7 	ldrdcc	r4, [fp], #-183	; 0xffffff49
     8f4:	bbbb9f9f 	bllt	feee8778 <__kernel_end+0xfed86778>
     8f8:	d67903bb 			; <UNDEFINED> instruction: 0xd67903bb
     8fc:	08820903 	stmeq	r2, {r0, r1, r8, fp}
     900:	696915af 	stmdbvs	r9!, {r0, r1, r2, r3, r5, r7, r8, sl, ip}^
     904:	00832d4c 	addeq	r2, r3, ip, asr #26
     908:	a1010402 	tstge	r1, r2, lsl #8
     90c:	01040200 	mrseq	r0, R12_usr
     910:	0402002f 	streq	r0, [r2], #-47	; 0xffffffd1
     914:	bc832f01 	stclt	15, cr2, [r3], {1}
     918:	01000802 	tsteq	r0, r2, lsl #16
     91c:	00014601 	andeq	r4, r1, r1, lsl #12
     920:	07000200 	streq	r0, [r0, -r0, lsl #4]
     924:	02000001 	andeq	r0, r0, #1
     928:	0d0efb01 	vstreq	d15, [lr, #-4]
     92c:	01010100 	mrseq	r0, (UNDEF: 17)
     930:	00000001 	andeq	r0, r0, r1
     934:	01000001 	tsteq	r0, r1
     938:	006d656d 	rsbeq	r6, sp, sp, ror #10
     93c:	6c636e69 	stclvs	14, cr6, [r3], #-420	; 0xfffffe5c
     940:	2f656475 	svccs	0x00656475
     944:	006d656d 	rsbeq	r6, sp, sp, ror #10
     948:	6573552f 	ldrbvs	r5, [r3, #-1327]!	; 0xfffffad1
     94c:	702f7372 	eorvc	r7, pc, r2, ror r3	; <UNPREDICTABLE>
     950:	616b6172 	smcvs	46610	; 0xb612
     954:	6f626873 	svcvs	0x00626873
     958:	72616b72 	rsbvc	r6, r1, #116736	; 0x1c800
     95c:	7365442f 	cmnvc	r5, #788529152	; 0x2f000000
     960:	706f746b 	rsbvc	r7, pc, fp, ror #8
     964:	6d65522f 	sfmvs	f5, 2, [r5, #-188]!	; 0xffffff44
     968:	5f65746f 	svcpl	0x0065746f
     96c:	6f706552 	svcvs	0x00706552
     970:	6970722f 	ldmdbvs	r0!, {r0, r1, r2, r3, r5, r9, ip, sp, lr}^
     974:	2d736f2d 	ldclcs	15, cr6, [r3, #-180]!	; 0xffffff4c
     978:	74726175 	ldrbtvc	r6, [r2], #-373	; 0xfffffe8b
     97c:	6970722f 	ldmdbvs	r0!, {r0, r1, r2, r3, r5, r9, ip, sp, lr}^
     980:	6d2d6233 	sfmvs	f6, 4, [sp, #-204]!	; 0xffffff34
     984:	79746165 	ldmdbvc	r4!, {r0, r2, r5, r6, r8, sp, lr}^
     988:	656b732d 	strbvs	r7, [fp, #-813]!	; 0xfffffcd3
     98c:	6f74656c 	svcvs	0x0074656c
     990:	79732f6e 	ldmdbvc	r3!, {r1, r2, r3, r5, r6, r8, r9, sl, fp, sp}^
     994:	6f6f7273 	svcvs	0x006f7273
     998:	73752f74 	cmnvc	r5, #116, 30	; 0x1d0
     99c:	6e692f72 	mcrvs	15, 3, r2, cr9, cr2, {3}
     9a0:	64756c63 	ldrbtvs	r6, [r5], #-3171	; 0xfffff39d
     9a4:	6c702f65 	ldclvs	15, cr2, [r0], #-404	; 0xfffffe6c
     9a8:	00636269 	rsbeq	r6, r3, r9, ror #4
     9ac:	6573552f 	ldrbvs	r5, [r3, #-1327]!	; 0xfffffad1
     9b0:	702f7372 	eorvc	r7, pc, r2, ror r3	; <UNPREDICTABLE>
     9b4:	616b6172 	smcvs	46610	; 0xb612
     9b8:	6f626873 	svcvs	0x00626873
     9bc:	72616b72 	rsbvc	r6, r1, #116736	; 0x1c800
     9c0:	6363672f 	cmnvs	r3, #12320768	; 0xbc0000
     9c4:	6d72612d 	ldfvse	f6, [r2, #-180]!	; 0xffffff4c
     9c8:	6e6f6e2d 	cdpvs	14, 6, cr6, cr15, cr13, {1}
     9cc:	61652d65 	cmnvs	r5, r5, ror #26
     9d0:	6c2f6962 	stcvs	9, cr6, [pc], #-392	; 850 <SCTLR_ENABLE_BRANCH_PREDICTION+0x50>
     9d4:	672f6269 	strvs	r6, [pc, -r9, ror #4]!
     9d8:	612f6363 			; <UNDEFINED> instruction: 0x612f6363
     9dc:	6e2d6d72 	mcrvs	13, 1, r6, cr13, cr2, {3}
     9e0:	2d656e6f 	stclcs	14, cr6, [r5, #-444]!	; 0xfffffe44
     9e4:	69626165 	stmdbvs	r2!, {r0, r2, r5, r6, r8, sp, lr}^
     9e8:	342e352f 	strtcc	r3, [lr], #-1327	; 0xfffffad1
     9ec:	692f312e 	stmdbvs	pc!, {r1, r2, r3, r5, r8, ip, sp}	; <UNPREDICTABLE>
     9f0:	756c636e 	strbvc	r6, [ip, #-878]!	; 0xfffffc92
     9f4:	00006564 	andeq	r6, r0, r4, ror #10
     9f8:	74726976 	ldrbtvc	r6, [r2], #-2422	; 0xfffff68a
     9fc:	2e6d656d 	cdpcs	5, 6, cr6, cr13, cr13, {3}
     a00:	00010063 	andeq	r0, r1, r3, rrx
     a04:	72697600 	rsbvc	r7, r9, #0, 12
     a08:	6d656d74 	stclvs	13, cr6, [r5, #-464]!	; 0xfffffe30
     a0c:	0200682e 	andeq	r6, r0, #3014656	; 0x2e0000
     a10:	74730000 	ldrbtvc	r0, [r3], #-0
     a14:	2e6f6964 	cdpcs	9, 6, cr6, cr15, cr4, {3}
     a18:	00030068 	andeq	r0, r3, r8, rrx
     a1c:	64747300 	ldrbtvs	r7, [r4], #-768	; 0xfffffd00
     a20:	2d746e69 	ldclcs	14, cr6, [r4, #-420]!	; 0xfffffe5c
     a24:	2e636367 	cdpcs	3, 6, cr6, cr3, cr7, {3}
     a28:	00040068 	andeq	r0, r4, r8, rrx
     a2c:	05000000 	streq	r0, [r0, #-0]
     a30:	008e9002 	addeq	r9, lr, r2
     a34:	011f0300 	tsteq	pc, r0, lsl #6
     a38:	31010903 	tstcc	r1, r3, lsl #18
     a3c:	032e0d03 			; <UNDEFINED> instruction: 0x032e0d03
     a40:	10034a70 	andne	r4, r3, r0, ror sl
     a44:	2e73032e 	cdpcs	3, 7, cr0, cr3, cr14, {1}
     a48:	032e7403 			; <UNDEFINED> instruction: 0x032e7403
     a4c:	03842e19 	orreq	r2, r4, #400	; 0x190
     a50:	2d2f664f 	stccs	6, cr6, [pc, #-316]!	; 91c <SCTLR_ENABLE_BRANCH_PREDICTION+0x11c>
     a54:	2b692f2e 	blcs	1a4c714 <__kernel_end+0x18ea714>
     a58:	312b836b 			; <UNDEFINED> instruction: 0x312b836b
     a5c:	67a08335 			; <UNDEFINED> instruction: 0x67a08335
     a60:	10022d67 	andne	r2, r2, r7, ror #26
     a64:	eb010100 	bl	40e6c <__first_lvl_tbl_end+0x1fe6c>
     a68:	02000001 	andeq	r0, r0, #1
     a6c:	00013100 	andeq	r3, r1, r0, lsl #2
     a70:	fb010200 	blx	4127a <__first_lvl_tbl_end+0x2027a>
     a74:	01000d0e 	tsteq	r0, lr, lsl #26
     a78:	00010101 	andeq	r0, r1, r1, lsl #2
     a7c:	00010000 	andeq	r0, r1, r0
     a80:	656d0100 	strbvs	r0, [sp, #-256]!	; 0xffffff00
     a84:	552f006d 	strpl	r0, [pc, #-109]!	; a1f <SCTLR_ENABLE_BRANCH_PREDICTION+0x21f>
     a88:	73726573 	cmnvc	r2, #482344960	; 0x1cc00000
     a8c:	6172702f 	cmnvs	r2, pc, lsr #32
     a90:	6873616b 	ldmdavs	r3!, {r0, r1, r3, r5, r6, r8, sp, lr}^
     a94:	6b726f62 	blvs	1c9c824 <__kernel_end+0x1b3a824>
     a98:	672f7261 	strvs	r7, [pc, -r1, ror #4]!
     a9c:	612d6363 			; <UNDEFINED> instruction: 0x612d6363
     aa0:	6e2d6d72 	mcrvs	13, 1, r6, cr13, cr2, {3}
     aa4:	2d656e6f 	stclcs	14, cr6, [r5, #-444]!	; 0xfffffe44
     aa8:	69626165 	stmdbvs	r2!, {r0, r2, r5, r6, r8, sp, lr}^
     aac:	62696c2f 	rsbvs	r6, r9, #12032	; 0x2f00
     ab0:	6363672f 	cmnvs	r3, #12320768	; 0xbc0000
     ab4:	6d72612f 	ldfvse	f6, [r2, #-188]!	; 0xffffff44
     ab8:	6e6f6e2d 	cdpvs	14, 6, cr6, cr15, cr13, {1}
     abc:	61652d65 	cmnvs	r5, r5, ror #26
     ac0:	352f6962 	strcc	r6, [pc, #-2402]!	; 166 <ARM_I_BIT+0xe6>
     ac4:	312e342e 			; <UNDEFINED> instruction: 0x312e342e
     ac8:	636e692f 	cmnvs	lr, #770048	; 0xbc000
     acc:	6564756c 	strbvs	r7, [r4, #-1388]!	; 0xfffffa94
     ad0:	636e6900 	cmnvs	lr, #0, 18
     ad4:	6564756c 	strbvs	r7, [r4, #-1388]!	; 0xfffffa94
     ad8:	6d656d2f 	stclvs	13, cr6, [r5, #-188]!	; 0xffffff44
     adc:	636e6900 	cmnvs	lr, #0, 18
     ae0:	6564756c 	strbvs	r7, [r4, #-1388]!	; 0xfffffa94
     ae4:	72656b2f 	rsbvc	r6, r5, #48128	; 0xbc00
     ae8:	006c656e 	rsbeq	r6, ip, lr, ror #10
     aec:	6573552f 	ldrbvs	r5, [r3, #-1327]!	; 0xfffffad1
     af0:	702f7372 	eorvc	r7, pc, r2, ror r3	; <UNPREDICTABLE>
     af4:	616b6172 	smcvs	46610	; 0xb612
     af8:	6f626873 	svcvs	0x00626873
     afc:	72616b72 	rsbvc	r6, r1, #116736	; 0x1c800
     b00:	7365442f 	cmnvc	r5, #788529152	; 0x2f000000
     b04:	706f746b 	rsbvc	r7, pc, fp, ror #8
     b08:	6d65522f 	sfmvs	f5, 2, [r5, #-188]!	; 0xffffff44
     b0c:	5f65746f 	svcpl	0x0065746f
     b10:	6f706552 	svcvs	0x00706552
     b14:	6970722f 	ldmdbvs	r0!, {r0, r1, r2, r3, r5, r9, ip, sp, lr}^
     b18:	2d736f2d 	ldclcs	15, cr6, [r3, #-180]!	; 0xffffff4c
     b1c:	74726175 	ldrbtvc	r6, [r2], #-373	; 0xfffffe8b
     b20:	6970722f 	ldmdbvs	r0!, {r0, r1, r2, r3, r5, r9, ip, sp, lr}^
     b24:	6d2d6233 	sfmvs	f6, 4, [sp, #-204]!	; 0xffffff34
     b28:	79746165 	ldmdbvc	r4!, {r0, r2, r5, r6, r8, sp, lr}^
     b2c:	656b732d 	strbvs	r7, [fp, #-813]!	; 0xfffffcd3
     b30:	6f74656c 	svcvs	0x0074656c
     b34:	79732f6e 	ldmdbvc	r3!, {r1, r2, r3, r5, r6, r8, r9, sl, fp, sp}^
     b38:	6f6f7273 	svcvs	0x006f7273
     b3c:	73752f74 	cmnvc	r5, #116, 30	; 0x1d0
     b40:	6e692f72 	mcrvs	15, 3, r2, cr9, cr2, {3}
     b44:	64756c63 	ldrbtvs	r6, [r5], #-3171	; 0xfffff39d
     b48:	6c702f65 	ldclvs	15, cr2, [r0], #-404	; 0xfffffe6c
     b4c:	00636269 	rsbeq	r6, r3, r9, ror #4
     b50:	79687000 	stmdbvc	r8!, {ip, sp, lr}^
     b54:	6d656d73 	stclvs	13, cr6, [r5, #-460]!	; 0xfffffe34
     b58:	0100632e 	tsteq	r0, lr, lsr #6
     b5c:	74730000 	ldrbtvc	r0, [r3], #-0
     b60:	746e6964 	strbtvc	r6, [lr], #-2404	; 0xfffff69c
     b64:	6363672d 	cmnvs	r3, #11796480	; 0xb40000
     b68:	0200682e 	andeq	r6, r0, #3014656	; 0x2e0000
     b6c:	68700000 	ldmdavs	r0!, {}^	; <UNPREDICTABLE>
     b70:	656d7379 	strbvs	r7, [sp, #-889]!	; 0xfffffc87
     b74:	00682e6d 	rsbeq	r2, r8, sp, ror #28
     b78:	72000003 	andvc	r0, r0, #3
     b7c:	6d2d6970 	stcvs	9, cr6, [sp, #-448]!	; 0xfffffe40
     b80:	626c6961 	rsbvs	r6, ip, #1589248	; 0x184000
     b84:	692d786f 	pushvs	{r0, r1, r2, r3, r5, r6, fp, ip, sp, lr}
     b88:	7265746e 	rsbvc	r7, r5, #1845493760	; 0x6e000000
     b8c:	65636166 	strbvs	r6, [r3, #-358]!	; 0xfffffe9a
     b90:	0400682e 	streq	r6, [r0], #-2094	; 0xfffff7d2
     b94:	74730000 	ldrbtvc	r0, [r3], #-0
     b98:	2e6f6964 	cdpcs	9, 6, cr6, cr15, cr4, {3}
     b9c:	00050068 	andeq	r0, r5, r8, rrx
     ba0:	05000000 	streq	r0, [r0, #-0]
     ba4:	008f7402 	addeq	r7, pc, r2, lsl #8
     ba8:	010e0300 	mrseq	r0, ELR_hyp
     bac:	01200801 			; <UNDEFINED> instruction: 0x01200801
     bb0:	4a012008 	bmi	48bd8 <__first_lvl_tbl_end+0x27bd8>
     bb4:	01580801 	cmpeq	r8, r1, lsl #16
     bb8:	0150014a 	cmpeq	r0, sl, asr #2
     bbc:	032f2d2f 			; <UNDEFINED> instruction: 0x032f2d2f
     bc0:	324a8225 	subcc	r8, sl, #1342177282	; 0x50000002
     bc4:	352a4fbe 	strcc	r4, [sl, #-4030]!	; 0xfffff042
     bc8:	694d2b2b 	stmdbvs	sp, {r0, r1, r3, r5, r8, r9, fp, sp}^
     bcc:	16852f4c 	strne	r2, [r5], ip, asr #30
     bd0:	03323246 	teqeq	r2, #1610612740	; 0x60000004
     bd4:	4e322e78 	mrcmi	14, 1, r2, cr2, cr8, {3}
     bd8:	2fa2672d 	svccs	0x00a2672d
     bdc:	31672fa3 	cmncc	r7, r3, lsr #31
     be0:	2b313068 	blcs	c4cd88 <__kernel_end+0xaead88>
     be4:	7faa0332 	svcvc	0x00aa0332
     be8:	2d2f324a 	sfmcs	f3, 4, [pc, #-296]!	; ac8 <SCTLR_ENABLE_BRANCH_PREDICTION+0x2c8>
     bec:	2f2d2f2f 	svccs	0x002d2f2f
     bf0:	032f2f2d 			; <UNDEFINED> instruction: 0x032f2f2d
     bf4:	2d354a79 	vldmdbcs	r5!, {s8-s128}
     bf8:	352e7a03 	strcc	r7, [lr, #-2563]!	; 0xfffff5fd
     bfc:	2f2f2d32 	svccs	0x002f2d32
     c00:	334b2f2d 	movtcc	r2, #48941	; 0xbf2d
     c04:	0200a329 	andeq	sl, r0, #-1543503872	; 0xa4000000
     c08:	00680304 	rsbeq	r0, r8, r4, lsl #6
     c0c:	48030402 	stmdami	r3, {r1, sl}
     c10:	03040200 	movweq	r0, #16896	; 0x4200
     c14:	04020031 	streq	r0, [r2], #-49	; 0xffffffcf
     c18:	02002b03 	andeq	r2, r0, #3072	; 0xc00
     c1c:	004e0304 	subeq	r0, lr, r4, lsl #6
     c20:	46030402 	strmi	r0, [r3], -r2, lsl #8
     c24:	01040200 	mrseq	r0, R12_usr
     c28:	04020035 	streq	r0, [r2], #-53	; 0xffffffcb
     c2c:	0200bc02 	andeq	fp, r0, #512	; 0x200
     c30:	002f0204 	eoreq	r0, pc, r4, lsl #4
     c34:	2b020402 	blcs	81c44 <__first_lvl_tbl_end+0x60c44>
     c38:	02040200 	andeq	r0, r4, #0, 4
     c3c:	04020030 	streq	r0, [r2], #-48	; 0xffffffd0
     c40:	02002f02 	andeq	r2, r0, #2, 30
     c44:	00490204 	subeq	r0, r9, r4, lsl #4
     c48:	67020402 	strvs	r0, [r2, -r2, lsl #8]
     c4c:	02040200 	andeq	r0, r4, #0, 4
     c50:	0016022b 	andseq	r0, r6, fp, lsr #4
     c54:	01290101 			; <UNDEFINED> instruction: 0x01290101
     c58:	00020000 	andeq	r0, r2, r0
     c5c:	000000a6 	andeq	r0, r0, r6, lsr #1
     c60:	0efb0102 	cdpeq	1, 15, cr0, cr11, cr2, {0}
     c64:	0101000d 	tsteq	r1, sp
     c68:	00000101 	andeq	r0, r0, r1, lsl #2
     c6c:	00000100 	andeq	r0, r0, r0, lsl #2
     c70:	76656401 	strbtvc	r6, [r5], -r1, lsl #8
     c74:	00656369 	rsbeq	r6, r5, r9, ror #6
     c78:	6573552f 	ldrbvs	r5, [r3, #-1327]!	; 0xfffffad1
     c7c:	702f7372 	eorvc	r7, pc, r2, ror r3	; <UNPREDICTABLE>
     c80:	616b6172 	smcvs	46610	; 0xb612
     c84:	6f626873 	svcvs	0x00626873
     c88:	72616b72 	rsbvc	r6, r1, #116736	; 0x1c800
     c8c:	6363672f 	cmnvs	r3, #12320768	; 0xbc0000
     c90:	6d72612d 	ldfvse	f6, [r2, #-180]!	; 0xffffff4c
     c94:	6e6f6e2d 	cdpvs	14, 6, cr6, cr15, cr13, {1}
     c98:	61652d65 	cmnvs	r5, r5, ror #26
     c9c:	6c2f6962 	stcvs	9, cr6, [pc], #-392	; b1c <SCTLR_ENABLE_BRANCH_PREDICTION+0x31c>
     ca0:	672f6269 	strvs	r6, [pc, -r9, ror #4]!
     ca4:	612f6363 			; <UNDEFINED> instruction: 0x612f6363
     ca8:	6e2d6d72 	mcrvs	13, 1, r6, cr13, cr2, {3}
     cac:	2d656e6f 	stclcs	14, cr6, [r5, #-444]!	; 0xfffffe44
     cb0:	69626165 	stmdbvs	r2!, {r0, r2, r5, r6, r8, sp, lr}^
     cb4:	342e352f 	strtcc	r3, [lr], #-1327	; 0xfffffad1
     cb8:	692f312e 	stmdbvs	pc!, {r1, r2, r3, r5, r8, ip, sp}	; <UNPREDICTABLE>
     cbc:	756c636e 	strbvc	r6, [ip, #-878]!	; 0xfffffc92
     cc0:	69006564 	stmdbvs	r0, {r2, r5, r6, r8, sl, sp, lr}
     cc4:	756c636e 	strbvc	r6, [ip, #-878]!	; 0xfffffc92
     cc8:	642f6564 	strtvs	r6, [pc], #-1380	; cd0 <SCTLR_ENABLE_BRANCH_PREDICTION+0x4d0>
     ccc:	63697665 	cmnvs	r9, #105906176	; 0x6500000
     cd0:	75000065 	strvc	r0, [r0, #-101]	; 0xffffff9b
     cd4:	30747261 	rsbscc	r7, r4, r1, ror #4
     cd8:	0100632e 	tsteq	r0, lr, lsr #6
     cdc:	74730000 	ldrbtvc	r0, [r3], #-0
     ce0:	746e6964 	strbtvc	r6, [lr], #-2404	; 0xfffff69c
     ce4:	6363672d 	cmnvs	r3, #11796480	; 0xb40000
     ce8:	0200682e 	andeq	r6, r0, #3014656	; 0x2e0000
     cec:	74730000 	ldrbtvc	r0, [r3], #-0
     cf0:	66656464 	strbtvs	r6, [r5], -r4, ror #8
     cf4:	0200682e 	andeq	r6, r0, #3014656	; 0x2e0000
     cf8:	61750000 	cmnvs	r5, r0
     cfc:	2e307472 	mrccs	4, 1, r7, cr0, cr2, {3}
     d00:	00030068 	andeq	r0, r3, r8, rrx
     d04:	05000000 	streq	r0, [r0, #-0]
     d08:	00923402 	addseq	r3, r2, r2, lsl #8
     d0c:	01230300 			; <UNDEFINED> instruction: 0x01230300
     d10:	03016903 	movweq	r6, #6403	; 0x1903
     d14:	7403820c 	strvc	r8, [r3], #-524	; 0xfffffdf4
     d18:	2e0c032e 	cdpcs	3, 0, cr0, cr12, cr14, {1}
     d1c:	032e7403 			; <UNDEFINED> instruction: 0x032e7403
     d20:	74034a0c 	strvc	r4, [r3], #-2572	; 0xfffff5f4
     d24:	4a0c034a 	bmi	301a54 <__kernel_end+0x19fa54>
     d28:	034a7403 	movteq	r7, #41987	; 0xa403
     d2c:	ac0800c0 	stcge	0, cr0, [r8], {192}	; 0xc0
     d30:	00014603 	andeq	r4, r1, r3, lsl #12
     d34:	06010402 	streq	r0, [r1], -r2, lsl #8
     d38:	0402004a 	streq	r0, [r2], #-74	; 0xffffffb6
     d3c:	3c030601 	stccc	6, cr0, [r3], {1}
     d40:	7fbe0366 	svcvc	0x00be0366
     d44:	00c9034a 	sbceq	r0, r9, sl, asr #6
     d48:	7fbd034a 	svcvc	0x00bd034a
     d4c:	04020001 	streq	r0, [r2], #-1
     d50:	004a0601 	subeq	r0, sl, r1, lsl #12
     d54:	06010402 	streq	r0, [r1], -r2, lsl #8
     d58:	6600c503 	strvs	ip, [r0], -r3, lsl #10
     d5c:	4a7fbb03 	bmi	1fef970 <__kernel_end+0x1e8d970>
     d60:	2e00c903 	cdpcs	9, 0, cr12, cr0, cr3, {0}
     d64:	002f2e4d 	eoreq	r2, pc, sp, asr #28
     d68:	67030402 	strvs	r0, [r3, -r2, lsl #8]
     d6c:	03040200 	movweq	r0, #16896	; 0x4200
     d70:	332e872d 			; <UNDEFINED> instruction: 0x332e872d
     d74:	314b2f31 	cmpcc	fp, r1, lsr pc
     d78:	4d4b312c 	stfmie	f3, [fp, #-176]	; 0xffffff50
     d7c:	02022d2f 	andeq	r2, r2, #3008	; 0xbc0
     d80:	eb010100 	bl	41188 <__first_lvl_tbl_end+0x20188>
     d84:	02000001 	andeq	r0, r0, #1
     d88:	00013300 	andeq	r3, r1, r0, lsl #6
     d8c:	fb010200 	blx	41596 <__first_lvl_tbl_end+0x20596>
     d90:	01000d0e 	tsteq	r0, lr, lsl #26
     d94:	00010101 	andeq	r0, r1, r1, lsl #2
     d98:	00010000 	andeq	r0, r1, r0
     d9c:	65640100 	strbvs	r0, [r4, #-256]!	; 0xffffff00
     da0:	65636976 	strbvs	r6, [r3, #-2422]!	; 0xfffff68a
     da4:	636e6900 	cmnvs	lr, #0, 18
     da8:	6564756c 	strbvs	r7, [r4, #-1388]!	; 0xfffffa94
     dac:	7665642f 	strbtvc	r6, [r5], -pc, lsr #8
     db0:	00656369 	rsbeq	r6, r5, r9, ror #6
     db4:	6573552f 	ldrbvs	r5, [r3, #-1327]!	; 0xfffffad1
     db8:	702f7372 	eorvc	r7, pc, r2, ror r3	; <UNPREDICTABLE>
     dbc:	616b6172 	smcvs	46610	; 0xb612
     dc0:	6f626873 	svcvs	0x00626873
     dc4:	72616b72 	rsbvc	r6, r1, #116736	; 0x1c800
     dc8:	7365442f 	cmnvc	r5, #788529152	; 0x2f000000
     dcc:	706f746b 	rsbvc	r7, pc, fp, ror #8
     dd0:	6d65522f 	sfmvs	f5, 2, [r5, #-188]!	; 0xffffff44
     dd4:	5f65746f 	svcpl	0x0065746f
     dd8:	6f706552 	svcvs	0x00706552
     ddc:	6970722f 	ldmdbvs	r0!, {r0, r1, r2, r3, r5, r9, ip, sp, lr}^
     de0:	2d736f2d 	ldclcs	15, cr6, [r3, #-180]!	; 0xffffff4c
     de4:	74726175 	ldrbtvc	r6, [r2], #-373	; 0xfffffe8b
     de8:	6970722f 	ldmdbvs	r0!, {r0, r1, r2, r3, r5, r9, ip, sp, lr}^
     dec:	6d2d6233 	sfmvs	f6, 4, [sp, #-204]!	; 0xffffff34
     df0:	79746165 	ldmdbvc	r4!, {r0, r2, r5, r6, r8, sp, lr}^
     df4:	656b732d 	strbvs	r7, [fp, #-813]!	; 0xfffffcd3
     df8:	6f74656c 	svcvs	0x0074656c
     dfc:	79732f6e 	ldmdbvc	r3!, {r1, r2, r3, r5, r6, r8, r9, sl, fp, sp}^
     e00:	6f6f7273 	svcvs	0x006f7273
     e04:	73752f74 	cmnvc	r5, #116, 30	; 0x1d0
     e08:	6e692f72 	mcrvs	15, 3, r2, cr9, cr2, {3}
     e0c:	64756c63 	ldrbtvs	r6, [r5], #-3171	; 0xfffff39d
     e10:	6c702f65 	ldclvs	15, cr2, [r0], #-404	; 0xfffffe6c
     e14:	00636269 	rsbeq	r6, r3, r9, ror #4
     e18:	6c636e69 	stclvs	14, cr6, [r3], #-420	; 0xfffffe5c
     e1c:	2f656475 	svccs	0x00656475
     e20:	6e72656b 	cdpvs	5, 7, cr6, cr2, cr11, {3}
     e24:	2f006c65 	svccs	0x00006c65
     e28:	72657355 	rsbvc	r7, r5, #1409286145	; 0x54000001
     e2c:	72702f73 	rsbsvc	r2, r0, #460	; 0x1cc
     e30:	73616b61 	cmnvc	r1, #99328	; 0x18400
     e34:	726f6268 	rsbvc	r6, pc, #104, 4	; 0x80000006
     e38:	2f72616b 	svccs	0x0072616b
     e3c:	2d636367 	stclcs	3, cr6, [r3, #-412]!	; 0xfffffe64
     e40:	2d6d7261 	sfmcs	f7, 2, [sp, #-388]!	; 0xfffffe7c
     e44:	656e6f6e 	strbvs	r6, [lr, #-3950]!	; 0xfffff092
     e48:	6261652d 	rsbvs	r6, r1, #188743680	; 0xb400000
     e4c:	696c2f69 	stmdbvs	ip!, {r0, r3, r5, r6, r8, r9, sl, fp, sp}^
     e50:	63672f62 	cmnvs	r7, #392	; 0x188
     e54:	72612f63 	rsbvc	r2, r1, #396	; 0x18c
     e58:	6f6e2d6d 	svcvs	0x006e2d6d
     e5c:	652d656e 	strvs	r6, [sp, #-1390]!	; 0xfffffa92
     e60:	2f696261 	svccs	0x00696261
     e64:	2e342e35 	mrccs	14, 1, r2, cr4, cr5, {1}
     e68:	6e692f31 	mcrvs	15, 3, r2, cr9, cr1, {1}
     e6c:	64756c63 	ldrbtvs	r6, [r5], #-3171	; 0xfffff39d
     e70:	64000065 	strvs	r0, [r0], #-101	; 0xffffff9b
     e74:	632e616d 			; <UNDEFINED> instruction: 0x632e616d
     e78:	00000100 	andeq	r0, r0, r0, lsl #2
     e7c:	2e616d64 	cdpcs	13, 6, cr6, cr1, cr4, {3}
     e80:	00020068 	andeq	r0, r2, r8, rrx
     e84:	64747300 	ldrbtvs	r7, [r4], #-768	; 0xfffffd00
     e88:	682e6f69 	stmdavs	lr!, {r0, r3, r5, r6, r8, r9, sl, fp, sp, lr}
     e8c:	00000300 	andeq	r0, r0, r0, lsl #6
     e90:	74726175 	ldrbtvc	r6, [r2], #-373	; 0xfffffe8b
     e94:	00682e30 	rsbeq	r2, r8, r0, lsr lr
     e98:	72000002 	andvc	r0, r0, #2
     e9c:	692d6970 	pushvs	{r4, r5, r6, r8, fp, sp, lr}
     ea0:	7265746e 	rsbvc	r7, r5, #1845493760	; 0x6e000000
     ea4:	74707572 	ldrbtvc	r7, [r0], #-1394	; 0xfffffa8e
     ea8:	00682e73 	rsbeq	r2, r8, r3, ror lr
     eac:	73000004 	movwvc	r0, #4
     eb0:	6e696474 	mcrvs	4, 3, r6, cr9, cr4, {3}
     eb4:	63672d74 	cmnvs	r7, #116, 26	; 0x1d00
     eb8:	00682e63 	rsbeq	r2, r8, r3, ror #28
     ebc:	00000005 	andeq	r0, r0, r5
     ec0:	5c020500 	cfstr32pl	mvfx0, [r2], {-0}
     ec4:	03000093 	movweq	r0, #147	; 0x93
     ec8:	31010131 	tstcc	r1, r1, lsr r1
     ecc:	48322c2d 	ldmdami	r2!, {r0, r2, r3, r5, sl, fp, sp}
     ed0:	77032f9f 			; <UNDEFINED> instruction: 0x77032f9f
     ed4:	62031382 	andvs	r1, r3, #134217730	; 0x8000002
     ed8:	2d2f2e82 	stccs	14, cr2, [pc, #-520]!	; cd8 <SCTLR_ENABLE_BRANCH_PREDICTION+0x4d8>
     edc:	02004b2f 	andeq	r4, r0, #48128	; 0xbc00
     ee0:	00680304 	rsbeq	r0, r8, r4, lsl #6
     ee4:	48030402 	stmdami	r3, {r1, sl}
     ee8:	862d2f4e 	strthi	r2, [sp], -lr, asr #30
     eec:	03488413 	movteq	r8, #33811	; 0x8413
     ef0:	2f13660a 	svccs	0x0013660a
     ef4:	11032f67 	tstne	r3, r7, ror #30
     ef8:	3064304a 	rsbcc	r3, r4, sl, asr #32
     efc:	1d03302c 	stcne	0, cr3, [r3, #-176]	; 0xffffff50
     f00:	2e63032e 	cdpcs	3, 6, cr0, cr3, cr14, {1}
     f04:	03324630 	teqeq	r2, #48, 12	; 0x3000000
     f08:	1d032e0e 	stcne	14, cr2, [r3, #-56]	; 0xffffffc8
     f0c:	2e1b032e 	cdpcs	3, 1, cr0, cr11, cr14, {1}
     f10:	032e4803 			; <UNDEFINED> instruction: 0x032e4803
     f14:	c6032e72 			; <UNDEFINED> instruction: 0xc6032e72
     f18:	ba032e00 	blt	cc720 <__first_lvl_tbl_end+0xab720>
     f1c:	696a2e7f 	stmdbvs	sl!, {r0, r1, r2, r3, r4, r5, r6, r9, sl, fp, sp}^
     f20:	686784a0 	stmdavs	r7!, {r5, r7, sl, pc}^
     f24:	a44ba04b 	strbge	sl, [fp], #-75	; 0xffffffb5
     f28:	032e0e03 			; <UNDEFINED> instruction: 0x032e0e03
     f2c:	79032e79 	stmdbvc	r3, {r0, r3, r4, r5, r6, r9, sl, fp, sp}
     f30:	4a0e032e 	bmi	381bf0 <__kernel_end+0x21fbf0>
     f34:	312e7603 			; <UNDEFINED> instruction: 0x312e7603
     f38:	032f352b 			; <UNDEFINED> instruction: 0x032f352b
     f3c:	2b352e75 	blcs	d4c918 <__kernel_end+0xbea918>
     f40:	2e0e0329 	cdpcs	3, 0, cr0, cr14, cr9, {1}
     f44:	352e7403 	strcc	r7, [lr, #-1027]!	; 0xfffffbfd
     f48:	32352c2a 	eorscc	r2, r5, #10752	; 0x2a00
     f4c:	03f5862f 	mvnseq	r8, #49283072	; 0x2f00000
     f50:	78032e09 	stmdavc	r3, {r0, r3, r9, sl, fp, sp}
     f54:	09032d2e 	stmdbeq	r3, {r1, r2, r3, r5, r8, sl, fp, sp}
     f58:	2e77032e 	cdpcs	3, 7, cr0, cr7, cr14, {1}
     f5c:	2d31364b 	ldccs	6, cr3, [r1, #-300]!	; 0xfffffed4
     f60:	2f2d4c4b 	svccs	0x002d4c4b
     f64:	512f2d4c 			; <UNDEFINED> instruction: 0x512f2d4c
     f68:	4b684b67 	blmi	1a13d0c <__kernel_end+0x18b1d0c>
     f6c:	002c0267 	eoreq	r0, ip, r7, ror #4
     f70:	01b40101 			; <UNDEFINED> instruction: 0x01b40101
     f74:	00020000 	andeq	r0, r2, r0
     f78:	0000013d 	andeq	r0, r0, sp, lsr r1
     f7c:	0efb0102 	cdpeq	1, 15, cr0, cr11, cr2, {0}
     f80:	0101000d 	tsteq	r1, sp
     f84:	00000101 	andeq	r0, r0, r1, lsl #2
     f88:	00000100 	andeq	r0, r0, r0, lsl #2
     f8c:	76656401 	strbtvc	r6, [r5], -r1, lsl #8
     f90:	00656369 	rsbeq	r6, r5, r9, ror #6
     f94:	6573552f 	ldrbvs	r5, [r3, #-1327]!	; 0xfffffad1
     f98:	702f7372 	eorvc	r7, pc, r2, ror r3	; <UNPREDICTABLE>
     f9c:	616b6172 	smcvs	46610	; 0xb612
     fa0:	6f626873 	svcvs	0x00626873
     fa4:	72616b72 	rsbvc	r6, r1, #116736	; 0x1c800
     fa8:	6363672f 	cmnvs	r3, #12320768	; 0xbc0000
     fac:	6d72612d 	ldfvse	f6, [r2, #-180]!	; 0xffffff4c
     fb0:	6e6f6e2d 	cdpvs	14, 6, cr6, cr15, cr13, {1}
     fb4:	61652d65 	cmnvs	r5, r5, ror #26
     fb8:	6c2f6962 	stcvs	9, cr6, [pc], #-392	; e38 <SCTLR_ENABLE_BRANCH_PREDICTION+0x638>
     fbc:	672f6269 	strvs	r6, [pc, -r9, ror #4]!
     fc0:	612f6363 			; <UNDEFINED> instruction: 0x612f6363
     fc4:	6e2d6d72 	mcrvs	13, 1, r6, cr13, cr2, {3}
     fc8:	2d656e6f 	stclcs	14, cr6, [r5, #-444]!	; 0xfffffe44
     fcc:	69626165 	stmdbvs	r2!, {r0, r2, r5, r6, r8, sp, lr}^
     fd0:	342e352f 	strtcc	r3, [lr], #-1327	; 0xfffffad1
     fd4:	692f312e 	stmdbvs	pc!, {r1, r2, r3, r5, r8, ip, sp}	; <UNPREDICTABLE>
     fd8:	756c636e 	strbvc	r6, [ip, #-878]!	; 0xfffffc92
     fdc:	69006564 	stmdbvs	r0, {r2, r5, r6, r8, sl, sp, lr}
     fe0:	756c636e 	strbvc	r6, [ip, #-878]!	; 0xfffffc92
     fe4:	642f6564 	strtvs	r6, [pc], #-1380	; fec <SCTLR_ENABLE_BRANCH_PREDICTION+0x7ec>
     fe8:	63697665 	cmnvs	r9, #105906176	; 0x6500000
     fec:	6e690065 	cdpvs	0, 6, cr0, cr9, cr5, {3}
     ff0:	64756c63 	ldrbtvs	r6, [r5], #-3171	; 0xfffff39d
     ff4:	656b2f65 	strbvs	r2, [fp, #-3941]!	; 0xfffff09b
     ff8:	6c656e72 	stclvs	14, cr6, [r5], #-456	; 0xfffffe38
     ffc:	73552f00 	cmpvc	r5, #0, 30
    1000:	2f737265 	svccs	0x00737265
    1004:	6b617270 	blvs	185d9cc <__kernel_end+0x16fb9cc>
    1008:	62687361 	rsbvs	r7, r8, #-2080374783	; 0x84000001
    100c:	616b726f 	cmnvs	fp, pc, ror #4
    1010:	65442f72 	strbvs	r2, [r4, #-3954]	; 0xfffff08e
    1014:	6f746b73 	svcvs	0x00746b73
    1018:	65522f70 	ldrbvs	r2, [r2, #-3952]	; 0xfffff090
    101c:	65746f6d 	ldrbvs	r6, [r4, #-3949]!	; 0xfffff093
    1020:	7065525f 	rsbvc	r5, r5, pc, asr r2
    1024:	70722f6f 	rsbsvc	r2, r2, pc, ror #30
    1028:	736f2d69 	cmnvc	pc, #6720	; 0x1a40
    102c:	7261752d 	rsbvc	r7, r1, #188743680	; 0xb400000
    1030:	70722f74 	rsbsvc	r2, r2, r4, ror pc
    1034:	2d623369 	stclcs	3, cr3, [r2, #-420]!	; 0xfffffe5c
    1038:	7461656d 	strbtvc	r6, [r1], #-1389	; 0xfffffa93
    103c:	6b732d79 	blvs	1ccc628 <__kernel_end+0x1b6a628>
    1040:	74656c65 	strbtvc	r6, [r5], #-3173	; 0xfffff39b
    1044:	732f6e6f 			; <UNDEFINED> instruction: 0x732f6e6f
    1048:	6f727379 	svcvs	0x00727379
    104c:	752f746f 	strvc	r7, [pc, #-1135]!	; be5 <SCTLR_ENABLE_BRANCH_PREDICTION+0x3e5>
    1050:	692f7273 	stmdbvs	pc!, {r0, r1, r4, r5, r6, r9, ip, sp, lr}	; <UNPREDICTABLE>
    1054:	756c636e 	strbvc	r6, [ip, #-878]!	; 0xfffffc92
    1058:	702f6564 	eorvc	r6, pc, r4, ror #10
    105c:	6362696c 	cmnvs	r2, #108, 18	; 0x1b0000
    1060:	73750000 	cmnvc	r5, #0
    1064:	00632e62 	rsbeq	r2, r3, r2, ror #28
    1068:	73000001 	movwvc	r0, #1
    106c:	6e696474 	mcrvs	4, 3, r6, cr9, cr4, {3}
    1070:	63672d74 	cmnvs	r7, #116, 26	; 0x1d00
    1074:	00682e63 	rsbeq	r2, r8, r3, ror #28
    1078:	75000002 	strvc	r0, [r0, #-2]
    107c:	682e6273 	stmdavs	lr!, {r0, r1, r4, r5, r6, r9, sp, lr}
    1080:	00000300 	andeq	r0, r0, r0, lsl #6
    1084:	2d697072 	stclcs	0, cr7, [r9, #-456]!	; 0xfffffe38
    1088:	6c69616d 	stfvse	f6, [r9], #-436	; 0xfffffe4c
    108c:	2d786f62 	ldclcs	15, cr6, [r8, #-392]!	; 0xfffffe78
    1090:	65746e69 	ldrbvs	r6, [r4, #-3689]!	; 0xfffff197
    1094:	63616672 	cmnvs	r1, #119537664	; 0x7200000
    1098:	00682e65 	rsbeq	r2, r8, r5, ror #28
    109c:	73000004 	movwvc	r0, #4
    10a0:	6f696474 	svcvs	0x00696474
    10a4:	0500682e 	streq	r6, [r0, #-2094]	; 0xfffff7d2
    10a8:	79730000 	ldmdbvc	r3!, {}^	; <UNPREDICTABLE>
    10ac:	6d697473 	cfstrdvs	mvd7, [r9, #-460]!	; 0xfffffe34
    10b0:	682e7265 	stmdavs	lr!, {r0, r2, r5, r6, r9, ip, sp, lr}
    10b4:	00000400 	andeq	r0, r0, r0, lsl #8
    10b8:	02050000 	andeq	r0, r5, #0
    10bc:	00009680 	andeq	r9, r0, r0, lsl #13
    10c0:	30010a03 	andcc	r0, r1, r3, lsl #20
    10c4:	3163312c 	cmncc	r3, ip, lsr #2
    10c8:	2d2f2f9f 	stccs	15, cr2, [pc, #-636]!	; e54 <SCTLR_ENABLE_BRANCH_PREDICTION+0x654>
    10cc:	312c306a 			; <UNDEFINED> instruction: 0x312c306a
    10d0:	2f9f3163 	svccs	0x009f3163
    10d4:	306a2d2f 	rsbcc	r2, sl, pc, lsr #26
    10d8:	3163312c 	cmncc	r3, ip, lsr #2
    10dc:	83683083 	cmnhi	r8, #131	; 0x83
    10e0:	2fa22d67 	svccs	0x00a22d67
    10e4:	2508322f 	strcs	r3, [r8, #-559]	; 0xfffffdd1
    10e8:	77032fa3 	strvc	r2, [r3, -r3, lsr #31]
    10ec:	674e672e 	strbvs	r6, [lr, -lr, lsr #14]
    10f0:	32691988 	rsbcc	r1, r9, #136, 18	; 0x220000
    10f4:	4d474536 	cfstr64mi	mvdx4, [r7, #-216]	; 0xffffff28
    10f8:	45f7614f 	ldrbmi	r6, [r7, #335]!	; 0x14f
    10fc:	034e6730 	movteq	r6, #59184	; 0xe730
    1100:	7a032e0c 	bvc	cc938 <__first_lvl_tbl_end+0xab938>
    1104:	4a7a032e 	bmi	1e81dc4 <__kernel_end+0x1d1fdc4>
    1108:	4d2b314d 	stfmis	f3, [fp, #-308]!	; 0xfffffecc
    110c:	67bc2608 	ldrvs	r2, [ip, r8, lsl #12]!
    1110:	2e78032f 	cdpcs	3, 7, cr0, cr8, cr15, {1}
    1114:	9e0a0367 	cdpls	3, 0, cr0, cr10, cr7, {3}
    1118:	6c679f30 	stclvs	15, cr9, [r7], #-192	; 0xffffff40
    111c:	4a790369 	bmi	1e41ec8 <__kernel_end+0x1cdfec8>
    1120:	302f846d 	eorcc	r8, pc, sp, ror #8
    1124:	0002022d 	andeq	r0, r2, sp, lsr #4
    1128:	01520101 	cmpeq	r2, r1, lsl #2
    112c:	00020000 	andeq	r0, r2, r0
    1130:	00000130 	andeq	r0, r0, r0, lsr r1
    1134:	0efb0102 	cdpeq	1, 15, cr0, cr11, cr2, {0}
    1138:	0101000d 	tsteq	r1, sp
    113c:	00000101 	andeq	r0, r0, r1, lsl #2
    1140:	00000100 	andeq	r0, r0, r0, lsl #2
    1144:	72656b01 	rsbvc	r6, r5, #1024	; 0x400
    1148:	006c656e 	rsbeq	r6, ip, lr, ror #10
    114c:	6573552f 	ldrbvs	r5, [r3, #-1327]!	; 0xfffffad1
    1150:	702f7372 	eorvc	r7, pc, r2, ror r3	; <UNPREDICTABLE>
    1154:	616b6172 	smcvs	46610	; 0xb612
    1158:	6f626873 	svcvs	0x00626873
    115c:	72616b72 	rsbvc	r6, r1, #116736	; 0x1c800
    1160:	7365442f 	cmnvc	r5, #788529152	; 0x2f000000
    1164:	706f746b 	rsbvc	r7, pc, fp, ror #8
    1168:	6d65522f 	sfmvs	f5, 2, [r5, #-188]!	; 0xffffff44
    116c:	5f65746f 	svcpl	0x0065746f
    1170:	6f706552 	svcvs	0x00706552
    1174:	6970722f 	ldmdbvs	r0!, {r0, r1, r2, r3, r5, r9, ip, sp, lr}^
    1178:	2d736f2d 	ldclcs	15, cr6, [r3, #-180]!	; 0xffffff4c
    117c:	74726175 	ldrbtvc	r6, [r2], #-373	; 0xfffffe8b
    1180:	6970722f 	ldmdbvs	r0!, {r0, r1, r2, r3, r5, r9, ip, sp, lr}^
    1184:	6d2d6233 	sfmvs	f6, 4, [sp, #-204]!	; 0xffffff34
    1188:	79746165 	ldmdbvc	r4!, {r0, r2, r5, r6, r8, sp, lr}^
    118c:	656b732d 	strbvs	r7, [fp, #-813]!	; 0xfffffcd3
    1190:	6f74656c 	svcvs	0x0074656c
    1194:	79732f6e 	ldmdbvc	r3!, {r1, r2, r3, r5, r6, r8, r9, sl, fp, sp}^
    1198:	6f6f7273 	svcvs	0x006f7273
    119c:	73752f74 	cmnvc	r5, #116, 30	; 0x1d0
    11a0:	6e692f72 	mcrvs	15, 3, r2, cr9, cr2, {3}
    11a4:	64756c63 	ldrbtvs	r6, [r5], #-3171	; 0xfffff39d
    11a8:	6c702f65 	ldclvs	15, cr2, [r0], #-404	; 0xfffffe6c
    11ac:	00636269 	rsbeq	r6, r3, r9, ror #4
    11b0:	6c636e69 	stclvs	14, cr6, [r3], #-420	; 0xfffffe5c
    11b4:	2f656475 	svccs	0x00656475
    11b8:	69766564 	ldmdbvs	r6!, {r2, r5, r6, r8, sl, sp, lr}^
    11bc:	69006563 	stmdbvs	r0, {r0, r1, r5, r6, r8, sl, sp, lr}
    11c0:	756c636e 	strbvc	r6, [ip, #-878]!	; 0xfffffc92
    11c4:	6b2f6564 	blvs	bda75c <__kernel_end+0xa7875c>
    11c8:	656e7265 	strbvs	r7, [lr, #-613]!	; 0xfffffd9b
    11cc:	552f006c 	strpl	r0, [pc, #-108]!	; 1168 <SCTLR_ENABLE_INSTRUCTION_CACHE+0x168>
    11d0:	73726573 	cmnvc	r2, #482344960	; 0x1cc00000
    11d4:	6172702f 	cmnvs	r2, pc, lsr #32
    11d8:	6873616b 	ldmdavs	r3!, {r0, r1, r3, r5, r6, r8, sp, lr}^
    11dc:	6b726f62 	blvs	1c9cf6c <__kernel_end+0x1b3af6c>
    11e0:	672f7261 	strvs	r7, [pc, -r1, ror #4]!
    11e4:	612d6363 			; <UNDEFINED> instruction: 0x612d6363
    11e8:	6e2d6d72 	mcrvs	13, 1, r6, cr13, cr2, {3}
    11ec:	2d656e6f 	stclcs	14, cr6, [r5, #-444]!	; 0xfffffe44
    11f0:	69626165 	stmdbvs	r2!, {r0, r2, r5, r6, r8, sp, lr}^
    11f4:	62696c2f 	rsbvs	r6, r9, #12032	; 0x2f00
    11f8:	6363672f 	cmnvs	r3, #12320768	; 0xbc0000
    11fc:	6d72612f 	ldfvse	f6, [r2, #-188]!	; 0xffffff44
    1200:	6e6f6e2d 	cdpvs	14, 6, cr6, cr15, cr13, {1}
    1204:	61652d65 	cmnvs	r5, r5, ror #26
    1208:	352f6962 	strcc	r6, [pc, #-2402]!	; 8ae <SCTLR_ENABLE_BRANCH_PREDICTION+0xae>
    120c:	312e342e 			; <UNDEFINED> instruction: 0x312e342e
    1210:	636e692f 	cmnvs	lr, #770048	; 0xbc000
    1214:	6564756c 	strbvs	r7, [r4, #-1388]!	; 0xfffffa94
    1218:	656b0000 	strbvs	r0, [fp, #-0]!
    121c:	6c656e72 	stclvs	14, cr6, [r5], #-456	; 0xfffffe38
    1220:	0100632e 	tsteq	r0, lr, lsr #6
    1224:	74730000 	ldrbtvc	r0, [r3], #-0
    1228:	2e6f6964 	cdpcs	9, 6, cr6, cr15, cr4, {3}
    122c:	00020068 	andeq	r0, r2, r8, rrx
    1230:	72617500 	rsbvc	r7, r1, #0, 10
    1234:	682e3074 	stmdavs	lr!, {r2, r4, r5, r6, ip, sp}
    1238:	00000300 	andeq	r0, r0, r0, lsl #6
    123c:	74737973 	ldrbtvc	r7, [r3], #-2419	; 0xfffff68d
    1240:	72656d69 	rsbvc	r6, r5, #6720	; 0x1a40
    1244:	0400682e 	streq	r6, [r0], #-2094	; 0xfffff7d2
    1248:	73750000 	cmnvc	r5, #0
    124c:	00682e62 	rsbeq	r2, r8, r2, ror #28
    1250:	73000003 	movwvc	r0, #3
    1254:	6e696474 	mcrvs	4, 3, r6, cr9, cr4, {3}
    1258:	63672d74 	cmnvs	r7, #116, 26	; 0x1d00
    125c:	00682e63 	rsbeq	r2, r8, r3, ror #28
    1260:	00000005 	andeq	r0, r0, r5
    1264:	84020500 	strhi	r0, [r2], #-1280	; 0xfffffb00
    1268:	03000099 	movweq	r0, #153	; 0x99
    126c:	03180110 	tsteq	r8, #16, 2
    1270:	342e2e7a 	strtcc	r2, [lr], #-3706	; 0xfffff186
    1274:	354a7a03 	strbcc	r7, [sl, #-2563]	; 0xfffff5fd
    1278:	02a63031 	adceq	r3, r6, #49	; 0x31
    127c:	0101000c 	tsteq	r1, ip
    1280:	000000ef 	andeq	r0, r0, pc, ror #1
    1284:	00c60002 	sbceq	r0, r6, r2
    1288:	01020000 	mrseq	r0, (UNDEF: 2)
    128c:	000d0efb 	strdeq	r0, [sp], -fp
    1290:	01010101 	tsteq	r1, r1, lsl #2
    1294:	01000000 	mrseq	r0, (UNDEF: 0)
    1298:	73010000 	movwvc	r0, #4096	; 0x1000
    129c:	6e697274 	mcrvs	2, 3, r7, cr9, cr4, {3}
    12a0:	552f0067 	strpl	r0, [pc, #-103]!	; 1241 <SCTLR_ENABLE_INSTRUCTION_CACHE+0x241>
    12a4:	73726573 	cmnvc	r2, #482344960	; 0x1cc00000
    12a8:	6172702f 	cmnvs	r2, pc, lsr #32
    12ac:	6873616b 	ldmdavs	r3!, {r0, r1, r3, r5, r6, r8, sp, lr}^
    12b0:	6b726f62 	blvs	1c9d040 <__kernel_end+0x1b3b040>
    12b4:	672f7261 	strvs	r7, [pc, -r1, ror #4]!
    12b8:	612d6363 			; <UNDEFINED> instruction: 0x612d6363
    12bc:	6e2d6d72 	mcrvs	13, 1, r6, cr13, cr2, {3}
    12c0:	2d656e6f 	stclcs	14, cr6, [r5, #-444]!	; 0xfffffe44
    12c4:	69626165 	stmdbvs	r2!, {r0, r2, r5, r6, r8, sp, lr}^
    12c8:	62696c2f 	rsbvs	r6, r9, #12032	; 0x2f00
    12cc:	6363672f 	cmnvs	r3, #12320768	; 0xbc0000
    12d0:	6d72612f 	ldfvse	f6, [r2, #-188]!	; 0xffffff44
    12d4:	6e6f6e2d 	cdpvs	14, 6, cr6, cr15, cr13, {1}
    12d8:	61652d65 	cmnvs	r5, r5, ror #26
    12dc:	352f6962 	strcc	r6, [pc, #-2402]!	; 982 <SCTLR_ENABLE_BRANCH_PREDICTION+0x182>
    12e0:	312e342e 			; <UNDEFINED> instruction: 0x312e342e
    12e4:	636e692f 	cmnvs	lr, #770048	; 0xbc000
    12e8:	6564756c 	strbvs	r7, [r4, #-1388]!	; 0xfffffa94
    12ec:	73552f00 	cmpvc	r5, #0, 30
    12f0:	2f737265 	svccs	0x00737265
    12f4:	6b617270 	blvs	185dcbc <__kernel_end+0x16fbcbc>
    12f8:	62687361 	rsbvs	r7, r8, #-2080374783	; 0x84000001
    12fc:	616b726f 	cmnvs	fp, pc, ror #4
    1300:	63672f72 	cmnvs	r7, #456	; 0x1c8
    1304:	72612d63 	rsbvc	r2, r1, #6336	; 0x18c0
    1308:	6f6e2d6d 	svcvs	0x006e2d6d
    130c:	652d656e 	strvs	r6, [sp, #-1390]!	; 0xfffffa92
    1310:	2f696261 	svccs	0x00696261
    1314:	2d6d7261 	sfmcs	f7, 2, [sp, #-388]!	; 0xfffffe7c
    1318:	656e6f6e 	strbvs	r6, [lr, #-3950]!	; 0xfffff092
    131c:	6261652d 	rsbvs	r6, r1, #188743680	; 0xb400000
    1320:	6e692f69 	cdpvs	15, 6, cr2, cr9, cr9, {3}
    1324:	64756c63 	ldrbtvs	r6, [r5], #-3171	; 0xfffff39d
    1328:	6d000065 	stcvs	0, cr0, [r0, #-404]	; 0xfffffe6c
    132c:	70636d65 	rsbvc	r6, r3, r5, ror #26
    1330:	00632e79 	rsbeq	r2, r3, r9, ror lr
    1334:	73000001 	movwvc	r0, #1
    1338:	65646474 	strbvs	r6, [r4, #-1140]!	; 0xfffffb8c
    133c:	00682e66 	rsbeq	r2, r8, r6, ror #28
    1340:	73000002 	movwvc	r0, #2
    1344:	6e697274 	mcrvs	2, 3, r7, cr9, cr4, {3}
    1348:	00682e67 	rsbeq	r2, r8, r7, ror #28
    134c:	00000003 	andeq	r0, r0, r3
    1350:	d0020500 	andle	r0, r2, r0, lsl #10
    1354:	14000099 	strne	r0, [r0], #-153	; 0xffffff67
    1358:	04020015 	streq	r0, [r2], #-21	; 0xffffffeb
    135c:	02008303 	andeq	r8, r0, #201326592	; 0xc000000
    1360:	002d0304 	eoreq	r0, sp, r4, lsl #6
    1364:	2f030402 	svccs	0x00030402
    1368:	03040200 	movweq	r0, #16896	; 0x4200
    136c:	0202312d 	andeq	r3, r2, #1073741835	; 0x4000000b
    1370:	17010100 	strne	r0, [r1, -r0, lsl #2]
    1374:	02000001 	andeq	r0, r0, #1
    1378:	0000fa00 	andeq	pc, r0, r0, lsl #20
    137c:	fb010200 	blx	41b86 <__first_lvl_tbl_end+0x20b86>
    1380:	01000d0e 	tsteq	r0, lr, lsl #26
    1384:	00010101 	andeq	r0, r1, r1, lsl #2
    1388:	00010000 	andeq	r0, r1, r0
    138c:	74730100 	ldrbtvc	r0, [r3], #-256	; 0xffffff00
    1390:	006f6964 	rsbeq	r6, pc, r4, ror #18
    1394:	6573552f 	ldrbvs	r5, [r3, #-1327]!	; 0xfffffad1
    1398:	702f7372 	eorvc	r7, pc, r2, ror r3	; <UNPREDICTABLE>
    139c:	616b6172 	smcvs	46610	; 0xb612
    13a0:	6f626873 	svcvs	0x00626873
    13a4:	72616b72 	rsbvc	r6, r1, #116736	; 0x1c800
    13a8:	6363672f 	cmnvs	r3, #12320768	; 0xbc0000
    13ac:	6d72612d 	ldfvse	f6, [r2, #-180]!	; 0xffffff4c
    13b0:	6e6f6e2d 	cdpvs	14, 6, cr6, cr15, cr13, {1}
    13b4:	61652d65 	cmnvs	r5, r5, ror #26
    13b8:	6c2f6962 	stcvs	9, cr6, [pc], #-392	; 1238 <SCTLR_ENABLE_INSTRUCTION_CACHE+0x238>
    13bc:	672f6269 	strvs	r6, [pc, -r9, ror #4]!
    13c0:	612f6363 			; <UNDEFINED> instruction: 0x612f6363
    13c4:	6e2d6d72 	mcrvs	13, 1, r6, cr13, cr2, {3}
    13c8:	2d656e6f 	stclcs	14, cr6, [r5, #-444]!	; 0xfffffe44
    13cc:	69626165 	stmdbvs	r2!, {r0, r2, r5, r6, r8, sp, lr}^
    13d0:	342e352f 	strtcc	r3, [lr], #-1327	; 0xfffffad1
    13d4:	692f312e 	stmdbvs	pc!, {r1, r2, r3, r5, r8, ip, sp}	; <UNPREDICTABLE>
    13d8:	756c636e 	strbvc	r6, [ip, #-878]!	; 0xfffffc92
    13dc:	2f006564 	svccs	0x00006564
    13e0:	72657355 	rsbvc	r7, r5, #1409286145	; 0x54000001
    13e4:	72702f73 	rsbsvc	r2, r0, #460	; 0x1cc
    13e8:	73616b61 	cmnvc	r1, #99328	; 0x18400
    13ec:	726f6268 	rsbvc	r6, pc, #104, 4	; 0x80000006
    13f0:	2f72616b 	svccs	0x0072616b
    13f4:	6b736544 	blvs	1cda90c <__kernel_end+0x1b7890c>
    13f8:	2f706f74 	svccs	0x00706f74
    13fc:	6f6d6552 	svcvs	0x006d6552
    1400:	525f6574 	subspl	r6, pc, #116, 10	; 0x1d000000
    1404:	2f6f7065 	svccs	0x006f7065
    1408:	2d697072 	stclcs	0, cr7, [r9, #-456]!	; 0xfffffe38
    140c:	752d736f 	strvc	r7, [sp, #-879]!	; 0xfffffc91
    1410:	2f747261 	svccs	0x00747261
    1414:	33697072 	cmncc	r9, #114	; 0x72
    1418:	656d2d62 	strbvs	r2, [sp, #-3426]!	; 0xfffff29e
    141c:	2d797461 	cfldrdcs	mvd7, [r9, #-388]!	; 0xfffffe7c
    1420:	6c656b73 	stclvs	11, cr6, [r5], #-460	; 0xfffffe34
    1424:	6e6f7465 	cdpvs	4, 6, cr7, cr15, cr5, {3}
    1428:	7379732f 	cmnvc	r9, #-1140850688	; 0xbc000000
    142c:	746f6f72 	strbtvc	r6, [pc], #-3954	; 1434 <SCTLR_ENABLE_INSTRUCTION_CACHE+0x434>
    1430:	7273752f 	rsbsvc	r7, r3, #197132288	; 0xbc00000
    1434:	636e692f 	cmnvs	lr, #770048	; 0xbc000
    1438:	6564756c 	strbvs	r7, [r4, #-1388]!	; 0xfffffa94
    143c:	7665642f 	strbtvc	r6, [r5], -pc, lsr #8
    1440:	00656369 	rsbeq	r6, r5, r9, ror #6
    1444:	69727000 	ldmdbvs	r2!, {ip, sp, lr}^
    1448:	2e66746e 	cdpcs	4, 6, cr7, cr6, cr14, {3}
    144c:	00010063 	andeq	r0, r1, r3, rrx
    1450:	64747300 	ldrbtvs	r7, [r4], #-768	; 0xfffffd00
    1454:	2e677261 	cdpcs	2, 6, cr7, cr7, cr1, {3}
    1458:	00020068 	andeq	r0, r2, r8, rrx
    145c:	72617500 	rsbvc	r7, r1, #0, 10
    1460:	682e3074 	stmdavs	lr!, {r2, r4, r5, r6, ip, sp}
    1464:	00000300 	andeq	r0, r0, r0, lsl #6
    1468:	6975623c 	ldmdbvs	r5!, {r2, r3, r4, r5, r9, sp, lr}^
    146c:	692d746c 	pushvs	{r2, r3, r5, r6, sl, ip, sp, lr}
    1470:	00003e6e 	andeq	r3, r0, lr, ror #28
    1474:	00000000 	andeq	r0, r0, r0
    1478:	99f40205 	ldmibls	r4!, {r0, r2, r9}^
    147c:	1c030000 	stcne	0, cr0, [r3], {-0}
    1480:	6c4c3001 	mcrrvs	0, 0, r3, ip, cr1
    1484:	2f812f6a 	svccs	0x00812f6a
    1488:	000a0232 	andeq	r0, sl, r2, lsr r2
    148c:	029c0101 	addseq	r0, ip, #1073741824	; 0x40000000
    1490:	00020000 	andeq	r0, r2, r0
    1494:	000000d3 	ldrdeq	r0, [r0], -r3
    1498:	0efb0102 	cdpeq	1, 15, cr0, cr11, cr2, {0}
    149c:	0101000d 	tsteq	r1, sp
    14a0:	00000101 	andeq	r0, r0, r1, lsl #2
    14a4:	00000100 	andeq	r0, r0, r0, lsl #2
    14a8:	64747301 	ldrbtvs	r7, [r4], #-769	; 0xfffffcff
    14ac:	2f006f69 	svccs	0x00006f69
    14b0:	72657355 	rsbvc	r7, r5, #1409286145	; 0x54000001
    14b4:	72702f73 	rsbsvc	r2, r0, #460	; 0x1cc
    14b8:	73616b61 	cmnvc	r1, #99328	; 0x18400
    14bc:	726f6268 	rsbvc	r6, pc, #104, 4	; 0x80000006
    14c0:	2f72616b 	svccs	0x0072616b
    14c4:	2d636367 	stclcs	3, cr6, [r3, #-412]!	; 0xfffffe64
    14c8:	2d6d7261 	sfmcs	f7, 2, [sp, #-388]!	; 0xfffffe7c
    14cc:	656e6f6e 	strbvs	r6, [lr, #-3950]!	; 0xfffff092
    14d0:	6261652d 	rsbvs	r6, r1, #188743680	; 0xb400000
    14d4:	696c2f69 	stmdbvs	ip!, {r0, r3, r5, r6, r8, r9, sl, fp, sp}^
    14d8:	63672f62 	cmnvs	r7, #392	; 0x188
    14dc:	72612f63 	rsbvc	r2, r1, #396	; 0x18c
    14e0:	6f6e2d6d 	svcvs	0x006e2d6d
    14e4:	652d656e 	strvs	r6, [sp, #-1390]!	; 0xfffffa92
    14e8:	2f696261 	svccs	0x00696261
    14ec:	2e342e35 	mrccs	14, 1, r2, cr4, cr5, {1}
    14f0:	6e692f31 	mcrvs	15, 3, r2, cr9, cr1, {1}
    14f4:	64756c63 	ldrbtvs	r6, [r5], #-3171	; 0xfffff39d
    14f8:	552f0065 	strpl	r0, [pc, #-101]!	; 149b <SCTLR_ENABLE_INSTRUCTION_CACHE+0x49b>
    14fc:	73726573 	cmnvc	r2, #482344960	; 0x1cc00000
    1500:	6172702f 	cmnvs	r2, pc, lsr #32
    1504:	6873616b 	ldmdavs	r3!, {r0, r1, r3, r5, r6, r8, sp, lr}^
    1508:	6b726f62 	blvs	1c9d298 <__kernel_end+0x1b3b298>
    150c:	672f7261 	strvs	r7, [pc, -r1, ror #4]!
    1510:	612d6363 			; <UNDEFINED> instruction: 0x612d6363
    1514:	6e2d6d72 	mcrvs	13, 1, r6, cr13, cr2, {3}
    1518:	2d656e6f 	stclcs	14, cr6, [r5, #-444]!	; 0xfffffe44
    151c:	69626165 	stmdbvs	r2!, {r0, r2, r5, r6, r8, sp, lr}^
    1520:	6d72612f 	ldfvse	f6, [r2, #-188]!	; 0xffffff44
    1524:	6e6f6e2d 	cdpvs	14, 6, cr6, cr15, cr13, {1}
    1528:	61652d65 	cmnvs	r5, r5, ror #26
    152c:	692f6962 	stmdbvs	pc!, {r1, r5, r6, r8, fp, sp, lr}	; <UNPREDICTABLE>
    1530:	756c636e 	strbvc	r6, [ip, #-878]!	; 0xfffffc92
    1534:	00006564 	andeq	r6, r0, r4, ror #10
    1538:	72706f64 	rsbsvc	r6, r0, #100, 30	; 0x190
    153c:	632e746e 			; <UNDEFINED> instruction: 0x632e746e
    1540:	00000100 	andeq	r0, r0, r0, lsl #2
    1544:	61647473 	smcvs	18243	; 0x4743
    1548:	682e6772 	stmdavs	lr!, {r1, r4, r5, r6, r8, r9, sl, sp, lr}
    154c:	00000200 	andeq	r0, r0, r0, lsl #4
    1550:	6975623c 	ldmdbvs	r5!, {r2, r3, r4, r5, r9, sp, lr}^
    1554:	692d746c 	pushvs	{r2, r3, r5, r6, sl, ip, sp, lr}
    1558:	00003e6e 	andeq	r3, r0, lr, ror #28
    155c:	74730000 	ldrbtvc	r0, [r3], #-0
    1560:	676e6972 			; <UNDEFINED> instruction: 0x676e6972
    1564:	0300682e 	movweq	r6, #2094	; 0x82e
    1568:	00000000 	andeq	r0, r0, r0
    156c:	9a480205 	bls	1201d88 <__kernel_end+0x109fd88>
    1570:	dc030000 	stcle	0, cr0, [r3], {-0}
    1574:	2d2f0100 	stfcss	f0, [pc, #-0]	; 157c <SCTLR_ENABLE_INSTRUCTION_CACHE+0x57c>
    1578:	4a1d0366 	bmi	742318 <__kernel_end+0x5e0318>
    157c:	04020084 	streq	r0, [r2], #-132	; 0xffffff7c
    1580:	064a0601 	strbeq	r0, [sl], -r1, lsl #12
    1584:	03f21003 	mvnseq	r1, #3
    1588:	76039e0a 	strvc	r9, [r3], -sl, lsl #28
    158c:	f1034e4a 			; <UNDEFINED> instruction: 0xf1034e4a
    1590:	d4036600 	strle	r6, [r3], #-1536	; 0xfffffa00
    1594:	49a32e01 	stmibmi	r3!, {r0, r9, sl, fp, sp}
    1598:	7dcb032f 	stclvc	3, cr0, [fp, #188]	; 0xbc
    159c:	4a0e034a 	bmi	3822cc <__kernel_end+0x2202cc>
    15a0:	032b2fbc 			; <UNDEFINED> instruction: 0x032b2fbc
    15a4:	0389820c 	orreq	r8, r9, #12, 4	; 0xc0000000
    15a8:	2f342e79 	svccs	0x00342e79
    15ac:	4f2e1d03 	svcmi	0x002e1d03
    15b0:	034a1903 	movteq	r1, #43267	; 0xa903
    15b4:	014a0232 	cmpeq	sl, r2, lsr r2
    15b8:	2b2e4e03 	blcs	b94dcc <__kernel_end+0xa32dcc>
    15bc:	032e3503 			; <UNDEFINED> instruction: 0x032e3503
    15c0:	b9032e16 	stmdblt	r3, {r1, r2, r4, r9, sl, fp, sp}
    15c4:	db036601 	blle	dadd0 <__first_lvl_tbl_end+0xb9dd0>
    15c8:	a5034a7e 	strge	r4, [r3, #-2686]	; 0xfffff582
    15cc:	db032e01 	blle	ccdd8 <__first_lvl_tbl_end+0xabdd8>
    15d0:	a6034a7e 			; <UNDEFINED> instruction: 0xa6034a7e
    15d4:	03332e01 	teqeq	r3, #1, 28
    15d8:	332f2e7a 			; <UNDEFINED> instruction: 0x332f2e7a
    15dc:	692e1303 	stmdbvs	lr!, {r0, r1, r8, r9, ip}
    15e0:	64302c4c 	ldrtvs	r2, [r0], #-3148	; 0xfffff3b4
    15e4:	7a03324c 	bvc	cdf1c <__first_lvl_tbl_end+0xacf1c>
    15e8:	0c03302e 	stceq	0, cr3, [r3], {46}	; 0x2e
    15ec:	2f2d2008 	svccs	0x002d2008
    15f0:	2e7ebd03 	cdpcs	13, 7, cr11, cr14, cr3, {0}
    15f4:	032f2d4b 			; <UNDEFINED> instruction: 0x032f2d4b
    15f8:	2c302e10 	ldccs	14, cr2, [r0], #-64	; 0xffffffc0
    15fc:	03016e03 	movweq	r6, #7683	; 0x1e03
    1600:	816a2e1d 	cmnhi	sl, sp, lsl lr
    1604:	2e1d032f 	cdpcs	3, 1, cr0, cr13, cr15, {1}
    1608:	01040200 	mrseq	r0, R12_usr
    160c:	00660b03 	rsbeq	r0, r6, r3, lsl #22
    1610:	06020402 	streq	r0, [r2], -r2, lsl #8
    1614:	a24c0682 	subge	r0, ip, #136314880	; 0x8200000
    1618:	2e6c032a 	cdpcs	3, 6, cr0, cr12, cr10, {1}
    161c:	032e3f03 			; <UNDEFINED> instruction: 0x032e3f03
    1620:	03667d9e 	cmneq	r6, #10112	; 0x2780
    1624:	334b4a2b 	movtcc	r4, #47659	; 0xba2b
    1628:	502e7a03 	eorpl	r7, lr, r3, lsl #20
    162c:	0336292d 	teqeq	r6, #737280	; 0xb4000
    1630:	63036637 	movwvs	r6, #13879	; 0x3637
    1634:	660a034a 	strvs	r0, [sl], -sl, asr #6
    1638:	03827503 	orreq	r7, r2, #12582912	; 0xc00000
    163c:	2f4c2e0b 	svccs	0x004c2e0b
    1640:	9e18032b 	cdpls	3, 1, cr0, cr8, cr11, {1}
    1644:	1f033265 	svcne	0x00033265
    1648:	2f2d674a 	svccs	0x002d674a
    164c:	2e00cf03 	cdpcs	15, 0, cr12, cr0, cr3, {0}
    1650:	032e0c03 			; <UNDEFINED> instruction: 0x032e0c03
    1654:	0c032e74 	stceq	14, cr2, [r3], {116}	; 0x74
    1658:	672d4b2e 	strvs	r4, [sp, -lr, lsr #22]!
    165c:	58081b03 	stmdapl	r8, {r0, r1, r8, r9, fp, ip}
    1660:	302f2d4e 	eorcc	r2, pc, lr, asr #26
    1664:	352b4d35 	strcc	r4, [fp, #-3381]!	; 0xfffff2cb
    1668:	01040200 	mrseq	r0, R12_usr
    166c:	04020068 	streq	r0, [r2], #-104	; 0xffffff98
    1670:	58080602 	stmdapl	r8, {r1, r9, sl}
    1674:	2aa24c06 	bcs	fe894694 <__kernel_end+0xfe732694>
    1678:	4a7ee403 	bmi	1fba68c <__kernel_end+0x1e5868c>
    167c:	032e2d03 			; <UNDEFINED> instruction: 0x032e2d03
    1680:	30032e50 	andcc	r2, r3, r0, asr lr
    1684:	4a0a032e 	bmi	282344 <__kernel_end+0x120344>
    1688:	46032d2f 	strmi	r2, [r3], -pc, lsr #26
    168c:	2e3b032e 	cdpcs	3, 3, cr0, cr11, cr14, {1}
    1690:	2f2c3032 	svccs	0x002c3032
    1694:	2d2f322f 	sfmcs	f3, 4, [pc, #-188]!	; 15e0 <SCTLR_ENABLE_INSTRUCTION_CACHE+0x5e0>
    1698:	2e7fbb03 	vaddcs.f64	d27, d15, d3
    169c:	2e00c603 	cfmadd32cs	mvax0, mvfx12, mvfx0, mvfx3
    16a0:	2d2e4403 	cfstrscs	mvf4, [lr, #-12]!
    16a4:	76032d83 	strvc	r2, [r3], -r3, lsl #27
    16a8:	2e0c032e 	cdpcs	3, 0, cr0, cr12, cr14, {1}
    16ac:	032e1003 			; <UNDEFINED> instruction: 0x032e1003
    16b0:	77036609 	strvc	r6, [r3, -r9, lsl #12]
    16b4:	6663032e 	strbtvs	r0, [r3], -lr, lsr #6
    16b8:	032e2603 			; <UNDEFINED> instruction: 0x032e2603
    16bc:	a6032e3b 			; <UNDEFINED> instruction: 0xa6032e3b
    16c0:	2f654a01 	svccs	0x00654a01
    16c4:	832e0b03 			; <UNDEFINED> instruction: 0x832e0b03
    16c8:	082f2f49 	stmdaeq	pc!, {r0, r3, r6, r8, r9, sl, fp, sp}	; <UNPREDICTABLE>
    16cc:	2f498372 	svccs	0x00498372
    16d0:	032a322f 			; <UNDEFINED> instruction: 0x032a322f
    16d4:	00d67fa1 	sbcseq	r7, r6, r1, lsr #31
    16d8:	03010402 	movweq	r0, #5122	; 0x1402
    16dc:	02002e0a 	andeq	r2, r0, #10, 28	; 0xa0
    16e0:	9e060204 	cdpls	2, 0, cr0, cr6, cr4, {0}
    16e4:	2aa24c06 	bcs	fe894704 <__kernel_end+0xfe732704>
    16e8:	be4a6b03 	vmlalt.f64	d22, d10, d3
    16ec:	9e7fbe03 	cdpls	14, 7, cr11, cr15, cr3, {0}
    16f0:	9e00d103 	mvflss	f5, f3
    16f4:	002e0a03 	eoreq	r0, lr, r3, lsl #20
    16f8:	68010402 	stmdavs	r1, {r1, sl}
    16fc:	02040200 	andeq	r0, r4, #0, 4
    1700:	4c069e06 	stcmi	14, cr9, [r6], {6}
    1704:	40032aa2 	andmi	r2, r3, r2, lsr #21
    1708:	7ec2034a 	cdpvc	3, 12, cr0, cr2, cr10, {2}
    170c:	9e039f82 	cdpls	15, 0, cr9, cr3, cr2, {4}
    1710:	bb036601 	bllt	daf1c <__first_lvl_tbl_end+0xb9f1c>
    1714:	49c8087f 	stmibmi	r8, {r0, r1, r2, r3, r4, r5, r6, fp}^
    1718:	e4032d2f 	str	r2, [r3], #-3375	; 0xfffff2d1
    171c:	88034a01 	stmdahi	r3, {r0, r9, fp, lr}
    1720:	9003827e 	andls	r8, r3, lr, ror r2
    1724:	64034a02 	strvs	r4, [r3], #-2562	; 0xfffff5fe
    1728:	00080266 	andeq	r0, r8, r6, ror #4
    172c:	00de0101 	sbcseq	r0, lr, r1, lsl #2
    1730:	00020000 	andeq	r0, r2, r0
    1734:	000000c6 	andeq	r0, r0, r6, asr #1
    1738:	0efb0102 	cdpeq	1, 15, cr0, cr11, cr2, {0}
    173c:	0101000d 	tsteq	r1, sp
    1740:	00000101 	andeq	r0, r0, r1, lsl #2
    1744:	00000100 	andeq	r0, r0, r0, lsl #2
    1748:	72747301 	rsbsvc	r7, r4, #67108864	; 0x4000000
    174c:	00676e69 	rsbeq	r6, r7, r9, ror #28
    1750:	6573552f 	ldrbvs	r5, [r3, #-1327]!	; 0xfffffad1
    1754:	702f7372 	eorvc	r7, pc, r2, ror r3	; <UNPREDICTABLE>
    1758:	616b6172 	smcvs	46610	; 0xb612
    175c:	6f626873 	svcvs	0x00626873
    1760:	72616b72 	rsbvc	r6, r1, #116736	; 0x1c800
    1764:	6363672f 	cmnvs	r3, #12320768	; 0xbc0000
    1768:	6d72612d 	ldfvse	f6, [r2, #-180]!	; 0xffffff4c
    176c:	6e6f6e2d 	cdpvs	14, 6, cr6, cr15, cr13, {1}
    1770:	61652d65 	cmnvs	r5, r5, ror #26
    1774:	6c2f6962 	stcvs	9, cr6, [pc], #-392	; 15f4 <SCTLR_ENABLE_INSTRUCTION_CACHE+0x5f4>
    1778:	672f6269 	strvs	r6, [pc, -r9, ror #4]!
    177c:	612f6363 			; <UNDEFINED> instruction: 0x612f6363
    1780:	6e2d6d72 	mcrvs	13, 1, r6, cr13, cr2, {3}
    1784:	2d656e6f 	stclcs	14, cr6, [r5, #-444]!	; 0xfffffe44
    1788:	69626165 	stmdbvs	r2!, {r0, r2, r5, r6, r8, sp, lr}^
    178c:	342e352f 	strtcc	r3, [lr], #-1327	; 0xfffffad1
    1790:	692f312e 	stmdbvs	pc!, {r1, r2, r3, r5, r8, ip, sp}	; <UNPREDICTABLE>
    1794:	756c636e 	strbvc	r6, [ip, #-878]!	; 0xfffffc92
    1798:	2f006564 	svccs	0x00006564
    179c:	72657355 	rsbvc	r7, r5, #1409286145	; 0x54000001
    17a0:	72702f73 	rsbsvc	r2, r0, #460	; 0x1cc
    17a4:	73616b61 	cmnvc	r1, #99328	; 0x18400
    17a8:	726f6268 	rsbvc	r6, pc, #104, 4	; 0x80000006
    17ac:	2f72616b 	svccs	0x0072616b
    17b0:	2d636367 	stclcs	3, cr6, [r3, #-412]!	; 0xfffffe64
    17b4:	2d6d7261 	sfmcs	f7, 2, [sp, #-388]!	; 0xfffffe7c
    17b8:	656e6f6e 	strbvs	r6, [lr, #-3950]!	; 0xfffff092
    17bc:	6261652d 	rsbvs	r6, r1, #188743680	; 0xb400000
    17c0:	72612f69 	rsbvc	r2, r1, #420	; 0x1a4
    17c4:	6f6e2d6d 	svcvs	0x006e2d6d
    17c8:	652d656e 	strvs	r6, [sp, #-1390]!	; 0xfffffa92
    17cc:	2f696261 	svccs	0x00696261
    17d0:	6c636e69 	stclvs	14, cr6, [r3], #-420	; 0xfffffe5c
    17d4:	00656475 	rsbeq	r6, r5, r5, ror r4
    17d8:	72747300 	rsbsvc	r7, r4, #0, 6
    17dc:	2e6e656c 	cdpcs	5, 6, cr6, cr14, cr12, {3}
    17e0:	00010063 	andeq	r0, r1, r3, rrx
    17e4:	64747300 	ldrbtvs	r7, [r4], #-768	; 0xfffffd00
    17e8:	2e666564 	cdpcs	5, 6, cr6, cr6, cr4, {3}
    17ec:	00020068 	andeq	r0, r2, r8, rrx
    17f0:	72747300 	rsbsvc	r7, r4, #0, 6
    17f4:	2e676e69 	cdpcs	14, 6, cr6, cr7, cr9, {3}
    17f8:	00030068 	andeq	r0, r3, r8, rrx
    17fc:	05000000 	streq	r0, [r0, #-0]
    1800:	00a19402 	adceq	r9, r1, r2, lsl #8
    1804:	d7141400 	ldrle	r1, [r4, -r0, lsl #8]
    1808:	0232492d 	eorseq	r4, r2, #737280	; 0xb4000
    180c:	01010002 	tsteq	r1, r2

Disassembly of section .debug_info:

00000000 <.debug_info>:
       0:	00000085 	andeq	r0, r0, r5, lsl #1
       4:	00000002 	andeq	r0, r0, r2
       8:	01040000 	mrseq	r0, (UNDEF: 4)
       c:	00000000 	andeq	r0, r0, r0
      10:	00008000 	andeq	r8, r0, r0
      14:	00008214 	andeq	r8, r0, r4, lsl r2
      18:	68637261 	stmdavs	r3!, {r0, r5, r6, r9, ip, sp, lr}^
      1c:	6d72612f 	ldfvse	f6, [r2, #-188]!	; 0xffffff44
      20:	6f6f622f 	svcvs	0x006f622f
      24:	00532e74 	subseq	r2, r3, r4, ror lr
      28:	6573552f 	ldrbvs	r5, [r3, #-1327]!	; 0xfffffad1
      2c:	702f7372 	eorvc	r7, pc, r2, ror r3	; <UNPREDICTABLE>
      30:	616b6172 	smcvs	46610	; 0xb612
      34:	6f626873 	svcvs	0x00626873
      38:	72616b72 	rsbvc	r6, r1, #116736	; 0x1c800
      3c:	7365442f 	cmnvc	r5, #788529152	; 0x2f000000
      40:	706f746b 	rsbvc	r7, pc, fp, ror #8
      44:	6d65522f 	sfmvs	f5, 2, [r5, #-188]!	; 0xffffff44
      48:	5f65746f 	svcpl	0x0065746f
      4c:	6f706552 	svcvs	0x00706552
      50:	6970722f 	ldmdbvs	r0!, {r0, r1, r2, r3, r5, r9, ip, sp, lr}^
      54:	2d736f2d 	ldclcs	15, cr6, [r3, #-180]!	; 0xffffff4c
      58:	74726175 	ldrbtvc	r6, [r2], #-373	; 0xfffffe8b
      5c:	6970722f 	ldmdbvs	r0!, {r0, r1, r2, r3, r5, r9, ip, sp, lr}^
      60:	6d2d6233 	sfmvs	f6, 4, [sp, #-204]!	; 0xffffff34
      64:	79746165 	ldmdbvc	r4!, {r0, r2, r5, r6, r8, sp, lr}^
      68:	656b732d 	strbvs	r7, [fp, #-813]!	; 0xfffffcd3
      6c:	6f74656c 	svcvs	0x0074656c
      70:	656b2f6e 	strbvs	r2, [fp, #-3950]!	; 0xfffff092
      74:	6c656e72 	stclvs	14, cr6, [r5], #-456	; 0xfffffe38
      78:	554e4700 	strbpl	r4, [lr, #-1792]	; 0xfffff900
      7c:	20534120 	subscs	r4, r3, r0, lsr #2
      80:	36322e32 			; <UNDEFINED> instruction: 0x36322e32
      84:	0100322e 	tsteq	r0, lr, lsr #4
      88:	00010880 	andeq	r0, r1, r0, lsl #17
      8c:	14000400 	strne	r0, [r0], #-1024	; 0xfffffc00
      90:	04000000 	streq	r0, [r0], #-0
      94:	00006401 	andeq	r6, r0, r1, lsl #8
      98:	002c0c00 	eoreq	r0, ip, r0, lsl #24
      9c:	011a0000 	tsteq	sl, r0
      a0:	82140000 	andshi	r0, r4, #0
      a4:	00600000 	rsbeq	r0, r0, r0
      a8:	00c10000 	sbceq	r0, r1, r0
      ac:	01020000 	mrseq	r0, (UNDEF: 2)
      b0:	00000d06 	andeq	r0, r0, r6, lsl #26
      b4:	05020200 	streq	r0, [r2, #-512]	; 0xfffffe00
      b8:	0000016b 	andeq	r0, r0, fp, ror #2
      bc:	00017603 	andeq	r7, r1, r3, lsl #12
      c0:	3e280200 	cdpcc	2, 2, cr0, cr8, cr0, {0}
      c4:	02000000 	andeq	r0, r0, #0
      c8:	01110504 	tsteq	r1, r4, lsl #10
      cc:	08020000 	stmdaeq	r2, {}	; <UNPREDICTABLE>
      d0:	00010c05 	andeq	r0, r1, r5, lsl #24
      d4:	08010200 	stmdaeq	r1, {r9}
      d8:	0000000b 	andeq	r0, r0, fp
      dc:	19070202 	stmdbne	r7, {r1, r9}
      e0:	03000000 	movweq	r0, #0
      e4:	00000175 	andeq	r0, r0, r5, ror r1
      e8:	00653402 	rsbeq	r3, r5, r2, lsl #8
      ec:	04020000 	streq	r0, [r2], #-0
      f0:	00005207 	andeq	r5, r0, r7, lsl #4
      f4:	07080200 	streq	r0, [r8, -r0, lsl #4]
      f8:	0000004d 	andeq	r0, r0, sp, asr #32
      fc:	69050404 	stmdbvs	r5, {r2, sl}
     100:	0200746e 	andeq	r7, r0, #1845493760	; 0x6e000000
     104:	00570704 	subseq	r0, r7, r4, lsl #14
     108:	00050000 	andeq	r0, r5, r0
     10c:	01000000 	mrseq	r0, (UNDEF: 0)
     110:	00821407 	addeq	r1, r2, r7, lsl #8
     114:	00006000 	andeq	r6, r0, r0
     118:	e49c0100 	ldr	r0, [ip], #256	; 0x100
     11c:	06000000 	streq	r0, [r0], -r0
     120:	01003072 	tsteq	r0, r2, ror r0
     124:	00005a07 	andeq	r5, r0, r7, lsl #20
     128:	00000000 	andeq	r0, r0, r0
     12c:	31720600 	cmncc	r2, r0, lsl #12
     130:	5a070100 	bpl	1c0538 <__kernel_end+0x5e538>
     134:	21000000 	mrscs	r0, (UNDEF: 0)
     138:	06000000 	streq	r0, [r0], -r0
     13c:	01003272 	tsteq	r0, r2, ror r2
     140:	00005a07 	andeq	r5, r0, r7, lsl #20
     144:	00004200 	andeq	r4, r0, r0, lsl #4
     148:	73620700 	cmnvc	r2, #0, 14
     14c:	09010073 	stmdbeq	r1, {r0, r1, r4, r5, r6}
     150:	000000e4 	andeq	r0, r0, r4, ror #1
     154:	00000063 	andeq	r0, r0, r3, rrx
     158:	00010408 	andeq	r0, r1, r8, lsl #8
     15c:	e40a0100 	str	r0, [sl], #-256	; 0xffffff00
     160:	09000000 	stmdbeq	r0, {}	; <UNPREDICTABLE>
     164:	00008264 	andeq	r8, r0, r4, ror #4
     168:	00000100 	andeq	r0, r0, r0, lsl #2
     16c:	33040a00 	movwcc	r0, #18944	; 0x4a00
     170:	0b000000 	bleq	178 <ARM_I_BIT+0xf8>
     174:	00000041 	andeq	r0, r0, r1, asr #32
     178:	00330201 	eorseq	r0, r3, r1, lsl #4
     17c:	020b0000 	andeq	r0, fp, #0
     180:	01000001 	tsteq	r0, r1
     184:	00003303 	andeq	r3, r0, r3, lsl #6
     188:	017e0c00 	cmneq	lr, r0, lsl #24
     18c:	017e0000 	cmneq	lr, r0
     190:	05010000 	streq	r0, [r1, #-0]
     194:	0001a000 	andeq	sl, r1, r0
     198:	c6000400 	strgt	r0, [r0], -r0, lsl #8
     19c:	04000000 	streq	r0, [r0], #-0
     1a0:	00006401 	andeq	r6, r0, r1, lsl #8
     1a4:	02730c00 	rsbseq	r0, r3, #0, 24
     1a8:	011a0000 	tsteq	sl, r0
     1ac:	82740000 	rsbshi	r0, r4, #0
     1b0:	00380000 	eorseq	r0, r8, r0
     1b4:	01640000 	cmneq	r4, r0
     1b8:	01020000 	mrseq	r0, (UNDEF: 2)
     1bc:	00000d06 	andeq	r0, r0, r6, lsl #26
     1c0:	05020200 	streq	r0, [r2, #-512]	; 0xfffffe00
     1c4:	0000016b 	andeq	r0, r0, fp, ror #2
     1c8:	11050402 	tstne	r5, r2, lsl #8
     1cc:	02000001 	andeq	r0, r0, #1
     1d0:	010c0508 	tsteq	ip, r8, lsl #10
     1d4:	01020000 	mrseq	r0, (UNDEF: 2)
     1d8:	00000b08 	andeq	r0, r0, r8, lsl #22
     1dc:	07020200 	streq	r0, [r2, -r0, lsl #4]
     1e0:	00000019 	andeq	r0, r0, r9, lsl r0
     1e4:	00017503 	andeq	r7, r1, r3, lsl #10
     1e8:	5a340300 	bpl	d00df0 <__kernel_end+0xb9edf0>
     1ec:	02000000 	andeq	r0, r0, #0
     1f0:	00520704 	subseq	r0, r2, r4, lsl #14
     1f4:	08020000 	stmdaeq	r2, {}	; <UNPREDICTABLE>
     1f8:	00004d07 	andeq	r4, r0, r7, lsl #26
     1fc:	05040400 	streq	r0, [r4, #-1024]	; 0xfffffc00
     200:	00746e69 	rsbseq	r6, r4, r9, ror #28
     204:	57070402 	strpl	r0, [r7, -r2, lsl #8]
     208:	05000000 	streq	r0, [r0, #-0]
     20c:	0000004f 	andeq	r0, r0, pc, asr #32
     210:	20022406 	andcs	r2, r2, r6, lsl #8
     214:	000000f0 	strdeq	r0, [r0], -r0	; <UNPREDICTABLE>
     218:	0002b407 	andeq	fp, r2, r7, lsl #8
     21c:	76220200 	strtvc	r0, [r2], -r0, lsl #4
     220:	00000000 	andeq	r0, r0, r0
     224:	00022707 	andeq	r2, r2, r7, lsl #14
     228:	76230200 	strtvc	r0, [r3], -r0, lsl #4
     22c:	04000000 	streq	r0, [r0], #-0
     230:	0013e307 	andseq	lr, r3, r7, lsl #6
     234:	76240200 	strtvc	r0, [r4], -r0, lsl #4
     238:	08000000 	stmdaeq	r0, {}	; <UNPREDICTABLE>
     23c:	0002b907 	andeq	fp, r2, r7, lsl #18
     240:	76250200 	strtvc	r0, [r5], -r0, lsl #4
     244:	0c000000 	stceq	0, cr0, [r0], {-0}
     248:	0001b207 	andeq	fp, r1, r7, lsl #4
     24c:	76260200 	strtvc	r0, [r6], -r0, lsl #4
     250:	10000000 	andne	r0, r0, r0
     254:	0002f407 	andeq	pc, r2, r7, lsl #8
     258:	76270200 	strtvc	r0, [r7], -r0, lsl #4
     25c:	14000000 	strne	r0, [r0], #-0
     260:	0001e507 	andeq	lr, r1, r7, lsl #10
     264:	76280200 	strtvc	r0, [r8], -r0, lsl #4
     268:	18000000 	stmdane	r0, {}	; <UNPREDICTABLE>
     26c:	00021c07 	andeq	r1, r2, r7, lsl #24
     270:	76290200 	strtvc	r0, [r9], -r0, lsl #4
     274:	1c000000 	stcne	0, cr0, [r0], {-0}
     278:	0001ec07 	andeq	lr, r1, r7, lsl #24
     27c:	762a0200 	strtvc	r0, [sl], -r0, lsl #4
     280:	20000000 	andcs	r0, r0, r0
     284:	01a20300 			; <UNDEFINED> instruction: 0x01a20300
     288:	2b020000 	blcs	80290 <__first_lvl_tbl_end+0x5f290>
     28c:	0000007b 	andeq	r0, r0, fp, ror r0
     290:	00410108 	subeq	r0, r1, r8, lsl #2
     294:	26040000 	strcs	r0, [r4], -r0
     298:	00000138 	andeq	r0, r0, r8, lsr r1
     29c:	00018a09 	andeq	r8, r1, r9, lsl #20
     2a0:	fe090100 	cdp2	1, 0, cr0, cr9, cr0, {0}
     2a4:	02000002 	andeq	r0, r0, #2
     2a8:	00028b09 	andeq	r8, r2, r9, lsl #22
     2ac:	c8090400 	stmdagt	r9, {sl}
     2b0:	08000001 	stmdaeq	r0, {r0}
     2b4:	00022d09 	andeq	r2, r2, r9, lsl #26
     2b8:	48091000 	stmdami	r9, {ip}
     2bc:	20000002 	andcs	r0, r0, r2
     2c0:	0001ff09 	andeq	pc, r1, r9, lsl #30
     2c4:	c2094000 	andgt	r4, r9, #0
     2c8:	80000002 	andhi	r0, r0, r2
     2cc:	02630a00 	rsbeq	r0, r3, #0, 20
     2d0:	07010000 	streq	r0, [r1, -r0]
     2d4:	0000014d 	andeq	r0, r0, sp, asr #2
     2d8:	00008274 	andeq	r8, r0, r4, ror r2
     2dc:	0000000c 	andeq	r0, r0, ip
     2e0:	040b9c01 	streq	r9, [fp], #-3073	; 0xfffff3ff
     2e4:	000000f0 	strdeq	r0, [r0], -r0	; <UNPREDICTABLE>
     2e8:	0001b90c 	andeq	fp, r1, ip, lsl #18
     2ec:	800c0100 	andhi	r0, ip, r0, lsl #2
     2f0:	2c000082 	stccs	0, cr0, [r0], {130}	; 0x82
     2f4:	01000000 	mrseq	r0, (UNDEF: 0)
     2f8:	0001849c 	muleq	r1, ip, r4
     2fc:	82880d00 	addhi	r0, r8, #0, 26
     300:	01980000 	orrseq	r0, r8, r0
     304:	940d0000 	strls	r0, [sp], #-0
     308:	38000082 	stmdacc	r0, {r1, r7}
     30c:	0d000001 	stceq	0, cr0, [r0, #-4]
     310:	000082a0 	andeq	r8, r0, r0, lsr #5
     314:	00000138 	andeq	r0, r0, r8, lsr r1
     318:	02a80e00 	adceq	r0, r8, #0, 28
     31c:	05010000 	streq	r0, [r1, #-0]
     320:	00000193 	muleq	r0, r3, r1
     324:	3f00b400 	svccc	0x0000b400
     328:	00014d0f 	andeq	r4, r1, pc, lsl #26
     32c:	02df1000 	sbcseq	r1, pc, #0
     330:	02df0000 	sbcseq	r0, pc, #0
     334:	3f040000 	svccc	0x00040000
     338:	0005ab00 	andeq	sl, r5, r0, lsl #22
     33c:	a7000400 	strge	r0, [r0, -r0, lsl #8]
     340:	04000001 	streq	r0, [r0], #-1
     344:	00006401 	andeq	r6, r0, r1, lsl #8
     348:	04a40c00 	strteq	r0, [r4], #3072	; 0xc00
     34c:	011a0000 	tsteq	sl, r0
     350:	82ac0000 	adchi	r0, ip, #0
     354:	03b00000 	movseq	r0, #0
     358:	023e0000 	eorseq	r0, lr, #0
     35c:	01020000 	mrseq	r0, (UNDEF: 2)
     360:	00000d06 	andeq	r0, r0, r6, lsl #26
     364:	08010200 	stmdaeq	r1, {r9}
     368:	0000000b 	andeq	r0, r0, fp
     36c:	6b050202 	blvs	140b7c <dma_src_page_2+0xeb7c>
     370:	02000001 	andeq	r0, r0, #1
     374:	00190702 	andseq	r0, r9, r2, lsl #14
     378:	04020000 	streq	r0, [r2], #-0
     37c:	00011105 	andeq	r1, r1, r5, lsl #2
     380:	07040200 	streq	r0, [r4, -r0, lsl #4]
     384:	00000052 	andeq	r0, r0, r2, asr r0
     388:	0c050802 	stceq	8, cr0, [r5], {2}
     38c:	02000001 	andeq	r0, r0, #1
     390:	004d0708 	subeq	r0, sp, r8, lsl #14
     394:	04030000 	streq	r0, [r3], #-0
     398:	746e6905 	strbtvc	r6, [lr], #-2309	; 0xfffff6fb
     39c:	07040200 	streq	r0, [r4, -r0, lsl #4]
     3a0:	00000057 	andeq	r0, r0, r7, asr r0
     3a4:	00034804 	andeq	r4, r3, r4, lsl #16
     3a8:	64d80300 	ldrbvs	r0, [r8], #768	; 0x300
     3ac:	02000000 	andeq	r0, r0, #0
     3b0:	04260408 	strteq	r0, [r6], #-1032	; 0xfffffbf8
     3b4:	76040000 	strvc	r0, [r4], -r0
     3b8:	04000001 	streq	r0, [r0], #-1
     3bc:	00004128 	andeq	r4, r0, r8, lsr #2
     3c0:	036a0400 	cmneq	sl, #0, 8
     3c4:	2e040000 	cdpcs	0, 0, cr0, cr4, cr0, {0}
     3c8:	0000002c 	andeq	r0, r0, ip, lsr #32
     3cc:	00017504 	andeq	r7, r1, r4, lsl #10
     3d0:	48340400 	ldmdami	r4!, {sl}
     3d4:	05000000 	streq	r0, [r0, #-0]
     3d8:	00000093 	muleq	r0, r3, r0
     3dc:	00037204 	andeq	r7, r3, r4, lsl #4
     3e0:	ae0a0200 	cdpge	2, 0, cr0, cr10, cr0, {0}
     3e4:	06000000 	streq	r0, [r0], -r0
     3e8:	0000b404 	andeq	fp, r0, r4, lsl #8
     3ec:	68040700 	stmdavs	r4, {r8, r9, sl}
     3f0:	02000004 	andeq	r0, r0, #4
     3f4:	0000ae0b 	andeq	sl, r0, fp, lsl #28
     3f8:	2c010800 	stccs	8, cr0, [r1], {-0}
     3fc:	02000000 	andeq	r0, r0, #0
     400:	0000fd26 	andeq	pc, r0, r6, lsr #26
     404:	018a0900 	orreq	r0, sl, r0, lsl #18
     408:	09010000 	stmdbeq	r1, {}	; <UNPREDICTABLE>
     40c:	000002fe 	strdeq	r0, [r0], -lr
     410:	028b0902 	addeq	r0, fp, #32768	; 0x8000
     414:	09040000 	stmdbeq	r4, {}	; <UNPREDICTABLE>
     418:	000001c8 	andeq	r0, r0, r8, asr #3
     41c:	022d0908 	eoreq	r0, sp, #8, 18	; 0x20000
     420:	09100000 	ldmdbeq	r0, {}	; <UNPREDICTABLE>
     424:	00000248 	andeq	r0, r0, r8, asr #4
     428:	01ff0920 	mvnseq	r0, r0, lsr #18
     42c:	09400000 	stmdbeq	r0, {}^	; <UNPREDICTABLE>
     430:	000002c2 	andeq	r0, r0, r2, asr #5
     434:	3c040080 	stccc	0, cr0, [r4], {128}	; 0x80
     438:	02000005 	andeq	r0, r0, #5
     43c:	0000c02f 	andeq	ip, r0, pc, lsr #32
     440:	02280a00 	eoreq	r0, r8, #0, 20
     444:	00018931 	andeq	r8, r1, r1, lsr r9
     448:	057c0b00 	ldrbeq	r0, [ip, #-2816]!	; 0xfffff500
     44c:	33020000 	movwcc	r0, #8192	; 0x2000
     450:	0000009e 	muleq	r0, lr, r0
     454:	056e0b00 	strbeq	r0, [lr, #-2816]!	; 0xfffff500
     458:	34020000 	strcc	r0, [r2], #-0
     45c:	0000009e 	muleq	r0, lr, r0
     460:	047c0b04 	ldrbteq	r0, [ip], #-2820	; 0xfffff4fc
     464:	35020000 	strcc	r0, [r2, #-0]
     468:	0000009e 	muleq	r0, lr, r0
     46c:	035e0b08 	cmpeq	lr, #8, 22	; 0x2000
     470:	36020000 	strcc	r0, [r2], -r0
     474:	0000009e 	muleq	r0, lr, r0
     478:	040a0b0c 	streq	r0, [sl], #-2828	; 0xfffff4f4
     47c:	37020000 	strcc	r0, [r2, -r0]
     480:	0000009e 	muleq	r0, lr, r0
     484:	04180b10 	ldreq	r0, [r8], #-2832	; 0xfffff4f0
     488:	38020000 	stmdacc	r2, {}	; <UNPREDICTABLE>
     48c:	0000009e 	muleq	r0, lr, r0
     490:	04e00b14 	strbteq	r0, [r0], #2836	; 0xb14
     494:	39020000 	stmdbcc	r2, {}	; <UNPREDICTABLE>
     498:	0000009e 	muleq	r0, lr, r0
     49c:	04d10b18 	ldrbeq	r0, [r1], #2840	; 0xb18
     4a0:	3a020000 	bcc	804a8 <__first_lvl_tbl_end+0x5f4a8>
     4a4:	0000009e 	muleq	r0, lr, r0
     4a8:	03390b1c 	teqeq	r9, #28, 22	; 0x7000
     4ac:	3b020000 	blcc	804b4 <__first_lvl_tbl_end+0x5f4b4>
     4b0:	0000009e 	muleq	r0, lr, r0
     4b4:	04320b20 	ldrteq	r0, [r2], #-2848	; 0xfffff4e0
     4b8:	3c020000 	stccc	0, cr0, [r2], {-0}
     4bc:	0000009e 	muleq	r0, lr, r0
     4c0:	04040024 	streq	r0, [r4], #-36	; 0xffffffdc
     4c4:	02000005 	andeq	r0, r0, #5
     4c8:	0001083d 	andeq	r0, r1, sp, lsr r8
     4cc:	05490c00 	strbeq	r0, [r9, #-3072]	; 0xfffff400
     4d0:	42020000 	andmi	r0, r2, #0
     4d4:	0000007d 	andeq	r0, r0, sp, ror r0
     4d8:	0001b003 	andeq	fp, r1, r3
     4dc:	65720d00 	ldrbvs	r0, [r2, #-3328]!	; 0xfffff300
     4e0:	44020073 	strmi	r0, [r2], #-115	; 0xffffff8d
     4e4:	0000007d 	andeq	r0, r0, sp, ror r0
     4e8:	04910e00 	ldreq	r0, [r1], #3584	; 0xe00
     4ec:	54020000 	strpl	r0, [r2], #-0
     4f0:	04f20e03 	ldrbteq	r0, [r2], #3587	; 0xe03
     4f4:	4a020000 	bmi	804fc <__first_lvl_tbl_end+0x5f4fc>
     4f8:	02df0f03 	sbcseq	r0, pc, #3, 30
     4fc:	21010000 	mrscs	r0, (UNDEF: 1)
     500:	000001d5 	ldrdeq	r0, [r0], -r5
     504:	000082ac 	andeq	r8, r0, ip, lsr #5
     508:	0000000c 	andeq	r0, r0, ip
     50c:	04069c01 	streq	r9, [r6], #-3073	; 0xfffff3ff
     510:	00000189 	andeq	r0, r0, r9, lsl #3
     514:	00045b10 	andeq	r5, r4, r0, lsl fp
     518:	b82d0100 	stmdalt	sp!, {r8}
     51c:	1c000082 	stcne	0, cr0, [r0], {130}	; 0x82
     520:	01000000 	mrseq	r0, (UNDEF: 0)
     524:	0001fa9c 	muleq	r1, ip, sl
     528:	82cc1100 	sbchi	r1, ip, #0, 2
     52c:	058d0000 	streq	r0, [sp]
     530:	10000000 	andne	r0, r0, r0
     534:	000003c8 	andeq	r0, r0, r8, asr #7
     538:	82d43a01 	sbcshi	r3, r4, #4096	; 0x1000
     53c:	00180000 	andseq	r0, r8, r0
     540:	9c010000 	stcls	0, cr0, [r1], {-0}
     544:	00000219 	andeq	r0, r0, r9, lsl r2
     548:	0082e411 	addeq	lr, r2, r1, lsl r4
     54c:	00058d00 	andeq	r8, r5, r0, lsl #26
     550:	ae100000 	cdpge	0, 1, cr0, cr0, cr0, {0}
     554:	01000003 	tsteq	r0, r3
     558:	0082ec47 	addeq	lr, r2, r7, asr #24
     55c:	00001800 	andeq	r1, r0, r0, lsl #16
     560:	389c0100 	ldmcc	ip, {r8}
     564:	11000002 	tstne	r0, r2
     568:	000082fc 	strdeq	r8, [r0], -ip
     56c:	0000058d 	andeq	r0, r0, sp, lsl #11
     570:	03181000 	tsteq	r8, #0
     574:	4c010000 	stcmi	0, cr0, [r1], {-0}
     578:	00008304 	andeq	r8, r0, r4, lsl #6
     57c:	0000001c 	andeq	r0, r0, ip, lsl r0
     580:	02579c01 	subseq	r9, r7, #256	; 0x100
     584:	18110000 	ldmdane	r1, {}	; <UNPREDICTABLE>
     588:	8d000083 	stchi	0, cr0, [r0, #-524]	; 0xfffffdf4
     58c:	00000005 	andeq	r0, r0, r5
     590:	00055c10 	andeq	r5, r5, r0, lsl ip
     594:	20530100 	subscs	r0, r3, r0, lsl #2
     598:	1c000083 	stcne	0, cr0, [r0], {131}	; 0x83
     59c:	01000000 	mrseq	r0, (UNDEF: 0)
     5a0:	0002769c 	muleq	r2, ip, r6
     5a4:	83341100 	teqhi	r4, #0, 2
     5a8:	058d0000 	streq	r0, [sp]
     5ac:	10000000 	andne	r0, r0, r0
     5b0:	000003ec 	andeq	r0, r0, ip, ror #7
     5b4:	833c5a01 	teqhi	ip, #4096	; 0x1000
     5b8:	001c0000 	andseq	r0, ip, r0
     5bc:	9c010000 	stcls	0, cr0, [r1], {-0}
     5c0:	00000295 	muleq	r0, r5, r2
     5c4:	00835011 	addeq	r5, r3, r1, lsl r0
     5c8:	00058d00 	andeq	r8, r5, r0, lsl #26
     5cc:	d8120000 	ldmdale	r2, {}	; <UNPREDICTABLE>
     5d0:	01000012 	tsteq	r0, r2, lsl r0
     5d4:	0083586e 	addeq	r5, r3, lr, ror #16
     5d8:	0000e800 	andeq	lr, r0, r0, lsl #16
     5dc:	279c0100 	ldrcs	r0, [ip, r0, lsl #2]
     5e0:	13000003 	movwne	r0, #3
     5e4:	7101006a 	tstvc	r1, sl, rrx
     5e8:	0000007d 	andeq	r0, r0, sp, ror r0
     5ec:	00000076 	andeq	r0, r0, r6, ror r0
     5f0:	0001b814 	andeq	fp, r1, r4, lsl r8
     5f4:	0083d800 	addeq	sp, r3, r0, lsl #16
     5f8:	00001000 	andeq	r1, r0, r0
     5fc:	ea780100 	b	1e00a04 <__kernel_end+0x1c9ea04>
     600:	15000002 	strne	r0, [r0, #-2]
     604:	00000194 	muleq	r0, r4, r1
     608:	000083d8 	ldrdeq	r8, [r0], -r8	; <UNPREDICTABLE>
     60c:	00000004 	andeq	r0, r0, r4
     610:	d8164c02 	ldmdale	r6, {r1, sl, fp, lr}
     614:	04000083 	streq	r0, [r0], #-131	; 0xffffff7d
     618:	17000000 	strne	r0, [r0, -r0]
     61c:	000001a4 	andeq	r0, r0, r4, lsr #3
     620:	14000000 	strne	r0, [r0], #-0
     624:	000001b0 			; <UNDEFINED> instruction: 0x000001b0
     628:	000083f8 	strdeq	r8, [r0], -r8	; <UNPREDICTABLE>
     62c:	00000014 	andeq	r0, r0, r4, lsl r0
     630:	031d7a01 	tsteq	sp, #4096	; 0x1000
     634:	94150000 	ldrls	r0, [r5], #-0
     638:	f8000001 			; <UNDEFINED> instruction: 0xf8000001
     63c:	04000083 	streq	r0, [r0], #-131	; 0xffffff7d
     640:	02000000 	andeq	r0, r0, #0
     644:	83f81656 	mvnshi	r1, #90177536	; 0x5600000
     648:	00040000 	andeq	r0, r4, r0
     64c:	a4170000 	ldrge	r0, [r7], #-0
     650:	00000001 	andeq	r0, r0, r1
     654:	6c110000 	ldcvs	0, cr0, [r1], {-0}
     658:	98000083 	stmdals	r0, {r0, r1, r7}
     65c:	00000005 	andeq	r0, r0, r5
     660:	00039910 	andeq	r9, r3, r0, lsl r9
     664:	40800100 	addmi	r0, r0, r0, lsl #2
     668:	bc000084 	stclt	0, cr0, [r0], {132}	; 0x84
     66c:	01000000 	mrseq	r0, (UNDEF: 0)
     670:	0003759c 	muleq	r3, ip, r5
     674:	04021800 	streq	r1, [r2], #-2048	; 0xfffff800
     678:	80010000 	andhi	r0, r1, r0
     67c:	000000fd 	strdeq	r0, [r0], -sp
     680:	00000095 	muleq	r0, r5, r0
     684:	0012dc19 	andseq	sp, r2, r9, lsl ip
     688:	a3800100 	orrge	r0, r0, #0, 2
     68c:	01000000 	mrseq	r0, (UNDEF: 0)
     690:	12281951 	eorne	r1, r8, #1327104	; 0x144000
     694:	80010000 	andhi	r0, r1, r0
     698:	000000b5 	strheq	r0, [r0], -r5
     69c:	531a5201 	tstpl	sl, #268435456	; 0x10000000
     6a0:	01000004 	tsteq	r0, r4
     6a4:	00009382 	andeq	r9, r0, r2, lsl #7
     6a8:	0000c100 	andeq	ip, r0, r0, lsl #2
     6ac:	97100000 	ldrls	r0, [r0, -r0]
     6b0:	01000003 	tsteq	r0, r3
     6b4:	0084fc9d 	umulleq	pc, r4, sp, ip	; <UNPREDICTABLE>
     6b8:	0000c800 	andeq	ip, r0, r0, lsl #16
     6bc:	a99c0100 	ldmibge	ip, {r8}
     6c0:	18000003 	stmdane	r0, {r0, r1}
     6c4:	00000402 	andeq	r0, r0, r2, lsl #8
     6c8:	00fd9d01 	rscseq	r9, sp, r1, lsl #26
     6cc:	010f0000 	mrseq	r0, CPSR
     6d0:	531a0000 	tstpl	sl, #0
     6d4:	01000004 	tsteq	r0, r4
     6d8:	0000939f 	muleq	r0, pc, r3	; <UNPREDICTABLE>
     6dc:	00013b00 	andeq	r3, r1, r0, lsl #22
     6e0:	e51b0000 	ldr	r0, [fp, #-0]
     6e4:	01000003 	tsteq	r0, r3
     6e8:	00040dbc 			; <UNDEFINED> instruction: 0x00040dbc
     6ec:	0085c400 	addeq	ip, r5, r0, lsl #8
     6f0:	00002400 	andeq	r2, r0, r0, lsl #8
     6f4:	0d9c0100 	ldfeqs	f0, [ip]
     6f8:	1c000004 	stcne	0, cr0, [r0], {4}
     6fc:	bc010073 	stclt	0, cr0, [r1], {115}	; 0x73
     700:	0000040d 	andeq	r0, r0, sp, lsl #8
     704:	631d5001 	tstvs	sp, #1
     708:	7dbc0100 	ldfvcs	f0, [ip]
     70c:	89000000 	stmdbhi	r0, {}	; <UNPREDICTABLE>
     710:	1d000001 	stcne	0, cr0, [r0, #-4]
     714:	bc01006e 	stclt	0, cr0, [r1], {110}	; 0x6e
     718:	0000006b 	andeq	r0, r0, fp, rrx
     71c:	000001aa 	andeq	r0, r0, sl, lsr #3
     720:	0100701e 	tsteq	r0, lr, lsl r0
     724:	00040fbe 			; <UNDEFINED> instruction: 0x00040fbe
     728:	1f500100 	svcne	0x00500100
     72c:	0000044e 	andeq	r0, r0, lr, asr #8
     730:	0088bf01 	addeq	fp, r8, r1, lsl #30
     734:	51010000 	mrspl	r0, (UNDEF: 1)
     738:	01006913 	tsteq	r0, r3, lsl r9
     73c:	00006bc0 	andeq	r6, r0, r0, asr #23
     740:	0001cb00 	andeq	ip, r1, r0, lsl #22
     744:	04200000 	strteq	r0, [r0], #-0
     748:	00880406 	addeq	r0, r8, r6, lsl #8
     74c:	58100000 	ldmdapl	r0, {}	; <UNPREDICTABLE>
     750:	01000003 	tsteq	r0, r3
     754:	0085e8c9 	addeq	lr, r5, r9, asr #17
     758:	00000c00 	andeq	r0, r0, r0, lsl #24
     75c:	629c0100 	addsvs	r0, ip, #0, 2
     760:	1d000004 	stcne	0, cr0, [r0, #-16]
     764:	c9010073 	stmdbgt	r1, {r0, r1, r4, r5, r6}
     768:	0000040d 	andeq	r0, r0, sp, lsl #8
     76c:	000001df 	ldrdeq	r0, [r0], -pc	; <UNPREDICTABLE>
     770:	01006e1d 	tsteq	r0, sp, lsl lr
     774:	00006bc9 	andeq	r6, r0, r9, asr #23
     778:	00020000 	andeq	r0, r2, r0
     77c:	85f42100 	ldrbhi	r2, [r4, #256]!	; 0x100
     780:	03a90000 			; <UNDEFINED> instruction: 0x03a90000
     784:	01220000 			; <UNDEFINED> instruction: 0x01220000
     788:	01f30350 	mvnseq	r0, r0, asr r3
     78c:	51012250 	tstpl	r1, r0, asr r2
     790:	01223001 			; <UNDEFINED> instruction: 0x01223001
     794:	01f30352 	mvnseq	r0, r2, asr r3
     798:	10000051 	andne	r0, r0, r1, asr r0
     79c:	00000523 	andeq	r0, r0, r3, lsr #10
     7a0:	85f45f01 	ldrbhi	r5, [r4, #3841]!	; 0xf01
     7a4:	00680000 	rsbeq	r0, r8, r0
     7a8:	9c010000 	stcls	0, cr0, [r1], {-0}
     7ac:	0000051a 	andeq	r0, r0, sl, lsl r5
     7b0:	0001b014 	andeq	fp, r1, r4, lsl r0
     7b4:	0085fc00 	addeq	pc, r5, r0, lsl #24
     7b8:	00001000 	andeq	r1, r0, r0
     7bc:	aa620100 	bge	1880bc4 <__kernel_end+0x171ebc4>
     7c0:	15000004 	strne	r0, [r0, #-4]
     7c4:	00000194 	muleq	r0, r4, r1
     7c8:	000085fc 	strdeq	r8, [r0], -ip
     7cc:	00000004 	andeq	r0, r0, r4
     7d0:	fc165602 	ldc2	6, cr5, [r6], {2}
     7d4:	04000085 	streq	r0, [r0], #-133	; 0xffffff7b
     7d8:	17000000 	strne	r0, [r0, -r0]
     7dc:	000001a4 	andeq	r0, r0, r4, lsr #3
     7e0:	14000000 	strne	r0, [r0], #-0
     7e4:	000001b8 			; <UNDEFINED> instruction: 0x000001b8
     7e8:	00008644 	andeq	r8, r0, r4, asr #12
     7ec:	00000018 	andeq	r0, r0, r8, lsl r0
     7f0:	04dd6801 	ldrbeq	r6, [sp], #2049	; 0x801
     7f4:	94150000 	ldrls	r0, [r5], #-0
     7f8:	44000001 	strmi	r0, [r0], #-1
     7fc:	04000086 	streq	r0, [r0], #-134	; 0xffffff7a
     800:	02000000 	andeq	r0, r0, #0
     804:	8644164c 	strbhi	r1, [r4], -ip, asr #12
     808:	00040000 	andeq	r0, r4, r0
     80c:	a4170000 	ldrge	r0, [r7], #-0
     810:	00000001 	andeq	r0, r0, r1
     814:	fc110000 	ldc2	0, cr0, [r1], {-0}
     818:	a3000085 	movwge	r0, #133	; 0x85
     81c:	23000005 	movwcs	r0, #5
     820:	00008620 	andeq	r8, r0, r0, lsr #12
     824:	00000415 	andeq	r0, r0, r5, lsl r4
     828:	00000501 	andeq	r0, r0, r1, lsl #10
     82c:	02500122 	subseq	r0, r0, #-2147483640	; 0x80000008
     830:	01220074 			; <UNDEFINED> instruction: 0x01220074
     834:	200a0351 	andcs	r0, sl, r1, asr r3
     838:	2c240001 	stccs	0, cr0, [r4], #-4
     83c:	15000086 	strne	r0, [r0, #-134]	; 0xffffff7a
     840:	22000004 	andcs	r0, r0, #4
     844:	74035001 	strvc	r5, [r3], #-1
     848:	012202a0 	smulwbeq	r2, r0, r2
     84c:	200a0351 	andcs	r0, sl, r1, asr r3
     850:	25000001 	strcs	r0, [r0, #-1]
     854:	00000386 	andeq	r0, r0, r6, lsl #7
     858:	05291401 	streq	r1, [r9, #-1025]!	; 0xfffffbff
     85c:	b2000000 	andlt	r0, r0, #0
     860:	d5263f00 	strle	r3, [r6, #-3840]!	; 0xfffff100
     864:	27000001 	strcs	r0, [r0, -r1]
     868:	000000a3 	andeq	r0, r0, r3, lsr #1
     86c:	0000053e 	andeq	r0, r0, lr, lsr r5
     870:	00053e28 	andeq	r3, r5, r8, lsr #28
     874:	02004700 	andeq	r4, r0, #0, 14
     878:	034f0704 	movteq	r0, #63236	; 0xf704
     87c:	451f0000 	ldrmi	r0, [pc, #-0]	; 884 <SCTLR_ENABLE_BRANCH_PREDICTION+0x84>
     880:	01000004 	tsteq	r0, r4
     884:	00052e17 	andeq	r2, r5, r7, lsl lr
     888:	00030500 	andeq	r0, r3, r0, lsl #10
     88c:	270000d0 			; <UNDEFINED> instruction: 0x270000d0
     890:	000000b5 	strheq	r0, [r0], -r5
     894:	00000566 	andeq	r0, r0, r6, ror #10
     898:	00053e28 	andeq	r3, r5, r8, lsr #28
     89c:	1f004700 	svcne	0x00004700
     8a0:	00000533 	andeq	r0, r0, r3, lsr r5
     8a4:	05561801 	ldrbeq	r1, [r6, #-2049]	; 0xfffff7ff
     8a8:	03050000 	movweq	r0, #20480	; 0x5000
     8ac:	0000d120 	andeq	sp, r0, r0, lsr #2
     8b0:	00032e29 	andeq	r2, r3, r9, lsr #28
     8b4:	881a0100 	ldmdahi	sl, {r8}
     8b8:	05000005 	streq	r0, [r0, #-5]
     8bc:	00d24003 	sbcseq	r4, r2, r3
     8c0:	007d0500 	rsbseq	r0, sp, r0, lsl #10
     8c4:	192a0000 	stmdbne	sl!, {}	; <UNPREDICTABLE>
     8c8:	19000005 	stmdbne	r0, {r0, r2}
     8cc:	05000005 	streq	r0, [r0, #-5]
     8d0:	048a2a2c 	streq	r2, [sl], #2604	; 0xa2c
     8d4:	048a0000 	streq	r0, [sl], #0
     8d8:	0c060000 	stceq	0, cr0, [r6], {-0}
     8dc:	0004be2a 	andeq	fp, r4, sl, lsr #28
     8e0:	0004be00 	andeq	fp, r4, r0, lsl #28
     8e4:	00400200 	subeq	r0, r0, r0, lsl #4
     8e8:	00000212 	andeq	r0, r0, r2, lsl r2
     8ec:	03fc0004 	mvnseq	r0, #4
     8f0:	01040000 	mrseq	r0, (UNDEF: 4)
     8f4:	00000064 	andeq	r0, r0, r4, rrx
     8f8:	0006a50c 	andeq	sl, r6, ip, lsl #10
     8fc:	00011a00 	andeq	r1, r1, r0, lsl #20
     900:	00865c00 	addeq	r5, r6, r0, lsl #24
     904:	00006c00 	andeq	r6, r0, r0, lsl #24
     908:	00047f00 	andeq	r7, r4, r0, lsl #30
     90c:	06010200 	streq	r0, [r1], -r0, lsl #4
     910:	0000000d 	andeq	r0, r0, sp
     914:	6b050202 	blvs	141124 <dma_src_page_2+0xf124>
     918:	03000001 	movweq	r0, #1
     91c:	00000176 	andeq	r0, r0, r6, ror r1
     920:	003e2802 	eorseq	r2, lr, r2, lsl #16
     924:	04020000 	streq	r0, [r2], #-0
     928:	00011105 	andeq	r1, r1, r5, lsl #2
     92c:	05080200 	streq	r0, [r8, #-512]	; 0xfffffe00
     930:	0000010c 	andeq	r0, r0, ip, lsl #2
     934:	0b080102 	bleq	200d44 <__kernel_end+0x9ed44>
     938:	02000000 	andeq	r0, r0, #0
     93c:	00190702 	andseq	r0, r9, r2, lsl #14
     940:	75030000 	strvc	r0, [r3, #-0]
     944:	02000001 	andeq	r0, r0, #1
     948:	00006534 	andeq	r6, r0, r4, lsr r5
     94c:	07040200 	streq	r0, [r4, -r0, lsl #4]
     950:	00000052 	andeq	r0, r0, r2, asr r0
     954:	4d070802 	stcmi	8, cr0, [r7, #-8]
     958:	04000000 	streq	r0, [r0], #-0
     95c:	6e690504 	cdpvs	5, 6, cr0, cr9, cr4, {0}
     960:	04020074 	streq	r0, [r2], #-116	; 0xffffff8c
     964:	00005707 	andeq	r5, r0, r7, lsl #14
     968:	005a0500 	subseq	r0, sl, r0, lsl #10
     96c:	01060000 	mrseq	r0, (UNDEF: 6)
     970:	0000004c 	andeq	r0, r0, ip, asr #32
     974:	00cf0d03 	sbceq	r0, pc, r3, lsl #26
     978:	6f070000 	svcvs	0x00070000
     97c:	00000006 	andeq	r0, r0, r6
     980:	0005fb07 	andeq	pc, r5, r7, lsl #22
     984:	5e070100 	adfpls	f0, f7, f0
     988:	02000006 	andeq	r0, r0, #6
     98c:	00061c07 	andeq	r1, r6, r7, lsl #24
     990:	9c070300 	stcls	3, cr0, [r7], {-0}
     994:	04000006 	streq	r0, [r0], #-6
     998:	0006e107 	andeq	lr, r6, r7, lsl #2
     99c:	26070500 	strcs	r0, [r7], -r0, lsl #10
     9a0:	06000006 	streq	r0, [r0], -r6
     9a4:	0005f007 	andeq	pc, r5, r7
     9a8:	ba070700 	blt	1c25b0 <__kernel_end+0x605b0>
     9ac:	08000005 	stmdaeq	r0, {r0, r2}
     9b0:	0006bc07 	andeq	fp, r6, r7, lsl #24
     9b4:	03000900 	movweq	r0, #2304	; 0x900
     9b8:	00000689 	andeq	r0, r0, r9, lsl #13
     9bc:	00861803 	addeq	r1, r6, r3, lsl #16
     9c0:	9a080000 	bls	2009c8 <__kernel_end+0x9e9c8>
     9c4:	04000005 	streq	r0, [r0], #-5
     9c8:	0000007a 	andeq	r0, r0, sl, ror r0
     9cc:	01061c03 	tsteq	r6, r3, lsl #24
     9d0:	8e090000 	cdphi	0, 0, cr0, cr9, cr0, {0}
     9d4:	00000005 	andeq	r0, r0, r5
     9d8:	09800000 	stmibeq	r0, {}	; <UNPREDICTABLE>
     9dc:	00000636 	andeq	r0, r0, r6, lsr r6
     9e0:	40000000 	andmi	r0, r0, r0
     9e4:	00064309 	andeq	r4, r6, r9, lsl #6
     9e8:	0000ff00 	andeq	pc, r0, r0, lsl #30
     9ec:	240a0040 	strcs	r0, [sl], #-64	; 0xffffffc0
     9f0:	01632503 	cmneq	r3, r3, lsl #10
     9f4:	170b0000 	strne	r0, [fp, -r0]
     9f8:	03000006 	movweq	r0, #6
     9fc:	00008127 	andeq	r8, r0, r7, lsr #2
     a00:	ed0b0000 	stc	0, cr0, [fp, #-0]
     a04:	03000006 	movweq	r0, #6
     a08:	00017a28 	andeq	r7, r1, r8, lsr #20
     a0c:	840b0400 	strhi	r0, [fp], #-1024	; 0xfffffc00
     a10:	03000006 	movweq	r0, #6
     a14:	00008129 	andeq	r8, r0, r9, lsr #2
     a18:	e90b1000 	stmdb	fp, {ip}
     a1c:	03000005 	movweq	r0, #5
     a20:	0000812a 	andeq	r8, r0, sl, lsr #2
     a24:	110b1400 	tstne	fp, r0, lsl #8
     a28:	03000015 	movweq	r0, #21
     a2c:	0000812b 	andeq	r8, r0, fp, lsr #2
     a30:	500b1800 	andpl	r1, fp, r0, lsl #16
     a34:	03000006 	movweq	r0, #6
     a38:	0000812c 	andeq	r8, r0, ip, lsr #2
     a3c:	db0b1c00 	blle	2c7a44 <__kernel_end+0x165a44>
     a40:	03000006 	movweq	r0, #6
     a44:	0000812d 	andeq	r8, r0, sp, lsr #2
     a48:	0c002000 	stceq	0, cr2, [r0], {-0}
     a4c:	00000081 	andeq	r0, r0, r1, lsl #1
     a50:	00000173 	andeq	r0, r0, r3, ror r1
     a54:	0001730d 	andeq	r7, r1, sp, lsl #6
     a58:	02000200 	andeq	r0, r0, #0, 4
     a5c:	034f0704 	movteq	r0, #63236	; 0xf704
     a60:	63050000 	movwvs	r0, #20480	; 0x5000
     a64:	03000001 	movweq	r0, #1
     a68:	000005df 	ldrdeq	r0, [r0], -pc	; <UNPREDICTABLE>
     a6c:	01062e03 	tsteq	r6, r3, lsl #28
     a70:	cf0e0000 	svcgt	0x000e0000
     a74:	01000006 	tsteq	r0, r6
     a78:	00865c0a 	addeq	r5, r6, sl, lsl #24
     a7c:	00002c00 	andeq	r2, r0, r0, lsl #24
     a80:	be9c0100 	fmllte	f0, f4, f0
     a84:	0f000001 	svceq	0x00000001
     a88:	000005b2 			; <UNDEFINED> instruction: 0x000005b2
     a8c:	00cf0a01 	sbceq	r0, pc, r1, lsl #20
     a90:	022c0000 	eoreq	r0, ip, #0
     a94:	cd0f0000 	stcgt	0, cr0, [pc, #-0]	; a9c <SCTLR_ENABLE_BRANCH_PREDICTION+0x29c>
     a98:	01000005 	tsteq	r0, r5
     a9c:	0000330a 	andeq	r3, r0, sl, lsl #6
     aa0:	00024d00 	andeq	r4, r2, r0, lsl #26
     aa4:	0b100000 	bleq	400aac <__kernel_end+0x29eaac>
     aa8:	01000006 	tsteq	r0, r6
     aac:	0000331d 	andeq	r3, r0, sp, lsl r3
     ab0:	00868800 	addeq	r8, r6, r0, lsl #16
     ab4:	00004000 	andeq	r4, r0, r0
     ab8:	f69c0100 			; <UNDEFINED> instruction: 0xf69c0100
     abc:	0f000001 	svceq	0x00000001
     ac0:	000005b2 			; <UNDEFINED> instruction: 0x000005b2
     ac4:	00cf1d01 	sbceq	r1, pc, r1, lsl #26
     ac8:	02760000 	rsbseq	r0, r6, #0
     acc:	cd110000 	ldcgt	0, cr0, [r1, #-0]
     ad0:	01000005 	tsteq	r0, r5
     ad4:	00003321 	andeq	r3, r0, r1, lsr #6
     ad8:	0002b000 	andeq	fp, r2, r0
     adc:	d3120000 	tstle	r2, #0
     ae0:	01000005 	tsteq	r0, r5
     ae4:	00021008 	andeq	r1, r2, r8
     ae8:	00b88000 	adcseq	r8, r8, r0
     aec:	0b04133f 	bleq	1057f0 <__first_lvl_tbl_end+0xe47f0>
     af0:	05000002 	streq	r0, [r0, #-2]
     af4:	0000017f 	andeq	r0, r0, pc, ror r1
     af8:	00020514 	andeq	r0, r2, r4, lsl r5
     afc:	057a0000 	ldrbeq	r0, [sl, #-0]!
     b00:	00040000 	andeq	r0, r4, r0
     b04:	0000050d 	andeq	r0, r0, sp, lsl #10
     b08:	00640104 	rsbeq	r0, r4, r4, lsl #2
     b0c:	6b0c0000 	blvs	300b14 <__kernel_end+0x19eb14>
     b10:	1a00000c 	bne	b48 <SCTLR_ENABLE_BRANCH_PREDICTION+0x348>
     b14:	c8000001 	stmdagt	r0, {r0}
     b18:	d0000086 	andle	r0, r0, r6, lsl #1
     b1c:	57000005 	strpl	r0, [r0, -r5]
     b20:	02000005 	andeq	r0, r0, #5
     b24:	00000a0f 	andeq	r0, r0, pc, lsl #20
     b28:	00302802 	eorseq	r2, r0, r2, lsl #16
     b2c:	5b030000 	blpl	c0b34 <__first_lvl_tbl_end+0x9fb34>
     b30:	04000008 	streq	r0, [r0], #-8
     b34:	00470007 	subeq	r0, r7, r7
     b38:	03040000 	movweq	r0, #16384	; 0x4000
     b3c:	4700000c 	strmi	r0, [r0, -ip]
     b40:	00000000 	andeq	r0, r0, r0
     b44:	02040500 	andeq	r0, r4, #0, 10
     b48:	0000085d 	andeq	r0, r0, sp, asr r8
     b4c:	00256202 	eoreq	r6, r5, r2, lsl #4
     b50:	01060000 	mrseq	r0, (UNDEF: 6)
     b54:	00000d06 	andeq	r0, r0, r6, lsl #26
     b58:	05020600 	streq	r0, [r2, #-1536]	; 0xfffffa00
     b5c:	0000016b 	andeq	r0, r0, fp, ror #2
     b60:	00017602 	andeq	r7, r1, r2, lsl #12
     b64:	6d280300 	stcvs	3, cr0, [r8, #-0]
     b68:	06000000 	streq	r0, [r0], -r0
     b6c:	01110504 	tsteq	r1, r4, lsl #10
     b70:	08060000 	stmdaeq	r6, {}	; <UNPREDICTABLE>
     b74:	00010c05 	andeq	r0, r1, r5, lsl #24
     b78:	036a0200 	cmneq	sl, #0, 4
     b7c:	2e030000 	cdpcs	0, 0, cr0, cr3, cr0, {0}
     b80:	00000086 	andeq	r0, r0, r6, lsl #1
     b84:	0b080106 	bleq	200fa4 <__kernel_end+0x9efa4>
     b88:	06000000 	streq	r0, [r0], -r0
     b8c:	00190702 	andseq	r0, r9, r2, lsl #14
     b90:	75020000 	strvc	r0, [r2, #-0]
     b94:	03000001 	movweq	r0, #1
     b98:	00009f34 	andeq	r9, r0, r4, lsr pc
     b9c:	07040600 	streq	r0, [r4, -r0, lsl #12]
     ba0:	00000052 	andeq	r0, r0, r2, asr r0
     ba4:	4d070806 	stcmi	8, cr0, [r7, #-24]	; 0xffffffe8
     ba8:	07000000 	streq	r0, [r0, -r0]
     bac:	6e690504 	cdpvs	5, 6, cr0, cr9, cr4, {0}
     bb0:	04060074 	streq	r0, [r6], #-116	; 0xffffff8c
     bb4:	00005707 	andeq	r5, r0, r7, lsl #14
     bb8:	86010800 	strhi	r0, [r1], -r0, lsl #16
     bbc:	04000000 	streq	r0, [r0], #-0
     bc0:	0001040d 	andeq	r0, r1, sp, lsl #8
     bc4:	066f0900 	strbteq	r0, [pc], -r0, lsl #18
     bc8:	09000000 	stmdbeq	r0, {}	; <UNPREDICTABLE>
     bcc:	000005fb 	strdeq	r0, [r0], -fp
     bd0:	065e0901 	ldrbeq	r0, [lr], -r1, lsl #18
     bd4:	09020000 	stmdbeq	r2, {}	; <UNPREDICTABLE>
     bd8:	0000061c 	andeq	r0, r0, ip, lsl r6
     bdc:	069c0903 	ldreq	r0, [ip], r3, lsl #18
     be0:	09040000 	stmdbeq	r4, {}	; <UNPREDICTABLE>
     be4:	000006e1 	andeq	r0, r0, r1, ror #13
     be8:	06260905 	strteq	r0, [r6], -r5, lsl #18
     bec:	09060000 	stmdbeq	r6, {}	; <UNPREDICTABLE>
     bf0:	000005f0 	strdeq	r0, [r0], -r0	; <UNPREDICTABLE>
     bf4:	05ba0907 	ldreq	r0, [sl, #2311]!	; 0x907
     bf8:	09080000 	stmdbeq	r8, {}	; <UNPREDICTABLE>
     bfc:	000006bc 			; <UNDEFINED> instruction: 0x000006bc
     c00:	04060009 	streq	r0, [r6], #-9
     c04:	00034f07 	andeq	r4, r3, r7, lsl #30
     c08:	b4040800 	strlt	r0, [r4], #-2048	; 0xfffff800
     c0c:	05000000 	streq	r0, [r0, #-0]
     c10:	0003510d 	andeq	r5, r3, sp, lsl #2
     c14:	0acd0900 	beq	ff34301c <__kernel_end+0xff1e101c>
     c18:	0a010000 	beq	40c20 <__first_lvl_tbl_end+0x1fc20>
     c1c:	00000ab9 			; <UNDEFINED> instruction: 0x00000ab9
     c20:	00010001 	andeq	r0, r1, r1
     c24:	00072e0a 	andeq	r2, r7, sl, lsl #28
     c28:	01000200 	mrseq	r0, R8_usr
     c2c:	0c9e0a00 	vldmiaeq	lr, {s0-s-1}
     c30:	00030000 	andeq	r0, r3, r0
     c34:	190a0001 	stmdbne	sl, {r0}
     c38:	04000007 	streq	r0, [r0], #-7
     c3c:	0a000100 	beq	1044 <SCTLR_ENABLE_INSTRUCTION_CACHE+0x44>
     c40:	00000961 	andeq	r0, r0, r1, ror #18
     c44:	00010005 	andeq	r0, r1, r5
     c48:	00080e0a 	andeq	r0, r8, sl, lsl #28
     c4c:	01000600 	tsteq	r0, r0, lsl #12
     c50:	0bdc0a00 	bleq	ff703458 <__kernel_end+0xff5a1458>
     c54:	00070000 	andeq	r0, r7, r0
     c58:	a40a0001 	strge	r0, [sl], #-1
     c5c:	0100000a 	tsteq	r0, sl
     c60:	0a000500 	beq	2068 <SCTLR_ENABLE_INSTRUCTION_CACHE+0x1068>
     c64:	00000cc6 	andeq	r0, r0, r6, asr #25
     c68:	00060001 	andeq	r0, r6, r1
     c6c:	000cfe0a 	andeq	pc, ip, sl, lsl #28
     c70:	02000100 	andeq	r0, r0, #0, 2
     c74:	0d190a00 	vldreq	s0, [r9, #-0]
     c78:	00020000 	andeq	r0, r2, r0
     c7c:	aa0a0002 	bge	280c8c <__kernel_end+0x11ec8c>
     c80:	01000009 	tsteq	r0, r9
     c84:	0a000280 	beq	168c <SCTLR_ENABLE_INSTRUCTION_CACHE+0x68c>
     c88:	00000b65 	andeq	r0, r0, r5, ror #22
     c8c:	00030001 	andeq	r0, r3, r1
     c90:	0008320a 	andeq	r3, r8, sl, lsl #4
     c94:	03800100 	orreq	r0, r0, #0, 2
     c98:	07dd0a00 	ldrbeq	r0, [sp, r0, lsl #20]
     c9c:	00020000 	andeq	r0, r2, r0
     ca0:	520a0003 	andpl	r0, sl, #3
     ca4:	0200000b 	andeq	r0, r0, #11
     ca8:	0a000380 	beq	1ab0 <SCTLR_ENABLE_INSTRUCTION_CACHE+0xab0>
     cac:	000008a0 	andeq	r0, r0, r0, lsr #17
     cb0:	00030004 	andeq	r0, r3, r4
     cb4:	0007450a 	andeq	r4, r7, sl, lsl #10
     cb8:	03000700 	movweq	r0, #1792	; 0x700
     cbc:	0cb80a00 	vldmiaeq	r8!, {s0-s-1}
     cc0:	00090000 	andeq	r0, r9, r0
     cc4:	790a0003 	stmdbvc	sl, {r0, r1}
     cc8:	0900000b 	stmdbeq	r0, {r0, r1, r3}
     ccc:	0a000380 	beq	1ad4 <SCTLR_ENABLE_INSTRUCTION_CACHE+0xad4>
     cd0:	00000a34 	andeq	r0, r0, r4, lsr sl
     cd4:	00030003 	andeq	r0, r3, r3
     cd8:	0007cd0a 	andeq	ip, r7, sl, lsl #26
     cdc:	03800300 	orreq	r0, r0, #0, 6
     ce0:	0b3e0a00 	bleq	f834e8 <__kernel_end+0xe214e8>
     ce4:	00050000 	andeq	r0, r5, r0
     ce8:	c80a0003 	stmdagt	sl, {r0, r1}
     cec:	0800000b 	stmdaeq	r0, {r0, r1, r3}
     cf0:	0a000300 	beq	18f8 <SCTLR_ENABLE_INSTRUCTION_CACHE+0x8f8>
     cf4:	000007a6 	andeq	r0, r0, r6, lsr #15
     cf8:	00030006 	andeq	r0, r3, r6
     cfc:	000af00a 	andeq	pc, sl, sl
     d00:	03000a00 	movweq	r0, #2560	; 0xa00
     d04:	0b2a0a00 	bleq	a8350c <__kernel_end+0x92150c>
     d08:	000c0000 	andeq	r0, ip, r0
     d0c:	be0a0003 	cdplt	0, 0, cr0, cr10, cr3, {0}
     d10:	0d000009 	stceq	0, cr0, [r0, #-36]	; 0xffffffdc
     d14:	0a000300 	beq	191c <SCTLR_ENABLE_INSTRUCTION_CACHE+0x91c>
     d18:	00000c8c 	andeq	r0, r0, ip, lsl #25
     d1c:	0003000e 	andeq	r0, r3, lr
     d20:	0009970a 	andeq	r9, r9, sl, lsl #14
     d24:	03000f00 	movweq	r0, #3840	; 0xf00
     d28:	0a6d0a00 	beq	1b43530 <__kernel_end+0x19e1530>
     d2c:	00100000 	andseq	r0, r0, r0
     d30:	460a0003 	strmi	r0, [sl], -r3
     d34:	1400000c 	strne	r0, [r0], #-12
     d38:	0a000300 	beq	1940 <SCTLR_ENABLE_INSTRUCTION_CACHE+0x940>
     d3c:	0000088d 	andeq	r0, r0, sp, lsl #17
     d40:	00030020 	andeq	r0, r3, r0, lsr #32
     d44:	0009fb0a 	andeq	pc, r9, sl, lsl #22
     d48:	04000100 	streq	r0, [r0], #-256	; 0xffffff00
     d4c:	07ba0a00 	ldreq	r0, [sl, r0, lsl #20]!
     d50:	80010000 	andhi	r0, r1, r0
     d54:	f70a0004 			; <UNDEFINED> instruction: 0xf70a0004
     d58:	02000006 	andeq	r0, r0, #6
     d5c:	0a000400 	beq	1d64 <SCTLR_ENABLE_INSTRUCTION_CACHE+0xd64>
     d60:	0000078b 	andeq	r0, r0, fp, lsl #15
     d64:	00040003 	andeq	r0, r4, r3
     d68:	000ce70a 	andeq	lr, ip, sl, lsl #14
     d6c:	04400300 	strbeq	r0, [r0], #-768	; 0xfffffd00
     d70:	0a1e0a00 	beq	783578 <__kernel_end+0x621578>
     d74:	80030000 	andhi	r0, r3, r0
     d78:	820a0004 	andhi	r0, sl, #4
     d7c:	04000009 	streq	r0, [r0], #-9
     d80:	0a000400 	beq	1d88 <SCTLR_ENABLE_INSTRUCTION_CACHE+0xd88>
     d84:	00000c11 	andeq	r0, r0, r1, lsl ip
     d88:	00044004 	andeq	r4, r4, r4
     d8c:	000a440a 	andeq	r4, sl, sl, lsl #8
     d90:	04800400 	streq	r0, [r0], #1024	; 0x400
     d94:	09740a00 	ldmdbeq	r4!, {r9, fp}^
     d98:	00050000 	andeq	r0, r5, r0
     d9c:	370a0004 	strcc	r0, [sl, -r4]
     da0:	0500000c 	streq	r0, [r0, #-12]
     da4:	0a000440 	beq	1eac <SCTLR_ENABLE_INSTRUCTION_CACHE+0xeac>
     da8:	000007f0 	strdeq	r0, [r0], -r0	; <UNPREDICTABLE>
     dac:	00048005 	andeq	r8, r4, r5
     db0:	0008790a 	andeq	r7, r8, sl, lsl #18
     db4:	04000600 	streq	r0, [r0], #-1536	; 0xfffffa00
     db8:	08460a00 	stmdaeq	r6, {r9, fp}^
     dbc:	40060000 	andmi	r0, r6, r0
     dc0:	160a0004 	strne	r0, [sl], -r4
     dc4:	0600000b 	streq	r0, [r0], -fp
     dc8:	0a000480 	beq	1fd0 <SCTLR_ENABLE_INSTRUCTION_CACHE+0xfd0>
     dcc:	000009da 	ldrdeq	r0, [r0], -sl
     dd0:	00040007 	andeq	r0, r4, r7
     dd4:	0008b70a 	andeq	fp, r8, sl, lsl #14
     dd8:	04400700 	strbeq	r0, [r0], #-1792	; 0xfffff900
     ddc:	0ba00a00 	bleq	fe8035e4 <__kernel_end+0xfe6a15e4>
     de0:	80070000 	andhi	r0, r7, r0
     de4:	ed0a0004 	stc	0, cr0, [sl, #-16]
     de8:	08000009 	stmdaeq	r0, {r0, r3}
     dec:	0a000400 	beq	1df4 <SCTLR_ENABLE_INSTRUCTION_CACHE+0xdf4>
     df0:	0000094a 	andeq	r0, r0, sl, asr #18
     df4:	00040009 	andeq	r0, r4, r9
     df8:	00075c0a 	andeq	r5, r7, sl, lsl #24
     dfc:	04400900 	strbeq	r0, [r0], #-2304	; 0xfffff700
     e00:	07740a00 	ldrbeq	r0, [r4, -r0, lsl #20]!
     e04:	80090000 	andhi	r0, r9, r0
     e08:	080a0004 	stmdaeq	sl, {r2}
     e0c:	0a000007 	beq	e30 <SCTLR_ENABLE_BRANCH_PREDICTION+0x630>
     e10:	0a000400 	beq	1e18 <SCTLR_ENABLE_INSTRUCTION_CACHE+0xe18>
     e14:	00000938 	andeq	r0, r0, r8, lsr r9
     e18:	0004400a 	andeq	r4, r4, sl
     e1c:	000beb0a 	andeq	lr, fp, sl, lsl #22
     e20:	04800a00 	streq	r0, [r0], #2560	; 0xa00
     e24:	07fe0a00 	ldrbeq	r0, [lr, r0, lsl #20]!
     e28:	000b0000 	andeq	r0, fp, r0
     e2c:	e50a0004 	str	r0, [sl, #-4]
     e30:	0b000008 	bleq	e58 <SCTLR_ENABLE_BRANCH_PREDICTION+0x658>
     e34:	0a000440 	beq	1f3c <SCTLR_ENABLE_INSTRUCTION_CACHE+0xf3c>
     e38:	00000b90 	muleq	r0, r0, fp
     e3c:	0004800b 	andeq	r8, r4, fp
     e40:	0008650b 	andeq	r6, r8, fp, lsl #10
     e44:	0b801100 	bleq	fe00524c <__kernel_end+0xfdea324c>
     e48:	00000bb3 			; <UNDEFINED> instruction: 0x00000bb3
     e4c:	02008010 	andeq	r8, r0, #16
     e50:	00000a7e 	andeq	r0, r0, lr, ror sl
     e54:	010b5e05 	tsteq	fp, r5, lsl #28
     e58:	01080000 	mrseq	r0, (UNDEF: 8)
     e5c:	00000086 	andeq	r0, r0, r6, lsl #1
     e60:	03756705 	cmneq	r5, #1310720	; 0x140000
     e64:	dc090000 	stcle	0, cr0, [r9], {-0}
     e68:	00000008 	andeq	r0, r0, r8
     e6c:	00092009 	andeq	r2, r9, r9
     e70:	08000100 	stmdaeq	r0, {r8}
     e74:	00008601 	andeq	r8, r0, r1, lsl #12
     e78:	9a6d0500 	bls	1b42280 <__kernel_end+0x19e0280>
     e7c:	09000003 	stmdbeq	r0, {r0, r1}
     e80:	00000a9b 	muleq	r0, fp, sl
     e84:	0b080900 	bleq	20328c <__kernel_end+0xa128c>
     e88:	09010000 	stmdbeq	r1, {}	; <UNPREDICTABLE>
     e8c:	00000cdb 	ldrdeq	r0, [r0], -fp
     e90:	0b870902 	bleq	fe1c32a0 <__kernel_end+0xfe0612a0>
     e94:	00030000 	andeq	r0, r3, r0
     e98:	0501000c 	streq	r0, [r1, #-12]
     e9c:	0003c578 	andeq	ip, r3, r8, ror r5
     ea0:	0c080d00 	stceq	13, cr0, [r8], {-0}
     ea4:	79050000 	stmdbvc	r5, {}	; <UNPREDICTABLE>
     ea8:	00000062 	andeq	r0, r0, r2, rrx
     eac:	0008200d 	andeq	r2, r8, sp
     eb0:	c57a0500 	ldrbgt	r0, [sl, #-1280]!	; 0xfffffb00
     eb4:	0d000003 	stceq	0, cr0, [r0, #-12]
     eb8:	00000ae6 	andeq	r0, r0, r6, ror #21
     ebc:	03d57b05 	bicseq	r7, r5, #5120	; 0x1400
     ec0:	0e000000 	cdpeq	0, 0, cr0, cr0, cr0, {0}
     ec4:	0000007b 	andeq	r0, r0, fp, ror r0
     ec8:	000003d5 	ldrdeq	r0, [r0], -r5
     ecc:	0001040f 	andeq	r0, r1, pc, lsl #8
     ed0:	0e00ff00 	cdpeq	15, 0, cr15, cr0, cr0, {0}
     ed4:	00000062 	andeq	r0, r0, r2, rrx
     ed8:	000003e5 	andeq	r0, r0, r5, ror #7
     edc:	0001040f 	andeq	r0, r1, pc, lsl #8
     ee0:	10003f00 	andne	r3, r0, r0, lsl #30
     ee4:	74050108 	strvc	r0, [r5], #-264	; 0xfffffef8
     ee8:	00000413 	andeq	r0, r0, r3, lsl r4
     eec:	67617411 			; <UNDEFINED> instruction: 0x67617411
     ef0:	62760500 	rsbsvs	r0, r6, #0, 10
     ef4:	00000000 	andeq	r0, r0, r0
     ef8:	0009ce12 	andeq	ip, r9, r2, lsl lr
     efc:	62770500 	rsbsvs	r0, r7, #0, 10
     f00:	04000000 	streq	r0, [r0], #-0
     f04:	0007a112 	andeq	sl, r7, r2, lsl r1
     f08:	9a7c0500 	bls	1f02310 <__kernel_end+0x1da0310>
     f0c:	08000003 	stmdaeq	r0, {r0, r1}
     f10:	09090200 	stmdbeq	r9, {r9}
     f14:	7d050000 	stcvc	0, cr0, [r5, #-0]
     f18:	000003e5 	andeq	r0, r0, r5, ror #7
     f1c:	26040806 	strcs	r0, [r4], -r6, lsl #16
     f20:	06000004 	streq	r0, [r0], -r4
     f24:	00140801 	andseq	r0, r4, r1, lsl #16
     f28:	cb130000 	blgt	4c0f30 <__kernel_end+0x35ef30>
     f2c:	01000008 	tsteq	r0, r8
     f30:	0086c818 	addeq	ip, r6, r8, lsl r8
     f34:	00003800 	andeq	r3, r0, r0, lsl #16
     f38:	149c0100 	ldrne	r0, [ip], #256	; 0x100
     f3c:	000008f6 	strdeq	r0, [r0], -r6
     f40:	87002b01 	strhi	r2, [r0, -r1, lsl #22]
     f44:	04a00000 	strteq	r0, [r0], #0
     f48:	9c010000 	stcls	0, cr0, [r1], {-0}
     f4c:	0000046f 	andeq	r0, r0, pc, ror #8
     f50:	67617415 			; <UNDEFINED> instruction: 0x67617415
     f54:	512b0100 			; <UNDEFINED> instruction: 0x512b0100
     f58:	02000003 	andeq	r0, r0, #3
     f5c:	17167091 			; <UNDEFINED> instruction: 0x17167091
     f60:	01006c76 	tsteq	r0, r6, ror ip
     f64:	0000492d 	andeq	r4, r0, sp, lsr #18
     f68:	54910200 	ldrpl	r0, [r1], #512	; 0x200
     f6c:	0a591800 	beq	1646f74 <__kernel_end+0x14e4f74>
     f70:	b3010000 	movwlt	r0, #4096	; 0x1000
     f74:	00000062 	andeq	r0, r0, r2, rrx
     f78:	00008ba0 	andeq	r8, r0, r0, lsr #23
     f7c:	0000004c 	andeq	r0, r0, ip, asr #32
     f80:	04b69c01 	ldrteq	r9, [r6], #3073	; 0xc01
     f84:	12190000 	andsne	r0, r9, #0
     f88:	0100000d 	tsteq	r0, sp
     f8c:	000062b5 			; <UNDEFINED> instruction: 0x000062b5
     f90:	8bd81a00 	blhi	ff607798 <__kernel_end+0xff4a5798>
     f94:	055c0000 	ldrbeq	r0, [ip, #-0]
     f98:	04a60000 	strteq	r0, [r6], #0
     f9c:	011b0000 	tsteq	fp, r0
     fa0:	00380150 	eorseq	r0, r8, r0, asr r1
     fa4:	008be41c 	addeq	lr, fp, ip, lsl r4
     fa8:	00056700 	andeq	r6, r5, r0, lsl #14
     fac:	50011b00 	andpl	r1, r1, r0, lsl #22
     fb0:	00003801 	andeq	r3, r0, r1, lsl #16
     fb4:	000c2718 	andeq	r2, ip, r8, lsl r7
     fb8:	1ec00100 	polnes	f0, f0, f0
     fbc:	ec000005 	stc	0, cr0, [r0], {5}
     fc0:	ac00008b 	stcge	0, cr0, [r0], {139}	; 0x8b
     fc4:	01000000 	mrseq	r0, (UNDEF: 0)
     fc8:	00051e9c 	muleq	r5, ip, lr
     fcc:	61741d00 	cmnvs	r4, r0, lsl #26
     fd0:	c0010067 	andgt	r0, r1, r7, rrx
     fd4:	00000351 	andeq	r0, r0, r1, asr r3
     fd8:	000002dd 	ldrdeq	r0, [r0], -sp
     fdc:	0008291e 	andeq	r2, r8, lr, lsl r9
     fe0:	13c20100 	bicne	r0, r2, #0, 2
     fe4:	05000004 	streq	r0, [r0, #-4]
     fe8:	01525403 	cmpeq	r2, r3, lsl #8
     fec:	0a901f00 	beq	fe408bf4 <__kernel_end+0xfe2a6bf4>
     ff0:	c3010000 	movwgt	r0, #4096	; 0x1000
     ff4:	00000524 	andeq	r0, r0, r4, lsr #10
     ff8:	00000327 	andeq	r0, r0, r7, lsr #6
     ffc:	000c651f 	andeq	r6, ip, pc, lsl r5
    1000:	62c80100 	sbcvs	r0, r8, #0, 2
    1004:	46000000 	strmi	r0, [r0], -r0
    1008:	20000003 	andcs	r0, r0, r3
    100c:	00008c80 	andeq	r8, r0, r0, lsl #25
    1010:	00000572 	andeq	r0, r0, r2, ror r5
    1014:	0250011b 	subseq	r0, r0, #-1073741818	; 0xc0000006
    1018:	00000874 	andeq	r0, r0, r4, ror r8
    101c:	04130421 	ldreq	r0, [r3], #-1057	; 0xfffffbdf
    1020:	04210000 	strteq	r0, [r1], #-0
    1024:	00000062 	andeq	r0, r0, r2, rrx
    1028:	0000620e 	andeq	r6, r0, lr, lsl #4
    102c:	00053b00 	andeq	r3, r5, r0, lsl #22
    1030:	01042200 	mrseq	r2, R12_usr
    1034:	1fff0000 	svcne	0x00ff0000
    1038:	74701700 	ldrbtvc	r1, [r0], #-1792	; 0xfffff900
    103c:	2a0c0100 	bcs	301444 <__kernel_end+0x19f444>
    1040:	05000005 	streq	r0, [r0, #-5]
    1044:	00d25003 	sbcseq	r5, r2, r3
    1048:	0c621e00 	stcleq	14, cr1, [r2], #-0
    104c:	0d010000 	stceq	0, cr0, [r1, #-0]
    1050:	00000062 	andeq	r0, r0, r2, rrx
    1054:	52500305 	subspl	r0, r0, #335544320	; 0x14000000
    1058:	cf230001 	svcgt	0x00230001
    105c:	cf000006 	svcgt	0x00000006
    1060:	04000006 	streq	r0, [r0], #-6
    1064:	060b2330 			; <UNDEFINED> instruction: 0x060b2330
    1068:	060b0000 	streq	r0, [fp], -r0
    106c:	31040000 	mrscc	r0, (UNDEF: 4)
    1070:	000bfc23 	andeq	pc, fp, r3, lsr #24
    1074:	000bfc00 	andeq	pc, fp, r0, lsl #24
    1078:	001b0600 	andseq	r0, fp, r0, lsl #12
    107c:	000002b6 			; <UNDEFINED> instruction: 0x000002b6
    1080:	06e80004 	strbteq	r0, [r8], r4
    1084:	01040000 	mrseq	r0, (UNDEF: 4)
    1088:	00000064 	andeq	r0, r0, r4, rrx
    108c:	000dda0c 	andeq	sp, sp, ip, lsl #20
    1090:	00011a00 	andeq	r1, r1, r0, lsl #20
    1094:	008c9800 	addeq	r9, ip, r0, lsl #16
    1098:	0001f800 	andeq	pc, r1, r0, lsl #16
    109c:	0007c200 	andeq	ip, r7, r0, lsl #4
    10a0:	07080200 	streq	r0, [r8, -r0, lsl #4]
    10a4:	0000004d 	andeq	r0, r0, sp, asr #32
    10a8:	0d060102 	stfeqs	f0, [r6, #-8]
    10ac:	02000000 	andeq	r0, r0, #0
    10b0:	016b0502 	cmneq	fp, r2, lsl #10
    10b4:	04020000 	streq	r0, [r2], #-0
    10b8:	00011105 	andeq	r1, r1, r5, lsl #2
    10bc:	05080200 	streq	r0, [r8, #-512]	; 0xfffffe00
    10c0:	0000010c 	andeq	r0, r0, ip, lsl #2
    10c4:	00036a03 	andeq	r6, r3, r3, lsl #20
    10c8:	532e0200 			; <UNDEFINED> instruction: 0x532e0200
    10cc:	02000000 	andeq	r0, r0, #0
    10d0:	000b0801 	andeq	r0, fp, r1, lsl #16
    10d4:	02020000 	andeq	r0, r2, #0
    10d8:	00001907 	andeq	r1, r0, r7, lsl #18
    10dc:	01750300 	cmneq	r5, r0, lsl #6
    10e0:	34020000 	strcc	r0, [r2], #-0
    10e4:	0000006c 	andeq	r0, r0, ip, rrx
    10e8:	52070402 	andpl	r0, r7, #33554432	; 0x2000000
    10ec:	03000000 	movweq	r0, #0
    10f0:	00000d44 	andeq	r0, r0, r4, asr #26
    10f4:	00253702 	eoreq	r3, r5, r2, lsl #14
    10f8:	04040000 	streq	r0, [r4], #-0
    10fc:	746e6905 	strbtvc	r6, [lr], #-2309	; 0xfffff6fb
    1100:	07040200 	streq	r0, [r4, -r0, lsl #4]
    1104:	00000057 	andeq	r0, r0, r7, asr r0
    1108:	00006105 	andeq	r6, r0, r5, lsl #2
    110c:	00730500 	rsbseq	r0, r3, r0, lsl #10
    1110:	04060000 	streq	r0, [r6], #-0
    1114:	00ea1103 	rsceq	r1, sl, r3, lsl #2
    1118:	4d070000 	stcmi	0, cr0, [r7, #-0]
    111c:	0300000d 	movweq	r0, #13
    1120:	00004813 	andeq	r4, r0, r3, lsl r8
    1124:	07010100 	streq	r0, [r1, -r0, lsl #2]
    1128:	0e470700 	cdpeq	7, 4, cr0, cr7, cr0, {0}
    112c:	14030000 	strne	r0, [r3], #-0
    1130:	00000048 	andeq	r0, r0, r8, asr #32
    1134:	00060101 	andeq	r0, r6, r1, lsl #2
    1138:	000daa07 	andeq	sl, sp, r7, lsl #20
    113c:	48150300 	ldmdami	r5, {r8, r9}
    1140:	01000000 	mrseq	r0, (UNDEF: 0)
    1144:	07000501 	streq	r0, [r0, -r1, lsl #10]
    1148:	00000dbf 			; <UNDEFINED> instruction: 0x00000dbf
    114c:	00481603 	subeq	r1, r8, r3, lsl #12
    1150:	01010000 	mrseq	r0, (UNDEF: 1)
    1154:	3e070004 	cdpcc	0, 0, cr0, cr7, cr4, {0}
    1158:	0300000e 	movweq	r0, #14
    115c:	00006117 	andeq	r6, r0, r7, lsl r1
    1160:	001c0400 	andseq	r0, ip, r0, lsl #8
    1164:	2a030000 	bcs	c116c <__first_lvl_tbl_end+0xa016c>
    1168:	0300000e 	movweq	r0, #14
    116c:	00009618 	andeq	r9, r0, r8, lsl r6
    1170:	031c0600 	tsteq	ip, #0, 12
    1174:	0001521a 	andeq	r5, r1, sl, lsl r2
    1178:	03620800 	cmneq	r2, #0, 16
    117c:	1c030000 	stcne	0, cr0, [r3], {-0}
    1180:	000000ea 	andeq	r0, r0, sl, ror #1
    1184:	0dce0800 	stcleq	8, cr0, [lr]
    1188:	1d030000 	stcne	0, cr0, [r3, #-0]
    118c:	00000061 	andeq	r0, r0, r1, rrx
    1190:	0d9d0804 	ldceq	8, cr0, [sp, #16]
    1194:	1e030000 	cdpne	0, 0, cr0, cr3, cr0, {0}
    1198:	00000061 	andeq	r0, r0, r1, rrx
    119c:	0d280808 	stceq	8, cr0, [r8, #-32]!	; 0xffffffe0
    11a0:	1f030000 	svcne	0x00030000
    11a4:	00000061 	andeq	r0, r0, r1, rrx
    11a8:	0d2f080c 	stceq	8, cr0, [pc, #-48]!	; 1180 <SCTLR_ENABLE_INSTRUCTION_CACHE+0x180>
    11ac:	20030000 	andcs	r0, r3, r0
    11b0:	00000061 	andeq	r0, r0, r1, rrx
    11b4:	0d360810 	ldceq	8, cr0, [r6, #-64]!	; 0xffffffc0
    11b8:	21030000 	mrscs	r0, (UNDEF: 3)
    11bc:	00000061 	andeq	r0, r0, r1, rrx
    11c0:	0d3d0814 	ldceq	8, cr0, [sp, #-80]!	; 0xffffffb0
    11c4:	22030000 	andcs	r0, r3, #0
    11c8:	00000061 	andeq	r0, r0, r1, rrx
    11cc:	18030018 	stmdane	r3, {r3, r4}
    11d0:	0300000e 	movweq	r0, #14
    11d4:	0000f523 	andeq	pc, r0, r3, lsr #10
    11d8:	04080200 	streq	r0, [r8], #-512	; 0xfffffe00
    11dc:	00000426 	andeq	r0, r0, r6, lsr #8
    11e0:	0001bd09 	andeq	fp, r1, r9, lsl #26
    11e4:	98150100 	ldmdals	r5, {r8}
    11e8:	2c00008c 	stccs	0, cr0, [r0], {140}	; 0x8c
    11ec:	01000000 	mrseq	r0, (UNDEF: 0)
    11f0:	0001839c 	muleq	r1, ip, r3
    11f4:	8cbc0a00 	vldmiahi	ip!, {s0-s-1}
    11f8:	02ae0000 	adceq	r0, lr, #0
    11fc:	09000000 	stmdbeq	r0, {}	; <UNPREDICTABLE>
    1200:	00000d5c 	andeq	r0, r0, ip, asr sp
    1204:	8cc41c01 	stclhi	12, cr1, [r4], {1}
    1208:	001c0000 	andseq	r0, ip, r0
    120c:	9c010000 	stcls	0, cr0, [r1], {-0}
    1210:	000001a8 	andeq	r0, r0, r8, lsr #3
    1214:	000db90b 	andeq	fp, sp, fp, lsl #18
    1218:	611c0100 	tstvs	ip, r0, lsl #2
    121c:	70000000 	andvc	r0, r0, r0
    1220:	00000003 	andeq	r0, r0, r3
    1224:	000d6d09 	andeq	r6, sp, r9, lsl #26
    1228:	e0210100 	eor	r0, r1, r0, lsl #2
    122c:	2800008c 	stmdacs	r0, {r2, r3, r7}
    1230:	01000001 	tsteq	r0, r1
    1234:	0002339c 	muleq	r2, ip, r3
    1238:	0db90b00 	ldceq	11, cr0, [r9]
    123c:	21010000 	mrscs	r0, (UNDEF: 1)
    1240:	00000061 	andeq	r0, r0, r1, rrx
    1244:	00000391 	muleq	r0, r1, r3
    1248:	000df80c 	andeq	pc, sp, ip, lsl #16
    124c:	8c230100 	stfhis	f0, [r3], #-0
    1250:	02000000 	andeq	r0, r0, #0
    1254:	780d7491 	stmdavc	sp, {r0, r4, r7, sl, ip, sp, lr}
    1258:	8c240100 	stfhis	f0, [r4], #-0
    125c:	02000000 	andeq	r0, r0, #0
    1260:	ee0c7091 	mcr	0, 0, r7, cr12, cr1, {4}
    1264:	0100000d 	tsteq	r0, sp
    1268:	00008c25 	andeq	r8, r0, r5, lsr #24
    126c:	6c910200 	lfmvs	f0, 4, [r1], {0}
    1270:	000d7f0c 	andeq	r7, sp, ip, lsl #30
    1274:	8c260100 	stfhis	f0, [r6], #-0
    1278:	02000000 	andeq	r0, r0, #0
    127c:	740e6891 	strvc	r6, [lr], #-2193	; 0xfffff76f
    1280:	ae00008d 	cdpge	0, 0, cr0, cr0, cr13, {4}
    1284:	0e000002 	cdpeq	0, 0, cr0, cr0, cr2, {0}
    1288:	00008d8c 	andeq	r8, r0, ip, lsl #27
    128c:	000002ae 	andeq	r0, r0, lr, lsr #5
    1290:	008da40f 	addeq	sl, sp, pc, lsl #8
    1294:	0002ae00 	andeq	sl, r2, r0, lsl #28
    1298:	52061000 	andpl	r1, r6, #0
    129c:	93530493 	cmpls	r3, #-1828716544	; 0x93000000
    12a0:	25f40b04 	ldrbcs	r0, [r4, #2820]!	; 0xb04
    12a4:	34567808 	ldrbcc	r7, [r6], #-2056	; 0xfffff7f8
    12a8:	34567812 	ldrbcc	r7, [r6], #-2066	; 0xfffff7ee
    12ac:	11000012 	tstne	r0, r2, lsl r0
    12b0:	00000dfd 	strdeq	r0, [r0], -sp
    12b4:	00613201 	rsbeq	r3, r1, r1, lsl #4
    12b8:	8e080000 	cdphi	0, 0, cr0, cr8, cr0, {0}
    12bc:	00180000 	andseq	r0, r8, r0
    12c0:	9c010000 	stcls	0, cr0, [r1], {-0}
    12c4:	00000261 	andeq	r0, r0, r1, ror #4
    12c8:	000e120c 	andeq	r1, lr, ip, lsl #4
    12cc:	61340100 	teqvs	r4, r0, lsl #2
    12d0:	08000000 	stmdaeq	r0, {}	; <UNPREDICTABLE>
    12d4:	01535c03 	cmpeq	r3, r3, lsl #24
    12d8:	04230600 	strteq	r0, [r3], #-1536	; 0xfffffa00
    12dc:	0d881100 	stfeqs	f1, [r8]
    12e0:	3b010000 	blcc	412e8 <__first_lvl_tbl_end+0x202e8>
    12e4:	00000073 	andeq	r0, r0, r3, ror r0
    12e8:	00008e20 	andeq	r8, r0, r0, lsr #28
    12ec:	00000070 	andeq	r0, r0, r0, ror r0
    12f0:	02979c01 	addseq	r9, r7, #256	; 0x100
    12f4:	660c0000 	strvs	r0, [ip], -r0
    12f8:	0100000d 	tsteq	r0, sp
    12fc:	0000913d 	andeq	r9, r0, sp, lsr r1
    1300:	78910200 	ldmvc	r1, {r9}
    1304:	000d7f0c 	andeq	r7, sp, ip, lsl #30
    1308:	8c3e0100 	ldfhis	f0, [lr], #-0
    130c:	02000000 	andeq	r0, r0, #0
    1310:	0c007491 	cfstrseq	mvf7, [r0], {145}	; 0x91
    1314:	00000d74 	andeq	r0, r0, r4, ror sp
    1318:	02a80601 	adceq	r0, r8, #1048576	; 0x100000
    131c:	03050000 	movweq	r0, #20480	; 0x5000
    1320:	0001535c 	andeq	r5, r1, ip, asr r3
    1324:	01520412 	cmpeq	r2, r2, lsl r4
    1328:	8a130000 	bhi	4c1330 <__kernel_end+0x35f330>
    132c:	8a000004 	bhi	1344 <SCTLR_ENABLE_INSTRUCTION_CACHE+0x344>
    1330:	04000004 	streq	r0, [r0], #-4
    1334:	01e4000c 	mvneq	r0, ip
    1338:	00040000 	andeq	r0, r4, r0
    133c:	00000804 	andeq	r0, r0, r4, lsl #16
    1340:	00640104 	rsbeq	r0, r4, r4, lsl #2
    1344:	a30c0000 	movwge	r0, #49152	; 0xc000
    1348:	1a00000e 	bne	1388 <SCTLR_ENABLE_INSTRUCTION_CACHE+0x388>
    134c:	90000001 	andls	r0, r0, r1
    1350:	e400008e 	str	r0, [r0], #-142	; 0xffffff72
    1354:	1d000000 	stcne	0, cr0, [r0, #-0]
    1358:	02000009 	andeq	r0, r0, #9
    135c:	000d0601 	andeq	r0, sp, r1, lsl #12
    1360:	02020000 	andeq	r0, r2, #0
    1364:	00016b05 	andeq	r6, r1, r5, lsl #22
    1368:	05040200 	streq	r0, [r4, #-512]	; 0xfffffe00
    136c:	00000111 	andeq	r0, r0, r1, lsl r1
    1370:	0c050802 	stceq	8, cr0, [r5], {2}
    1374:	02000001 	andeq	r0, r0, #1
    1378:	000b0801 	andeq	r0, fp, r1, lsl #16
    137c:	02020000 	andeq	r0, r2, #0
    1380:	00001907 	andeq	r1, r0, r7, lsl #18
    1384:	01750300 	cmneq	r5, r0, lsl #6
    1388:	34040000 	strcc	r0, [r4], #-0
    138c:	0000005a 	andeq	r0, r0, sl, asr r0
    1390:	52070402 	andpl	r0, r7, #33554432	; 0x2000000
    1394:	02000000 	andeq	r0, r0, #0
    1398:	004d0708 	subeq	r0, sp, r8, lsl #14
    139c:	04040000 	streq	r0, [r4], #-0
    13a0:	746e6905 	strbtvc	r6, [lr], #-2309	; 0xfffff6fb
    13a4:	07040200 	streq	r0, [r4, -r0, lsl #4]
    13a8:	00000057 	andeq	r0, r0, r7, asr r0
    13ac:	26040802 	strcs	r0, [r4], -r2, lsl #16
    13b0:	05000004 	streq	r0, [r0, #-4]
    13b4:	00000ec4 	andeq	r0, r0, r4, asr #29
    13b8:	004f1f01 	subeq	r1, pc, r1, lsl #30
    13bc:	8e900000 	cdphi	0, 9, cr0, cr0, cr0, {0}
    13c0:	003c0000 	eorseq	r0, ip, r0
    13c4:	9c010000 	stcls	0, cr0, [r1], {-0}
    13c8:	0000010e 	andeq	r0, r0, lr, lsl #2
    13cc:	000ed006 	andeq	sp, lr, r6
    13d0:	4f1f0100 	svcmi	0x001f0100
    13d4:	bc000000 	stclt	0, cr0, [r0], {-0}
    13d8:	06000003 	streq	r0, [r0], -r3
    13dc:	00000f04 	andeq	r0, r0, r4, lsl #30
    13e0:	004f1f01 	subeq	r1, pc, r1, lsl #30
    13e4:	03dd0000 	bicseq	r0, sp, #0
    13e8:	60060000 	andvs	r0, r6, r0
    13ec:	0100000e 	tsteq	r0, lr
    13f0:	00004f1f 	andeq	r4, r0, pc, lsl pc
    13f4:	0003fe00 	andeq	pc, r3, r0, lsl #28
    13f8:	0e800700 	cdpeq	7, 8, cr0, cr0, cr0, {0}
    13fc:	21010000 	mrscs	r0, (UNDEF: 1)
    1400:	0000004f 	andeq	r0, r0, pc, asr #32
    1404:	0000041f 	andeq	r0, r0, pc, lsl r4
    1408:	000eb107 	andeq	fp, lr, r7, lsl #2
    140c:	4f220100 	svcmi	0x00220100
    1410:	4a000000 	bmi	1418 <SCTLR_ENABLE_INSTRUCTION_CACHE+0x418>
    1414:	07000004 	streq	r0, [r0, -r4]
    1418:	00000e92 	muleq	r0, r2, lr
    141c:	004f2301 	subeq	r2, pc, r1, lsl #6
    1420:	048e0000 	streq	r0, [lr], #0
    1424:	c0080000 	andgt	r0, r8, r0
    1428:	c600008e 	strgt	r0, [r0], -lr, lsl #1
    142c:	09000001 	stmdbeq	r0, {r0}
    1430:	f30f5101 	vrhadd.u8	d5, d15, d1
    1434:	25445101 	strbcs	r5, [r4, #-257]	; 0xfffffeff
    1438:	01f32444 	mvnseq	r2, r4, asr #8
    143c:	020a2152 	andeq	r2, sl, #-2147483628	; 0x80000014
    1440:	0000210c 	andeq	r2, r0, ip, lsl #2
    1444:	000e660a 	andeq	r6, lr, sl, lsl #12
    1448:	cc090100 	stfgts	f0, [r9], {-0}
    144c:	a800008e 	stmdage	r0, {r1, r2, r3, r7}
    1450:	01000000 	mrseq	r0, (UNDEF: 0)
    1454:	00019f9c 	muleq	r1, ip, pc	; <UNPREDICTABLE>
    1458:	61720b00 	cmnvs	r2, r0, lsl #22
    145c:	4f0d0100 	svcmi	0x000d0100
    1460:	c5000000 	strgt	r0, [r0, #-0]
    1464:	0c000004 	stceq	0, cr0, [r0], {4}
    1468:	00008f08 	andeq	r8, r0, r8, lsl #30
    146c:	0000007d 	andeq	r0, r0, sp, ror r0
    1470:	00000150 	andeq	r0, r0, r0, asr r1
    1474:	02500109 	subseq	r0, r0, #1073741826	; 0x40000002
    1478:	01090074 	tsteq	r9, r4, ror r0
    147c:	00740251 	rsbseq	r0, r4, r1, asr r2
    1480:	01520109 	cmpeq	r2, r9, lsl #2
    1484:	240c0030 	strcs	r0, [ip], #-48	; 0xffffffd0
    1488:	7d00008f 	stcvc	0, cr0, [r0, #-572]	; 0xfffffdc4
    148c:	73000000 	movwvc	r0, #0
    1490:	09000001 	stmdbeq	r0, {r0}
    1494:	08045001 	stmdaeq	r4, {r0, ip, lr}
    1498:	092446fc 	stmdbeq	r4!, {r2, r3, r4, r5, r6, r7, r9, sl, lr}
    149c:	08045101 	stmdaeq	r4, {r0, r8, ip, lr}
    14a0:	092446fc 	stmdbeq	r4!, {r2, r3, r4, r5, r6, r7, r9, sl, lr}
    14a4:	30015201 	andcc	r5, r1, r1, lsl #4
    14a8:	8f380c00 	svchi	0x00380c00
    14ac:	007d0000 	rsbseq	r0, sp, r0
    14b0:	01860000 	orreq	r0, r6, r0
    14b4:	01090000 	mrseq	r0, (UNDEF: 9)
    14b8:	00300152 	eorseq	r0, r0, r2, asr r1
    14bc:	008f440d 	addeq	r4, pc, sp, lsl #8
    14c0:	0001d100 	andeq	sp, r1, r0, lsl #2
    14c4:	8f5c0e00 	svchi	0x005c0e00
    14c8:	01dc0000 	bicseq	r0, ip, r0
    14cc:	01090000 	mrseq	r0, (UNDEF: 9)
    14d0:	00350151 	eorseq	r0, r5, r1, asr r1
    14d4:	0ee20f00 	cdpeq	15, 14, cr0, cr2, cr0, {0}
    14d8:	08010000 	stmdaeq	r1, {}	; <UNPREDICTABLE>
    14dc:	0000004f 	andeq	r0, r0, pc, asr #32
    14e0:	53600305 	cmnpl	r0, #335544320	; 0x14000000
    14e4:	d5100001 	ldrle	r0, [r0, #-1]
    14e8:	0100000e 	tsteq	r0, lr
    14ec:	00004f06 	andeq	r4, r0, r6, lsl #30
    14f0:	0eef1000 	cdpeq	0, 14, cr1, cr15, cr0, {0}
    14f4:	07010000 	streq	r0, [r1, -r0]
    14f8:	0000004f 	andeq	r0, r0, pc, asr #32
    14fc:	000e9d11 	andeq	r9, lr, r1, lsl sp
    1500:	000e9d00 	andeq	r9, lr, r0, lsl #26
    1504:	11050200 	mrsne	r0, SP_usr
    1508:	0000048a 	andeq	r0, r0, sl, lsl #9
    150c:	0000048a 	andeq	r0, r0, sl, lsl #9
    1510:	56110c03 	ldrpl	r0, [r1], -r3, lsl #24
    1514:	5600000e 	strpl	r0, [r0], -lr
    1518:	0200000e 	andeq	r0, r0, #14
    151c:	07be0006 	ldreq	r0, [lr, r6]!
    1520:	00040000 	andeq	r0, r4, r0
    1524:	0000090c 	andeq	r0, r0, ip, lsl #18
    1528:	00640104 	rsbeq	r0, r4, r4, lsl #2
    152c:	cf0c0000 	svcgt	0x000c0000
    1530:	1a00000f 	bne	1574 <SCTLR_ENABLE_INSTRUCTION_CACHE+0x574>
    1534:	74000001 	strvc	r0, [r0], #-1
    1538:	c000008f 	andgt	r0, r0, pc, lsl #1
    153c:	67000002 	strvs	r0, [r0, -r2]
    1540:	0200000a 	andeq	r0, r0, #10
    1544:	000d0601 	andeq	r0, sp, r1, lsl #12
    1548:	01020000 	mrseq	r0, (UNDEF: 2)
    154c:	00000b08 	andeq	r0, r0, r8, lsl #22
    1550:	05020200 	streq	r0, [r2, #-512]	; 0xfffffe00
    1554:	0000016b 	andeq	r0, r0, fp, ror #2
    1558:	19070202 	stmdbne	r7, {r1, r9}
    155c:	02000000 	andeq	r0, r0, #0
    1560:	01110504 	tsteq	r1, r4, lsl #10
    1564:	04020000 	streq	r0, [r2], #-0
    1568:	00005207 	andeq	r5, r0, r7, lsl #4
    156c:	05080200 	streq	r0, [r8, #-512]	; 0xfffffe00
    1570:	0000010c 	andeq	r0, r0, ip, lsl #2
    1574:	4d070802 	stcmi	8, cr0, [r7, #-8]
    1578:	03000000 	movweq	r0, #0
    157c:	6e690504 	cdpvs	5, 6, cr0, cr9, cr4, {0}
    1580:	04020074 	streq	r0, [r2], #-116	; 0xffffff8c
    1584:	00005707 	andeq	r5, r0, r7, lsl #14
    1588:	04080200 	streq	r0, [r8], #-512	; 0xfffffe00
    158c:	00000426 	andeq	r0, r0, r6, lsr #8
    1590:	00017604 	andeq	r7, r1, r4, lsl #12
    1594:	41280200 			; <UNDEFINED> instruction: 0x41280200
    1598:	04000000 	streq	r0, [r0], #-0
    159c:	0000036a 	andeq	r0, r0, sl, ror #6
    15a0:	002c2e02 	eoreq	r2, ip, r2, lsl #28
    15a4:	75040000 	strvc	r0, [r4, #-0]
    15a8:	02000001 	andeq	r0, r0, #1
    15ac:	00004834 	andeq	r4, r0, r4, lsr r8
    15b0:	03040500 	movweq	r0, #17664	; 0x4500
    15b4:	0000c909 	andeq	ip, r0, r9, lsl #18
    15b8:	10200600 	eorne	r0, r0, r0, lsl #12
    15bc:	0b030000 	bleq	c15c4 <__first_lvl_tbl_end+0xa05c4>
    15c0:	0000007d 	andeq	r0, r0, sp, ror r0
    15c4:	00070101 	andeq	r0, r7, r1, lsl #2
    15c8:	000fab06 	andeq	sl, pc, r6, lsl #22
    15cc:	7d0c0300 	stcvc	3, cr0, [ip, #-0]
    15d0:	01000000 	mrseq	r0, (UNDEF: 0)
    15d4:	06000601 	streq	r0, [r0], -r1, lsl #12
    15d8:	00000e3e 	andeq	r0, r0, lr, lsr lr
    15dc:	00880d03 	addeq	r0, r8, r3, lsl #26
    15e0:	1e040000 	cdpne	0, 0, cr0, cr4, cr0, {0}
    15e4:	04000000 	streq	r0, [r0], #-0
    15e8:	00000f6b 	andeq	r0, r0, fp, ror #30
    15ec:	00930e03 	addseq	r0, r3, r3, lsl #28
    15f0:	46070000 	strmi	r0, [r7], -r0
    15f4:	10000012 	andne	r0, r0, r2, lsl r0
    15f8:	01111003 	tsteq	r1, r3
    15fc:	13080000 	movwne	r0, #32768	; 0x8000
    1600:	03000010 	movweq	r0, #16
    1604:	00008812 	andeq	r8, r0, r2, lsl r8
    1608:	60080000 	andvs	r0, r8, r0
    160c:	0300000e 	movweq	r0, #14
    1610:	0000c913 	andeq	ip, r0, r3, lsl r9
    1614:	7f080400 	svcvc	0x00080400
    1618:	0300000f 	movweq	r0, #15
    161c:	00011114 	andeq	r1, r1, r4, lsl r1
    1620:	53080800 	movwpl	r0, #34816	; 0x8800
    1624:	03000010 	movweq	r0, #16
    1628:	00011114 	andeq	r1, r1, r4, lsl r1
    162c:	09000c00 	stmdbeq	r0, {sl, fp}
    1630:	0000d404 	andeq	sp, r0, r4, lsl #8
    1634:	0f780400 	svceq	0x00780400
    1638:	15030000 	strne	r0, [r3, #-0]
    163c:	000000d4 	ldrdeq	r0, [r0], -r4
    1640:	0064040a 	rsbeq	r0, r4, sl, lsl #8
    1644:	0d040000 	stceq	0, cr0, [r4, #-0]
    1648:	00000368 	andeq	r0, r0, r8, ror #6
    164c:	000acd0b 	andeq	ip, sl, fp, lsl #26
    1650:	b90c0100 	stmdblt	ip, {r8}
    1654:	0100000a 	tsteq	r0, sl
    1658:	0c000100 	stfeqs	f0, [r0], {-0}
    165c:	0000072e 	andeq	r0, r0, lr, lsr #14
    1660:	00010002 	andeq	r0, r1, r2
    1664:	000c9e0c 	andeq	r9, ip, ip, lsl #28
    1668:	01000300 	mrseq	r0, LR_irq
    166c:	07190c00 	ldreq	r0, [r9, -r0, lsl #24]
    1670:	00040000 	andeq	r0, r4, r0
    1674:	610c0001 	tstvs	ip, r1
    1678:	05000009 	streq	r0, [r0, #-9]
    167c:	0c000100 	stfeqs	f0, [r0], {-0}
    1680:	0000080e 	andeq	r0, r0, lr, lsl #16
    1684:	00010006 	andeq	r0, r1, r6
    1688:	000bdc0c 	andeq	sp, fp, ip, lsl #24
    168c:	01000700 	tsteq	r0, r0, lsl #14
    1690:	0aa40c00 	beq	fe904698 <__kernel_end+0xfe7a2698>
    1694:	00010000 	andeq	r0, r1, r0
    1698:	c60c0005 	strgt	r0, [ip], -r5
    169c:	0100000c 	tsteq	r0, ip
    16a0:	0c000600 	stceq	6, cr0, [r0], {-0}
    16a4:	00000cfe 	strdeq	r0, [r0], -lr
    16a8:	00020001 	andeq	r0, r2, r1
    16ac:	000d190c 	andeq	r1, sp, ip, lsl #18
    16b0:	02000200 	andeq	r0, r0, #0, 4
    16b4:	09aa0c00 	stmibeq	sl!, {sl, fp}
    16b8:	80010000 	andhi	r0, r1, r0
    16bc:	650c0002 	strvs	r0, [ip, #-2]
    16c0:	0100000b 	tsteq	r0, fp
    16c4:	0c000300 	stceq	3, cr0, [r0], {-0}
    16c8:	00000832 	andeq	r0, r0, r2, lsr r8
    16cc:	00038001 	andeq	r8, r3, r1
    16d0:	0007dd0c 	andeq	sp, r7, ip, lsl #26
    16d4:	03000200 	movweq	r0, #512	; 0x200
    16d8:	0b520c00 	bleq	14846e0 <__kernel_end+0x13226e0>
    16dc:	80020000 	andhi	r0, r2, r0
    16e0:	a00c0003 	andge	r0, ip, r3
    16e4:	04000008 	streq	r0, [r0], #-8
    16e8:	0c000300 	stceq	3, cr0, [r0], {-0}
    16ec:	00000745 	andeq	r0, r0, r5, asr #14
    16f0:	00030007 	andeq	r0, r3, r7
    16f4:	000cb80c 	andeq	fp, ip, ip, lsl #16
    16f8:	03000900 	movweq	r0, #2304	; 0x900
    16fc:	0b790c00 	bleq	1e44704 <__kernel_end+0x1ce2704>
    1700:	80090000 	andhi	r0, r9, r0
    1704:	340c0003 	strcc	r0, [ip], #-3
    1708:	0300000a 	movweq	r0, #10
    170c:	0c000300 	stceq	3, cr0, [r0], {-0}
    1710:	000007cd 	andeq	r0, r0, sp, asr #15
    1714:	00038003 	andeq	r8, r3, r3
    1718:	000b3e0c 	andeq	r3, fp, ip, lsl #28
    171c:	03000500 	movweq	r0, #1280	; 0x500
    1720:	0bc80c00 	bleq	ff204728 <__kernel_end+0xff0a2728>
    1724:	00080000 	andeq	r0, r8, r0
    1728:	a60c0003 	strge	r0, [ip], -r3
    172c:	06000007 	streq	r0, [r0], -r7
    1730:	0c000300 	stceq	3, cr0, [r0], {-0}
    1734:	00000af0 	strdeq	r0, [r0], -r0	; <UNPREDICTABLE>
    1738:	0003000a 	andeq	r0, r3, sl
    173c:	000b2a0c 	andeq	r2, fp, ip, lsl #20
    1740:	03000c00 	movweq	r0, #3072	; 0xc00
    1744:	09be0c00 	ldmibeq	lr!, {sl, fp}
    1748:	000d0000 	andeq	r0, sp, r0
    174c:	8c0c0003 	stchi	0, cr0, [ip], {3}
    1750:	0e00000c 	cdpeq	0, 0, cr0, cr0, cr12, {0}
    1754:	0c000300 	stceq	3, cr0, [r0], {-0}
    1758:	00000997 	muleq	r0, r7, r9
    175c:	0003000f 	andeq	r0, r3, pc
    1760:	000a6d0c 	andeq	r6, sl, ip, lsl #26
    1764:	03001000 	movweq	r1, #0
    1768:	0c460c00 	mcrreq	12, 0, r0, r6, cr0
    176c:	00140000 	andseq	r0, r4, r0
    1770:	8d0c0003 	stchi	0, cr0, [ip, #-12]
    1774:	20000008 	andcs	r0, r0, r8
    1778:	0c000300 	stceq	3, cr0, [r0], {-0}
    177c:	000009fb 	strdeq	r0, [r0], -fp
    1780:	00040001 	andeq	r0, r4, r1
    1784:	0007ba0c 	andeq	fp, r7, ip, lsl #20
    1788:	04800100 	streq	r0, [r0], #256	; 0x100
    178c:	06f70c00 	ldrbteq	r0, [r7], r0, lsl #24
    1790:	00020000 	andeq	r0, r2, r0
    1794:	8b0c0004 	blhi	3017ac <__kernel_end+0x19f7ac>
    1798:	03000007 	movweq	r0, #7
    179c:	0c000400 	cfstrseq	mvf0, [r0], {-0}
    17a0:	00000ce7 	andeq	r0, r0, r7, ror #25
    17a4:	00044003 	andeq	r4, r4, r3
    17a8:	000a1e0c 	andeq	r1, sl, ip, lsl #28
    17ac:	04800300 	streq	r0, [r0], #768	; 0x300
    17b0:	09820c00 	stmibeq	r2, {sl, fp}
    17b4:	00040000 	andeq	r0, r4, r0
    17b8:	110c0004 	tstne	ip, r4
    17bc:	0400000c 	streq	r0, [r0], #-12
    17c0:	0c000440 	cfstrseq	mvf0, [r0], {64}	; 0x40
    17c4:	00000a44 	andeq	r0, r0, r4, asr #20
    17c8:	00048004 	andeq	r8, r4, r4
    17cc:	0009740c 	andeq	r7, r9, ip, lsl #8
    17d0:	04000500 	streq	r0, [r0], #-1280	; 0xfffffb00
    17d4:	0c370c00 	ldceq	12, cr0, [r7], #-0
    17d8:	40050000 	andmi	r0, r5, r0
    17dc:	f00c0004 			; <UNDEFINED> instruction: 0xf00c0004
    17e0:	05000007 	streq	r0, [r0, #-7]
    17e4:	0c000480 	cfstrseq	mvf0, [r0], {128}	; 0x80
    17e8:	00000879 	andeq	r0, r0, r9, ror r8
    17ec:	00040006 	andeq	r0, r4, r6
    17f0:	0008460c 	andeq	r4, r8, ip, lsl #12
    17f4:	04400600 	strbeq	r0, [r0], #-1536	; 0xfffffa00
    17f8:	0b160c00 	bleq	584800 <__kernel_end+0x422800>
    17fc:	80060000 	andhi	r0, r6, r0
    1800:	da0c0004 	ble	301818 <__kernel_end+0x19f818>
    1804:	07000009 	streq	r0, [r0, -r9]
    1808:	0c000400 	cfstrseq	mvf0, [r0], {-0}
    180c:	000008b7 			; <UNDEFINED> instruction: 0x000008b7
    1810:	00044007 	andeq	r4, r4, r7
    1814:	000ba00c 	andeq	sl, fp, ip
    1818:	04800700 	streq	r0, [r0], #1792	; 0x700
    181c:	09ed0c00 	stmibeq	sp!, {sl, fp}^
    1820:	00080000 	andeq	r0, r8, r0
    1824:	4a0c0004 	bmi	30183c <__kernel_end+0x19f83c>
    1828:	09000009 	stmdbeq	r0, {r0, r3}
    182c:	0c000400 	cfstrseq	mvf0, [r0], {-0}
    1830:	0000075c 	andeq	r0, r0, ip, asr r7
    1834:	00044009 	andeq	r4, r4, r9
    1838:	0007740c 	andeq	r7, r7, ip, lsl #8
    183c:	04800900 	streq	r0, [r0], #2304	; 0x900
    1840:	07080c00 	streq	r0, [r8, -r0, lsl #24]
    1844:	000a0000 	andeq	r0, sl, r0
    1848:	380c0004 	stmdacc	ip, {r2}
    184c:	0a000009 	beq	1878 <SCTLR_ENABLE_INSTRUCTION_CACHE+0x878>
    1850:	0c000440 	cfstrseq	mvf0, [r0], {64}	; 0x40
    1854:	00000beb 	andeq	r0, r0, fp, ror #23
    1858:	0004800a 	andeq	r8, r4, sl
    185c:	0007fe0c 	andeq	pc, r7, ip, lsl #28
    1860:	04000b00 	streq	r0, [r0], #-2816	; 0xfffff500
    1864:	08e50c00 	stmiaeq	r5!, {sl, fp}^
    1868:	400b0000 	andmi	r0, fp, r0
    186c:	900c0004 	andls	r0, ip, r4
    1870:	0b00000b 	bleq	18a4 <SCTLR_ENABLE_INSTRUCTION_CACHE+0x8a4>
    1874:	0d000480 	cfstrseq	mvf0, [r0, #-512]	; 0xfffffe00
    1878:	00000865 	andeq	r0, r0, r5, ror #16
    187c:	b30d8011 	movwlt	r8, #53265	; 0xd011
    1880:	1000000b 	andne	r0, r0, fp
    1884:	000e0080 	andeq	r0, lr, r0, lsl #1
    1888:	93780401 	cmnls	r8, #16777216	; 0x1000000
    188c:	0f000003 	svceq	0x00000003
    1890:	00000c08 	andeq	r0, r0, r8, lsl #24
    1894:	00727904 	rsbseq	r7, r2, r4, lsl #18
    1898:	200f0000 	andcs	r0, pc, r0
    189c:	04000008 	streq	r0, [r0], #-8
    18a0:	0003937a 	andeq	r9, r3, sl, ror r3
    18a4:	0ae60f00 	beq	ff9854ac <__kernel_end+0xff8234ac>
    18a8:	7b040000 	blvc	1018b0 <__first_lvl_tbl_end+0xe08b0>
    18ac:	000003aa 	andeq	r0, r0, sl, lsr #7
    18b0:	007d1000 	rsbseq	r1, sp, r0
    18b4:	03a30000 			; <UNDEFINED> instruction: 0x03a30000
    18b8:	a3110000 	tstge	r1, #0
    18bc:	ff000003 			; <UNDEFINED> instruction: 0xff000003
    18c0:	07040200 	streq	r0, [r4, -r0, lsl #4]
    18c4:	0000034f 	andeq	r0, r0, pc, asr #6
    18c8:	00007210 	andeq	r7, r0, r0, lsl r2
    18cc:	0003ba00 	andeq	fp, r3, r0, lsl #20
    18d0:	03a31100 			; <UNDEFINED> instruction: 0x03a31100
    18d4:	003f0000 	eorseq	r0, pc, r0
    18d8:	04010812 	streq	r0, [r1], #-2066	; 0xfffff7ee
    18dc:	0003e874 	andeq	lr, r3, r4, ror r8
    18e0:	61741300 	cmnvs	r4, r0, lsl #6
    18e4:	76040067 	strvc	r0, [r4], -r7, rrx
    18e8:	00000072 	andeq	r0, r0, r2, ror r0
    18ec:	09ce0800 	stmibeq	lr, {fp}^
    18f0:	77040000 	strvc	r0, [r4, -r0]
    18f4:	00000072 	andeq	r0, r0, r2, ror r0
    18f8:	07a10804 	streq	r0, [r1, r4, lsl #16]!
    18fc:	7c040000 	stcvc	0, cr0, [r4], {-0}
    1900:	00000368 	andeq	r0, r0, r8, ror #6
    1904:	09040008 	stmdbeq	r4, {r3}
    1908:	04000009 	streq	r0, [r0], #-9
    190c:	0003ba7d 	andeq	fp, r3, sp, ror sl
    1910:	0f1f0700 	svceq	0x001f0700
    1914:	010c0000 	mrseq	r0, (UNDEF: 12)
    1918:	0004240e 	andeq	r2, r4, lr, lsl #8
    191c:	0feb0800 	svceq	0x00eb0800
    1920:	0e010000 	cdpeq	0, 0, cr0, cr1, cr0, {0}
    1924:	00000111 	andeq	r0, r0, r1, lsl r1
    1928:	0f920800 	svceq	0x00920800
    192c:	0e010000 	cdpeq	0, 0, cr0, cr1, cr0, {0}
    1930:	00000111 	andeq	r0, r0, r1, lsl r1
    1934:	100e0804 	andne	r0, lr, r4, lsl #16
    1938:	0e010000 	cdpeq	0, 0, cr0, cr1, cr0, {0}
    193c:	00000088 	andeq	r0, r0, r8, lsl #1
    1940:	f0040008 			; <UNDEFINED> instruction: 0xf0040008
    1944:	0100000f 	tsteq	r0, pc
    1948:	0003f30e 	andeq	pc, r3, lr, lsl #6
    194c:	0f5e1400 	svceq	0x005e1400
    1950:	5c010000 	stcpl	0, cr0, [r1], {-0}
    1954:	00000088 	andeq	r0, r0, r8, lsl #1
    1958:	00044a01 	andeq	r4, r4, r1, lsl #20
    195c:	706d1500 	rsbvc	r1, sp, r0, lsl #10
    1960:	4a670100 	bmi	19c1d68 <__kernel_end+0x185fd68>
    1964:	00000004 	andeq	r0, r0, r4
    1968:	03e80409 	mvneq	r0, #150994944	; 0x9000000
    196c:	39160000 	ldmdbcc	r6, {}	; <UNPREDICTABLE>
    1970:	01000010 	tsteq	r0, r0, lsl r0
    1974:	008f740f 	addeq	r7, pc, pc, lsl #8
    1978:	00002400 	andeq	r2, r0, r0, lsl #8
    197c:	809c0100 	addshi	r0, ip, r0, lsl #2
    1980:	17000004 	strne	r0, [r0, -r4]
    1984:	00000860 	andeq	r0, r0, r0, ror #16
    1988:	04800f01 	streq	r0, [r0], #3841	; 0xf01
    198c:	50010000 	andpl	r0, r1, r0
    1990:	000fa617 	andeq	sl, pc, r7, lsl r6	; <UNPREDICTABLE>
    1994:	110f0100 	mrsne	r0, (UNDEF: 31)
    1998:	01000001 	tsteq	r0, r1
    199c:	04090051 	streq	r0, [r9], #-81	; 0xffffffaf
    19a0:	00000424 	andeq	r0, r0, r4, lsr #8
    19a4:	000fb716 	andeq	fp, pc, r6, lsl r7	; <UNPREDICTABLE>
    19a8:	980f0100 	stmdals	pc, {r8}	; <UNPREDICTABLE>
    19ac:	2400008f 	strcs	r0, [r0], #-143	; 0xffffff71
    19b0:	01000000 	mrseq	r0, (UNDEF: 0)
    19b4:	0004b69c 	muleq	r4, ip, r6
    19b8:	08601700 	stmdaeq	r0!, {r8, r9, sl, ip}^
    19bc:	0f010000 	svceq	0x00010000
    19c0:	00000480 	andeq	r0, r0, r0, lsl #9
    19c4:	a6175001 	ldrge	r5, [r7], -r1
    19c8:	0100000f 	tsteq	r0, pc
    19cc:	0001110f 	andeq	r1, r1, pc, lsl #2
    19d0:	00510100 	subseq	r0, r1, r0, lsl #2
    19d4:	000f4f18 	andeq	r4, pc, r8, lsl pc	; <UNPREDICTABLE>
    19d8:	110f0100 	mrsne	r0, (UNDEF: 31)
    19dc:	bc000001 	stclt	0, cr0, [r0], {1}
    19e0:	0800008f 	stmdaeq	r0, {r0, r1, r2, r3, r7}
    19e4:	01000000 	mrseq	r0, (UNDEF: 0)
    19e8:	0004df9c 	muleq	r4, ip, pc	; <UNPREDICTABLE>
    19ec:	08601900 	stmdaeq	r0!, {r8, fp, ip}^
    19f0:	0f010000 	svceq	0x00010000
    19f4:	00000480 	andeq	r0, r0, r0, lsl #9
    19f8:	000004e4 	andeq	r0, r0, r4, ror #9
    19fc:	0fdd1800 	svceq	0x00dd1800
    1a00:	0f010000 	svceq	0x00010000
    1a04:	00000111 	andeq	r0, r0, r1, lsl r1
    1a08:	00008fc4 	andeq	r8, r0, r4, asr #31
    1a0c:	0000002c 	andeq	r0, r0, ip, lsr #32
    1a10:	05179c01 	ldreq	r9, [r7, #-3073]	; 0xfffff3ff
    1a14:	60190000 	andsvs	r0, r9, r0
    1a18:	01000008 	tsteq	r0, r8
    1a1c:	0004800f 	andeq	r8, r4, pc
    1a20:	00050500 	andeq	r0, r5, r0, lsl #10
    1a24:	65721a00 	ldrbvs	r1, [r2, #-2560]!	; 0xfffff600
    1a28:	0f010073 	svceq	0x00010073
    1a2c:	00000111 	andeq	r0, r0, r1, lsl r1
    1a30:	00000523 	andeq	r0, r0, r3, lsr #10
    1a34:	102a1800 	eorne	r1, sl, r0, lsl #16
    1a38:	0f010000 	svceq	0x00010000
    1a3c:	00000088 	andeq	r0, r0, r8, lsl #1
    1a40:	00008ff0 	strdeq	r8, [r0], -r0
    1a44:	00000008 	andeq	r0, r0, r8
    1a48:	05409c01 	strbeq	r9, [r0, #-3073]	; 0xfffff3ff
    1a4c:	60190000 	andsvs	r0, r9, r0
    1a50:	01000008 	tsteq	r0, r8
    1a54:	0004800f 	andeq	r8, r4, pc
    1a58:	00054100 	andeq	r4, r5, r0, lsl #2
    1a5c:	97180000 	ldrls	r0, [r8, -r0]
    1a60:	0100000f 	tsteq	r0, pc
    1a64:	0001110f 	andeq	r1, r1, pc, lsl #2
    1a68:	008ff800 	addeq	pc, pc, r0, lsl #16
    1a6c:	00000800 	andeq	r0, r0, r0, lsl #16
    1a70:	699c0100 	ldmibvs	ip, {r8}
    1a74:	19000005 	stmdbne	r0, {r0, r2}
    1a78:	00000fa6 	andeq	r0, r0, r6, lsr #31
    1a7c:	01110f01 	tsteq	r1, r1, lsl #30
    1a80:	05620000 	strbeq	r0, [r2, #-0]!
    1a84:	1b000000 	blne	1a8c <SCTLR_ENABLE_INSTRUCTION_CACHE+0xa8c>
    1a88:	00000f09 	andeq	r0, r0, r9, lsl #30
    1a8c:	00881401 	addeq	r1, r8, r1, lsl #8
    1a90:	90000000 	andls	r0, r0, r0
    1a94:	001c0000 	andseq	r0, ip, r0
    1a98:	9c010000 	stcls	0, cr0, [r1], {-0}
    1a9c:	0000058c 	andeq	r0, r0, ip, lsl #11
    1aa0:	0090141c 	addseq	r1, r0, ip, lsl r4
    1aa4:	00051700 	andeq	r1, r5, r0, lsl #14
    1aa8:	28180000 	ldmdacs	r8, {}	; <UNPREDICTABLE>
    1aac:	0100000f 	tsteq	r0, pc
    1ab0:	0006013a 	andeq	r0, r6, sl, lsr r1
    1ab4:	00901c00 	addseq	r1, r0, r0, lsl #24
    1ab8:	00006c00 	andeq	r6, r0, r0, lsl #24
    1abc:	019c0100 	orrseq	r0, ip, r0, lsl #2
    1ac0:	1d000006 	stcne	0, cr0, [r0, #-24]	; 0xffffffe8
    1ac4:	00001246 	andeq	r1, r0, r6, asr #4
    1ac8:	06033c01 	streq	r3, [r3], -r1, lsl #24
    1acc:	05830000 	streq	r0, [r3]
    1ad0:	4a1e0000 	bmi	781ad8 <__kernel_end+0x61fad8>
    1ad4:	01000010 	tsteq	r0, r0, lsl r0
    1ad8:	0006013d 	andeq	r0, r6, sp, lsr r1
    1adc:	1f540100 	svcne	0x00540100
    1ae0:	00009038 	andeq	r9, r0, r8, lsr r0
    1ae4:	00000517 	andeq	r0, r0, r7, lsl r5
    1ae8:	000005d5 	ldrdeq	r0, [r0], -r5
    1aec:	02500120 	subseq	r0, r0, #32, 2
    1af0:	1f000074 	svcne	0x00000074
    1af4:	00009048 	andeq	r9, r0, r8, asr #32
    1af8:	000004df 	ldrdeq	r0, [r0], -pc	; <UNPREDICTABLE>
    1afc:	000005e9 	andeq	r0, r0, r9, ror #11
    1b00:	02500120 	subseq	r0, r0, #32, 2
    1b04:	21000074 	tstcs	r0, r4, ror r0
    1b08:	00009074 	andeq	r9, r0, r4, ror r0
    1b0c:	0000077f 	andeq	r0, r0, pc, ror r7
    1b10:	02500120 	subseq	r0, r0, #32, 2
    1b14:	01200074 			; <UNDEFINED> instruction: 0x01200074
    1b18:	000a0351 	andeq	r0, sl, r1, asr r3
    1b1c:	22000010 	andcs	r0, r0, #16
    1b20:	17040904 	strne	r0, [r4, -r4, lsl #18]
    1b24:	16000001 	strne	r0, [r0], -r1
    1b28:	00000f88 	andeq	r0, r0, r8, lsl #31
    1b2c:	90885001 	addls	r5, r8, r1
    1b30:	00440000 	subeq	r0, r4, r0
    1b34:	9c010000 	stcls	0, cr0, [r1], {-0}
    1b38:	00000646 	andeq	r0, r0, r6, asr #12
    1b3c:	72747023 	rsbsvc	r7, r4, #35	; 0x23
    1b40:	01500100 	cmpeq	r0, r0, lsl #2
    1b44:	96000006 	strls	r0, [r0], -r6
    1b48:	1d000005 	stcne	0, cr0, [r0, #-20]	; 0xffffffec
    1b4c:	00001246 	andeq	r1, r0, r6, asr #4
    1b50:	06035201 	streq	r5, [r3], -r1, lsl #4
    1b54:	05b70000 	ldreq	r0, [r7, #0]!
    1b58:	c01c0000 	andsgt	r0, ip, r0
    1b5c:	50000090 	mulpl	r0, r0, r0
    1b60:	00000004 	andeq	r0, r0, r4
    1b64:	00042f24 	andeq	r2, r4, r4, lsr #30
    1b68:	0090cc00 	addseq	ip, r0, r0, lsl #24
    1b6c:	00005000 	andeq	r5, r0, r0
    1b70:	969c0100 	ldrls	r0, [ip], r0, lsl #2
    1b74:	25000006 	strcs	r0, [r0, #-6]
    1b78:	0000043f 	andeq	r0, r0, pc, lsr r4
    1b7c:	0090e426 	addseq	lr, r0, r6, lsr #8
    1b80:	00003000 	andeq	r3, r0, r0
    1b84:	043f2700 	ldrteq	r2, [pc], #-1792	; 1b8c <SCTLR_ENABLE_INSTRUCTION_CACHE+0xb8c>
    1b88:	05d50000 	ldrbeq	r0, [r5]
    1b8c:	e8280000 	stmda	r8!, {}	; <UNPREDICTABLE>
    1b90:	8a000090 	bhi	1dd8 <SCTLR_ENABLE_INSTRUCTION_CACHE+0xdd8>
    1b94:	28000007 	stmdacs	r0, {r0, r1, r2}
    1b98:	000090f4 	strdeq	r9, [r0], -r4
    1b9c:	00000795 	muleq	r0, r5, r7
    1ba0:	0090f828 	addseq	pc, r0, r8, lsr #16
    1ba4:	0007a000 	andeq	sl, r7, r0
    1ba8:	91042800 	tstls	r4, r0, lsl #16
    1bac:	07ab0000 	streq	r0, [fp, r0]!
    1bb0:	00000000 	andeq	r0, r0, r0
    1bb4:	000fc629 	andeq	ip, pc, r9, lsr #12
    1bb8:	1c190100 	ldfnes	f0, [r9], {-0}
    1bbc:	18000091 	stmdane	r0, {r0, r4, r7}
    1bc0:	01000001 	tsteq	r0, r1
    1bc4:	0007309c 	muleq	r7, ip, r0
    1bc8:	100a1d00 	andne	r1, sl, r0, lsl #26
    1bcc:	1b010000 	blne	41bd4 <__first_lvl_tbl_end+0x20bd4>
    1bd0:	00000088 	andeq	r0, r0, r8, lsl #1
    1bd4:	000005e8 	andeq	r0, r0, r8, ror #11
    1bd8:	000f401d 	andeq	r4, pc, sp, lsl r0	; <UNPREDICTABLE>
    1bdc:	881b0100 	ldmdahi	fp, {r8}
    1be0:	06000000 	streq	r0, [r0], -r0
    1be4:	1d000006 	stcne	0, cr0, [r0, #-24]	; 0xffffffe8
    1be8:	00000f33 	andeq	r0, r0, r3, lsr pc
    1bec:	00881b01 	addeq	r1, r8, r1, lsl #22
    1bf0:	06280000 	strteq	r0, [r8], -r0
    1bf4:	691a0000 	ldmdbvs	sl, {}	; <UNPREDICTABLE>
    1bf8:	881b0100 	ldmdahi	fp, {r8}
    1bfc:	4a000000 	bmi	1c04 <SCTLR_ENABLE_INSTRUCTION_CACHE+0xc04>
    1c00:	28000006 	stmdacs	r0, {r1, r2}
    1c04:	00009124 	andeq	r9, r0, r4, lsr #2
    1c08:	0000042f 	andeq	r0, r0, pc, lsr #8
    1c0c:	00914028 	addseq	r4, r1, r8, lsr #32
    1c10:	0007b600 	andeq	fp, r7, r0, lsl #12
    1c14:	91601f00 	cmnls	r0, r0, lsl #30
    1c18:	07b60000 	ldreq	r0, [r6, r0]!
    1c1c:	070b0000 	streq	r0, [fp, -r0]
    1c20:	01200000 			; <UNDEFINED> instruction: 0x01200000
    1c24:	00740251 	rsbseq	r0, r4, r1, asr r2
    1c28:	917c1f00 	cmnls	ip, r0, lsl #30
    1c2c:	077f0000 	ldrbeq	r0, [pc, -r0]!
    1c30:	071f0000 	ldreq	r0, [pc, -r0]
    1c34:	01200000 			; <UNDEFINED> instruction: 0x01200000
    1c38:	00740250 	rsbseq	r0, r4, r0, asr r2
    1c3c:	92082100 	andls	r2, r8, #0, 2
    1c40:	04500000 	ldrbeq	r0, [r0], #-0
    1c44:	01200000 			; <UNDEFINED> instruction: 0x01200000
    1c48:	00750250 	rsbseq	r0, r5, r0, asr r2
    1c4c:	061e0000 	ldreq	r0, [lr], -r0
    1c50:	01000010 	tsteq	r0, r0, lsl r0
    1c54:	00008807 	andeq	r8, r0, r7, lsl #16
    1c58:	68030500 	stmdavs	r3, {r8, sl}
    1c5c:	1e000153 	mcrne	1, 0, r0, cr0, cr3, {2}
    1c60:	00000ffc 	strdeq	r0, [r0], -ip
    1c64:	00880c01 	addeq	r0, r8, r1, lsl #24
    1c68:	03050000 	movweq	r0, #20480	; 0x5000
    1c6c:	0001536c 	andeq	r5, r1, ip, ror #6
    1c70:	00105c1e 	andseq	r5, r0, lr, lsl ip
    1c74:	03110100 	tsteq	r1, #0, 2
    1c78:	05000006 	streq	r0, [r0, #-6]
    1c7c:	01536403 	cmpeq	r3, r3, lsl #8
    1c80:	0ed52a00 	vfnmseq.f32	s5, s10, s0
    1c84:	09010000 	stmdbeq	r1, {}	; <UNPREDICTABLE>
    1c88:	0000007d 	andeq	r0, r0, sp, ror r0
    1c8c:	000f142b 	andeq	r1, pc, fp, lsr #8
    1c90:	24120100 	ldrcs	r0, [r2], #-256	; 0xffffff00
    1c94:	05000004 	streq	r0, [r0, #-4]
    1c98:	01537003 	cmpeq	r3, r3
    1c9c:	03582c00 	cmpeq	r8, #0, 24
    1ca0:	03580000 	cmpeq	r8, #0
    1ca4:	0a010000 	beq	41cac <__first_lvl_tbl_end+0x20cac>
    1ca8:	0008cb2c 	andeq	ip, r8, ip, lsr #22
    1cac:	0008cb00 	andeq	ip, r8, r0, lsl #22
    1cb0:	2c8e0400 	cfstrscs	mvf0, [lr], {0}
    1cb4:	000008f6 	strdeq	r0, [r0], -r6
    1cb8:	000008f6 	strdeq	r0, [r0], -r6
    1cbc:	592c8f04 	stmdbpl	ip!, {r2, r8, r9, sl, fp, pc}
    1cc0:	5900000a 	stmdbpl	r0, {r1, r3}
    1cc4:	0400000a 	streq	r0, [r0], #-10
    1cc8:	0c272c90 	stceq	12, cr2, [r7], #-576	; 0xfffffdc0
    1ccc:	0c270000 	stceq	0, cr0, [r7], #-0
    1cd0:	91040000 	mrsls	r0, (UNDEF: 4)
    1cd4:	00048a2c 	andeq	r8, r4, ip, lsr #20
    1cd8:	00048a00 	andeq	r8, r4, r0, lsl #20
    1cdc:	000c0500 	andeq	r0, ip, r0, lsl #10
    1ce0:	0000050e 	andeq	r0, r0, lr, lsl #10
    1ce4:	0b820004 	bleq	fe081cfc <__kernel_end+0xfdf1fcfc>
    1ce8:	01040000 	mrseq	r0, (UNDEF: 4)
    1cec:	00000064 	andeq	r0, r0, r4, rrx
    1cf0:	0011010c 	andseq	r0, r1, ip, lsl #2
    1cf4:	00011a00 	andeq	r1, r1, r0, lsl #20
    1cf8:	00923400 	addseq	r3, r2, r0, lsl #8
    1cfc:	00012800 	andeq	r2, r1, r0, lsl #16
    1d00:	000c5600 	andeq	r5, ip, r0, lsl #12
    1d04:	06010200 	streq	r0, [r1], -r0, lsl #4
    1d08:	0000000d 	andeq	r0, r0, sp
    1d0c:	6b050202 	blvs	14251c <dma_dest_page_1+0x51c>
    1d10:	03000001 	movweq	r0, #1
    1d14:	00000176 	andeq	r0, r0, r6, ror r1
    1d18:	003e2802 	eorseq	r2, lr, r2, lsl #16
    1d1c:	04020000 	streq	r0, [r2], #-0
    1d20:	00011105 	andeq	r1, r1, r5, lsl #2
    1d24:	05080200 	streq	r0, [r8, #-512]	; 0xfffffe00
    1d28:	0000010c 	andeq	r0, r0, ip, lsl #2
    1d2c:	0b080102 	bleq	20213c <__kernel_end+0xa013c>
    1d30:	02000000 	andeq	r0, r0, #0
    1d34:	00190702 	andseq	r0, r9, r2, lsl #14
    1d38:	75030000 	strvc	r0, [r3, #-0]
    1d3c:	02000001 	andeq	r0, r0, #1
    1d40:	00006534 	andeq	r6, r0, r4, lsr r5
    1d44:	07040200 	streq	r0, [r4, -r0, lsl #4]
    1d48:	00000052 	andeq	r0, r0, r2, asr r0
    1d4c:	4d070802 	stcmi	8, cr0, [r7, #-8]
    1d50:	04000000 	streq	r0, [r0], #-0
    1d54:	6e690504 	cdpvs	5, 6, cr0, cr9, cr4, {0}
    1d58:	04020074 	streq	r0, [r2], #-116	; 0xffffff8c
    1d5c:	00005707 	andeq	r5, r0, r7, lsl #14
    1d60:	7a040500 	bvc	103168 <__first_lvl_tbl_end+0xe2168>
    1d64:	04000000 	streq	r0, [r0], #-0
    1d68:	00015405 	andeq	r5, r1, r5, lsl #8
    1d6c:	114a0600 	cmpne	sl, r0, lsl #12
    1d70:	00000000 	andeq	r0, r0, r0
    1d74:	be063f20 	cdplt	15, 0, cr3, cr6, cr0, {1}
    1d78:	94000010 	strls	r0, [r0], #-16
    1d7c:	063f2000 	ldrteq	r2, [pc], -r0
    1d80:	000010aa 	andeq	r1, r0, sl, lsr #1
    1d84:	3f200098 	svccc	0x00200098
    1d88:	00109406 	andseq	r9, r0, r6, lsl #8
    1d8c:	20100000 	andscs	r0, r0, r0
    1d90:	108b063f 	addne	r0, fp, pc, lsr r6
    1d94:	10000000 	andne	r0, r0, r0
    1d98:	10063f20 	andne	r3, r6, r0, lsr #30
    1d9c:	04000011 	streq	r0, [r0], #-17	; 0xffffffef
    1da0:	063f2010 			; <UNDEFINED> instruction: 0x063f2010
    1da4:	000010d9 	ldrdeq	r1, [r0], -r9
    1da8:	3f201018 	svccc	0x00201018
    1dac:	00117d06 	andseq	r7, r1, r6, lsl #26
    1db0:	20102000 	andscs	r2, r0, r0
    1db4:	10ce063f 	sbcne	r0, lr, pc, lsr r6
    1db8:	10240000 	eorne	r0, r4, r0
    1dbc:	72063f20 	andvc	r3, r6, #32, 30	; 0x80
    1dc0:	28000011 	stmdacs	r0, {r0, r4}
    1dc4:	063f2010 			; <UNDEFINED> instruction: 0x063f2010
    1dc8:	000010e2 	andeq	r1, r0, r2, ror #1
    1dcc:	3f20102c 	svccc	0x0020102c
    1dd0:	00115406 	andseq	r5, r1, r6, lsl #8
    1dd4:	20103000 	andscs	r3, r0, r0
    1dd8:	1134063f 	teqne	r4, pc, lsr r6
    1ddc:	10340000 	eorsne	r0, r4, r0
    1de0:	29063f20 	stmdbcs	r6, {r5, r8, r9, sl, fp, ip, sp}
    1de4:	38000011 	stmdacc	r0, {r0, r4}
    1de8:	063f2010 			; <UNDEFINED> instruction: 0x063f2010
    1dec:	000010ed 	andeq	r1, r0, sp, ror #1
    1df0:	3f20103c 	svccc	0x0020103c
    1df4:	00108106 	andseq	r8, r0, r6, lsl #2
    1df8:	20104000 	andscs	r4, r0, r0
    1dfc:	10f7063f 	rscsne	r0, r7, pc, lsr r6
    1e00:	10440000 	subne	r0, r4, r0
    1e04:	1d063f20 	stcne	15, cr3, [r6, #-128]	; 0xffffff80
    1e08:	48000011 	stmdami	r0, {r0, r4}
    1e0c:	063f2010 			; <UNDEFINED> instruction: 0x063f2010
    1e10:	0000115d 	andeq	r1, r0, sp, asr r1
    1e14:	3f201080 	svccc	0x00201080
    1e18:	00119206 	andseq	r9, r1, r6, lsl #4
    1e1c:	20108400 	andscs	r8, r0, r0, lsl #8
    1e20:	109f063f 	addsne	r0, pc, pc, lsr r6	; <UNPREDICTABLE>
    1e24:	10880000 	addne	r0, r8, r0
    1e28:	68063f20 	stmdavs	r6, {r5, r8, r9, sl, fp, ip, sp}
    1e2c:	8c000011 	stchi	0, cr0, [r0], {17}
    1e30:	003f2010 	eorseq	r2, pc, r0, lsl r0	; <UNPREDICTABLE>
    1e34:	00034803 	andeq	r4, r3, r3, lsl #16
    1e38:	7ad80300 	bvc	ff602a40 <__kernel_end+0xff4a0a40>
    1e3c:	02000000 	andeq	r0, r0, #0
    1e40:	04260408 	strteq	r0, [r6], #-1032	; 0xfffffbf8
    1e44:	6c070000 	stcvs	0, cr0, [r7], {-0}
    1e48:	01000010 	tsteq	r0, r0, lsl r0
    1e4c:	0189030b 	orreq	r0, r9, fp, lsl #6
    1e50:	72080000 	andvc	r0, r8, #0
    1e54:	01006765 	tsteq	r0, r5, ror #14
    1e58:	00005a0b 	andeq	r5, r0, fp, lsl #20
    1e5c:	07a10900 	streq	r0, [r1, r0, lsl #18]!
    1e60:	0b010000 	bleq	41e68 <__first_lvl_tbl_end+0x20e68>
    1e64:	0000005a 	andeq	r0, r0, sl, asr r0
    1e68:	151f0700 	ldrne	r0, [pc, #-1792]	; 1770 <SCTLR_ENABLE_INSTRUCTION_CACHE+0x770>
    1e6c:	17010000 	strne	r0, [r1, -r0]
    1e70:	0001a103 	andeq	sl, r1, r3, lsl #2
    1e74:	0e120900 	cdpeq	9, 1, cr0, cr2, cr0, {0}
    1e78:	17010000 	strne	r0, [r1, -r0]
    1e7c:	00000033 	andeq	r0, r0, r3, lsr r0
    1e80:	10770a00 	rsbsne	r0, r7, r0, lsl #20
    1e84:	11010000 	mrsne	r0, (UNDEF: 1)
    1e88:	0000005a 	andeq	r0, r0, sl, asr r0
    1e8c:	0001bd03 	andeq	fp, r1, r3, lsl #26
    1e90:	65720800 	ldrbvs	r0, [r2, #-2048]!	; 0xfffff800
    1e94:	11010067 	tstne	r1, r7, rrx
    1e98:	0000005a 	andeq	r0, r0, sl, asr r0
    1e9c:	10b40b00 	adcsne	r0, r4, r0, lsl #22
    1ea0:	23010000 	movwcs	r0, #4096	; 0x1000
    1ea4:	00009234 	andeq	r9, r0, r4, lsr r2
    1ea8:	00000074 	andeq	r0, r0, r4, ror r0
    1eac:	03859c01 	orreq	r9, r5, #256	; 0x100
    1eb0:	660c0000 	strvs	r0, [ip], -r0
    1eb4:	34000001 	strcc	r0, [r0], #-1
    1eb8:	00000092 	muleq	r0, r2, r0
    1ebc:	01000000 	mrseq	r0, (UNDEF: 0)
    1ec0:	0001f826 	andeq	pc, r1, r6, lsr #16
    1ec4:	017d0d00 	cmneq	sp, r0, lsl #26
    1ec8:	068c0000 	streq	r0, [ip], r0
    1ecc:	720d0000 	andvc	r0, sp, #0
    1ed0:	a0000001 	andge	r0, r0, r1
    1ed4:	00000006 	andeq	r0, r0, r6
    1ed8:	0001660c 	andeq	r6, r1, ip, lsl #12
    1edc:	00923c00 	addseq	r3, r2, r0, lsl #24
    1ee0:	00002000 	andeq	r2, r0, r0
    1ee4:	1e2a0100 	sufnee	f0, f2, f0
    1ee8:	0d000002 	stceq	0, cr0, [r0, #-8]
    1eec:	0000017d 	andeq	r0, r0, sp, ror r1
    1ef0:	000006b8 			; <UNDEFINED> instruction: 0x000006b8
    1ef4:	0001720d 	andeq	r7, r1, sp, lsl #4
    1ef8:	0006cc00 	andeq	ip, r6, r0, lsl #24
    1efc:	890c0000 	stmdbhi	ip, {}	; <UNPREDICTABLE>
    1f00:	44000001 	strmi	r0, [r0], #-1
    1f04:	38000092 	stmdacc	r0, {r1, r4, r7}
    1f08:	01000000 	mrseq	r0, (UNDEF: 0)
    1f0c:	00023b2b 	andeq	r3, r2, fp, lsr #22
    1f10:	01950d00 	orrseq	r0, r5, r0, lsl #26
    1f14:	06e40000 	strbteq	r0, [r4], r0
    1f18:	0e000000 	cdpeq	0, 0, cr0, cr0, cr0, {0}
    1f1c:	00000166 	andeq	r0, r0, r6, ror #2
    1f20:	00009260 	andeq	r9, r0, r0, ror #4
    1f24:	00000008 	andeq	r0, r0, r8
    1f28:	02612e01 	rsbeq	r2, r1, #1, 28
    1f2c:	7d0d0000 	stcvc	0, cr0, [sp, #-0]
    1f30:	f9000001 			; <UNDEFINED> instruction: 0xf9000001
    1f34:	0d000006 	stceq	0, cr0, [r0, #-24]	; 0xffffffe8
    1f38:	00000172 	andeq	r0, r0, r2, ror r1
    1f3c:	0000070f 	andeq	r0, r0, pc, lsl #14
    1f40:	01890e00 	orreq	r0, r9, r0, lsl #28
    1f44:	92680000 	rsbls	r0, r8, #0
    1f48:	00080000 	andeq	r0, r8, r0
    1f4c:	2f010000 	svccs	0x00010000
    1f50:	0000027e 	andeq	r0, r0, lr, ror r2
    1f54:	0001950d 	andeq	r9, r1, sp, lsl #10
    1f58:	00072700 	andeq	r2, r7, r0, lsl #14
    1f5c:	660c0000 	strvs	r0, [ip], -r0
    1f60:	70000001 	andvc	r0, r0, r1
    1f64:	58000092 	stmdapl	r0, {r1, r4, r7}
    1f68:	01000000 	mrseq	r0, (UNDEF: 0)
    1f6c:	0002a43d 	andeq	sl, r2, sp, lsr r4
    1f70:	017d0d00 	cmneq	sp, r0, lsl #26
    1f74:	073c0000 	ldreq	r0, [ip, -r0]!
    1f78:	720d0000 	andvc	r0, sp, #0
    1f7c:	50000001 	andpl	r0, r0, r1
    1f80:	00000007 	andeq	r0, r0, r7
    1f84:	0001660e 	andeq	r6, r1, lr, lsl #12
    1f88:	00927400 	addseq	r7, r2, r0, lsl #8
    1f8c:	00000400 	andeq	r0, r0, r0, lsl #8
    1f90:	ca320100 	bgt	c82398 <__kernel_end+0xb20398>
    1f94:	0d000002 	stceq	0, cr0, [r0, #-8]
    1f98:	0000017d 	andeq	r0, r0, sp, ror r1
    1f9c:	00000768 	andeq	r0, r0, r8, ror #14
    1fa0:	0001720d 	andeq	r7, r1, sp, lsl #4
    1fa4:	00077c00 	andeq	r7, r7, r0, lsl #24
    1fa8:	660c0000 	strvs	r0, [ip], -r0
    1fac:	78000001 	stmdavc	r0, {r0}
    1fb0:	70000092 	mulvc	r0, r2, r0
    1fb4:	01000000 	mrseq	r0, (UNDEF: 0)
    1fb8:	0002f035 	andeq	pc, r2, r5, lsr r0	; <UNPREDICTABLE>
    1fbc:	017d0d00 	cmneq	sp, r0, lsl #26
    1fc0:	07940000 	ldreq	r0, [r4, r0]
    1fc4:	720d0000 	andvc	r0, sp, #0
    1fc8:	aa000001 	bge	1fd4 <SCTLR_ENABLE_INSTRUCTION_CACHE+0xfd4>
    1fcc:	00000007 	andeq	r0, r0, r7
    1fd0:	0001660c 	andeq	r6, r1, ip, lsl #12
    1fd4:	00927c00 	addseq	r7, r2, r0, lsl #24
    1fd8:	00008800 	andeq	r8, r0, r0, lsl #16
    1fdc:	163f0100 	ldrtne	r0, [pc], -r0, lsl #2
    1fe0:	0d000003 	stceq	0, cr0, [r0, #-12]
    1fe4:	0000017d 	andeq	r0, r0, sp, ror r1
    1fe8:	000007c2 	andeq	r0, r0, r2, asr #15
    1fec:	0001720d 	andeq	r7, r1, sp, lsl #4
    1ff0:	0007d700 	andeq	sp, r7, r0, lsl #14
    1ff4:	660c0000 	strvs	r0, [ip], -r0
    1ff8:	88000001 	stmdahi	r0, {r0}
    1ffc:	a0000092 	mulge	r0, r2, r0
    2000:	01000000 	mrseq	r0, (UNDEF: 0)
    2004:	00033c42 	andeq	r3, r3, r2, asr #24
    2008:	017d0d00 	cmneq	sp, r0, lsl #26
    200c:	07ef0000 	strbeq	r0, [pc, r0]!
    2010:	720d0000 	andvc	r0, sp, #0
    2014:	04000001 	streq	r0, [r0], #-1
    2018:	00000008 	andeq	r0, r0, r8
    201c:	0001660c 	andeq	r6, r1, ip, lsl #12
    2020:	00929000 	addseq	r9, r2, r0
    2024:	0000b800 	andeq	fp, r0, r0, lsl #16
    2028:	62450100 	subvs	r0, r5, #0, 2
    202c:	0d000003 	stceq	0, cr0, [r0, #-12]
    2030:	0000017d 	andeq	r0, r0, sp, ror r1
    2034:	0000081c 	andeq	r0, r0, ip, lsl r8
    2038:	0001720d 	andeq	r7, r1, sp, lsl #4
    203c:	00083200 	andeq	r3, r8, r0, lsl #4
    2040:	660f0000 	strvs	r0, [pc], -r0
    2044:	98000001 	stmdals	r0, {r0}
    2048:	d0000092 	mulle	r0, r2, r0
    204c:	01000000 	mrseq	r0, (UNDEF: 0)
    2050:	017d0d49 	cmneq	sp, r9, asr #26
    2054:	084a0000 	stmdaeq	sl, {}^	; <UNPREDICTABLE>
    2058:	720d0000 	andvc	r0, sp, #0
    205c:	60000001 	andvs	r0, r0, r1
    2060:	00000008 	andeq	r0, r0, r8
    2064:	11881000 	orrne	r1, r8, r0
    2068:	4c010000 	stcmi	0, cr0, [r1], {-0}
    206c:	000092a8 	andeq	r9, r0, r8, lsr #5
    2070:	00000024 	andeq	r0, r0, r4, lsr #32
    2074:	03e59c01 	mvneq	r9, #256	; 0x100
    2078:	63110000 	tstvs	r1, #0
    207c:	4c4c0100 	stfmie	f0, [ip], {-0}
    2080:	01000000 	mrseq	r0, (UNDEF: 0)
    2084:	01a10e50 			; <UNDEFINED> instruction: 0x01a10e50
    2088:	92a80000 	adcls	r0, r8, #0
    208c:	00140000 	andseq	r0, r4, r0
    2090:	4f010000 	svcmi	0x00010000
    2094:	000003c2 	andeq	r0, r0, r2, asr #7
    2098:	0001b10d 	andeq	fp, r1, sp, lsl #2
    209c:	00087800 	andeq	r7, r8, r0, lsl #16
    20a0:	66120000 	ldrvs	r0, [r2], -r0
    20a4:	c4000001 	strgt	r0, [r0], #-1
    20a8:	08000092 	stmdaeq	r0, {r1, r4, r7}
    20ac:	01000000 	mrseq	r0, (UNDEF: 0)
    20b0:	017d0d52 	cmneq	sp, r2, asr sp
    20b4:	08900000 	ldmeq	r0, {}	; <UNPREDICTABLE>
    20b8:	720d0000 	andvc	r0, sp, #0
    20bc:	a3000001 	movwge	r0, #1
    20c0:	00000008 	andeq	r0, r0, r8
    20c4:	10c41300 	sbcne	r1, r4, r0, lsl #6
    20c8:	55010000 	strpl	r0, [r1, #-0]
    20cc:	0000004c 	andeq	r0, r0, ip, asr #32
    20d0:	000092cc 	andeq	r9, r0, ip, asr #5
    20d4:	00000028 	andeq	r0, r0, r8, lsr #32
    20d8:	04359c01 	ldrteq	r9, [r5], #-3073	; 0xfffff3ff
    20dc:	a10e0000 	mrsge	r0, (UNDEF: 14)
    20e0:	cc000001 	stcgt	0, cr0, [r0], {1}
    20e4:	14000092 	strne	r0, [r0], #-146	; 0xffffff6e
    20e8:	01000000 	mrseq	r0, (UNDEF: 0)
    20ec:	00041b58 	andeq	r1, r4, r8, asr fp
    20f0:	01b10d00 			; <UNDEFINED> instruction: 0x01b10d00
    20f4:	08bb0000 	ldmeq	fp!, {}	; <UNPREDICTABLE>
    20f8:	12000000 	andne	r0, r0, #0
    20fc:	000001a1 	andeq	r0, r0, r1, lsr #3
    2100:	000092e8 	andeq	r9, r0, r8, ror #5
    2104:	00000004 	andeq	r0, r0, r4
    2108:	b10d5b01 	tstlt	sp, r1, lsl #22
    210c:	d3000001 	movwle	r0, #1
    2110:	00000008 	andeq	r0, r0, r8
    2114:	05191000 	ldreq	r1, [r9, #-0]
    2118:	5e010000 	cdppl	0, 0, cr0, cr1, cr0, {0}
    211c:	000092f4 	strdeq	r9, [r0], -r4
    2120:	00000028 	andeq	r0, r0, r8, lsr #32
    2124:	047a9c01 	ldrbteq	r9, [sl], #-3073	; 0xfffff3ff
    2128:	73140000 	tstvc	r4, #0
    212c:	01007274 	tsteq	r0, r4, ror r2
    2130:	00047a5e 	andeq	r7, r4, lr, asr sl
    2134:	0008eb00 	andeq	lr, r8, r0, lsl #22
    2138:	92fc1500 	rscsls	r1, ip, #0, 10
    213c:	00200000 	eoreq	r0, r0, r0
    2140:	69160000 	ldmdbvs	r6, {}	; <UNPREDICTABLE>
    2144:	54600100 	strbtpl	r0, [r0], #-256	; 0xffffff00
    2148:	17000001 	strne	r0, [r0, -r1]
    214c:	17000009 	strne	r0, [r0, -r9]
    2150:	0000930c 	andeq	r9, r0, ip, lsl #6
    2154:	00000385 	andeq	r0, r0, r5, lsl #7
    2158:	04180000 	ldreq	r0, [r8], #-0
    215c:	00000487 	andeq	r0, r0, r7, lsl #9
    2160:	14080102 	strne	r0, [r8], #-258	; 0xfffffefe
    2164:	19000000 	stmdbne	r0, {}	; <UNPREDICTABLE>
    2168:	00000480 	andeq	r0, r0, r0, lsl #9
    216c:	00113f1a 	andseq	r3, r1, sl, lsl pc
    2170:	1c640100 	stfnee	f0, [r4], #-0
    2174:	40000093 	mulmi	r0, r3, r0
    2178:	01000000 	mrseq	r0, (UNDEF: 0)
    217c:	0064149c 	mlseq	r4, ip, r4, r1
    2180:	005a6401 	subseq	r6, sl, r1, lsl #8
    2184:	09600000 	stmdbeq	r0!, {}^	; <UNPREDICTABLE>
    2188:	72160000 	andsvc	r0, r6, #0
    218c:	67010062 	strvs	r0, [r1, -r2, rrx]
    2190:	0000005a 	andeq	r0, r0, sl, asr r0
    2194:	0000098c 	andeq	r0, r0, ip, lsl #19
    2198:	00637216 	rsbeq	r7, r3, r6, lsl r2
    219c:	005a6801 	subseq	r6, sl, r1, lsl #16
    21a0:	09ac0000 	stmibeq	ip!, {}	; <UNPREDICTABLE>
    21a4:	481b0000 	ldmdami	fp, {}	; <UNPREDICTABLE>
    21a8:	85000093 	strhi	r0, [r0, #-147]	; 0xffffff6d
    21ac:	00000003 	andeq	r0, r0, r3
    21b0:	1c000005 	stcne	0, cr0, [r0], {5}
    21b4:	75285001 	strvc	r5, [r8, #-1]!
    21b8:	25007400 	strcs	r7, [r0, #-1024]	; 0xfffffc00
    21bc:	37231a3f 			; <UNDEFINED> instruction: 0x37231a3f
    21c0:	00740075 	rsbseq	r0, r4, r5, ror r0
    21c4:	231a3f25 	tstcs	sl, #37, 30	; 0x94
    21c8:	74007530 	strvc	r7, [r0], #-1328	; 0xfffffad0
    21cc:	1a3f2500 	bne	fcb5d4 <__kernel_end+0xe695d4>
    21d0:	22244b40 	eorcs	r4, r4, #64, 22	; 0x10000
    21d4:	0000090c 	andeq	r0, r0, ip, lsl #18
    21d8:	01282b80 	smlawbeq	r8, r0, fp, r2
    21dc:	00131600 	andseq	r1, r3, r0, lsl #12
    21e0:	00935c1d 	addseq	r5, r3, sp, lsl ip
    21e4:	00038500 	andeq	r8, r3, r0, lsl #10
    21e8:	50011c00 	andpl	r1, r1, r0, lsl #24
    21ec:	00200802 	eoreq	r0, r0, r2, lsl #16
    21f0:	05880000 	streq	r0, [r8]
    21f4:	00040000 	andeq	r0, r4, r0
    21f8:	00000d34 	andeq	r0, r0, r4, lsr sp
    21fc:	00640104 	rsbeq	r0, r4, r4, lsl #2
    2200:	ee0c0000 	cdp	0, 0, cr0, cr12, cr0, {0}
    2204:	1a000011 	bne	2250 <SCTLR_ENABLE_INSTRUCTION_CACHE+0x1250>
    2208:	5c000001 	stcpl	0, cr0, [r0], {1}
    220c:	24000093 	strcs	r0, [r0], #-147	; 0xffffff6d
    2210:	83000003 	movwhi	r0, #3
    2214:	0200000d 	andeq	r0, r0, #13
    2218:	000d0601 	andeq	r0, sp, r1, lsl #12
    221c:	02020000 	andeq	r0, r2, #0
    2220:	00016b05 	andeq	r6, r1, r5, lsl #22
    2224:	05040200 	streq	r0, [r4, #-512]	; 0xfffffe00
    2228:	00000111 	andeq	r0, r0, r1, lsl r1
    222c:	0c050802 	stceq	8, cr0, [r5], {2}
    2230:	02000001 	andeq	r0, r0, #1
    2234:	000b0801 	andeq	r0, fp, r1, lsl #16
    2238:	02020000 	andeq	r0, r2, #0
    223c:	00001907 	andeq	r1, r0, r7, lsl #18
    2240:	01750300 	cmneq	r5, r0, lsl #6
    2244:	34060000 	strcc	r0, [r6], #-0
    2248:	0000005a 	andeq	r0, r0, sl, asr r0
    224c:	52070402 	andpl	r0, r7, #33554432	; 0x2000000
    2250:	02000000 	andeq	r0, r0, #0
    2254:	004d0708 	subeq	r0, sp, r8, lsl #14
    2258:	04040000 	streq	r0, [r4], #-0
    225c:	746e6905 	strbtvc	r6, [lr], #-2309	; 0xfffff6fb
    2260:	07040200 	streq	r0, [r4, -r0, lsl #4]
    2264:	00000057 	andeq	r0, r0, r7, asr r0
    2268:	00004f05 	andeq	r4, r0, r5, lsl #30
    226c:	12870600 	addne	r0, r7, #0, 12
    2270:	02200000 	eoreq	r0, r0, #0
    2274:	0000dc0b 	andeq	sp, r0, fp, lsl #24
    2278:	12cd0700 	sbcne	r0, sp, #0, 14
    227c:	0d020000 	stceq	0, cr0, [r2, #-0]
    2280:	0000004f 	andeq	r0, r0, pc, asr #32
    2284:	72730800 	rsbsvc	r0, r3, #0, 16
    2288:	0e020063 	cdpeq	0, 0, cr0, cr2, cr3, {3}
    228c:	0000004f 	andeq	r0, r0, pc, asr #32
    2290:	73640804 	cmnvc	r4, #4, 16	; 0x40000
    2294:	0f020074 	svceq	0x00020074
    2298:	0000004f 	andeq	r0, r0, pc, asr #32
    229c:	12b00708 	adcsne	r0, r0, #8, 14	; 0x200000
    22a0:	10020000 	andne	r0, r2, r0
    22a4:	0000004f 	andeq	r0, r0, pc, asr #32
    22a8:	1276070c 	rsbsne	r0, r6, #12, 14	; 0x300000
    22ac:	11020000 	mrsne	r0, (UNDEF: 2)
    22b0:	0000004f 	andeq	r0, r0, pc, asr #32
    22b4:	11a20710 			; <UNDEFINED> instruction: 0x11a20710
    22b8:	12020000 	andne	r0, r2, #0
    22bc:	0000004f 	andeq	r0, r0, pc, asr #32
    22c0:	61700814 	cmnvs	r0, r4, lsl r8
    22c4:	13020064 	movwne	r0, #8292	; 0x2064
    22c8:	000000dc 	ldrdeq	r0, [r0], -ip
    22cc:	4f090018 	svcmi	0x00090018
    22d0:	ec000000 	stc	0, cr0, [r0], {-0}
    22d4:	0a000000 	beq	22dc <SCTLR_ENABLE_INSTRUCTION_CACHE+0x12dc>
    22d8:	000000ec 	andeq	r0, r0, ip, ror #1
    22dc:	04020001 	streq	r0, [r2], #-1
    22e0:	00034f07 	andeq	r4, r3, r7, lsl #30
    22e4:	7b040b00 	blvc	104eec <__first_lvl_tbl_end+0xe3eec>
    22e8:	06000000 	streq	r0, [r0], -r0
    22ec:	000012b7 			; <UNDEFINED> instruction: 0x000012b7
    22f0:	701e0224 	andsvc	r0, lr, r4, lsr #4
    22f4:	08000001 	stmdaeq	r0, {r0}
    22f8:	02005343 	andeq	r5, r0, #201326593	; 0xc000001
    22fc:	00004f20 	andeq	r4, r0, r0, lsr #30
    2300:	96070000 	strls	r0, [r7], -r0
    2304:	02000012 	andeq	r0, r0, #18
    2308:	00004f32 	andeq	r4, r0, r2, lsr pc
    230c:	54080400 	strpl	r0, [r8], #-1024	; 0xfffffc00
    2310:	33020049 	movwcc	r0, #8265	; 0x2049
    2314:	0000004f 	andeq	r0, r0, pc, asr #32
    2318:	11e40708 	mvnne	r0, r8, lsl #14
    231c:	34020000 	strcc	r0, [r2], #-0
    2320:	0000004f 	andeq	r0, r0, pc, asr #32
    2324:	1237070c 	eorsne	r0, r7, #12, 14	; 0x300000
    2328:	35020000 	strcc	r0, [r2, #-0]
    232c:	0000004f 	andeq	r0, r0, pc, asr #32
    2330:	125a0710 	subsne	r0, sl, #16, 14	; 0x400000
    2334:	36020000 	strcc	r0, [r2], -r0
    2338:	0000004f 	andeq	r0, r0, pc, asr #32
    233c:	12300714 	eorsne	r0, r0, #20, 14	; 0x500000
    2340:	37020000 	strcc	r0, [r2, -r0]
    2344:	0000004f 	andeq	r0, r0, pc, asr #32
    2348:	12630718 	rsbne	r0, r3, #24, 14	; 0x600000
    234c:	38020000 	stmdacc	r2, {}	; <UNPREDICTABLE>
    2350:	0000004f 	andeq	r0, r0, pc, asr #32
    2354:	11a7071c 			; <UNDEFINED> instruction: 0x11a7071c
    2358:	39020000 	stmdbcc	r2, {}	; <UNPREDICTABLE>
    235c:	0000004f 	andeq	r0, r0, pc, asr #32
    2360:	08020020 	stmdaeq	r2, {r5}
    2364:	00042604 	andeq	r2, r4, r4, lsl #12
    2368:	121e0c00 	andsne	r0, lr, #0, 24
    236c:	31010000 	mrscc	r0, (UNDEF: 1)
    2370:	0000935c 	andeq	r9, r0, ip, asr r3
    2374:	00000040 	andeq	r0, r0, r0, asr #32
    2378:	01b49c01 			; <UNDEFINED> instruction: 0x01b49c01
    237c:	a00d0000 	andge	r0, sp, r0
    2380:	01000012 	tsteq	r0, r2, lsl r0
    2384:	0001b433 	andeq	fp, r1, r3, lsr r4
    2388:	00700000 	rsbseq	r0, r0, r0
    238c:	127d0e3f 	rsbsne	r0, sp, #1008	; 0x3f0
    2390:	34010000 	strcc	r0, [r1], #-0
    2394:	000001ba 			; <UNDEFINED> instruction: 0x000001ba
    2398:	000009fd 	strdeq	r0, [r0], -sp
    239c:	0093900f 	addseq	r9, r3, pc
    23a0:	00055f00 	andeq	r5, r5, r0, lsl #30
    23a4:	040b0000 	streq	r0, [fp], #-0
    23a8:	0000004f 	andeq	r0, r0, pc, asr #32
    23ac:	01c0040b 	biceq	r0, r0, fp, lsl #8
    23b0:	f9050000 			; <UNDEFINED> instruction: 0xf9050000
    23b4:	0c000000 	stceq	0, cr0, [r0], {-0}
    23b8:	000012d2 	ldrdeq	r1, [r0], -r2
    23bc:	939c2c01 	orrsls	r2, ip, #256	; 0x100
    23c0:	00100000 	andseq	r0, r0, r0
    23c4:	9c010000 	stcls	0, cr0, [r1], {-0}
    23c8:	000001e4 	andeq	r0, r0, r4, ror #3
    23cc:	0093a80f 	addseq	sl, r3, pc, lsl #16
    23d0:	00055f00 	andeq	r5, r5, r0, lsl #30
    23d4:	fb100000 	blx	4023de <__kernel_end+0x2a03de>
    23d8:	01000011 	tsteq	r0, r1, lsl r0
    23dc:	0093ac0f 	addseq	sl, r3, pc, lsl #24
    23e0:	00004c00 	andeq	r4, r0, r0, lsl #24
    23e4:	4e9c0100 	fmlmie	f0, f4, f0
    23e8:	11000002 	tstne	r0, r2
    23ec:	00001206 	andeq	r1, r0, r6, lsl #4
    23f0:	024e0f01 	subeq	r0, lr, #1, 30
    23f4:	0a100000 	beq	4023fc <__kernel_end+0x2a03fc>
    23f8:	b0110000 	andslt	r0, r1, r0
    23fc:	01000012 	tsteq	r0, r2, lsl r0
    2400:	0000680f 	andeq	r6, r0, pc, lsl #16
    2404:	000a4600 	andeq	r4, sl, r0, lsl #12
    2408:	93c41200 	bicls	r1, r4, #0, 4
    240c:	001c0000 	andseq	r0, ip, r0
    2410:	023b0000 	eorseq	r0, fp, #0
    2414:	69130000 	ldmdbvs	r3, {}	; <UNPREDICTABLE>
    2418:	68120100 	ldmdavs	r2, {r8}
    241c:	72000000 	andvc	r0, r0, #0
    2420:	1400000a 	strne	r0, [r0], #-10
    2424:	000093d8 	ldrdeq	r9, [r0], -r8
    2428:	0000056a 	andeq	r0, r0, sl, ror #10
    242c:	93c41400 	bicls	r1, r4, #0, 8
    2430:	05750000 	ldrbeq	r0, [r5, #-0]!
    2434:	f00f0000 			; <UNDEFINED> instruction: 0xf00f0000
    2438:	75000093 	strvc	r0, [r0, #-147]	; 0xffffff6d
    243c:	00000005 	andeq	r0, r0, r5
    2440:	0254040b 	subseq	r0, r4, #184549376	; 0xb000000
    2444:	01020000 	mrseq	r0, (UNDEF: 2)
    2448:	00001408 	andeq	r1, r0, r8, lsl #8
    244c:	12e41000 	rscne	r1, r4, #0
    2450:	19010000 	stmdbne	r1, {}	; <UNPREDICTABLE>
    2454:	000093f8 	strdeq	r9, [r0], -r8
    2458:	00000024 	andeq	r0, r0, r4, lsr #32
    245c:	029e9c01 	addseq	r9, lr, #256	; 0x100
    2460:	06110000 	ldreq	r0, [r1], -r0
    2464:	01000012 	tsteq	r0, r2, lsl r0
    2468:	00024e19 	andeq	r4, r2, r9, lsl lr
    246c:	000a8600 	andeq	r8, sl, r0, lsl #12
    2470:	11bb1100 			; <UNDEFINED> instruction: 0x11bb1100
    2474:	19010000 	stmdbne	r1, {}	; <UNPREDICTABLE>
    2478:	0000024e 	andeq	r0, r0, lr, asr #4
    247c:	00000abe 			; <UNDEFINED> instruction: 0x00000abe
    2480:	0012b011 	andseq	fp, r2, r1, lsl r0
    2484:	68190100 	ldmdavs	r9, {r8}
    2488:	dc000000 	stcle	0, cr0, [r0], {-0}
    248c:	0000000a 	andeq	r0, r0, sl
    2490:	00124b10 	andseq	r4, r2, r0, lsl fp
    2494:	1c240100 	stfnes	f0, [r4], #-0
    2498:	1c000094 	stcne	0, cr0, [r0], {148}	; 0x94
    249c:	01000000 	mrseq	r0, (UNDEF: 0)
    24a0:	0002fb9c 	muleq	r2, ip, fp
    24a4:	119d1500 	orrsne	r1, sp, r0, lsl #10
    24a8:	24010000 	strcs	r0, [r1], #-0
    24ac:	000002fb 	strdeq	r0, [r0], -fp
    24b0:	c8115001 	ldmdagt	r1, {r0, ip, lr}
    24b4:	01000012 	tsteq	r0, r2, lsl r0
    24b8:	00004f24 	andeq	r4, r0, r4, lsr #30
    24bc:	000b3000 	andeq	r3, fp, r0
    24c0:	05cd1100 	strbeq	r1, [sp, #256]	; 0x100
    24c4:	24010000 	strcs	r0, [r1], #-0
    24c8:	0000004f 	andeq	r0, r0, pc, asr #32
    24cc:	00000b51 	andeq	r0, r0, r1, asr fp
    24d0:	72756313 	rsbsvc	r6, r5, #1275068416	; 0x4c000000
    24d4:	4f260100 	svcmi	0x00260100
    24d8:	72000000 	andvc	r0, r0, #0
    24dc:	1600000b 	strne	r0, [r0], -fp
    24e0:	0077656e 	rsbseq	r6, r7, lr, ror #10
    24e4:	004f2701 	subeq	r2, pc, r1, lsl #14
    24e8:	53010000 	movwpl	r0, #4096	; 0x1000
    24ec:	76040b00 	strvc	r0, [r4], -r0, lsl #22
    24f0:	17000000 	strne	r0, [r0, -r0]
    24f4:	000011ad 	andeq	r1, r0, sp, lsr #3
    24f8:	94383901 	ldrtls	r3, [r8], #-2305	; 0xfffff6ff
    24fc:	02480000 	subeq	r0, r8, #0
    2500:	9c010000 	stcls	0, cr0, [r1], {-0}
    2504:	00000512 	andeq	r0, r0, r2, lsl r5
    2508:	0012f118 	andseq	pc, r2, r8, lsl r1	; <UNPREDICTABLE>
    250c:	123e0100 	eorsne	r0, lr, #0, 2
    2510:	02000005 	andeq	r0, r0, #5
    2514:	ab194c91 	blge	655760 <__kernel_end+0x4f3760>
    2518:	01000012 	tsteq	r0, r2, lsl r0
    251c:	00006840 	andeq	r6, r0, r0, asr #16
    2520:	e91a0c00 	ldmdb	sl, {sl, fp}
    2524:	01000012 	tsteq	r0, r2, lsl r0
    2528:	00024e43 	andeq	r4, r2, r3, asr #28
    252c:	62631b00 	rsbvs	r1, r3, #0, 22
    2530:	52010031 	andpl	r0, r1, #49	; 0x31
    2534:	000000f3 	strdeq	r0, [r0], -r3
    2538:	3262631b 	rsbcc	r6, r2, #1811939328	; 0x6c000000
    253c:	f3540100 	vrhadd.u16	d16, d4, d0
    2540:	0d000000 	stceq	0, cr0, [r0, #-0]
    2544:	000012a0 	andeq	r1, r0, r0, lsr #5
    2548:	01b46701 			; <UNDEFINED> instruction: 0x01b46701
    254c:	70000000 	andvc	r0, r0, r0
    2550:	7d0e3f00 	stcvc	15, cr3, [lr, #-0]
    2554:	01000012 	tsteq	r0, r2, lsl r0
    2558:	0001ba6c 	andeq	fp, r1, ip, ror #20
    255c:	000b8500 	andeq	r8, fp, r0, lsl #10
    2560:	31611c00 	cmncc	r1, r0, lsl #24
    2564:	6f700100 	svcvs	0x00700100
    2568:	d8000000 	stmdale	r0, {}	; <UNPREDICTABLE>
    256c:	00611cd6 	ldrdeq	r1, [r1], #-198	; 0xffffff3a	; <UNPREDICTABLE>
    2570:	006f7e01 	rsbeq	r7, pc, r1, lsl #28
    2574:	d6d80000 	ldrble	r0, [r8], r0
    2578:	0094601d 	addseq	r6, r4, sp, lsl r0
    257c:	00058000 	andeq	r8, r5, r0
    2580:	00039900 	andeq	r9, r3, r0, lsl #18
    2584:	50011e00 	andpl	r1, r1, r0, lsl #28
    2588:	14004401 	strne	r4, [r0], #-1025	; 0xfffffbff
    258c:	000094a0 	andeq	r9, r0, r0, lsr #9
    2590:	00000575 	andeq	r0, r0, r5, ror r5
    2594:	0094b41d 	addseq	fp, r4, sp, lsl r4
    2598:	0001e400 	andeq	lr, r1, r0, lsl #8
    259c:	0003bc00 	andeq	fp, r3, r0, lsl #24
    25a0:	50011e00 	andpl	r1, r1, r0, lsl #28
    25a4:	1e007b02 	vmlane.f64	d7, d0, d2
    25a8:	76025101 	strvc	r5, [r2], -r1, lsl #2
    25ac:	c41d0000 	ldrgt	r0, [sp], #-0
    25b0:	5b000094 	blpl	2808 <SCTLR_ENABLE_INSTRUCTION_CACHE+0x1808>
    25b4:	dc000002 	stcle	0, cr0, [r0], {2}
    25b8:	1e000003 	cdpne	0, 0, cr0, cr0, cr3, {0}
    25bc:	91025001 	tstls	r2, r1
    25c0:	51011e44 	tstpl	r1, r4, asr #28
    25c4:	1e007b02 	vmlane.f64	d7, d0, d2
    25c8:	76025201 	strvc	r5, [r2], -r1, lsl #4
    25cc:	d0140000 	andsle	r0, r4, r0
    25d0:	75000094 	strvc	r0, [r0, #-148]	; 0xffffff6c
    25d4:	1d000005 	stcne	0, cr0, [r0, #-20]	; 0xffffffec
    25d8:	000094dc 	ldrdeq	r9, [r0], -ip
    25dc:	000001e4 	andeq	r0, r0, r4, ror #3
    25e0:	000003ff 	strdeq	r0, [r0], -pc	; <UNPREDICTABLE>
    25e4:	0250011e 	subseq	r0, r0, #-2147483641	; 0x80000007
    25e8:	011e007b 	tsteq	lr, fp, ror r0
    25ec:	00760251 	rsbseq	r0, r6, r1, asr r2
    25f0:	94e41d00 	strbtls	r1, [r4], #3328	; 0xd00
    25f4:	05750000 	ldrbeq	r0, [r5, #-0]!
    25f8:	04130000 	ldreq	r0, [r3], #-0
    25fc:	011e0000 	tsteq	lr, r0
    2600:	00740250 	rsbseq	r0, r4, r0, asr r2
    2604:	94f81d00 	ldrbtls	r1, [r8], #3328	; 0xd00
    2608:	01e40000 	mvneq	r0, r0
    260c:	042d0000 	strteq	r0, [sp], #-0
    2610:	011e0000 	tsteq	lr, r0
    2614:	00780250 	rsbseq	r0, r8, r0, asr r2
    2618:	0251011e 	subseq	r0, r1, #-2147483641	; 0x80000007
    261c:	1d000076 	stcne	0, cr0, [r0, #-472]	; 0xfffffe28
    2620:	00009500 	andeq	r9, r0, r0, lsl #10
    2624:	00000575 	andeq	r0, r0, r5, ror r5
    2628:	00000441 	andeq	r0, r0, r1, asr #8
    262c:	0250011e 	subseq	r0, r0, #-2147483641	; 0x80000007
    2630:	1d000074 	stcne	0, cr0, [r0, #-464]	; 0xfffffe30
    2634:	00009514 	andeq	r9, r0, r4, lsl r5
    2638:	000001e4 	andeq	r0, r0, r4, ror #3
    263c:	0000045b 	andeq	r0, r0, fp, asr r4
    2640:	0250011e 	subseq	r0, r0, #-2147483641	; 0x80000007
    2644:	011e0077 	tsteq	lr, r7, ror r0
    2648:	00760251 	rsbseq	r0, r6, r1, asr r2
    264c:	956c1d00 	strbls	r1, [ip, #-3328]!	; 0xfffff300
    2650:	055f0000 	ldrbeq	r0, [pc, #-0]	; 2658 <SCTLR_ENABLE_INSTRUCTION_CACHE+0x1658>
    2654:	046f0000 	strbteq	r0, [pc], #-0	; 265c <SCTLR_ENABLE_INSTRUCTION_CACHE+0x165c>
    2658:	011e0000 	tsteq	lr, r0
    265c:	00740251 	rsbseq	r0, r4, r1, asr r2
    2660:	957c1d00 	ldrbls	r1, [ip, #-3328]!	; 0xfffff300
    2664:	055f0000 	ldrbeq	r0, [pc, #-0]	; 266c <SCTLR_ENABLE_INSTRUCTION_CACHE+0x166c>
    2668:	04830000 	streq	r0, [r3], #0
    266c:	011e0000 	tsteq	lr, r0
    2670:	007b0251 	rsbseq	r0, fp, r1, asr r2
    2674:	959c1400 	ldrls	r1, [ip, #1024]	; 0x400
    2678:	029e0000 	addseq	r0, lr, #0
    267c:	c0140000 	andsgt	r0, r4, r0
    2680:	75000095 	strvc	r0, [r0, #-149]	; 0xffffff6b
    2684:	14000005 	strne	r0, [r0], #-5
    2688:	000095d4 	ldrdeq	r9, [r0], -r4
    268c:	00000575 	andeq	r0, r0, r5, ror r5
    2690:	0095e414 	addseq	lr, r5, r4, lsl r4
    2694:	00057500 	andeq	r7, r5, r0, lsl #10
    2698:	95f41400 	ldrbls	r1, [r4, #1024]!	; 0x400
    269c:	05750000 	ldrbeq	r0, [r5, #-0]!
    26a0:	00140000 	andseq	r0, r4, r0
    26a4:	75000096 	strvc	r0, [r0, #-150]	; 0xffffff6a
    26a8:	1d000005 	stcne	0, cr0, [r0, #-20]	; 0xffffffec
    26ac:	00009608 	andeq	r9, r0, r8, lsl #12
    26b0:	00000575 	andeq	r0, r0, r5, ror r5
    26b4:	000004cd 	andeq	r0, r0, sp, asr #9
    26b8:	0250011e 	subseq	r0, r0, #-2147483641	; 0x80000007
    26bc:	1d00007a 	stcne	0, cr0, [r0, #-488]	; 0xfffffe18
    26c0:	00009614 	andeq	r9, r0, r4, lsl r6
    26c4:	000001e4 	andeq	r0, r0, r4, ror #3
    26c8:	000004e7 	andeq	r0, r0, r7, ror #9
    26cc:	0250011e 	subseq	r0, r0, #-2147483641	; 0x80000007
    26d0:	011e0078 	tsteq	lr, r8, ror r0
    26d4:	00760251 	rsbseq	r0, r6, r1, asr r2
    26d8:	961c1d00 	ldrls	r1, [ip], -r0, lsl #26
    26dc:	05750000 	ldrbeq	r0, [r5, #-0]!
    26e0:	04fb0000 	ldrbteq	r0, [fp], #0
    26e4:	011e0000 	tsteq	lr, r0
    26e8:	007a0250 	rsbseq	r0, sl, r0, asr r2
    26ec:	96281f00 	strtls	r1, [r8], -r0, lsl #30
    26f0:	01e40000 	mvneq	r0, r0
    26f4:	011e0000 	tsteq	lr, r0
    26f8:	00770250 	rsbseq	r0, r7, r0, asr r2
    26fc:	0251011e 	subseq	r0, r1, #-2147483641	; 0x80000007
    2700:	00000076 	andeq	r0, r0, r6, ror r0
    2704:	00025409 	andeq	r5, r2, r9, lsl #8
    2708:	00052200 	andeq	r2, r5, r0, lsl #4
    270c:	00ec0a00 	rsceq	r0, ip, r0, lsl #20
    2710:	000b0000 	andeq	r0, fp, r0
    2714:	00120f20 	andseq	r0, r2, r0, lsr #30
    2718:	68060100 	stmdavs	r6, {r8}
    271c:	20000000 	andcs	r0, r0, r0
    2720:	000011c4 	andeq	r1, r0, r4, asr #3
    2724:	00680701 	rsbeq	r0, r8, r1, lsl #14
    2728:	d4200000 	strtle	r0, [r0], #-0
    272c:	01000011 	tsteq	r0, r1, lsl r0
    2730:	00006808 	andeq	r6, r0, r8, lsl #16
    2734:	123f2000 	eorsne	r2, pc, #0
    2738:	09010000 	stmdbeq	r1, {}	; <UNPREDICTABLE>
    273c:	00000068 	andeq	r0, r0, r8, rrx
    2740:	00126d21 	andseq	r6, r2, r1, lsr #26
    2744:	680d0100 	stmdavs	sp, {r8}
    2748:	05000000 	streq	r0, [r0, #-0]
    274c:	00c00003 	sbceq	r0, r0, r3
    2750:	048a2200 	streq	r2, [sl], #512	; 0x200
    2754:	048a0000 	streq	r0, [sl], #0
    2758:	0c030000 	stceq	0, cr0, [r3], {-0}
    275c:	00118822 	andseq	r8, r1, r2, lsr #16
    2760:	00118800 	andseq	r8, r1, r0, lsl #16
    2764:	222a0400 	eorcs	r0, sl, #0, 8
    2768:	00000519 	andeq	r0, r0, r9, lsl r5
    276c:	00000519 	andeq	r0, r0, r9, lsl r5
    2770:	99222c04 	stmdbls	r2!, {r2, sl, fp, sp}
    2774:	99000003 	stmdbls	r0, {r0, r1}
    2778:	05000003 	streq	r0, [r0, #-3]
    277c:	0a50005d 	beq	14028f8 <__kernel_end+0x12a08f8>
    2780:	00040000 	andeq	r0, r4, r0
    2784:	00000f20 	andeq	r0, r0, r0, lsr #30
    2788:	00640104 	rsbeq	r0, r4, r4, lsl #2
    278c:	920c0000 	andls	r0, ip, #0
    2790:	1a000014 	bne	27e8 <SCTLR_ENABLE_INSTRUCTION_CACHE+0x17e8>
    2794:	80000001 	andhi	r0, r0, r1
    2798:	04000096 	streq	r0, [r0], #-150	; 0xffffff6a
    279c:	72000003 	andvc	r0, r0, #3
    27a0:	0200000f 	andeq	r0, r0, #15
    27a4:	004d0708 	subeq	r0, sp, r8, lsl #14
    27a8:	01020000 	mrseq	r0, (UNDEF: 2)
    27ac:	00000d06 	andeq	r0, r0, r6, lsl #26
    27b0:	05020200 	streq	r0, [r2, #-512]	; 0xfffffe00
    27b4:	0000016b 	andeq	r0, r0, fp, ror #2
    27b8:	00017603 	andeq	r7, r1, r3, lsl #12
    27bc:	45280200 	strmi	r0, [r8, #-512]!	; 0xfffffe00
    27c0:	02000000 	andeq	r0, r0, #0
    27c4:	01110504 	tsteq	r1, r4, lsl #10
    27c8:	08020000 	stmdaeq	r2, {}	; <UNPREDICTABLE>
    27cc:	00010c05 	andeq	r0, r1, r5, lsl #24
    27d0:	036a0300 	cmneq	sl, #0, 6
    27d4:	2e020000 	cdpcs	0, 0, cr0, cr2, cr0, {0}
    27d8:	0000005e 	andeq	r0, r0, lr, asr r0
    27dc:	0b080102 	bleq	202bec <__kernel_end+0xa0bec>
    27e0:	02000000 	andeq	r0, r0, #0
    27e4:	00190702 	andseq	r0, r9, r2, lsl #14
    27e8:	75030000 	strvc	r0, [r3, #-0]
    27ec:	02000001 	andeq	r0, r0, #1
    27f0:	00007734 	andeq	r7, r0, r4, lsr r7
    27f4:	07040200 	streq	r0, [r4, -r0, lsl #4]
    27f8:	00000052 	andeq	r0, r0, r2, asr r0
    27fc:	000d4403 	andeq	r4, sp, r3, lsl #8
    2800:	25370200 	ldrcs	r0, [r7, #-512]!	; 0xfffffe00
    2804:	04000000 	streq	r0, [r0], #-0
    2808:	6e690504 	cdpvs	5, 6, cr0, cr9, cr4, {0}
    280c:	04020074 	streq	r0, [r2], #-116	; 0xffffff8c
    2810:	00005707 	andeq	r5, r0, r7, lsl #14
    2814:	006c0500 	rsbeq	r0, ip, r0, lsl #10
    2818:	ae060000 	cdpge	0, 0, cr0, cr6, cr0, {0}
    281c:	02000014 	andeq	r0, r0, #20
    2820:	00000065 	andeq	r0, r0, r5, rrx
    2824:	014c0d03 	cmpeq	ip, r3, lsl #26
    2828:	80070000 	andhi	r0, r7, r0
    282c:	00000017 	andeq	r0, r0, r7, lsl r0
    2830:	00155f07 	andseq	r5, r5, r7, lsl #30
    2834:	c7070400 	strgt	r0, [r7, -r0, lsl #8]
    2838:	08000013 	stmdaeq	r0, {r0, r1, r4}
    283c:	00132f07 	andseq	r2, r3, r7, lsl #30
    2840:	25070c00 	strcs	r0, [r7, #-3072]	; 0xfffff400
    2844:	10000015 	andne	r0, r0, r5, lsl r0
    2848:	00132207 	andseq	r2, r3, r7, lsl #4
    284c:	14071400 	strne	r1, [r7], #-1024	; 0xfffffc00
    2850:	18000014 	stmdane	r0, {r2, r4}
    2854:	0014d107 	andseq	sp, r4, r7, lsl #2
    2858:	a2071c00 	andge	r1, r7, #0, 24
    285c:	20000015 	andcs	r0, r0, r5, lsl r0
    2860:	00134107 	andseq	r4, r3, r7, lsl #2
    2864:	30072400 	andcc	r2, r7, r0, lsl #8
    2868:	28000016 	stmdacs	r0, {r1, r2, r4}
    286c:	0014ff07 	andseq	pc, r4, r7, lsl #30
    2870:	7f072c00 	svcvc	0x00072c00
    2874:	30000014 	andcc	r0, r0, r4, lsl r0
    2878:	00146107 	andseq	r6, r4, r7, lsl #2
    287c:	d8073400 	stmdale	r7, {sl, ip, sp}
    2880:	38000013 	stmdacc	r0, {r0, r1, r4}
    2884:	0013ce07 	andseq	ip, r3, r7, lsl #28
    2888:	96073c00 	strls	r3, [r7], -r0, lsl #24
    288c:	40000015 	andmi	r0, r0, r5, lsl r0
    2890:	00155307 	andseq	r5, r5, r7, lsl #6
    2894:	70074400 	andvc	r4, r7, r0, lsl #8
    2898:	48000013 	stmdami	r0, {r0, r1, r4}
    289c:	00167607 	andseq	r7, r6, r7, lsl #12
    28a0:	eb078000 	bl	1e28a8 <__kernel_end+0x808a8>
    28a4:	84000016 	strhi	r0, [r0], #-22	; 0xffffffea
    28a8:	0016bb07 	andseq	fp, r6, r7, lsl #22
    28ac:	52078400 	andpl	r8, r7, #0, 8
    28b0:	88000014 	stmdahi	r0, {r2, r4}
    28b4:	0015b008 	andseq	fp, r5, r8
    28b8:	08010000 	stmdaeq	r1, {}	; <UNPREDICTABLE>
    28bc:	0000176c 	andeq	r1, r0, ip, ror #14
    28c0:	af080104 	svcge	0x00080104
    28c4:	00000013 	andeq	r0, r0, r3, lsl r0
    28c8:	4e06000e 	cdpmi	0, 0, cr0, cr6, cr14, {0}
    28cc:	01000016 	tsteq	r0, r6, lsl r0
    28d0:	0000005e 	andeq	r0, r0, lr, asr r0
    28d4:	01693203 	cmneq	r9, r3, lsl #4
    28d8:	54070000 	strpl	r0, [r7], #-0
    28dc:	00000016 	andeq	r0, r0, r6, lsl r0
    28e0:	0013aa07 	andseq	sl, r3, r7, lsl #20
    28e4:	09000100 	stmdbeq	r0, {r8}
    28e8:	072e0304 	streq	r0, [lr, -r4, lsl #6]!
    28ec:	0a000003 	beq	2900 <SCTLR_ENABLE_INSTRUCTION_CACHE+0x1900>
    28f0:	00001603 	andeq	r1, r0, r3, lsl #12
    28f4:	03073003 	movweq	r3, #28675	; 0x7003
    28f8:	03040000 	movweq	r0, #16384	; 0x4000
    28fc:	890a001d 	stmdbhi	sl, {r0, r2, r3, r4}
    2900:	03000015 	movweq	r0, #21
    2904:	00031331 	andeq	r1, r3, r1, lsr r3
    2908:	04010100 	streq	r0, [r1], #-256	; 0xffffff00
    290c:	14470a00 	strbne	r0, [r7], #-2560	; 0xfffff600
    2910:	35030000 	strcc	r0, [r3, #-0]
    2914:	00000318 	andeq	r0, r0, r8, lsl r3
    2918:	00030101 	andeq	r0, r3, r1, lsl #2
    291c:	00156f0a 	andseq	r6, r5, sl, lsl #30
    2920:	13360300 	teqne	r6, #0, 6
    2924:	01000003 	tsteq	r0, r3
    2928:	0a000201 	beq	3134 <SCTLR_ENABLE_INSTRUCTION_CACHE+0x2134>
    292c:	0000135f 	andeq	r1, r0, pc, asr r3
    2930:	03133703 	tsteq	r3, #786432	; 0xc0000
    2934:	01010000 	mrseq	r0, (UNDEF: 1)
    2938:	470a0001 	strmi	r0, [sl, -r1]
    293c:	03000016 	movweq	r0, #22
    2940:	00031338 	andeq	r1, r3, r8, lsr r3
    2944:	00010100 	andeq	r0, r1, r0, lsl #2
    2948:	13360a00 	teqne	r6, #0, 20
    294c:	39030000 	stmdbcc	r3, {}	; <UNPREDICTABLE>
    2950:	00000313 	andeq	r0, r0, r3, lsl r3
    2954:	01070101 	tsteq	r7, r1, lsl #2
    2958:	0016590a 	andseq	r5, r6, sl, lsl #18
    295c:	133a0300 	teqne	sl, #0, 6
    2960:	01000003 	tsteq	r0, r3
    2964:	0a010601 	beq	44170 <__first_lvl_tbl_end+0x23170>
    2968:	00001366 	andeq	r1, r0, r6, ror #6
    296c:	03073b03 	movweq	r3, #31491	; 0x7b03
    2970:	04040000 	streq	r0, [r4], #-0
    2974:	ed0a0012 	stc	0, cr0, [sl, #-72]	; 0xffffffb8
    2978:	03000006 	movweq	r0, #6
    297c:	0003073c 	andeq	r0, r3, ip, lsr r7
    2980:	11010400 	tstne	r1, r0, lsl #8
    2984:	161a0a00 	ldrne	r0, [sl], -r0, lsl #20
    2988:	3d030000 	stccc	0, cr0, [r3, #-0]
    298c:	00000313 	andeq	r0, r0, r3, lsl r3
    2990:	01000101 	tsteq	r0, r1, lsl #2
    2994:	0016de0a 	andseq	sp, r6, sl, lsl #28
    2998:	133e0300 	teqne	lr, #0, 6
    299c:	01000003 	tsteq	r0, r3
    29a0:	0a020701 	beq	845ac <__first_lvl_tbl_end+0x635ac>
    29a4:	00001763 	andeq	r1, r0, r3, ror #14
    29a8:	03133f03 	tsteq	r3, #3, 30
    29ac:	01010000 	mrseq	r0, (UNDEF: 1)
    29b0:	d00a0206 	andle	r0, sl, r6, lsl #4
    29b4:	03000016 	movweq	r0, #22
    29b8:	00031340 	andeq	r1, r3, r0, asr #6
    29bc:	05010100 	streq	r0, [r1, #-256]	; 0xffffff00
    29c0:	149f0a02 	ldrne	r0, [pc], #2562	; 29c8 <SCTLR_ENABLE_INSTRUCTION_CACHE+0x19c8>
    29c4:	41030000 	mrsmi	r0, (UNDEF: 3)
    29c8:	00000313 	andeq	r0, r0, r3, lsl r3
    29cc:	02040101 	andeq	r0, r4, #1073741824	; 0x40000000
    29d0:	0012fc0a 	andseq	pc, r2, sl, lsl #24
    29d4:	13420300 	movtne	r0, #8960	; 0x2300
    29d8:	01000003 	tsteq	r0, r3
    29dc:	0a020301 	beq	835e8 <__first_lvl_tbl_end+0x625e8>
    29e0:	0000152e 	andeq	r1, r0, lr, lsr #10
    29e4:	03134303 	tsteq	r3, #201326592	; 0xc000000
    29e8:	01010000 	mrseq	r0, (UNDEF: 1)
    29ec:	760a0202 	strvc	r0, [sl], -r2, lsl #4
    29f0:	03000015 	movweq	r0, #21
    29f4:	00031344 	andeq	r1, r3, r4, asr #6
    29f8:	01010100 	mrseq	r0, (UNDEF: 17)
    29fc:	14bc0a02 	ldrtne	r0, [ip], #2562	; 0xa02
    2a00:	45030000 	strmi	r0, [r3, #-0]
    2a04:	00000313 	andeq	r0, r0, r3, lsl r3
    2a08:	02000101 	andeq	r0, r0, #1073741824	; 0x40000000
    2a0c:	0015ec0a 	andseq	lr, r5, sl, lsl #24
    2a10:	13460300 	movtne	r0, #25344	; 0x6300
    2a14:	01000003 	tsteq	r0, r3
    2a18:	0a030701 	beq	c4624 <__first_lvl_tbl_end+0xa3624>
    2a1c:	000015c4 	andeq	r1, r0, r4, asr #11
    2a20:	03134703 	tsteq	r3, #786432	; 0xc0000
    2a24:	01010000 	mrseq	r0, (UNDEF: 1)
    2a28:	500a0306 	andpl	r0, sl, r6, lsl #6
    2a2c:	03000013 	movweq	r0, #19
    2a30:	00031348 	andeq	r1, r3, r8, asr #6
    2a34:	05010100 	streq	r0, [r1, #-256]	; 0xffffff00
    2a38:	16950a03 	ldrne	r0, [r5], r3, lsl #20
    2a3c:	49030000 	stmdbmi	r3, {}	; <UNPREDICTABLE>
    2a40:	00000313 	andeq	r0, r0, r3, lsl r3
    2a44:	03040101 	movweq	r0, #16641	; 0x4101
    2a48:	0015180a 	andseq	r1, r5, sl, lsl #16
    2a4c:	134a0300 	movtne	r0, #41728	; 0xa300
    2a50:	01000003 	tsteq	r0, r3
    2a54:	0a030301 	beq	c3660 <__first_lvl_tbl_end+0xa2660>
    2a58:	00001312 	andeq	r1, r0, r2, lsl r3
    2a5c:	03134b03 	tsteq	r3, #3072	; 0xc00
    2a60:	01010000 	mrseq	r0, (UNDEF: 1)
    2a64:	ac0a0302 	stcge	3, cr0, [sl], {2}
    2a68:	03000016 	movweq	r0, #22
    2a6c:	0003134c 	andeq	r1, r3, ip, asr #6
    2a70:	01010100 	mrseq	r0, (UNDEF: 17)
    2a74:	139e0a03 	orrsne	r0, lr, #12288	; 0x3000
    2a78:	4d030000 	stcmi	0, cr0, [r3, #-0]
    2a7c:	00000307 	andeq	r0, r0, r7, lsl #6
    2a80:	00000104 	andeq	r0, r0, r4, lsl #2
    2a84:	00900500 	addseq	r0, r0, r0, lsl #10
    2a88:	01020000 	mrseq	r0, (UNDEF: 2)
    2a8c:	00162a02 	andseq	r2, r6, r2, lsl #20
    2a90:	030c0500 	movweq	r0, #50432	; 0xc500
    2a94:	4c050000 	stcmi	0, cr0, [r5], {-0}
    2a98:	0b000001 	bleq	2aa4 <SCTLR_ENABLE_INSTRUCTION_CACHE+0x1aa4>
    2a9c:	362d0304 	strtcc	r0, [sp], -r4, lsl #6
    2aa0:	0c000003 	stceq	0, cr0, [r0], {3}
    2aa4:	00000169 	andeq	r0, r0, r9, ror #2
    2aa8:	00160b0d 	andseq	r0, r6, sp, lsl #22
    2aac:	974f0300 	strbls	r0, [pc, -r0, lsl #6]
    2ab0:	00000000 	andeq	r0, r0, r0
    2ab4:	0013e00e 	andseq	lr, r3, lr
    2ab8:	2b030400 	blcs	c3ac0 <__first_lvl_tbl_end+0xa2ac0>
    2abc:	00000349 	andeq	r0, r0, r9, asr #6
    2ac0:	00031d0f 	andeq	r1, r3, pc, lsl #26
    2ac4:	09000000 	stmdbeq	r0, {}	; <UNPREDICTABLE>
    2ac8:	e8560304 	ldmda	r6, {r2, r8, r9}^
    2acc:	0a000003 	beq	2ae0 <SCTLR_ENABLE_INSTRUCTION_CACHE+0x1ae0>
    2ad0:	00001710 	andeq	r1, r0, r0, lsl r7
    2ad4:	03135803 	tsteq	r3, #196608	; 0x30000
    2ad8:	01010000 	mrseq	r0, (UNDEF: 1)
    2adc:	110a0007 	tstne	sl, r7
    2ae0:	03000016 	movweq	r0, #22
    2ae4:	00031359 	andeq	r1, r3, r9, asr r3
    2ae8:	06010100 	streq	r0, [r1], -r0, lsl #2
    2aec:	14e00a00 	strbtne	r0, [r0], #2560	; 0xa00
    2af0:	5a030000 	bpl	c2af8 <__first_lvl_tbl_end+0xa1af8>
    2af4:	00000313 	andeq	r0, r0, r3, lsl r3
    2af8:	00050101 	andeq	r0, r5, r1, lsl #2
    2afc:	00172b0a 	andseq	r2, r7, sl, lsl #22
    2b00:	135b0300 	cmpne	fp, #0, 6
    2b04:	01000003 	tsteq	r0, r3
    2b08:	0a000401 	beq	3b14 <SCTLR_ENABLE_INSTRUCTION_CACHE+0x2b14>
    2b0c:	00001403 	andeq	r1, r0, r3, lsl #8
    2b10:	03135c03 	tsteq	r3, #768	; 0x300
    2b14:	01010000 	mrseq	r0, (UNDEF: 1)
    2b18:	640a0003 	strvs	r0, [sl], #-3
    2b1c:	03000016 	movweq	r0, #22
    2b20:	0003135d 	andeq	r1, r3, sp, asr r3
    2b24:	02010100 	andeq	r0, r1, #0, 2
    2b28:	142f0a00 	strtne	r0, [pc], #-2560	; 2b30 <SCTLR_ENABLE_INSTRUCTION_CACHE+0x1b30>
    2b2c:	5e030000 	cdppl	0, 0, cr0, cr3, cr0, {0}
    2b30:	00000307 	andeq	r0, r0, r7, lsl #6
    2b34:	00150504 	andseq	r0, r5, r4, lsl #10
    2b38:	0017490a 	andseq	r4, r7, sl, lsl #18
    2b3c:	075f0300 	ldrbeq	r0, [pc, -r0, lsl #6]
    2b40:	04000003 	streq	r0, [r0], #-3
    2b44:	0a000213 	beq	3398 <SCTLR_ENABLE_INSTRUCTION_CACHE+0x2398>
    2b48:	0000178e 	andeq	r1, r0, lr, lsl #15
    2b4c:	03136003 	tsteq	r3, #3
    2b50:	01010000 	mrseq	r0, (UNDEF: 1)
    2b54:	f10a0301 			; <UNDEFINED> instruction: 0xf10a0301
    2b58:	03000014 	movweq	r0, #20
    2b5c:	00031361 	andeq	r1, r3, r1, ror #6
    2b60:	00010100 	andeq	r0, r1, r0, lsl #2
    2b64:	040b0003 	streq	r0, [fp], #-3
    2b68:	04015503 	streq	r5, [r1], #-1283	; 0xfffffafd
    2b6c:	490c0000 	stmdbmi	ip, {}	; <UNPREDICTABLE>
    2b70:	0d000003 	stceq	0, cr0, [r0, #-12]
    2b74:	0000160b 	andeq	r1, r0, fp, lsl #12
    2b78:	00976303 	addseq	r6, r7, r3, lsl #6
    2b7c:	0e000000 	cdpeq	0, 0, cr0, cr0, cr0, {0}
    2b80:	0000138c 	andeq	r1, r0, ip, lsl #7
    2b84:	14530304 	ldrbne	r0, [r3], #-772	; 0xfffffcfc
    2b88:	0f000004 	svceq	0x00000004
    2b8c:	000003e8 	andeq	r0, r0, r8, ror #7
    2b90:	08020000 	stmdaeq	r2, {}	; <UNPREDICTABLE>
    2b94:	00042604 	andeq	r2, r4, r4, lsl #12
    2b98:	90041000 	andls	r1, r4, r0
    2b9c:	04000000 	streq	r0, [r0], #-0
    2ba0:	0006610d 	andeq	r6, r6, sp, lsl #2
    2ba4:	0acd0700 	beq	ff3447ac <__kernel_end+0xff1e27ac>
    2ba8:	11010000 	mrsne	r0, (UNDEF: 1)
    2bac:	00000ab9 			; <UNDEFINED> instruction: 0x00000ab9
    2bb0:	00010001 	andeq	r0, r1, r1
    2bb4:	00072e11 	andeq	r2, r7, r1, lsl lr
    2bb8:	01000200 	mrseq	r0, R8_usr
    2bbc:	0c9e1100 	ldfeqs	f1, [lr], {0}
    2bc0:	00030000 	andeq	r0, r3, r0
    2bc4:	19110001 	ldmdbne	r1, {r0}
    2bc8:	04000007 	streq	r0, [r0], #-7
    2bcc:	11000100 	mrsne	r0, (UNDEF: 16)
    2bd0:	00000961 	andeq	r0, r0, r1, ror #18
    2bd4:	00010005 	andeq	r0, r1, r5
    2bd8:	00080e11 	andeq	r0, r8, r1, lsl lr
    2bdc:	01000600 	tsteq	r0, r0, lsl #12
    2be0:	0bdc1100 	bleq	ff706fe8 <__kernel_end+0xff5a4fe8>
    2be4:	00070000 	andeq	r0, r7, r0
    2be8:	a4110001 	ldrge	r0, [r1], #-1
    2bec:	0100000a 	tsteq	r0, sl
    2bf0:	11000500 	tstne	r0, r0, lsl #10
    2bf4:	00000cc6 	andeq	r0, r0, r6, asr #25
    2bf8:	00060001 	andeq	r0, r6, r1
    2bfc:	000cfe11 	andeq	pc, ip, r1, lsl lr	; <UNPREDICTABLE>
    2c00:	02000100 	andeq	r0, r0, #0, 2
    2c04:	0d191100 	ldfeqs	f1, [r9, #-0]
    2c08:	00020000 	andeq	r0, r2, r0
    2c0c:	aa110002 	bge	442c1c <__kernel_end+0x2e0c1c>
    2c10:	01000009 	tsteq	r0, r9
    2c14:	11000280 	smlabbne	r0, r0, r2, r0
    2c18:	00000b65 	andeq	r0, r0, r5, ror #22
    2c1c:	00030001 	andeq	r0, r3, r1
    2c20:	00083211 	andeq	r3, r8, r1, lsl r2
    2c24:	03800100 	orreq	r0, r0, #0, 2
    2c28:	07dd1100 	ldrbeq	r1, [sp, r0, lsl #2]
    2c2c:	00020000 	andeq	r0, r2, r0
    2c30:	52110003 	andspl	r0, r1, #3
    2c34:	0200000b 	andeq	r0, r0, #11
    2c38:	11000380 	smlabbne	r0, r0, r3, r0
    2c3c:	000008a0 	andeq	r0, r0, r0, lsr #17
    2c40:	00030004 	andeq	r0, r3, r4
    2c44:	00074511 	andeq	r4, r7, r1, lsl r5
    2c48:	03000700 	movweq	r0, #1792	; 0x700
    2c4c:	0cb81100 	ldfeqs	f1, [r8]
    2c50:	00090000 	andeq	r0, r9, r0
    2c54:	79110003 	ldmdbvc	r1, {r0, r1}
    2c58:	0900000b 	stmdbeq	r0, {r0, r1, r3}
    2c5c:	11000380 	smlabbne	r0, r0, r3, r0
    2c60:	00000a34 	andeq	r0, r0, r4, lsr sl
    2c64:	00030003 	andeq	r0, r3, r3
    2c68:	0007cd11 	andeq	ip, r7, r1, lsl sp
    2c6c:	03800300 	orreq	r0, r0, #0, 6
    2c70:	0b3e1100 	bleq	f87078 <__kernel_end+0xe25078>
    2c74:	00050000 	andeq	r0, r5, r0
    2c78:	c8110003 	ldmdagt	r1, {r0, r1}
    2c7c:	0800000b 	stmdaeq	r0, {r0, r1, r3}
    2c80:	11000300 	mrsne	r0, LR_irq
    2c84:	000007a6 	andeq	r0, r0, r6, lsr #15
    2c88:	00030006 	andeq	r0, r3, r6
    2c8c:	000af011 	andeq	pc, sl, r1, lsl r0	; <UNPREDICTABLE>
    2c90:	03000a00 	movweq	r0, #2560	; 0xa00
    2c94:	0b2a1100 	bleq	a8709c <__kernel_end+0x92509c>
    2c98:	000c0000 	andeq	r0, ip, r0
    2c9c:	be110003 	cdplt	0, 1, cr0, cr1, cr3, {0}
    2ca0:	0d000009 	stceq	0, cr0, [r0, #-36]	; 0xffffffdc
    2ca4:	11000300 	mrsne	r0, LR_irq
    2ca8:	00000c8c 	andeq	r0, r0, ip, lsl #25
    2cac:	0003000e 	andeq	r0, r3, lr
    2cb0:	00099711 	andeq	r9, r9, r1, lsl r7
    2cb4:	03000f00 	movweq	r0, #3840	; 0xf00
    2cb8:	0a6d1100 	beq	1b470c0 <__kernel_end+0x19e50c0>
    2cbc:	00100000 	andseq	r0, r0, r0
    2cc0:	46110003 	ldrmi	r0, [r1], -r3
    2cc4:	1400000c 	strne	r0, [r0], #-12
    2cc8:	11000300 	mrsne	r0, LR_irq
    2ccc:	0000088d 	andeq	r0, r0, sp, lsl #17
    2cd0:	00030020 	andeq	r0, r3, r0, lsr #32
    2cd4:	0009fb11 	andeq	pc, r9, r1, lsl fp	; <UNPREDICTABLE>
    2cd8:	04000100 	streq	r0, [r0], #-256	; 0xffffff00
    2cdc:	07ba1100 	ldreq	r1, [sl, r0, lsl #2]!
    2ce0:	80010000 	andhi	r0, r1, r0
    2ce4:	f7110004 			; <UNDEFINED> instruction: 0xf7110004
    2ce8:	02000006 	andeq	r0, r0, #6
    2cec:	11000400 	tstne	r0, r0, lsl #8
    2cf0:	0000078b 	andeq	r0, r0, fp, lsl #15
    2cf4:	00040003 	andeq	r0, r4, r3
    2cf8:	000ce711 	andeq	lr, ip, r1, lsl r7
    2cfc:	04400300 	strbeq	r0, [r0], #-768	; 0xfffffd00
    2d00:	0a1e1100 	beq	787108 <__kernel_end+0x625108>
    2d04:	80030000 	andhi	r0, r3, r0
    2d08:	82110004 	andshi	r0, r1, #4
    2d0c:	04000009 	streq	r0, [r0], #-9
    2d10:	11000400 	tstne	r0, r0, lsl #8
    2d14:	00000c11 	andeq	r0, r0, r1, lsl ip
    2d18:	00044004 	andeq	r4, r4, r4
    2d1c:	000a4411 	andeq	r4, sl, r1, lsl r4
    2d20:	04800400 	streq	r0, [r0], #1024	; 0x400
    2d24:	09741100 	ldmdbeq	r4!, {r8, ip}^
    2d28:	00050000 	andeq	r0, r5, r0
    2d2c:	37110004 	ldrcc	r0, [r1, -r4]
    2d30:	0500000c 	streq	r0, [r0, #-12]
    2d34:	11000440 	tstne	r0, r0, asr #8
    2d38:	000007f0 	strdeq	r0, [r0], -r0	; <UNPREDICTABLE>
    2d3c:	00048005 	andeq	r8, r4, r5
    2d40:	00087911 	andeq	r7, r8, r1, lsl r9
    2d44:	04000600 	streq	r0, [r0], #-1536	; 0xfffffa00
    2d48:	08461100 	stmdaeq	r6, {r8, ip}^
    2d4c:	40060000 	andmi	r0, r6, r0
    2d50:	16110004 	ldrne	r0, [r1], -r4
    2d54:	0600000b 	streq	r0, [r0], -fp
    2d58:	11000480 	smlabbne	r0, r0, r4, r0
    2d5c:	000009da 	ldrdeq	r0, [r0], -sl
    2d60:	00040007 	andeq	r0, r4, r7
    2d64:	0008b711 	andeq	fp, r8, r1, lsl r7
    2d68:	04400700 	strbeq	r0, [r0], #-1792	; 0xfffff900
    2d6c:	0ba01100 	bleq	fe807174 <__kernel_end+0xfe6a5174>
    2d70:	80070000 	andhi	r0, r7, r0
    2d74:	ed110004 	ldc	0, cr0, [r1, #-16]
    2d78:	08000009 	stmdaeq	r0, {r0, r3}
    2d7c:	11000400 	tstne	r0, r0, lsl #8
    2d80:	0000094a 	andeq	r0, r0, sl, asr #18
    2d84:	00040009 	andeq	r0, r4, r9
    2d88:	00075c11 	andeq	r5, r7, r1, lsl ip
    2d8c:	04400900 	strbeq	r0, [r0], #-2304	; 0xfffff700
    2d90:	07741100 	ldrbeq	r1, [r4, -r0, lsl #2]!
    2d94:	80090000 	andhi	r0, r9, r0
    2d98:	08110004 	ldmdaeq	r1, {r2}
    2d9c:	0a000007 	beq	2dc0 <SCTLR_ENABLE_INSTRUCTION_CACHE+0x1dc0>
    2da0:	11000400 	tstne	r0, r0, lsl #8
    2da4:	00000938 	andeq	r0, r0, r8, lsr r9
    2da8:	0004400a 	andeq	r4, r4, sl
    2dac:	000beb11 	andeq	lr, fp, r1, lsl fp
    2db0:	04800a00 	streq	r0, [r0], #2560	; 0xa00
    2db4:	07fe1100 	ldrbeq	r1, [lr, r0, lsl #2]!
    2db8:	000b0000 	andeq	r0, fp, r0
    2dbc:	e5110004 	ldr	r0, [r1, #-4]
    2dc0:	0b000008 	bleq	2de8 <SCTLR_ENABLE_INSTRUCTION_CACHE+0x1de8>
    2dc4:	11000440 	tstne	r0, r0, asr #8
    2dc8:	00000b90 	muleq	r0, r0, fp
    2dcc:	0004800b 	andeq	r8, r4, fp
    2dd0:	00086508 	andeq	r6, r8, r8, lsl #10
    2dd4:	08801100 	stmeq	r0, {r8, ip}
    2dd8:	00000bb3 			; <UNDEFINED> instruction: 0x00000bb3
    2ddc:	12008010 	andne	r8, r0, #16
    2de0:	78040100 	stmdavc	r4, {r8}
    2de4:	0000068c 	andeq	r0, r0, ip, lsl #13
    2de8:	000c080d 	andeq	r0, ip, sp, lsl #16
    2dec:	3a790400 	bcc	1e43df4 <__kernel_end+0x1ce1df4>
    2df0:	0d000000 	stceq	0, cr0, [r0, #-0]
    2df4:	00000820 	andeq	r0, r0, r0, lsr #16
    2df8:	068c7a04 	streq	r7, [ip], r4, lsl #20
    2dfc:	e60d0000 	str	r0, [sp], -r0
    2e00:	0400000a 	streq	r0, [r0], #-10
    2e04:	0006a37b 	andeq	sl, r6, fp, ror r3
    2e08:	53130000 	tstpl	r3, #0
    2e0c:	9c000000 	stcls	0, cr0, [r0], {-0}
    2e10:	14000006 	strne	r0, [r0], #-6
    2e14:	0000069c 	muleq	r0, ip, r6
    2e18:	040200ff 	streq	r0, [r2], #-255	; 0xffffff01
    2e1c:	00034f07 	andeq	r4, r3, r7, lsl #30
    2e20:	003a1300 	eorseq	r1, sl, r0, lsl #6
    2e24:	06b30000 	ldrteq	r0, [r3], r0
    2e28:	9c140000 	ldcls	0, cr0, [r4], {-0}
    2e2c:	3f000006 	svccc	0x00000006
    2e30:	01081500 	tsteq	r8, r0, lsl #10
    2e34:	06e17404 	strbteq	r7, [r1], r4, lsl #8
    2e38:	74160000 	ldrvc	r0, [r6], #-0
    2e3c:	04006761 	streq	r6, [r0], #-1889	; 0xfffff89f
    2e40:	00003a76 	andeq	r3, r0, r6, ror sl
    2e44:	ce170000 	cdpgt	0, 1, cr0, cr7, cr0, {0}
    2e48:	04000009 	streq	r0, [r0], #-9
    2e4c:	00003a77 	andeq	r3, r0, r7, ror sl
    2e50:	a1170400 	tstge	r7, r0, lsl #8
    2e54:	04000007 	streq	r0, [r0], #-7
    2e58:	0006617c 	andeq	r6, r6, ip, ror r1
    2e5c:	03000800 	movweq	r0, #2048	; 0x800
    2e60:	00000909 	andeq	r0, r0, r9, lsl #18
    2e64:	06b37d04 	ldrteq	r7, [r3], r4, lsl #26
    2e68:	75180000 	ldrvc	r0, [r8, #-0]
    2e6c:	01000014 	tsteq	r0, r4, lsl r0
    2e70:	00008947 	andeq	r8, r0, r7, asr #18
    2e74:	071e0100 	ldreq	r0, [lr, -r0, lsl #2]
    2e78:	f5190000 			; <UNDEFINED> instruction: 0xf5190000
    2e7c:	01000013 	tsteq	r0, r3, lsl r0
    2e80:	00007e49 	andeq	r7, r0, r9, asr #28
    2e84:	17581900 	ldrbne	r1, [r8, -r0, lsl #18]
    2e88:	4b010000 	blmi	42e90 <__first_lvl_tbl_end+0x21e90>
    2e8c:	0000071e 	andeq	r0, r0, lr, lsl r7
    2e90:	00148d19 	andseq	r8, r4, r9, lsl sp
    2e94:	24580100 	ldrbcs	r0, [r8], #-256	; 0xffffff00
    2e98:	00000007 	andeq	r0, r0, r7
    2e9c:	0401041a 	streq	r0, [r1], #-1050	; 0xfffffbe6
    2ea0:	041a0000 	ldreq	r0, [sl], #-0
    2ea4:	0000072a 	andeq	r0, r0, sl, lsr #14
    2ea8:	00040105 	andeq	r0, r4, r5, lsl #2
    2eac:	15461b00 	strbne	r1, [r6, #-2816]	; 0xfffff500
    2eb0:	0a010000 	beq	42eb8 <__first_lvl_tbl_end+0x21eb8>
    2eb4:	00009680 	andeq	r9, r0, r0, lsl #13
    2eb8:	00000048 	andeq	r0, r0, r8, asr #32
    2ebc:	07859c01 	streq	r9, [r5, r1, lsl #24]
    2ec0:	461c0000 	ldrmi	r0, [ip], -r0
    2ec4:	01000015 	tsteq	r0, r5, lsl r0
    2ec8:	00006c0c 	andeq	r6, r0, ip, lsl #24
    2ecc:	881d0000 	ldmdahi	sp, {}	; <UNPREDICTABLE>
    2ed0:	11000096 	swpne	r0, r6, [r0]	; <UNPREDICTABLE>
    2ed4:	1e00000a 	cdpne	0, 0, cr0, cr0, cr10, {0}
    2ed8:	000096b0 			; <UNDEFINED> instruction: 0x000096b0
    2edc:	00000a1c 	andeq	r0, r0, ip, lsl sl
    2ee0:	00000772 	andeq	r0, r0, r2, ror r7
    2ee4:	0250011f 	subseq	r0, r0, #-1073741817	; 0xc0000007
    2ee8:	011f0074 	tsteq	pc, r4, ror r0	; <UNPREDICTABLE>
    2eec:	00300152 	eorseq	r0, r0, r2, asr r1
    2ef0:	0096b41d 	addseq	fp, r6, sp, lsl r4
    2ef4:	000a2700 	andeq	r2, sl, r0, lsl #14
    2ef8:	96c02000 	strbls	r2, [r0], r0
    2efc:	0a320000 	beq	c82f04 <__kernel_end+0xb20f04>
    2f00:	1b000000 	blne	2f08 <SCTLR_ENABLE_INSTRUCTION_CACHE+0x1f08>
    2f04:	0000173d 	andeq	r1, r0, sp, lsr r7
    2f08:	96c81301 	strbls	r1, [r8], r1, lsl #6
    2f0c:	00480000 	subeq	r0, r8, r0
    2f10:	9c010000 	stcls	0, cr0, [r1], {-0}
    2f14:	000007db 	ldrdeq	r0, [r0], -fp
    2f18:	00173d1c 	andseq	r3, r7, ip, lsl sp
    2f1c:	6c150100 	ldfvss	f0, [r5], {-0}
    2f20:	01000000 	mrseq	r0, (UNDEF: 0)
    2f24:	0096d01d 	addseq	sp, r6, sp, lsl r0
    2f28:	000a1100 	andeq	r1, sl, r0, lsl #2
    2f2c:	96f81e00 	ldrbtls	r1, [r8], r0, lsl #28
    2f30:	0a1c0000 	beq	702f38 <__kernel_end+0x5a0f38>
    2f34:	07c80000 	strbeq	r0, [r8, r0]
    2f38:	011f0000 	tsteq	pc, r0
    2f3c:	00740250 	rsbseq	r0, r4, r0, asr r2
    2f40:	0152011f 	cmpeq	r2, pc, lsl r1
    2f44:	fc1d0031 	ldc2	0, cr0, [sp], {49}	; 0x31
    2f48:	27000096 			; <UNDEFINED> instruction: 0x27000096
    2f4c:	2000000a 	andcs	r0, r0, sl
    2f50:	00009708 	andeq	r9, r0, r8, lsl #14
    2f54:	00000a32 	andeq	r0, r0, r2, lsr sl
    2f58:	15d61b00 	ldrbne	r1, [r6, #2816]	; 0xb00
    2f5c:	1c010000 	stcne	0, cr0, [r1], {-0}
    2f60:	00009710 	andeq	r9, r0, r0, lsl r7
    2f64:	00000070 	andeq	r0, r0, r0, ror r0
    2f68:	084b9c01 	stmdaeq	fp, {r0, sl, fp, ip, pc}^
    2f6c:	6d210000 	stcvs	0, cr0, [r1, #-0]
    2f70:	23010070 	movwcs	r0, #4208	; 0x1070
    2f74:	0000084b 	andeq	r0, r0, fp, asr #16
    2f78:	00000b98 	muleq	r0, r8, fp
    2f7c:	0097181d 	addseq	r1, r7, sp, lsl r8
    2f80:	000a1100 	andeq	r1, sl, r0, lsl #2
    2f84:	973c1e00 	ldrls	r1, [ip, -r0, lsl #28]!
    2f88:	0a1c0000 	beq	702f90 <__kernel_end+0x5a0f90>
    2f8c:	081b0000 	ldmdaeq	fp, {}	; <UNPREDICTABLE>
    2f90:	011f0000 	tsteq	pc, r0
    2f94:	00740250 	rsbseq	r0, r4, r0, asr r2
    2f98:	97401d00 	strbls	r1, [r0, -r0, lsl #26]
    2f9c:	0a270000 	beq	9c2fa4 <__kernel_end+0x860fa4>
    2fa0:	481e0000 	ldmdami	lr, {}	; <UNPREDICTABLE>
    2fa4:	32000097 	andcc	r0, r0, #151	; 0x97
    2fa8:	3800000a 	stmdacc	r0, {r1, r3}
    2fac:	1f000008 	svcne	0x00000008
    2fb0:	74025001 	strvc	r5, [r2], #-1
    2fb4:	5c1d0000 	ldcpl	0, cr0, [sp], {-0}
    2fb8:	3d000097 	stccc	0, cr0, [r0, #-604]	; 0xfffffda4
    2fbc:	2000000a 	andcs	r0, r0, sl
    2fc0:	00009770 	andeq	r9, r0, r0, ror r7
    2fc4:	00000a3d 	andeq	r0, r0, sp, lsr sl
    2fc8:	e1041a00 	tst	r4, r0, lsl #20
    2fcc:	22000006 	andcs	r0, r0, #6
    2fd0:	000016f7 	strdeq	r1, [r0], -r7
    2fd4:	00892901 	addeq	r2, r9, r1, lsl #18
    2fd8:	97800000 	strls	r0, [r0, r0]
    2fdc:	007c0000 	rsbseq	r0, ip, r0
    2fe0:	9c010000 	stcls	0, cr0, [r1], {-0}
    2fe4:	000008ad 	andeq	r0, r0, sp, lsr #17
    2fe8:	0013eb23 	andseq	lr, r3, r3, lsr #22
    2fec:	ad2d0100 	stfges	f0, [sp, #-0]
    2ff0:	40000008 	andmi	r0, r0, r8
    2ff4:	233f9800 	teqcs	pc, #0, 16
    2ff8:	000016c8 	andeq	r1, r0, r8, asr #13
    2ffc:	08ad2e01 	stmiaeq	sp!, {r0, r9, sl, fp, sp}
    3000:	003c0000 	eorseq	r0, ip, r0
    3004:	881d3f98 	ldmdahi	sp, {r3, r4, r7, r8, r9, sl, fp, ip, sp}
    3008:	85000097 	strhi	r0, [r0, #-151]	; 0xffffff69
    300c:	1d000007 	stcne	0, cr0, [r0, #-28]	; 0xffffffe4
    3010:	0000978c 	andeq	r9, r0, ip, lsl #15
    3014:	000007db 	ldrdeq	r0, [r0], -fp
    3018:	0097d81d 	addseq	sp, r7, sp, lsl r8
    301c:	000a3d00 	andeq	r3, sl, r0, lsl #26
    3020:	97ec1d00 	strbls	r1, [ip, r0, lsl #26]!
    3024:	0a3d0000 	beq	f4302c <__kernel_end+0xde102c>
    3028:	1a000000 	bne	3030 <SCTLR_ENABLE_INSTRUCTION_CACHE+0x2030>
    302c:	00006c04 	andeq	r6, r0, r4, lsl #24
    3030:	16852400 	strne	r2, [r5], r0, lsl #8
    3034:	3d010000 	stccc	0, cr0, [r1, #-0]
    3038:	0000007e 	andeq	r0, r0, lr, ror r0
    303c:	000097fc 	strdeq	r9, [r0], -ip
    3040:	0000000c 	andeq	r0, r0, ip
    3044:	08ee9c01 	stmiaeq	lr!, {r0, sl, fp, ip, pc}^
    3048:	75250000 	strvc	r0, [r5, #-0]!
    304c:	01003173 	tsteq	r0, r3, ror r1
    3050:	00007e3d 	andeq	r7, r0, sp, lsr lr
    3054:	000bb600 	andeq	fp, fp, r0, lsl #12
    3058:	73752600 	cmnvc	r5, #0, 12
    305c:	3d010032 	stccc	0, cr0, [r1, #-200]	; 0xffffff38
    3060:	0000007e 	andeq	r0, r0, lr, ror r0
    3064:	04935206 	ldreq	r5, [r3], #518	; 0x206
    3068:	00049353 	andeq	r9, r4, r3, asr r3
    306c:	0006ec27 	andeq	lr, r6, r7, lsr #24
    3070:	00980800 	addseq	r0, r8, r0, lsl #16
    3074:	00010c00 	andeq	r0, r1, r0, lsl #24
    3078:	8e9c0100 	fmlhie	f0, f4, f0
    307c:	28000009 	stmdacs	r0, {r0, r3}
    3080:	000006fc 	strdeq	r0, [r0], -ip
    3084:	00000bde 	ldrdeq	r0, [r0], -lr
    3088:	00070729 	andeq	r0, r7, r9, lsr #14
    308c:	98001000 	stmdals	r0, {ip}
    3090:	07122a3f 			; <UNDEFINED> instruction: 0x07122a3f
    3094:	e82b0000 	stmda	fp!, {}	; <UNPREDICTABLE>
    3098:	69000000 	stmdbvs	r0, {}	; <UNPREDICTABLE>
    309c:	2c000009 	stccs	0, cr0, [r0], {9}
    30a0:	000006fc 	strdeq	r0, [r0], -ip
    30a4:	04935406 	ldreq	r5, [r3], #1030	; 0x406
    30a8:	2a049355 	bcs	127e04 <dma_src_page_1+0x5e04>
    30ac:	00000707 	andeq	r0, r0, r7, lsl #14
    30b0:	00071229 	andeq	r1, r7, r9, lsr #4
    30b4:	98001000 	stmdals	r0, {ip}
    30b8:	98981d3f 	ldmls	r8, {r0, r1, r2, r3, r4, r5, r8, sl, fp, ip}
    30bc:	0a480000 	beq	12030c4 <__kernel_end+0x10a10c4>
    30c0:	a81d0000 	ldmdage	sp, {}	; <UNPREDICTABLE>
    30c4:	48000098 	stmdami	r0, {r3, r4, r7}
    30c8:	1d00000a 	stcne	0, cr0, [r0, #-40]	; 0xffffffd8
    30cc:	000098bc 			; <UNDEFINED> instruction: 0x000098bc
    30d0:	000008b3 			; <UNDEFINED> instruction: 0x000008b3
    30d4:	0098ec1d 	addseq	lr, r8, sp, lsl ip
    30d8:	000a3d00 	andeq	r3, sl, r0, lsl #26
    30dc:	99001d00 	stmdbls	r0, {r8, sl, fp, ip}
    30e0:	0a3d0000 	beq	f430e8 <__kernel_end+0xde10e8>
    30e4:	1d000000 	stcne	0, cr0, [r0, #-0]
    30e8:	00009810 	andeq	r9, r0, r0, lsl r8
    30ec:	00000a48 	andeq	r0, r0, r8, asr #20
    30f0:	0098401d 	addseq	r4, r8, sp, lsl r0
    30f4:	000a4800 	andeq	r4, sl, r0, lsl #16
    30f8:	98541d00 	ldmdals	r4, {r8, sl, fp, ip}^
    30fc:	08b30000 	ldmeq	r3!, {}	; <UNPREDICTABLE>
    3100:	741d0000 	ldrvc	r0, [sp], #-0
    3104:	3d000098 	stccc	0, cr0, [r0, #-608]	; 0xfffffda0
    3108:	0000000a 	andeq	r0, r0, sl
    310c:	00142522 	andseq	r2, r4, r2, lsr #10
    3110:	89680100 	stmdbhi	r8!, {r8}^
    3114:	14000000 	strne	r0, [r0], #-0
    3118:	60000099 	mulvs	r0, r9, r0
    311c:	01000000 	mrseq	r0, (UNDEF: 0)
    3120:	0009d29c 	muleq	r9, ip, r2
    3124:	13962300 	orrsne	r2, r6, #0, 6
    3128:	6a010000 	bvs	43130 <__first_lvl_tbl_end+0x22130>
    312c:	000009d2 	ldrdeq	r0, [r0], -r2
    3130:	3f98000c 	svccc	0x0098000c
    3134:	00993c1d 	addseq	r3, r9, sp, lsl ip
    3138:	0006ec00 	andeq	lr, r6, r0, lsl #24
    313c:	99501d00 	ldmdbls	r0, {r8, sl, fp, ip}^
    3140:	0a3d0000 	beq	f43148 <__kernel_end+0xde1148>
    3144:	641d0000 	ldrvs	r0, [sp], #-0
    3148:	3d000099 	stccc	0, cr0, [r0, #-612]	; 0xfffffd9c
    314c:	0000000a 	andeq	r0, r0, sl
    3150:	0336041a 	teqeq	r6, #436207616	; 0x1a000000
    3154:	b81b0000 	ldmdalt	fp, {}	; <UNPREDICTABLE>
    3158:	01000013 	tsteq	r0, r3, lsl r0
    315c:	00997477 	addseq	r7, r9, r7, ror r4
    3160:	00001000 	andeq	r1, r0, r0
    3164:	009c0100 	addseq	r0, ip, r0, lsl #2
    3168:	1d00000a 	stcne	0, cr0, [r0, #-40]	; 0xffffffd8
    316c:	0000997c 	andeq	r9, r0, ip, ror r9
    3170:	00000851 	andeq	r0, r0, r1, asr r8
    3174:	00998420 	addseq	r8, r9, r0, lsr #8
    3178:	00098e00 	andeq	r8, r9, r0, lsl #28
    317c:	192d0000 	pushne	{}	; <UNPREDICTABLE>
    3180:	01000017 	tsteq	r0, r7, lsl r0
    3184:	00006c08 	andeq	r6, r0, r8, lsl #24
    3188:	04030500 	streq	r0, [r3], #-1280	; 0xfffffb00
    318c:	2e0000c0 	cdpcs	0, 0, cr0, cr0, cr0, {6}
    3190:	000008cb 	andeq	r0, r0, fp, asr #17
    3194:	000008cb 	andeq	r0, r0, fp, asr #17
    3198:	f62e8e04 			; <UNDEFINED> instruction: 0xf62e8e04
    319c:	f6000008 			; <UNDEFINED> instruction: 0xf6000008
    31a0:	04000008 	streq	r0, [r0], #-8
    31a4:	0a592e8f 	beq	164ebe8 <__kernel_end+0x14ecbe8>
    31a8:	0a590000 	beq	16431b0 <__kernel_end+0x14e11b0>
    31ac:	90040000 	andls	r0, r4, r0
    31b0:	000c272e 	andeq	r2, ip, lr, lsr #14
    31b4:	000c2700 	andeq	r2, ip, r0, lsl #14
    31b8:	2e910400 	cdpcs	4, 9, cr0, cr1, cr0, {0}
    31bc:	0000048a 	andeq	r0, r0, sl, lsl #9
    31c0:	0000048a 	andeq	r0, r0, sl, lsl #9
    31c4:	882e0c05 	stmdahi	lr!, {r0, r2, sl, fp}
    31c8:	8800000d 	stmdahi	r0, {r0, r2, r3}
    31cc:	0600000d 	streq	r0, [r0], -sp
    31d0:	012d000f 			; <UNDEFINED> instruction: 0x012d000f
    31d4:	00040000 	andeq	r0, r4, r0
    31d8:	00001193 	muleq	r0, r3, r1
    31dc:	00640104 	rsbeq	r0, r4, r4, lsl #2
    31e0:	a50c0000 	strge	r0, [ip, #-0]
    31e4:	1a000017 	bne	3248 <SCTLR_ENABLE_INSTRUCTION_CACHE+0x2248>
    31e8:	84000001 	strhi	r0, [r0], #-1
    31ec:	4c000099 	stcmi	0, cr0, [r0], {153}	; 0x99
    31f0:	2a000000 	bcs	31f8 <SCTLR_ENABLE_INSTRUCTION_CACHE+0x21f8>
    31f4:	02000011 	andeq	r0, r0, #17
    31f8:	6e690504 	cdpvs	5, 6, cr0, cr9, cr4, {0}
    31fc:	04030074 	streq	r0, [r3], #-116	; 0xffffff8c
    3200:	00005707 	andeq	r5, r0, r7, lsl #14
    3204:	05080300 	streq	r0, [r8, #-768]	; 0xfffffd00
    3208:	0000010c 	andeq	r0, r0, ip, lsl #2
    320c:	26040803 	strcs	r0, [r4], -r3, lsl #16
    3210:	03000004 	movweq	r0, #4
    3214:	000d0601 	andeq	r0, sp, r1, lsl #12
    3218:	02030000 	andeq	r0, r3, #0
    321c:	00016b05 	andeq	r6, r1, r5, lsl #22
    3220:	05040300 	streq	r0, [r4, #-768]	; 0xfffffd00
    3224:	00000111 	andeq	r0, r0, r1, lsl r1
    3228:	0b080103 	bleq	20363c <__kernel_end+0xa163c>
    322c:	03000000 	movweq	r0, #0
    3230:	00190702 	andseq	r0, r9, r2, lsl #14
    3234:	75040000 	strvc	r0, [r4, #-0]
    3238:	06000001 	streq	r0, [r0], -r1
    323c:	00006f34 	andeq	r6, r0, r4, lsr pc
    3240:	07040300 	streq	r0, [r4, -r0, lsl #6]
    3244:	00000052 	andeq	r0, r0, r2, asr r0
    3248:	4d070803 	stcmi	8, cr0, [r7, #-12]
    324c:	03000000 	movweq	r0, #0
    3250:	034f0704 	movteq	r0, #63236	; 0xf704
    3254:	01030000 	mrseq	r0, (UNDEF: 3)
    3258:	00162a02 	andseq	r2, r6, r2, lsl #20
    325c:	017e0500 	cmneq	lr, r0, lsl #10
    3260:	10010000 	andne	r0, r1, r0
    3264:	00009984 	andeq	r9, r0, r4, lsl #19
    3268:	0000004c 	andeq	r0, r0, ip, asr #32
    326c:	00f99c01 	rscseq	r9, r9, r1, lsl #24
    3270:	72060000 	andvc	r0, r6, #0
    3274:	10010030 	andne	r0, r1, r0, lsr r0
    3278:	00000064 	andeq	r0, r0, r4, rrx
    327c:	00000bf6 	strdeq	r0, [r0], -r6
    3280:	00317206 	eorseq	r7, r1, r6, lsl #4
    3284:	00641001 	rsbeq	r1, r4, r1
    3288:	0c170000 	ldceq	0, cr0, [r7], {-0}
    328c:	9f070000 	svcls	0x00070000
    3290:	01000017 	tsteq	r0, r7, lsl r0
    3294:	00006410 	andeq	r6, r0, r0, lsl r4
    3298:	000c3800 	andeq	r3, ip, r0, lsl #16
    329c:	99980800 	ldmibls	r8, {fp}
    32a0:	01040000 	mrseq	r0, (UNDEF: 4)
    32a4:	a0080000 	andge	r0, r8, r0
    32a8:	0f000099 	svceq	0x00000099
    32ac:	08000001 	stmdaeq	r0, {r0}
    32b0:	000099a4 	andeq	r9, r0, r4, lsr #19
    32b4:	0000011a 	andeq	r0, r0, sl, lsl r1
    32b8:	0099b808 	addseq	fp, r9, r8, lsl #16
    32bc:	00010400 	andeq	r0, r1, r0, lsl #8
    32c0:	99bc0800 	ldmibls	ip!, {fp}
    32c4:	01250000 			; <UNDEFINED> instruction: 0x01250000
    32c8:	09000000 	stmdbeq	r0, {}	; <UNPREDICTABLE>
    32cc:	00000ed5 	ldrdeq	r0, [r0], -r5
    32d0:	00640e01 	rsbeq	r0, r4, r1, lsl #28
    32d4:	8a0a0000 	bhi	2832dc <__kernel_end+0x1212dc>
    32d8:	8a000004 	bhi	32f0 <SCTLR_ENABLE_INSTRUCTION_CACHE+0x22f0>
    32dc:	02000004 	andeq	r0, r0, #4
    32e0:	10b40a0c 	adcsne	r0, r4, ip, lsl #20
    32e4:	10b40000 	adcsne	r0, r4, r0
    32e8:	29030000 	stmdbcs	r3, {}	; <UNPREDICTABLE>
    32ec:	0001bd0a 	andeq	fp, r1, sl, lsl #26
    32f0:	0001bd00 	andeq	fp, r1, r0, lsl #26
    32f4:	0a090400 	beq	2442fc <__kernel_end+0xe22fc>
    32f8:	000013b8 			; <UNDEFINED> instruction: 0x000013b8
    32fc:	000013b8 			; <UNDEFINED> instruction: 0x000013b8
    3300:	24006705 	strcs	r6, [r0], #-1797	; 0xfffff8fb
    3304:	04000001 	streq	r0, [r0], #-1
    3308:	00122f00 	andseq	r2, r2, r0, lsl #30
    330c:	b5010400 	strlt	r0, [r1, #-1024]	; 0xfffffc00
    3310:	0c000017 	stceq	0, cr0, [r0], {23}
    3314:	0000187c 	andeq	r1, r0, ip, ror r8
    3318:	0000182d 	andeq	r1, r0, sp, lsr #16
    331c:	000099d0 	ldrdeq	r9, [r0], -r0
    3320:	00000024 	andeq	r0, r0, r4, lsr #32
    3324:	00001280 	andeq	r1, r0, r0, lsl #5
    3328:	69050402 	stmdbvs	r5, {r1, sl}
    332c:	0300746e 	movweq	r7, #1134	; 0x46e
    3330:	00000348 	andeq	r0, r0, r8, asr #6
    3334:	0037d802 	eorseq	sp, r7, r2, lsl #16
    3338:	04040000 	streq	r0, [r4], #-0
    333c:	00005707 	andeq	r5, r0, r7, lsl #14
    3340:	05080400 	streq	r0, [r8, #-1024]	; 0xfffffc00
    3344:	0000010c 	andeq	r0, r0, ip, lsl #2
    3348:	26040804 	strcs	r0, [r4], -r4, lsl #16
    334c:	04000004 	streq	r0, [r0], #-4
    3350:	000d0601 	andeq	r0, sp, r1, lsl #12
    3354:	01040000 	mrseq	r0, (UNDEF: 4)
    3358:	00000b08 	andeq	r0, r0, r8, lsl #22
    335c:	05020400 	streq	r0, [r2, #-1024]	; 0xfffffc00
    3360:	0000016b 	andeq	r0, r0, fp, ror #2
    3364:	19070204 	stmdbne	r7, {r2, r9}
    3368:	04000000 	streq	r0, [r0], #-0
    336c:	01110504 	tsteq	r1, r4, lsl #10
    3370:	04040000 	streq	r0, [r4], #-0
    3374:	00005207 	andeq	r5, r0, r7, lsl #4
    3378:	07080400 	streq	r0, [r8, -r0, lsl #8]
    337c:	0000004d 	andeq	r0, r0, sp, asr #32
    3380:	4f070404 	svcmi	0x00070404
    3384:	05000003 	streq	r0, [r0, #-3]
    3388:	08010404 	stmdaeq	r1, {r2, sl}
    338c:	00000014 	andeq	r0, r0, r4, lsl r0
    3390:	00530406 	subseq	r0, r3, r6, lsl #8
    3394:	fc070000 	stc2	0, cr0, [r7], {-0}
    3398:	0300000b 	movweq	r0, #11
    339c:	0000841b 	andeq	r8, r0, fp, lsl r4
    33a0:	0099d000 	addseq	sp, r9, r0
    33a4:	00002400 	andeq	r2, r0, r0, lsl #8
    33a8:	0b9c0100 	bleq	fe7037b0 <__kernel_end+0xfe5a17b0>
    33ac:	08000001 	stmdaeq	r0, {r0}
    33b0:	0000181f 	andeq	r1, r0, pc, lsl r8
    33b4:	010b0301 	tsteq	fp, r1, lsl #6
    33b8:	50010000 	andpl	r0, r1, r0
    33bc:	00182609 	andseq	r2, r8, r9, lsl #12
    33c0:	17030100 	strne	r0, [r3, -r0, lsl #2]
    33c4:	59000001 	stmdbpl	r0, {r0}
    33c8:	0900000c 	stmdbeq	r0, {r2, r3}
    33cc:	0000100e 	andeq	r1, r0, lr
    33d0:	002c0301 	eoreq	r0, ip, r1, lsl #6
    33d4:	0c7a0000 	ldcleq	0, cr0, [sl], #-0
    33d8:	640a0000 	strvs	r0, [sl], #-0
    33dc:	01007473 	tsteq	r0, r3, ror r4
    33e0:	00008d04 	andeq	r8, r0, r4, lsl #26
    33e4:	0b500100 	bleq	14037ec <__kernel_end+0x12a17ec>
    33e8:	00637273 	rsbeq	r7, r3, r3, ror r2
    33ec:	011c0501 	tsteq	ip, r1, lsl #10
    33f0:	0c9b0000 	ldceq	0, cr0, [fp], {0}
    33f4:	d00c0000 	andle	r0, ip, r0
    33f8:	20000099 	mulcs	r0, r9, r0
    33fc:	0b000000 	bleq	3404 <SCTLR_ENABLE_INSTRUCTION_CACHE+0x2404>
    3400:	06010069 	streq	r0, [r1], -r9, rrx
    3404:	0000002c 	andeq	r0, r0, ip, lsr #32
    3408:	00000cbc 			; <UNDEFINED> instruction: 0x00000cbc
    340c:	840d0000 	strhi	r0, [sp], #-0
    3410:	06000000 	streq	r0, [r0], -r0
    3414:	00011604 	andeq	r1, r1, r4, lsl #12
    3418:	100d0e00 	andne	r0, sp, r0, lsl #28
    341c:	06000001 	streq	r0, [r0], -r1
    3420:	00012204 	andeq	r2, r1, r4, lsl #4
    3424:	00530f00 	subseq	r0, r3, r0, lsl #30
    3428:	71000000 	mrsvc	r0, (UNDEF: 0)
    342c:	04000001 	streq	r0, [r0], #-1
    3430:	0012ea00 	andseq	lr, r2, r0, lsl #20
    3434:	b5010400 	strlt	r0, [r1, #-1024]	; 0xfffffc00
    3438:	0c000017 	stceq	0, cr0, [r0], {23}
    343c:	0000188c 	andeq	r1, r0, ip, lsl #17
    3440:	0000182d 	andeq	r1, r0, sp, lsr #16
    3444:	000099f4 	strdeq	r9, [r0], -r4
    3448:	00000054 	andeq	r0, r0, r4, asr r0
    344c:	00001373 	andeq	r1, r0, r3, ror r3
    3450:	000a0f02 	andeq	r0, sl, r2, lsl #30
    3454:	30280200 	eorcc	r0, r8, r0, lsl #4
    3458:	03000000 	movweq	r0, #0
    345c:	0000085b 	andeq	r0, r0, fp, asr r8
    3460:	47000404 	strmi	r0, [r0, -r4, lsl #8]
    3464:	04000000 	streq	r0, [r0], #-0
    3468:	00000c03 	andeq	r0, r0, r3, lsl #24
    346c:	00000047 	andeq	r0, r0, r7, asr #32
    3470:	04050000 	streq	r0, [r5], #-0
    3474:	00085d02 	andeq	r5, r8, r2, lsl #26
    3478:	25620200 	strbcs	r0, [r2, #-512]!	; 0xfffffe00
    347c:	06000000 	streq	r0, [r0], -r0
    3480:	000d0601 	andeq	r0, sp, r1, lsl #12
    3484:	02060000 	andeq	r0, r6, #0
    3488:	00016b05 	andeq	r6, r1, r5, lsl #22
    348c:	05040600 	streq	r0, [r4, #-1536]	; 0xfffffa00
    3490:	00000111 	andeq	r0, r0, r1, lsl r1
    3494:	0c050806 	stceq	8, cr0, [r5], {6}
    3498:	06000001 	streq	r0, [r0], -r1
    349c:	000b0801 	andeq	r0, fp, r1, lsl #16
    34a0:	02060000 	andeq	r0, r6, #0
    34a4:	00001907 	andeq	r1, r0, r7, lsl #18
    34a8:	07040600 	streq	r0, [r4, -r0, lsl #12]
    34ac:	00000052 	andeq	r0, r0, r2, asr r0
    34b0:	4d070806 	stcmi	8, cr0, [r7, #-24]	; 0xffffffe8
    34b4:	07000000 	streq	r0, [r0, -r0]
    34b8:	6e690504 	cdpvs	5, 6, cr0, cr9, cr4, {0}
    34bc:	04060074 	streq	r0, [r6], #-116	; 0xffffff8c
    34c0:	00005707 	andeq	r5, r0, r7, lsl #14
    34c4:	189b0800 	ldmne	fp, {fp}
    34c8:	1c010000 	stcne	0, cr0, [r1], {-0}
    34cc:	0000008c 	andeq	r0, r0, ip, lsl #1
    34d0:	000099f4 	strdeq	r9, [r0], -r4
    34d4:	00000018 	andeq	r0, r0, r8, lsl r0
    34d8:	00e49c01 	rsceq	r9, r4, r1, lsl #24
    34dc:	63090000 	movwvs	r0, #36864	; 0x9000
    34e0:	8c1c0100 	ldfhis	f0, [ip], {-0}
    34e4:	04000000 	streq	r0, [r0], #-0
    34e8:	0900000d 	stmdbeq	r0, {r0, r2, r3}
    34ec:	00766564 	rsbseq	r6, r6, r4, ror #10
    34f0:	008c1c01 	addeq	r1, ip, r1, lsl #24
    34f4:	0d250000 	stceq	0, cr0, [r5, #-0]
    34f8:	000a0000 	andeq	r0, sl, r0
    34fc:	5e00009a 	mcrpl	0, 0, r0, cr0, cr10, {4}
    3500:	0b000001 	bleq	350c <SCTLR_ENABLE_INSTRUCTION_CACHE+0x250c>
    3504:	f3065001 	vhadd.u8	d5, d6, d1
    3508:	ff085001 			; <UNDEFINED> instruction: 0xff085001
    350c:	0800001a 	stmdaeq	r0, {r1, r3, r4}
    3510:	0000048a 	andeq	r0, r0, sl, lsl #9
    3514:	008c2601 	addeq	r2, ip, r1, lsl #12
    3518:	9a0c0000 	bls	303520 <__kernel_end+0x1a1520>
    351c:	003c0000 	eorseq	r0, ip, r0
    3520:	9c010000 	stcls	0, cr0, [r1], {-0}
    3524:	0000014c 	andeq	r0, r0, ip, asr #2
    3528:	0018a10c 	andseq	sl, r8, ip, lsl #2
    352c:	4c260100 	stfmis	f0, [r6], #-0
    3530:	02000001 	andeq	r0, r0, #1
    3534:	0e0d7091 	mcreq	0, 0, r7, cr13, cr1, {4}
    3538:	01007061 	tsteq	r0, r1, rrx
    353c:	00004928 	andeq	r4, r0, r8, lsr #18
    3540:	64910200 	ldrvs	r0, [r1], #512	; 0x200
    3544:	7465720e 	strbtvc	r7, [r5], #-526	; 0xfffffdf2
    3548:	8c290100 	stfhis	f0, [r9], #-0
    354c:	01000000 	mrseq	r0, (UNDEF: 0)
    3550:	9a340a50 	bls	d05e98 <__kernel_end+0xba3e98>
    3554:	01690000 	cmneq	r9, r0
    3558:	010b0000 	mrseq	r0, (UNDEF: 11)
    355c:	48910350 	ldmmi	r1, {r4, r6, r8, r9}
    3560:	51010b06 	tstpl	r1, r6, lsl #22
    3564:	0b4c9102 	bleq	1327974 <__kernel_end+0x11c5974>
    3568:	03055201 	movweq	r5, #20993	; 0x5201
    356c:	000099f4 	strdeq	r9, [r0], -r4
    3570:	0153010b 	cmpeq	r3, fp, lsl #2
    3574:	0f000031 	svceq	0x00000031
    3578:	00015904 	andeq	r5, r1, r4, lsl #18
    357c:	08010600 	stmdaeq	r1, {r9, sl}
    3580:	00000014 	andeq	r0, r0, r4, lsl r0
    3584:	00015210 	andeq	r5, r1, r0, lsl r2
    3588:	11881100 	orrne	r1, r8, r0, lsl #2
    358c:	11880000 	orrne	r0, r8, r0
    3590:	2a030000 	bcs	c3598 <__first_lvl_tbl_end+0xa2598>
    3594:	0018a811 	andseq	sl, r8, r1, lsl r8
    3598:	0018a800 	andseq	sl, r8, r0, lsl #16
    359c:	00230100 	eoreq	r0, r3, r0, lsl #2
    35a0:	000004bc 			; <UNDEFINED> instruction: 0x000004bc
    35a4:	13ca0004 	bicne	r0, sl, #4
    35a8:	01040000 	mrseq	r0, (UNDEF: 4)
    35ac:	000017b5 			; <UNDEFINED> instruction: 0x000017b5
    35b0:	0019920c 	andseq	r9, r9, ip, lsl #4
    35b4:	00182d00 	andseq	r2, r8, r0, lsl #26
    35b8:	009a4800 	addseq	r4, sl, r0, lsl #16
    35bc:	00074c00 	andeq	r4, r7, r0, lsl #24
    35c0:	00148e00 	andseq	r8, r4, r0, lsl #28
    35c4:	05040200 	streq	r0, [r4, #-512]	; 0xfffffe00
    35c8:	00746e69 	rsbseq	r6, r4, r9, ror #28
    35cc:	57070403 	strpl	r0, [r7, -r3, lsl #8]
    35d0:	03000000 	movweq	r0, #0
    35d4:	010c0508 	tsteq	ip, r8, lsl #10
    35d8:	08030000 	stmdaeq	r3, {}	; <UNPREDICTABLE>
    35dc:	00042604 	andeq	r2, r4, r4, lsl #12
    35e0:	06010300 	streq	r0, [r1], -r0, lsl #6
    35e4:	0000000d 	andeq	r0, r0, sp
    35e8:	0b080103 	bleq	2039fc <__kernel_end+0xa19fc>
    35ec:	03000000 	movweq	r0, #0
    35f0:	016b0502 	cmneq	fp, r2, lsl #10
    35f4:	02030000 	andeq	r0, r3, #0
    35f8:	00001907 	andeq	r1, r0, r7, lsl #18
    35fc:	05040300 	streq	r0, [r4, #-768]	; 0xfffffd00
    3600:	00000111 	andeq	r0, r0, r1, lsl r1
    3604:	52070403 	andpl	r0, r7, #50331648	; 0x3000000
    3608:	03000000 	movweq	r0, #0
    360c:	004d0708 	subeq	r0, sp, r8, lsl #14
    3610:	04030000 	streq	r0, [r3], #-0
    3614:	00034f07 	andeq	r4, r3, r7, lsl #30
    3618:	05040400 	streq	r0, [r4, #-1024]	; 0xfffffc00
    361c:	00008104 	andeq	r8, r0, r4, lsl #2
    3620:	08010300 	stmdaeq	r1, {r8, r9}
    3624:	00000014 	andeq	r0, r0, r4, lsl r0
    3628:	008e0405 	addeq	r0, lr, r5, lsl #8
    362c:	81060000 	mrshi	r0, (UNDEF: 6)
    3630:	07000000 	streq	r0, [r0, -r0]
    3634:	00000a0f 	andeq	r0, r0, pc, lsl #20
    3638:	009e2802 	addseq	r2, lr, r2, lsl #16
    363c:	5b080000 	blpl	203644 <__kernel_end+0xa1644>
    3640:	04000008 	streq	r0, [r0], #-8
    3644:	00b50003 	adcseq	r0, r5, r3
    3648:	03090000 	movweq	r0, #36864	; 0x9000
    364c:	7900000c 	stmdbvc	r0, {r2, r3}
    3650:	00000000 	andeq	r0, r0, r0
    3654:	085d0700 	ldmdaeq	sp, {r8, r9, sl}^
    3658:	62020000 	andvs	r0, r2, #0
    365c:	00000093 	muleq	r0, r3, r0
    3660:	0019390a 	andseq	r3, r9, sl, lsl #18
    3664:	00480100 	subeq	r0, r8, r0, lsl #2
    3668:	13010000 	movwne	r0, #4096	; 0x1000
    366c:	000000e9 	andeq	r0, r0, r9, ror #1
    3670:	0019000b 	andseq	r0, r9, fp
    3674:	060b0000 	streq	r0, [fp], -r0
    3678:	01000019 	tsteq	r0, r9, lsl r0
    367c:	0019850b 	andseq	r8, r9, fp, lsl #10
    3680:	a60b0200 	strge	r0, [fp], -r0, lsl #4
    3684:	03000019 	movweq	r0, #25
    3688:	19290c00 	stmdbne	r9!, {sl, fp}
    368c:	f9010000 			; <UNDEFINED> instruction: 0xf9010000
    3690:	01630101 	cmneq	r3, r1, lsl #2
    3694:	6e0d0000 	cdpvs	0, 0, cr0, cr13, cr0, {0}
    3698:	01006d75 	tsteq	r0, r5, ror sp
    369c:	006401f9 	strdeq	r0, [r4], #-25	; 0xffffffe7	; <UNPREDICTABLE>
    36a0:	730d0000 	movwvc	r0, #53248	; 0xd000
    36a4:	01007274 	tsteq	r0, r4, ror r2
    36a8:	007b01f9 	ldrshteq	r0, [fp], #-25	; 0xffffffe7
    36ac:	ff0e0000 			; <UNDEFINED> instruction: 0xff0e0000
    36b0:	0100000e 	tsteq	r0, lr
    36b4:	002c01fa 	strdeq	r0, [ip], -sl	; <UNPREDICTABLE>
    36b8:	be0e0000 	cdplt	0, 0, cr0, cr14, cr0, {0}
    36bc:	01000019 	tsteq	r0, r9, lsl r0
    36c0:	002501fa 	strdeq	r0, [r5], -sl	; <UNPREDICTABLE>
    36c4:	c20f0000 	andgt	r0, pc, #0
    36c8:	01000019 	tsteq	r0, r9, lsl r0
    36cc:	008801fc 	strdeq	r0, [r8], ip
    36d0:	8d0f0000 	stchi	0, cr0, [pc, #-0]	; 36d8 <SCTLR_ENABLE_INSTRUCTION_CACHE+0x26d8>
    36d4:	01000014 	tsteq	r0, r4, lsl r0
    36d8:	016301fd 	strdeq	r0, [r3, #-29]!	; 0xffffffe3
    36dc:	69100000 	ldmdbvs	r0, {}	; <UNPREDICTABLE>
    36e0:	01fe0100 	mvnseq	r0, r0, lsl #2
    36e4:	00000025 	andeq	r0, r0, r5, lsr #32
    36e8:	18b90f11 	ldmne	r9!, {r0, r4, r8, r9, sl, fp}
    36ec:	1a010000 	bne	436f4 <__first_lvl_tbl_end+0x226f4>
    36f0:	00004802 	andeq	r4, r0, r2, lsl #16
    36f4:	12c80f00 	sbcne	r0, r8, #0, 30
    36f8:	1b010000 	blne	43700 <__first_lvl_tbl_end+0x22700>
    36fc:	00006402 	andeq	r6, r0, r2, lsl #8
    3700:	12000000 	andne	r0, r0, #0
    3704:	00000081 	andeq	r0, r0, r1, lsl #1
    3708:	00000173 	andeq	r0, r0, r3, ror r1
    370c:	00007213 	andeq	r7, r0, r3, lsl r2
    3710:	14002000 	strne	r2, [r0], #-0
    3714:	000018a8 	andeq	r1, r0, r8, lsr #17
    3718:	00255b01 	eoreq	r5, r5, r1, lsl #22
    371c:	9a480000 	bls	1203724 <__kernel_end+0x10a1724>
    3720:	074c0000 	strbeq	r0, [ip, -r0]
    3724:	9c010000 	stcls	0, cr0, [r1], {-0}
    3728:	0000040f 	andeq	r0, r0, pc, lsl #8
    372c:	746d6615 	strbtvc	r6, [sp], #-1557	; 0xfffff9eb
    3730:	885b0100 	ldmdahi	fp, {r8}^
    3734:	46000000 	strmi	r0, [r0], -r0
    3738:	1500000d 	strne	r0, [r0, #-13]
    373c:	01007061 	tsteq	r0, r1, rrx
    3740:	0000b55b 	andeq	fp, r0, fp, asr r5
    3744:	000f1a00 	andeq	r1, pc, r0, lsl #20
    3748:	196b1600 	stmdbne	fp!, {r9, sl, ip}^
    374c:	5c010000 	stcpl	0, cr0, [r1], {-0}
    3750:	00000423 	andeq	r0, r0, r3, lsr #8
    3754:	00000f59 	andeq	r0, r0, r9, asr pc
    3758:	0018d716 	andseq	sp, r8, r6, lsl r7
    375c:	255c0100 	ldrbcs	r0, [ip, #-256]	; 0xffffff00
    3760:	7a000000 	bvc	3768 <SCTLR_ENABLE_INSTRUCTION_CACHE+0x2768>
    3764:	1700000f 	strne	r0, [r0, -pc]
    3768:	000019b0 			; <UNDEFINED> instruction: 0x000019b0
    376c:	00255e01 	eoreq	r5, r5, r1, lsl #28
    3770:	0fb10000 	svceq	0x00b10000
    3774:	69180000 	ldmdbvs	r8, {}	; <UNPREDICTABLE>
    3778:	25600100 	strbcs	r0, [r0, #-256]!	; 0xffffff00
    377c:	60000000 	andvs	r0, r0, r0
    3780:	18000010 	stmdane	r0, {r4}
    3784:	00727473 	rsbseq	r7, r2, r3, ror r4
    3788:	007b6101 	rsbseq	r6, fp, r1, lsl #2
    378c:	10b00000 	adcsne	r0, r0, r0
    3790:	32190000 	andscc	r0, r9, #0
    3794:	01000019 	tsteq	r0, r9, lsl r0
    3798:	00016362 	andeq	r6, r1, r2, ror #6
    379c:	90910300 	addsls	r0, r1, r0, lsl #6
    37a0:	18e5177f 	stmiane	r5!, {r0, r1, r2, r3, r4, r5, r6, r8, r9, sl, ip}^
    37a4:	64010000 	strvs	r0, [r1], #-0
    37a8:	00000025 	andeq	r0, r0, r5, lsr #32
    37ac:	0000117d 	andeq	r1, r0, sp, ror r1
    37b0:	0018b017 	andseq	fp, r8, r7, lsl r0
    37b4:	81660100 	cmnhi	r6, r0, lsl #2
    37b8:	e9000000 	stmdb	r0, {}	; <UNPREDICTABLE>
    37bc:	17000011 	smladne	r0, r1, r0, r0
    37c0:	000018e0 	andeq	r1, r0, r0, ror #17
    37c4:	00256701 	eoreq	r6, r5, r1, lsl #14
    37c8:	12660000 	rsbne	r0, r6, #0
    37cc:	a1170000 	tstge	r7, r0
    37d0:	01000019 	tsteq	r0, r9, lsl r0
    37d4:	00002568 	andeq	r2, r0, r8, ror #10
    37d8:	0012ef00 	andseq	lr, r2, r0, lsl #30
    37dc:	100e1700 	andne	r1, lr, r0, lsl #14
    37e0:	69010000 	stmdbvs	r1, {}	; <UNPREDICTABLE>
    37e4:	000000c0 	andeq	r0, r0, r0, asr #1
    37e8:	0000139c 	muleq	r0, ip, r3
    37ec:	0019c917 	andseq	ip, r9, r7, lsl r9
    37f0:	816a0100 	cmnhi	sl, r0, lsl #2
    37f4:	c8000000 	stmdagt	r0, {}	; <UNPREDICTABLE>
    37f8:	17000013 	smladne	r0, r3, r0, r0
    37fc:	000018c0 	andeq	r1, r0, r0, asr #17
    3800:	005d6c01 	subseq	r6, sp, r1, lsl #24
    3804:	14320000 	ldrtne	r0, [r2], #-0
    3808:	bf170000 	svclt	0x00170000
    380c:	01000018 	tsteq	r0, r8, lsl r0
    3810:	0000646d 	andeq	r6, r0, sp, ror #8
    3814:	00145e00 	andseq	r5, r4, r0, lsl #28
    3818:	19be1700 	ldmibne	lr!, {r8, r9, sl, ip}
    381c:	6e010000 	cdpvs	0, 0, cr0, cr1, cr0, {0}
    3820:	00000025 	andeq	r0, r0, r5, lsr #32
    3824:	00001492 	muleq	r0, r2, r4
    3828:	000eff17 	andeq	pc, lr, r7, lsl pc	; <UNPREDICTABLE>
    382c:	2c6f0100 	stfcse	f0, [pc], #-0	; 3834 <SCTLR_ENABLE_INSTRUCTION_CACHE+0x2834>
    3830:	11000000 	mrsne	r0, (UNDEF: 0)
    3834:	17000015 	smladne	r0, r5, r0, r0
    3838:	00001954 	andeq	r1, r0, r4, asr r9
    383c:	00257101 	eoreq	r7, r5, r1, lsl #2
    3840:	15c40000 	strbne	r0, [r4]
    3844:	f5170000 			; <UNDEFINED> instruction: 0xf5170000
    3848:	01000018 	tsteq	r0, r8, lsl r0
    384c:	00002572 	andeq	r2, r0, r2, ror r5
    3850:	00162800 	andseq	r2, r6, r0, lsl #16
    3854:	195c1700 	ldmdbne	ip, {r8, r9, sl, ip}^
    3858:	74010000 	strvc	r0, [r1], #-0
    385c:	00000025 	andeq	r0, r0, r5, lsr #32
    3860:	000016a2 	andeq	r1, r0, r2, lsr #13
    3864:	0019d917 	andseq	sp, r9, r7, lsl r9
    3868:	25760100 	ldrbcs	r0, [r6, #-256]!	; 0xffffff00
    386c:	cb000000 	blgt	3874 <SCTLR_ENABLE_INSTRUCTION_CACHE+0x2874>
    3870:	1a000016 	bne	38d0 <SCTLR_ENABLE_INSTRUCTION_CACHE+0x28d0>
    3874:	000019ce 	andeq	r1, r0, lr, asr #19
    3878:	00887801 	addeq	r7, r8, r1, lsl #16
    387c:	461b0000 	ldrmi	r0, [fp], -r0
    3880:	01000019 	tsteq	r0, r9, lsl r0
    3884:	009af89f 	umullseq	pc, sl, pc, r8	; <UNPREDICTABLE>
    3888:	19751c00 	ldmdbne	r5!, {sl, fp, ip}^
    388c:	46010000 	strmi	r0, [r1], -r0
    3890:	009c0401 	addseq	r0, ip, r1, lsl #8
    3894:	18c51c00 	stmiane	r5, {sl, fp, ip}^
    3898:	d3010000 	movwle	r0, #4096	; 0x1000
    389c:	009ad001 	addseq	sp, sl, r1
    38a0:	00e91d00 	rsceq	r1, r9, r0, lsl #26
    38a4:	9c100000 	ldcls	0, cr0, [r0], {-0}
    38a8:	01000000 	mrseq	r0, (UNDEF: 0)
    38ac:	63010000 	movwvs	r0, #4096	; 0x1000
    38b0:	00036f01 	andeq	r6, r3, r1, lsl #30
    38b4:	011a1e00 	tsteq	sl, r0, lsl #28
    38b8:	172e0000 	strne	r0, [lr, -r0]!
    38bc:	0e1e0000 	cdpeq	0, 1, cr0, cr14, cr0, {0}
    38c0:	4d000001 	stcmi	0, cr0, [r0, #-4]
    38c4:	1e000017 	mcrne	0, 0, r0, cr0, cr7, {0}
    38c8:	00000102 	andeq	r0, r0, r2, lsl #2
    38cc:	00001788 	andeq	r1, r0, r8, lsl #15
    38d0:	0000f61e 	andeq	pc, r0, lr, lsl r6	; <UNPREDICTABLE>
    38d4:	0017ef00 	andseq	lr, r7, r0, lsl #30
    38d8:	01001f00 	tsteq	r0, r0, lsl #30
    38dc:	26200000 	strtcs	r0, [r0], -r0
    38e0:	5f000001 	svcpl	0x00000001
    38e4:	21000018 	tstcs	r0, r8, lsl r0
    38e8:	00000132 	andeq	r0, r0, r2, lsr r1
    38ec:	7fb49103 	svcvc	0x00b49103
    38f0:	00013e20 	andeq	r3, r1, r0, lsr #28
    38f4:	0018b900 	andseq	fp, r8, r0, lsl #18
    38f8:	01381f00 	teqeq	r8, r0, lsl #30
    38fc:	49220000 	stmdbmi	r2!, {}	; <UNPREDICTABLE>
    3900:	20000001 	andcs	r0, r0, r1
    3904:	00000155 	andeq	r0, r0, r5, asr r1
    3908:	0000192c 	andeq	r1, r0, ip, lsr #18
    390c:	23000000 	movwcs	r0, #0
    3910:	00009adc 	ldrdeq	r9, [r0], -ip
    3914:	0000037f 	andeq	r0, r0, pc, ror r3
    3918:	02510124 	subseq	r0, r1, #36, 2
    391c:	2500007a 	strcs	r0, [r0, #-122]	; 0xffffff86
    3920:	00009cb0 			; <UNDEFINED> instruction: 0x00009cb0
    3924:	000004b4 			; <UNDEFINED> instruction: 0x000004b4
    3928:	00000394 	muleq	r0, r4, r3
    392c:	03500124 	cmpeq	r0, #36, 2
    3930:	007f8891 			; <UNDEFINED> instruction: 0x007f8891
    3934:	009d2023 	addseq	r2, sp, r3, lsr #32
    3938:	0003aa00 	andeq	sl, r3, r0, lsl #20
    393c:	50012400 	andpl	r2, r1, r0, lsl #8
    3940:	24300802 	ldrtcs	r0, [r0], #-2050	; 0xfffff7fe
    3944:	7a025101 	bvc	97d50 <__first_lvl_tbl_end+0x76d50>
    3948:	00250000 	eoreq	r0, r5, r0
    394c:	b400009e 	strlt	r0, [r0], #-158	; 0xffffff62
    3950:	be000004 	cdplt	0, 0, cr0, cr0, cr4, {0}
    3954:	24000003 	strcs	r0, [r0], #-3
    3958:	79025001 	stmdbvc	r2, {r0, ip, lr}
    395c:	b8230000 	stmdalt	r3!, {}	; <UNPREDICTABLE>
    3960:	d400009e 	strle	r0, [r0], #-158	; 0xffffff62
    3964:	24000003 	strcs	r0, [r0], #-3
    3968:	74025001 	strvc	r5, [r2], #-1
    396c:	51012400 	tstpl	r1, r0, lsl #8
    3970:	00007a02 	andeq	r7, r0, r2, lsl #20
    3974:	00a04023 	adceq	r4, r0, r3, lsr #32
    3978:	0003e400 	andeq	lr, r3, r0, lsl #8
    397c:	51012400 	tstpl	r1, r0, lsl #8
    3980:	00007a02 	andeq	r7, r0, r2, lsl #20
    3984:	00a06023 	adceq	r6, r0, r3, lsr #32
    3988:	0003fc00 	andeq	pc, r3, r0, lsl #24
    398c:	50012400 	andpl	r2, r1, r0, lsl #8
    3990:	7ef89104 	nrmvce	f1, f4
    3994:	51012406 	tstpl	r1, r6, lsl #8
    3998:	00007a02 	andeq	r7, r0, r2, lsl #20
    399c:	00a0cc26 	adceq	ip, r0, r6, lsr #24
    39a0:	50012400 	andpl	r2, r1, r0, lsl #8
    39a4:	24007402 	strcs	r7, [r0], #-1026	; 0xfffffbfe
    39a8:	7a025101 	bvc	97db4 <__first_lvl_tbl_end+0x76db4>
    39ac:	27000000 	strcs	r0, [r0, -r0]
    39b0:	00000025 	andeq	r0, r0, r5, lsr #32
    39b4:	00000423 	andeq	r0, r0, r3, lsr #8
    39b8:	00002528 	andeq	r2, r0, r8, lsr #10
    39bc:	00252800 	eoreq	r2, r5, r0, lsl #16
    39c0:	05000000 	streq	r0, [r0, #-0]
    39c4:	00040f04 	andeq	r0, r4, r4, lsl #30
    39c8:	008e1200 	addeq	r1, lr, r0, lsl #4
    39cc:	04390000 	ldrteq	r0, [r9], #-0
    39d0:	72130000 	andsvc	r0, r3, #0
    39d4:	0f000000 	svceq	0x00000000
    39d8:	191f2900 	ldmdbne	pc, {r8, fp, sp}	; <UNPREDICTABLE>
    39dc:	e0010000 	and	r0, r1, r0
    39e0:	00044b01 	andeq	r4, r4, r1, lsl #22
    39e4:	7c030500 	cfstr32vc	mvfx0, [r3], {-0}
    39e8:	060000b0 			; <UNDEFINED> instruction: 0x060000b0
    39ec:	00000429 	andeq	r0, r0, r9, lsr #8
    39f0:	0018cd29 	andseq	ip, r8, r9, lsr #26
    39f4:	01e10100 	mvneq	r0, r0, lsl #2
    39f8:	00000462 	andeq	r0, r0, r2, ror #8
    39fc:	b06c0305 	rsblt	r0, ip, r5, lsl #6
    3a00:	29060000 	stmdbcs	r6, {}	; <UNPREDICTABLE>
    3a04:	12000004 	andne	r0, r0, #4
    3a08:	00000477 	andeq	r0, r0, r7, ror r4
    3a0c:	00000477 	andeq	r0, r0, r7, ror r4
    3a10:	00007213 	andeq	r7, r0, r3, lsl r2
    3a14:	06001000 	streq	r1, [r0], -r0
    3a18:	00000048 	andeq	r0, r0, r8, asr #32
    3a1c:	0019112a 	andseq	r1, r9, sl, lsr #2
    3a20:	01e20100 	mvneq	r0, r0, lsl #2
    3a24:	0000049a 	muleq	r0, sl, r4
    3a28:	01000011 	tsteq	r0, r1, lsl r0
    3a2c:	00000200 	andeq	r0, r0, r0, lsl #4
    3a30:	00000300 	andeq	r0, r0, r0, lsl #6
    3a34:	00000000 	andeq	r0, r0, r0
    3a38:	67060400 	strvs	r0, [r6, -r0, lsl #8]
    3a3c:	2b000004 	blcs	3a54 <SCTLR_ENABLE_INSTRUCTION_CACHE+0x2a54>
    3a40:	30119e13 	andscc	r9, r1, r3, lsl lr
    3a44:	34333231 	ldrtcc	r3, [r3], #-561	; 0xfffffdcf
    3a48:	38373635 	ldmdacc	r7!, {r0, r2, r4, r5, r9, sl, ip, sp}
    3a4c:	63626139 	cmnvs	r2, #1073741838	; 0x4000000e
    3a50:	00666564 	rsbeq	r6, r6, r4, ror #10
    3a54:	0018ee2c 	andseq	lr, r8, ip, lsr #28
    3a58:	0018ee00 	andseq	lr, r8, r0, lsl #28
    3a5c:	00250400 	eoreq	r0, r5, r0, lsl #8
    3a60:	000000c7 	andeq	r0, r0, r7, asr #1
    3a64:	15e70004 	strbne	r0, [r7, #4]!
    3a68:	01040000 	mrseq	r0, (UNDEF: 4)
    3a6c:	000017b5 			; <UNDEFINED> instruction: 0x000017b5
    3a70:	0019e50c 	andseq	lr, r9, ip, lsl #10
    3a74:	00182d00 	andseq	r2, r8, r0, lsl #26
    3a78:	00a19400 	adceq	r9, r1, r0, lsl #8
    3a7c:	00003000 	andeq	r3, r0, r0
    3a80:	00172e00 	andseq	r2, r7, r0, lsl #28
    3a84:	05040200 	streq	r0, [r4, #-512]	; 0xfffffe00
    3a88:	00746e69 	rsbseq	r6, r4, r9, ror #28
    3a8c:	00034803 	andeq	r4, r3, r3, lsl #16
    3a90:	37d80200 	ldrbcc	r0, [r8, r0, lsl #4]
    3a94:	04000000 	streq	r0, [r0], #-0
    3a98:	00570704 	subseq	r0, r7, r4, lsl #14
    3a9c:	08040000 	stmdaeq	r4, {}	; <UNPREDICTABLE>
    3aa0:	00010c05 	andeq	r0, r1, r5, lsl #24
    3aa4:	04080400 	streq	r0, [r8], #-1024	; 0xfffffc00
    3aa8:	00000426 	andeq	r0, r0, r6, lsr #8
    3aac:	0d060104 	stfeqs	f0, [r6, #-16]
    3ab0:	04000000 	streq	r0, [r0], #-0
    3ab4:	000b0801 	andeq	r0, fp, r1, lsl #16
    3ab8:	02040000 	andeq	r0, r4, #0
    3abc:	00016b05 	andeq	r6, r1, r5, lsl #22
    3ac0:	07020400 	streq	r0, [r2, -r0, lsl #8]
    3ac4:	00000019 	andeq	r0, r0, r9, lsl r0
    3ac8:	11050404 	tstne	r5, r4, lsl #8
    3acc:	04000001 	streq	r0, [r0], #-1
    3ad0:	00520704 	subseq	r0, r2, r4, lsl #14
    3ad4:	08040000 	stmdaeq	r4, {}	; <UNPREDICTABLE>
    3ad8:	00004d07 	andeq	r4, r0, r7, lsl #26
    3adc:	07040400 	streq	r0, [r4, -r0, lsl #8]
    3ae0:	0000034f 	andeq	r0, r0, pc, asr #6
    3ae4:	14080104 	strne	r0, [r8], #-260	; 0xfffffefc
    3ae8:	05000000 	streq	r0, [r0, #-0]
    3aec:	00009104 	andeq	r9, r0, r4, lsl #2
    3af0:	00840600 	addeq	r0, r4, r0, lsl #12
    3af4:	ee070000 	cdp	0, 0, cr0, cr7, cr0, {0}
    3af8:	03000018 	movweq	r0, #24
    3afc:	00002c25 	andeq	r2, r0, r5, lsr #24
    3b00:	00a19400 	adceq	r9, r1, r0, lsl #8
    3b04:	00003000 	andeq	r3, r0, r0
    3b08:	089c0100 	ldmeq	ip, {r8}
    3b0c:	00727473 	rsbseq	r7, r2, r3, ror r4
    3b10:	008b0301 	addeq	r0, fp, r1, lsl #6
    3b14:	194a0000 	stmdbne	sl, {}^	; <UNPREDICTABLE>
    3b18:	6c090000 	stcvs	0, cr0, [r9], {-0}
    3b1c:	01006e65 	tsteq	r0, r5, ror #28
    3b20:	00002c04 	andeq	r2, r0, r4, lsl #24
    3b24:	00198400 	andseq	r8, r9, r0, lsl #8
    3b28:	Address 0x0000000000003b28 is out of bounds.


Disassembly of section .debug_abbrev:

00000000 <.debug_abbrev>:
       0:	10001101 	andne	r1, r0, r1, lsl #2
       4:	12011106 	andne	r1, r1, #-2147483647	; 0x80000001
       8:	1b080301 	blne	200c14 <__kernel_end+0x9ec14>
       c:	13082508 	movwne	r2, #34056	; 0x8508
      10:	00000005 	andeq	r0, r0, r5
      14:	25011101 	strcs	r1, [r1, #-257]	; 0xfffffeff
      18:	030b130e 	movweq	r1, #45838	; 0xb30e
      1c:	110e1b0e 	tstne	lr, lr, lsl #22
      20:	10061201 	andne	r1, r6, r1, lsl #4
      24:	02000017 	andeq	r0, r0, #23
      28:	0b0b0024 	bleq	2c00c0 <__kernel_end+0x15e0c0>
      2c:	0e030b3e 	vmoveq.16	d3[0], r0
      30:	16030000 	strne	r0, [r3], -r0
      34:	3a0e0300 	bcc	380c3c <__kernel_end+0x21ec3c>
      38:	490b3b0b 	stmdbmi	fp, {r0, r1, r3, r8, r9, fp, ip, sp}
      3c:	04000013 	streq	r0, [r0], #-19	; 0xffffffed
      40:	0b0b0024 	bleq	2c00d8 <__kernel_end+0x15e0d8>
      44:	08030b3e 	stmdaeq	r3, {r1, r2, r3, r4, r5, r8, r9, fp}
      48:	2e050000 	cdpcs	0, 0, cr0, cr5, cr0, {0}
      4c:	03193f01 	tsteq	r9, #1, 30
      50:	3b0b3a0e 	blcc	2ce890 <__kernel_end+0x16c890>
      54:	1119270b 	tstne	r9, fp, lsl #14
      58:	40061201 	andmi	r1, r6, r1, lsl #4
      5c:	19429718 	stmdbne	r2, {r3, r4, r8, r9, sl, ip, pc}^
      60:	00001301 	andeq	r1, r0, r1, lsl #6
      64:	03000506 	movweq	r0, #1286	; 0x506
      68:	3b0b3a08 	blcc	2ce890 <__kernel_end+0x16c890>
      6c:	0213490b 	andseq	r4, r3, #180224	; 0x2c000
      70:	07000017 	smladeq	r0, r7, r0, r0
      74:	08030034 	stmdaeq	r3, {r2, r4, r5}
      78:	0b3b0b3a 	bleq	ec2d68 <__kernel_end+0xd60d68>
      7c:	17021349 	strne	r1, [r2, -r9, asr #6]
      80:	34080000 	strcc	r0, [r8], #-0
      84:	3a0e0300 	bcc	380c8c <__kernel_end+0x21ec8c>
      88:	490b3b0b 	stmdbmi	fp, {r0, r1, r3, r8, r9, fp, ip, sp}
      8c:	09000013 	stmdbeq	r0, {r0, r1, r4}
      90:	00018289 	andeq	r8, r1, r9, lsl #5
      94:	13310111 	teqne	r1, #1073741828	; 0x40000004
      98:	0f0a0000 	svceq	0x000a0000
      9c:	490b0b00 	stmdbmi	fp, {r8, r9, fp}
      a0:	0b000013 	bleq	f4 <ARM_I_BIT+0x74>
      a4:	0e030034 	mcreq	0, 0, r0, cr3, cr4, {1}
      a8:	0b3b0b3a 	bleq	ec2d98 <__kernel_end+0xd60d98>
      ac:	193f1349 	ldmdbne	pc!, {r0, r3, r6, r8, r9, ip}	; <UNPREDICTABLE>
      b0:	0000193c 	andeq	r1, r0, ip, lsr r9
      b4:	3f002e0c 	svccc	0x00002e0c
      b8:	6e193c19 	mrcvs	12, 0, r3, cr9, cr9, {0}
      bc:	3a0e030e 	bcc	380cfc <__kernel_end+0x21ecfc>
      c0:	000b3b0b 	andeq	r3, fp, fp, lsl #22
      c4:	11010000 	mrsne	r0, (UNDEF: 1)
      c8:	130e2501 	movwne	r2, #58625	; 0xe501
      cc:	1b0e030b 	blne	380d00 <__kernel_end+0x21ed00>
      d0:	1201110e 	andne	r1, r1, #-2147483645	; 0x80000003
      d4:	00171006 	andseq	r1, r7, r6
      d8:	00240200 	eoreq	r0, r4, r0, lsl #4
      dc:	0b3e0b0b 	bleq	f82d10 <__kernel_end+0xe20d10>
      e0:	00000e03 	andeq	r0, r0, r3, lsl #28
      e4:	03001603 	movweq	r1, #1539	; 0x603
      e8:	3b0b3a0e 	blcc	2ce928 <__kernel_end+0x16c928>
      ec:	0013490b 	andseq	r4, r3, fp, lsl #18
      f0:	00240400 	eoreq	r0, r4, r0, lsl #8
      f4:	0b3e0b0b 	bleq	f82d28 <__kernel_end+0xe20d28>
      f8:	00000803 	andeq	r0, r0, r3, lsl #16
      fc:	49003505 	stmdbmi	r0, {r0, r2, r8, sl, ip, sp}
     100:	06000013 			; <UNDEFINED> instruction: 0x06000013
     104:	0b0b0113 	bleq	2c0558 <__kernel_end+0x15e558>
     108:	0b3b0b3a 	bleq	ec2df8 <__kernel_end+0xd60df8>
     10c:	00001301 	andeq	r1, r0, r1, lsl #6
     110:	03000d07 	movweq	r0, #3335	; 0xd07
     114:	3b0b3a0e 	blcc	2ce954 <__kernel_end+0x16c954>
     118:	3813490b 	ldmdacc	r3, {r0, r1, r3, r8, fp, lr}
     11c:	0800000b 	stmdaeq	r0, {r0, r1, r3}
     120:	0b0b0104 	bleq	2c0538 <__kernel_end+0x15e538>
     124:	0b3a1349 	bleq	e84e50 <__kernel_end+0xd22e50>
     128:	13010b3b 	movwne	r0, #6971	; 0x1b3b
     12c:	28090000 	stmdacs	r9, {}	; <UNPREDICTABLE>
     130:	1c0e0300 	stcne	3, cr0, [lr], {-0}
     134:	0a00000b 	beq	168 <ARM_I_BIT+0xe8>
     138:	193f002e 	ldmdbne	pc!, {r1, r2, r3, r5}	; <UNPREDICTABLE>
     13c:	0b3a0e03 	bleq	e83950 <__kernel_end+0xd21950>
     140:	19270b3b 	stmdbne	r7!, {r0, r1, r3, r4, r5, r8, r9, fp}
     144:	01111349 	tsteq	r1, r9, asr #6
     148:	18400612 	stmdane	r0, {r1, r4, r9, sl}^
     14c:	00194297 	mulseq	r9, r7, r2
     150:	000f0b00 	andeq	r0, pc, r0, lsl #22
     154:	13490b0b 	movtne	r0, #39691	; 0x9b0b
     158:	2e0c0000 	cdpcs	0, 0, cr0, cr12, cr0, {0}
     15c:	03193f01 	tsteq	r9, #1, 30
     160:	3b0b3a0e 	blcc	2ce9a0 <__kernel_end+0x16c9a0>
     164:	1119270b 	tstne	r9, fp, lsl #14
     168:	40061201 	andmi	r1, r6, r1, lsl #4
     16c:	19429718 	stmdbne	r2, {r3, r4, r8, r9, sl, ip, pc}^
     170:	00001301 	andeq	r1, r0, r1, lsl #6
     174:	0182890d 	orreq	r8, r2, sp, lsl #18
     178:	31011100 	mrscc	r1, (UNDEF: 17)
     17c:	0e000013 	mcreq	0, 0, r0, cr0, cr3, {0}
     180:	0e030034 	mcreq	0, 0, r0, cr3, cr4, {1}
     184:	0b3b0b3a 	bleq	ec2e74 <__kernel_end+0xd60e74>
     188:	061c1349 	ldreq	r1, [ip], -r9, asr #6
     18c:	260f0000 	strcs	r0, [pc], -r0
     190:	00134900 	andseq	r4, r3, r0, lsl #18
     194:	002e1000 	eoreq	r1, lr, r0
     198:	193c193f 	ldmdbne	ip!, {r0, r1, r2, r3, r4, r5, r8, fp, ip}
     19c:	0e030e6e 	cdpeq	14, 0, cr0, cr3, cr14, {3}
     1a0:	0b3b0b3a 	bleq	ec2e90 <__kernel_end+0xd60e90>
     1a4:	01000000 	mrseq	r0, (UNDEF: 0)
     1a8:	0e250111 	mcreq	1, 1, r0, cr5, cr1, {0}
     1ac:	0e030b13 	vmoveq.32	d3[0], r0
     1b0:	01110e1b 	tsteq	r1, fp, lsl lr
     1b4:	17100612 			; <UNDEFINED> instruction: 0x17100612
     1b8:	24020000 	strcs	r0, [r2], #-0
     1bc:	3e0b0b00 	vmlacc.f64	d0, d11, d0
     1c0:	000e030b 	andeq	r0, lr, fp, lsl #6
     1c4:	00240300 	eoreq	r0, r4, r0, lsl #6
     1c8:	0b3e0b0b 	bleq	f82dfc <__kernel_end+0xe20dfc>
     1cc:	00000803 	andeq	r0, r0, r3, lsl #16
     1d0:	03001604 	movweq	r1, #1540	; 0x604
     1d4:	3b0b3a0e 	blcc	2cea14 <__kernel_end+0x16ca14>
     1d8:	0013490b 	andseq	r4, r3, fp, lsl #18
     1dc:	00350500 	eorseq	r0, r5, r0, lsl #10
     1e0:	00001349 	andeq	r1, r0, r9, asr #6
     1e4:	0b000f06 	bleq	3e04 <SCTLR_ENABLE_INSTRUCTION_CACHE+0x2e04>
     1e8:	0013490b 	andseq	r4, r3, fp, lsl #18
     1ec:	00150700 	andseq	r0, r5, r0, lsl #14
     1f0:	00001927 	andeq	r1, r0, r7, lsr #18
     1f4:	0b010408 	bleq	4121c <__first_lvl_tbl_end+0x2021c>
     1f8:	3a13490b 	bcc	4d262c <__kernel_end+0x37062c>
     1fc:	010b3b0b 	tsteq	fp, fp, lsl #22
     200:	09000013 	stmdbeq	r0, {r0, r1, r4}
     204:	0e030028 	cdpeq	0, 0, cr0, cr3, cr8, {1}
     208:	00000b1c 	andeq	r0, r0, ip, lsl fp
     20c:	0b01130a 	bleq	44e3c <__first_lvl_tbl_end+0x23e3c>
     210:	3b0b3a0b 	blcc	2cea44 <__kernel_end+0x16ca44>
     214:	0013010b 	andseq	r0, r3, fp, lsl #2
     218:	000d0b00 	andeq	r0, sp, r0, lsl #22
     21c:	0b3a0e03 	bleq	e83a30 <__kernel_end+0xd21a30>
     220:	13490b3b 	movtne	r0, #39739	; 0x9b3b
     224:	00000b38 	andeq	r0, r0, r8, lsr fp
     228:	3f012e0c 	svccc	0x00012e0c
     22c:	3a0e0319 	bcc	380e98 <__kernel_end+0x21ee98>
     230:	270b3b0b 	strcs	r3, [fp, -fp, lsl #22]
     234:	20134919 	andscs	r4, r3, r9, lsl r9
     238:	0013010b 	andseq	r0, r3, fp, lsl #2
     23c:	00340d00 	eorseq	r0, r4, r0, lsl #26
     240:	0b3a0803 	bleq	e82254 <__kernel_end+0xd20254>
     244:	13490b3b 	movtne	r0, #39739	; 0x9b3b
     248:	2e0e0000 	cdpcs	0, 0, cr0, cr14, cr0, {0}
     24c:	03193f00 	tsteq	r9, #0, 30
     250:	3b0b3a0e 	blcc	2cea90 <__kernel_end+0x16ca90>
     254:	2019270b 	andscs	r2, r9, fp, lsl #14
     258:	0f00000b 	svceq	0x0000000b
     25c:	193f002e 	ldmdbne	pc!, {r1, r2, r3, r5}	; <UNPREDICTABLE>
     260:	0b3a0e03 	bleq	e83a74 <__kernel_end+0xd21a74>
     264:	19270b3b 	stmdbne	r7!, {r0, r1, r3, r4, r5, r8, r9, fp}
     268:	01111349 	tsteq	r1, r9, asr #6
     26c:	18400612 	stmdane	r0, {r1, r4, r9, sl}^
     270:	00194297 	mulseq	r9, r7, r2
     274:	012e1000 			; <UNDEFINED> instruction: 0x012e1000
     278:	0e03193f 	mcreq	9, 0, r1, cr3, cr15, {1}
     27c:	0b3b0b3a 	bleq	ec2f6c <__kernel_end+0xd60f6c>
     280:	01111927 	tsteq	r1, r7, lsr #18
     284:	18400612 	stmdane	r0, {r1, r4, r9, sl}^
     288:	01194297 			; <UNDEFINED> instruction: 0x01194297
     28c:	11000013 	tstne	r0, r3, lsl r0
     290:	00018289 	andeq	r8, r1, r9, lsl #5
     294:	13310111 	teqne	r1, #1073741828	; 0x40000004
     298:	2e120000 	cdpcs	0, 1, cr0, cr2, cr0, {0}
     29c:	03193f01 	tsteq	r9, #1, 30
     2a0:	3b0b3a0e 	blcc	2ceae0 <__kernel_end+0x16cae0>
     2a4:	1119270b 	tstne	r9, fp, lsl #14
     2a8:	40061201 	andmi	r1, r6, r1, lsl #4
     2ac:	19429618 	stmdbne	r2, {r3, r4, r9, sl, ip, pc}^
     2b0:	00001301 	andeq	r1, r0, r1, lsl #6
     2b4:	03003413 	movweq	r3, #1043	; 0x413
     2b8:	3b0b3a08 	blcc	2ceae0 <__kernel_end+0x16cae0>
     2bc:	0213490b 	andseq	r4, r3, #180224	; 0x2c000
     2c0:	14000017 	strne	r0, [r0], #-23	; 0xffffffe9
     2c4:	1331011d 	teqne	r1, #1073741831	; 0x40000007
     2c8:	06120111 			; <UNDEFINED> instruction: 0x06120111
     2cc:	0b590b58 	bleq	1643034 <__kernel_end+0x14e1034>
     2d0:	00001301 	andeq	r1, r0, r1, lsl #6
     2d4:	31011d15 	tstcc	r1, r5, lsl sp
     2d8:	12011113 	andne	r1, r1, #-1073741820	; 0xc0000004
     2dc:	590b5806 	stmdbpl	fp, {r1, r2, fp, ip, lr}
     2e0:	1600000b 	strne	r0, [r0], -fp
     2e4:	0111010b 	tsteq	r1, fp, lsl #2
     2e8:	00000612 	andeq	r0, r0, r2, lsl r6
     2ec:	31003417 	tstcc	r0, r7, lsl r4
     2f0:	18000013 	stmdane	r0, {r0, r1, r4}
     2f4:	0e030005 	cdpeq	0, 0, cr0, cr3, cr5, {0}
     2f8:	0b3b0b3a 	bleq	ec2fe8 <__kernel_end+0xd60fe8>
     2fc:	17021349 	strne	r1, [r2, -r9, asr #6]
     300:	05190000 	ldreq	r0, [r9, #-0]
     304:	3a0e0300 	bcc	380f0c <__kernel_end+0x21ef0c>
     308:	490b3b0b 	stmdbmi	fp, {r0, r1, r3, r8, r9, fp, ip, sp}
     30c:	00180213 	andseq	r0, r8, r3, lsl r2
     310:	00341a00 	eorseq	r1, r4, r0, lsl #20
     314:	0b3a0e03 	bleq	e83b28 <__kernel_end+0xd21b28>
     318:	13490b3b 	movtne	r0, #39739	; 0x9b3b
     31c:	00001702 	andeq	r1, r0, r2, lsl #14
     320:	3f012e1b 	svccc	0x00012e1b
     324:	3a0e0319 	bcc	380f90 <__kernel_end+0x21ef90>
     328:	270b3b0b 	strcs	r3, [fp, -fp, lsl #22]
     32c:	11134919 	tstne	r3, r9, lsl r9
     330:	40061201 	andmi	r1, r6, r1, lsl #4
     334:	19429718 	stmdbne	r2, {r3, r4, r8, r9, sl, ip, pc}^
     338:	00001301 	andeq	r1, r0, r1, lsl #6
     33c:	0300051c 	movweq	r0, #1308	; 0x51c
     340:	3b0b3a08 	blcc	2ceb68 <__kernel_end+0x16cb68>
     344:	0213490b 	andseq	r4, r3, #180224	; 0x2c000
     348:	1d000018 	stcne	0, cr0, [r0, #-96]	; 0xffffffa0
     34c:	08030005 	stmdaeq	r3, {r0, r2}
     350:	0b3b0b3a 	bleq	ec3040 <__kernel_end+0xd61040>
     354:	17021349 	strne	r1, [r2, -r9, asr #6]
     358:	341e0000 	ldrcc	r0, [lr], #-0
     35c:	3a080300 	bcc	200f64 <__kernel_end+0x9ef64>
     360:	490b3b0b 	stmdbmi	fp, {r0, r1, r3, r8, r9, fp, ip, sp}
     364:	00180213 	andseq	r0, r8, r3, lsl r2
     368:	00341f00 	eorseq	r1, r4, r0, lsl #30
     36c:	0b3a0e03 	bleq	e83b80 <__kernel_end+0xd21b80>
     370:	13490b3b 	movtne	r0, #39739	; 0x9b3b
     374:	00001802 	andeq	r1, r0, r2, lsl #16
     378:	0b000f20 	bleq	4000 <SCTLR_ENABLE_INSTRUCTION_CACHE+0x3000>
     37c:	2100000b 	tstcs	r0, fp
     380:	01018289 	smlabbeq	r1, r9, r2, r8
     384:	42950111 	addsmi	r0, r5, #1073741828	; 0x40000004
     388:	00133119 	andseq	r3, r3, r9, lsl r1
     38c:	828a2200 	addhi	r2, sl, #0, 4
     390:	18020001 	stmdane	r2, {r0}
     394:	00184291 	mulseq	r8, r1, r2
     398:	82892300 	addhi	r2, r9, #0, 6
     39c:	01110101 	tsteq	r1, r1, lsl #2
     3a0:	13011331 	movwne	r1, #4913	; 0x1331
     3a4:	89240000 	stmdbhi	r4!, {}	; <UNPREDICTABLE>
     3a8:	11010182 	smlabbne	r1, r2, r1, r0
     3ac:	00133101 	andseq	r3, r3, r1, lsl #2
     3b0:	00342500 	eorseq	r2, r4, r0, lsl #10
     3b4:	0b3a0e03 	bleq	e83bc8 <__kernel_end+0xd21bc8>
     3b8:	13490b3b 	movtne	r0, #39739	; 0x9b3b
     3bc:	0000061c 	andeq	r0, r0, ip, lsl r6
     3c0:	49002626 	stmdbmi	r0, {r1, r2, r5, r9, sl, sp}
     3c4:	27000013 	smladcs	r0, r3, r0, r0
     3c8:	13490101 	movtne	r0, #37121	; 0x9101
     3cc:	00001301 	andeq	r1, r0, r1, lsl #6
     3d0:	49002128 	stmdbmi	r0, {r3, r5, r8, sp}
     3d4:	000b2f13 	andeq	r2, fp, r3, lsl pc
     3d8:	00342900 	eorseq	r2, r4, r0, lsl #18
     3dc:	0b3a0e03 	bleq	e83bf0 <__kernel_end+0xd21bf0>
     3e0:	13490b3b 	movtne	r0, #39739	; 0x9b3b
     3e4:	1802193f 	stmdane	r2, {r0, r1, r2, r3, r4, r5, r8, fp, ip}
     3e8:	2e2a0000 	cdpcs	0, 2, cr0, cr10, cr0, {0}
     3ec:	3c193f00 	ldccc	15, cr3, [r9], {-0}
     3f0:	030e6e19 	movweq	r6, #60953	; 0xee19
     3f4:	3b0b3a0e 	blcc	2cec34 <__kernel_end+0x16cc34>
     3f8:	0000000b 	andeq	r0, r0, fp
     3fc:	25011101 	strcs	r1, [r1, #-257]	; 0xfffffeff
     400:	030b130e 	movweq	r1, #45838	; 0xb30e
     404:	110e1b0e 	tstne	lr, lr, lsl #22
     408:	10061201 	andne	r1, r6, r1, lsl #4
     40c:	02000017 	andeq	r0, r0, #23
     410:	0b0b0024 	bleq	2c04a8 <__kernel_end+0x15e4a8>
     414:	0e030b3e 	vmoveq.16	d3[0], r0
     418:	16030000 	strne	r0, [r3], -r0
     41c:	3a0e0300 	bcc	381024 <__kernel_end+0x21f024>
     420:	490b3b0b 	stmdbmi	fp, {r0, r1, r3, r8, r9, fp, ip, sp}
     424:	04000013 	streq	r0, [r0], #-19	; 0xffffffed
     428:	0b0b0024 	bleq	2c04c0 <__kernel_end+0x15e4c0>
     42c:	08030b3e 	stmdaeq	r3, {r1, r2, r3, r4, r5, r8, r9, fp}
     430:	35050000 	strcc	r0, [r5, #-0]
     434:	00134900 	andseq	r4, r3, r0, lsl #18
     438:	01040600 	tsteq	r4, r0, lsl #12
     43c:	13490b0b 	movtne	r0, #39691	; 0x9b0b
     440:	0b3b0b3a 	bleq	ec3130 <__kernel_end+0xd61130>
     444:	00001301 	andeq	r1, r0, r1, lsl #6
     448:	03002807 	movweq	r2, #2055	; 0x807
     44c:	000b1c0e 	andeq	r1, fp, lr, lsl #24
     450:	01040800 	tsteq	r4, r0, lsl #16
     454:	0b0b0e03 	bleq	2c3c68 <__kernel_end+0x161c68>
     458:	0b3a1349 	bleq	e85184 <__kernel_end+0xd23184>
     45c:	13010b3b 	movwne	r0, #6971	; 0x1b3b
     460:	28090000 	stmdacs	r9, {}	; <UNPREDICTABLE>
     464:	1c0e0300 	stcne	3, cr0, [lr], {-0}
     468:	0a000006 	beq	488 <ARM_I_BIT+0x408>
     46c:	0b0b0113 	bleq	2c08c0 <__kernel_end+0x15e8c0>
     470:	0b3b0b3a 	bleq	ec3160 <__kernel_end+0xd61160>
     474:	00001301 	andeq	r1, r0, r1, lsl #6
     478:	03000d0b 	movweq	r0, #3339	; 0xd0b
     47c:	3b0b3a0e 	blcc	2cecbc <__kernel_end+0x16ccbc>
     480:	3813490b 	ldmdacc	r3, {r0, r1, r3, r8, fp, lr}
     484:	0c00000b 	stceq	0, cr0, [r0], {11}
     488:	13490101 	movtne	r0, #37121	; 0x9101
     48c:	00001301 	andeq	r1, r0, r1, lsl #6
     490:	4900210d 	stmdbmi	r0, {r0, r2, r3, r8, sp}
     494:	000b2f13 	andeq	r2, fp, r3, lsl pc
     498:	012e0e00 			; <UNDEFINED> instruction: 0x012e0e00
     49c:	0e03193f 	mcreq	9, 0, r1, cr3, cr15, {1}
     4a0:	0b3b0b3a 	bleq	ec3190 <__kernel_end+0xd61190>
     4a4:	01111927 	tsteq	r1, r7, lsr #18
     4a8:	18400612 	stmdane	r0, {r1, r4, r9, sl}^
     4ac:	01194297 			; <UNDEFINED> instruction: 0x01194297
     4b0:	0f000013 	svceq	0x00000013
     4b4:	0e030005 	cdpeq	0, 0, cr0, cr3, cr5, {0}
     4b8:	0b3b0b3a 	bleq	ec31a8 <__kernel_end+0xd611a8>
     4bc:	17021349 	strne	r1, [r2, -r9, asr #6]
     4c0:	2e100000 	cdpcs	0, 1, cr0, cr0, cr0, {0}
     4c4:	03193f01 	tsteq	r9, #1, 30
     4c8:	3b0b3a0e 	blcc	2ced08 <__kernel_end+0x16cd08>
     4cc:	4919270b 	ldmdbmi	r9, {r0, r1, r3, r8, r9, sl, sp}
     4d0:	12011113 	andne	r1, r1, #-1073741820	; 0xc0000004
     4d4:	97184006 	ldrls	r4, [r8, -r6]
     4d8:	13011942 	movwne	r1, #6466	; 0x1942
     4dc:	34110000 	ldrcc	r0, [r1], #-0
     4e0:	3a0e0300 	bcc	3810e8 <__kernel_end+0x21f0e8>
     4e4:	490b3b0b 	stmdbmi	fp, {r0, r1, r3, r8, r9, fp, ip, sp}
     4e8:	00170213 	andseq	r0, r7, r3, lsl r2
     4ec:	00341200 	eorseq	r1, r4, r0, lsl #4
     4f0:	0b3a0e03 	bleq	e83d04 <__kernel_end+0xd21d04>
     4f4:	13490b3b 	movtne	r0, #39739	; 0x9b3b
     4f8:	0000061c 	andeq	r0, r0, ip, lsl r6
     4fc:	0b000f13 	bleq	4150 <SCTLR_ENABLE_INSTRUCTION_CACHE+0x3150>
     500:	0013490b 	andseq	r4, r3, fp, lsl #18
     504:	00261400 	eoreq	r1, r6, r0, lsl #8
     508:	00001349 	andeq	r1, r0, r9, asr #6
     50c:	01110100 	tsteq	r1, r0, lsl #2
     510:	0b130e25 	bleq	4c3dac <__kernel_end+0x361dac>
     514:	0e1b0e03 	cdpeq	14, 1, cr0, cr11, cr3, {0}
     518:	06120111 			; <UNDEFINED> instruction: 0x06120111
     51c:	00001710 	andeq	r1, r0, r0, lsl r7
     520:	03001602 	movweq	r1, #1538	; 0x602
     524:	3b0b3a0e 	blcc	2ced64 <__kernel_end+0x16cd64>
     528:	0013490b 	andseq	r4, r3, fp, lsl #18
     52c:	01130300 	tsteq	r3, r0, lsl #6
     530:	0b0b0e03 	bleq	2c3d44 <__kernel_end+0x161d44>
     534:	0b3b0b3a 	bleq	ec3224 <__kernel_end+0xd61224>
     538:	00001301 	andeq	r1, r0, r1, lsl #6
     53c:	03000d04 	movweq	r0, #3332	; 0xd04
     540:	3813490e 	ldmdacc	r3, {r1, r2, r3, r8, fp, lr}
     544:	0019340b 	andseq	r3, r9, fp, lsl #8
     548:	000f0500 	andeq	r0, pc, r0, lsl #10
     54c:	00000b0b 	andeq	r0, r0, fp, lsl #22
     550:	0b002406 	bleq	9570 <show_dma_demo+0x138>
     554:	030b3e0b 	movweq	r3, #48651	; 0xbe0b
     558:	0700000e 	streq	r0, [r0, -lr]
     55c:	0b0b0024 	bleq	2c05f4 <__kernel_end+0x15e5f4>
     560:	08030b3e 	stmdaeq	r3, {r1, r2, r3, r4, r5, r8, r9, fp}
     564:	04080000 	streq	r0, [r8], #-0
     568:	490b0b01 	stmdbmi	fp, {r0, r8, r9, fp}
     56c:	3b0b3a13 	blcc	2cedc0 <__kernel_end+0x16cdc0>
     570:	0013010b 	andseq	r0, r3, fp, lsl #2
     574:	00280900 	eoreq	r0, r8, r0, lsl #18
     578:	0b1c0e03 	bleq	703d8c <__kernel_end+0x5a1d8c>
     57c:	280a0000 	stmdacs	sl, {}	; <UNPREDICTABLE>
     580:	1c0e0300 	stcne	3, cr0, [lr], {-0}
     584:	0b000006 	bleq	5a4 <ARM_I_BIT+0x524>
     588:	0e030028 	cdpeq	0, 0, cr0, cr3, cr8, {1}
     58c:	0000051c 	andeq	r0, r0, ip, lsl r5
     590:	0b01170c 	bleq	461c8 <__first_lvl_tbl_end+0x251c8>
     594:	3b0b3a05 	blcc	2cedb0 <__kernel_end+0x16cdb0>
     598:	0013010b 	andseq	r0, r3, fp, lsl #2
     59c:	000d0d00 	andeq	r0, sp, r0, lsl #26
     5a0:	0b3a0e03 	bleq	e83db4 <__kernel_end+0xd21db4>
     5a4:	13490b3b 	movtne	r0, #39739	; 0x9b3b
     5a8:	010e0000 	mrseq	r0, (UNDEF: 14)
     5ac:	01134901 	tsteq	r3, r1, lsl #18
     5b0:	0f000013 	svceq	0x00000013
     5b4:	13490021 	movtne	r0, #36897	; 0x9021
     5b8:	00000b2f 	andeq	r0, r0, pc, lsr #22
     5bc:	0b011310 	bleq	45204 <__first_lvl_tbl_end+0x24204>
     5c0:	3b0b3a05 	blcc	2ceddc <__kernel_end+0x16cddc>
     5c4:	0013010b 	andseq	r0, r3, fp, lsl #2
     5c8:	000d1100 	andeq	r1, sp, r0, lsl #2
     5cc:	0b3a0803 	bleq	e825e0 <__kernel_end+0xd205e0>
     5d0:	13490b3b 	movtne	r0, #39739	; 0x9b3b
     5d4:	00000b38 	andeq	r0, r0, r8, lsr fp
     5d8:	03000d12 	movweq	r0, #3346	; 0xd12
     5dc:	3b0b3a0e 	blcc	2cee1c <__kernel_end+0x16ce1c>
     5e0:	3813490b 	ldmdacc	r3, {r0, r1, r3, r8, fp, lr}
     5e4:	1300000b 	movwne	r0, #11
     5e8:	193f002e 	ldmdbne	pc!, {r1, r2, r3, r5}	; <UNPREDICTABLE>
     5ec:	0b3a0e03 	bleq	e83e00 <__kernel_end+0xd21e00>
     5f0:	19270b3b 	stmdbne	r7!, {r0, r1, r3, r4, r5, r8, r9, fp}
     5f4:	06120111 			; <UNDEFINED> instruction: 0x06120111
     5f8:	42971840 	addsmi	r1, r7, #64, 16	; 0x400000
     5fc:	14000019 	strne	r0, [r0], #-25	; 0xffffffe7
     600:	193f012e 	ldmdbne	pc!, {r1, r2, r3, r5, r8}	; <UNPREDICTABLE>
     604:	0b3a0e03 	bleq	e83e18 <__kernel_end+0xd21e18>
     608:	19270b3b 	stmdbne	r7!, {r0, r1, r3, r4, r5, r8, r9, fp}
     60c:	06120111 			; <UNDEFINED> instruction: 0x06120111
     610:	42971840 	addsmi	r1, r7, #64, 16	; 0x400000
     614:	00130119 	andseq	r0, r3, r9, lsl r1
     618:	00051500 	andeq	r1, r5, r0, lsl #10
     61c:	0b3a0803 	bleq	e82630 <__kernel_end+0xd20630>
     620:	13490b3b 	movtne	r0, #39739	; 0x9b3b
     624:	00001802 	andeq	r1, r0, r2, lsl #16
     628:	00001816 	andeq	r1, r0, r6, lsl r8
     62c:	00341700 	eorseq	r1, r4, r0, lsl #14
     630:	0b3a0803 	bleq	e82644 <__kernel_end+0xd20644>
     634:	13490b3b 	movtne	r0, #39739	; 0x9b3b
     638:	00001802 	andeq	r1, r0, r2, lsl #16
     63c:	3f012e18 	svccc	0x00012e18
     640:	3a0e0319 	bcc	3812ac <__kernel_end+0x21f2ac>
     644:	270b3b0b 	strcs	r3, [fp, -fp, lsl #22]
     648:	11134919 	tstne	r3, r9, lsl r9
     64c:	40061201 	andmi	r1, r6, r1, lsl #4
     650:	19429718 	stmdbne	r2, {r3, r4, r8, r9, sl, ip, pc}^
     654:	00001301 	andeq	r1, r0, r1, lsl #6
     658:	03003419 	movweq	r3, #1049	; 0x419
     65c:	3b0b3a0e 	blcc	2cee9c <__kernel_end+0x16ce9c>
     660:	0013490b 	andseq	r4, r3, fp, lsl #18
     664:	82891a00 	addhi	r1, r9, #0, 20
     668:	01110101 	tsteq	r1, r1, lsl #2
     66c:	13011331 	movwne	r1, #4913	; 0x1331
     670:	8a1b0000 	bhi	6c0678 <__kernel_end+0x55e678>
     674:	02000182 	andeq	r0, r0, #-2147483616	; 0x80000020
     678:	18429118 	stmdane	r2, {r3, r4, r8, ip, pc}^
     67c:	891c0000 	ldmdbhi	ip, {}	; <UNPREDICTABLE>
     680:	11010182 	smlabbne	r1, r2, r1, r0
     684:	19429501 	stmdbne	r2, {r0, r8, sl, ip, pc}^
     688:	00001331 	andeq	r1, r0, r1, lsr r3
     68c:	0300051d 	movweq	r0, #1309	; 0x51d
     690:	3b0b3a08 	blcc	2ceeb8 <__kernel_end+0x16ceb8>
     694:	0213490b 	andseq	r4, r3, #180224	; 0x2c000
     698:	1e000017 	mcrne	0, 0, r0, cr0, cr7, {0}
     69c:	0e030034 	mcreq	0, 0, r0, cr3, cr4, {1}
     6a0:	0b3b0b3a 	bleq	ec3390 <__kernel_end+0xd61390>
     6a4:	18021349 	stmdane	r2, {r0, r3, r6, r8, r9, ip}
     6a8:	341f0000 	ldrcc	r0, [pc], #-0	; 6b0 <ARM_I_BIT+0x630>
     6ac:	3a0e0300 	bcc	3812b4 <__kernel_end+0x21f2b4>
     6b0:	490b3b0b 	stmdbmi	fp, {r0, r1, r3, r8, r9, fp, ip, sp}
     6b4:	00170213 	andseq	r0, r7, r3, lsl r2
     6b8:	82892000 	addhi	r2, r9, #0
     6bc:	01110101 	tsteq	r1, r1, lsl #2
     6c0:	00001331 	andeq	r1, r0, r1, lsr r3
     6c4:	0b000f21 	bleq	4350 <SCTLR_ENABLE_INSTRUCTION_CACHE+0x3350>
     6c8:	0013490b 	andseq	r4, r3, fp, lsl #18
     6cc:	00212200 	eoreq	r2, r1, r0, lsl #4
     6d0:	052f1349 	streq	r1, [pc, #-841]!	; 38f <ARM_I_BIT+0x30f>
     6d4:	2e230000 	cdpcs	0, 2, cr0, cr3, cr0, {0}
     6d8:	3c193f00 	ldccc	15, cr3, [r9], {-0}
     6dc:	030e6e19 	movweq	r6, #60953	; 0xee19
     6e0:	3b0b3a0e 	blcc	2cef20 <__kernel_end+0x16cf20>
     6e4:	0000000b 	andeq	r0, r0, fp
     6e8:	25011101 	strcs	r1, [r1, #-257]	; 0xfffffeff
     6ec:	030b130e 	movweq	r1, #45838	; 0xb30e
     6f0:	110e1b0e 	tstne	lr, lr, lsl #22
     6f4:	10061201 	andne	r1, r6, r1, lsl #4
     6f8:	02000017 	andeq	r0, r0, #23
     6fc:	0b0b0024 	bleq	2c0794 <__kernel_end+0x15e794>
     700:	0e030b3e 	vmoveq.16	d3[0], r0
     704:	16030000 	strne	r0, [r3], -r0
     708:	3a0e0300 	bcc	381310 <__kernel_end+0x21f310>
     70c:	490b3b0b 	stmdbmi	fp, {r0, r1, r3, r8, r9, fp, ip, sp}
     710:	04000013 	streq	r0, [r0], #-19	; 0xffffffed
     714:	0b0b0024 	bleq	2c07ac <__kernel_end+0x15e7ac>
     718:	08030b3e 	stmdaeq	r3, {r1, r2, r3, r4, r5, r8, r9, fp}
     71c:	35050000 	strcc	r0, [r5, #-0]
     720:	00134900 	andseq	r4, r3, r0, lsl #18
     724:	01130600 	tsteq	r3, r0, lsl #12
     728:	0b3a0b0b 	bleq	e8335c <__kernel_end+0xd2135c>
     72c:	13010b3b 	movwne	r0, #6971	; 0x1b3b
     730:	0d070000 	stceq	0, cr0, [r7, #-0]
     734:	3a0e0300 	bcc	38133c <__kernel_end+0x21f33c>
     738:	490b3b0b 	stmdbmi	fp, {r0, r1, r3, r8, r9, fp, ip, sp}
     73c:	0d0b0b13 	vstreq	d0, [fp, #-76]	; 0xffffffb4
     740:	380b0c0b 	stmdacc	fp, {r0, r1, r3, sl, fp}
     744:	0800000b 	stmdaeq	r0, {r0, r1, r3}
     748:	0e03000d 	cdpeq	0, 0, cr0, cr3, cr13, {0}
     74c:	0b3b0b3a 	bleq	ec343c <__kernel_end+0xd6143c>
     750:	0b381349 	bleq	e0547c <__kernel_end+0xca347c>
     754:	2e090000 	cdpcs	0, 0, cr0, cr9, cr0, {0}
     758:	03193f01 	tsteq	r9, #1, 30
     75c:	3b0b3a0e 	blcc	2cef9c <__kernel_end+0x16cf9c>
     760:	1119270b 	tstne	r9, fp, lsl #14
     764:	40061201 	andmi	r1, r6, r1, lsl #4
     768:	19429718 	stmdbne	r2, {r3, r4, r8, r9, sl, ip, pc}^
     76c:	00001301 	andeq	r1, r0, r1, lsl #6
     770:	0182890a 	orreq	r8, r2, sl, lsl #18
     774:	95011100 	strls	r1, [r1, #-256]	; 0xffffff00
     778:	13311942 	teqne	r1, #1081344	; 0x108000
     77c:	050b0000 	streq	r0, [fp, #-0]
     780:	3a0e0300 	bcc	381388 <__kernel_end+0x21f388>
     784:	490b3b0b 	stmdbmi	fp, {r0, r1, r3, r8, r9, fp, ip, sp}
     788:	00170213 	andseq	r0, r7, r3, lsl r2
     78c:	00340c00 	eorseq	r0, r4, r0, lsl #24
     790:	0b3a0e03 	bleq	e83fa4 <__kernel_end+0xd21fa4>
     794:	13490b3b 	movtne	r0, #39739	; 0x9b3b
     798:	00001802 	andeq	r1, r0, r2, lsl #16
     79c:	0300340d 	movweq	r3, #1037	; 0x40d
     7a0:	3b0b3a08 	blcc	2cefc8 <__kernel_end+0x16cfc8>
     7a4:	0213490b 	andseq	r4, r3, #180224	; 0x2c000
     7a8:	0e000018 	mcreq	0, 0, r0, cr0, cr8, {0}
     7ac:	00018289 	andeq	r8, r1, r9, lsl #5
     7b0:	13310111 	teqne	r1, #1073741828	; 0x40000004
     7b4:	890f0000 	stmdbhi	pc, {}	; <UNPREDICTABLE>
     7b8:	11010182 	smlabbne	r1, r2, r1, r0
     7bc:	00133101 	andseq	r3, r3, r1, lsl #2
     7c0:	828a1000 	addhi	r1, sl, #0
     7c4:	18020001 	stmdane	r2, {r0}
     7c8:	00184291 	mulseq	r8, r1, r2
     7cc:	012e1100 			; <UNDEFINED> instruction: 0x012e1100
     7d0:	0e03193f 	mcreq	9, 0, r1, cr3, cr15, {1}
     7d4:	0b3b0b3a 	bleq	ec34c4 <__kernel_end+0xd614c4>
     7d8:	13491927 	movtne	r1, #39207	; 0x9927
     7dc:	06120111 			; <UNDEFINED> instruction: 0x06120111
     7e0:	42971840 	addsmi	r1, r7, #64, 16	; 0x400000
     7e4:	00130119 	andseq	r0, r3, r9, lsl r1
     7e8:	000f1200 	andeq	r1, pc, r0, lsl #4
     7ec:	13490b0b 	movtne	r0, #39691	; 0x9b0b
     7f0:	2e130000 	cdpcs	0, 1, cr0, cr3, cr0, {0}
     7f4:	3c193f00 	ldccc	15, cr3, [r9], {-0}
     7f8:	030e6e19 	movweq	r6, #60953	; 0xee19
     7fc:	3b0b3a0e 	blcc	2cf03c <__kernel_end+0x16d03c>
     800:	0000000b 	andeq	r0, r0, fp
     804:	25011101 	strcs	r1, [r1, #-257]	; 0xfffffeff
     808:	030b130e 	movweq	r1, #45838	; 0xb30e
     80c:	110e1b0e 	tstne	lr, lr, lsl #22
     810:	10061201 	andne	r1, r6, r1, lsl #4
     814:	02000017 	andeq	r0, r0, #23
     818:	0b0b0024 	bleq	2c08b0 <__kernel_end+0x15e8b0>
     81c:	0e030b3e 	vmoveq.16	d3[0], r0
     820:	16030000 	strne	r0, [r3], -r0
     824:	3a0e0300 	bcc	38142c <__kernel_end+0x21f42c>
     828:	490b3b0b 	stmdbmi	fp, {r0, r1, r3, r8, r9, fp, ip, sp}
     82c:	04000013 	streq	r0, [r0], #-19	; 0xffffffed
     830:	0b0b0024 	bleq	2c08c8 <__kernel_end+0x15e8c8>
     834:	08030b3e 	stmdaeq	r3, {r1, r2, r3, r4, r5, r8, r9, fp}
     838:	2e050000 	cdpcs	0, 0, cr0, cr5, cr0, {0}
     83c:	03193f01 	tsteq	r9, #1, 30
     840:	3b0b3a0e 	blcc	2cf080 <__kernel_end+0x16d080>
     844:	4919270b 	ldmdbmi	r9, {r0, r1, r3, r8, r9, sl, sp}
     848:	12011113 	andne	r1, r1, #-1073741820	; 0xc0000004
     84c:	97184006 	ldrls	r4, [r8, -r6]
     850:	13011942 	movwne	r1, #6466	; 0x1942
     854:	05060000 	streq	r0, [r6, #-0]
     858:	3a0e0300 	bcc	381460 <__kernel_end+0x21f460>
     85c:	490b3b0b 	stmdbmi	fp, {r0, r1, r3, r8, r9, fp, ip, sp}
     860:	00170213 	andseq	r0, r7, r3, lsl r2
     864:	00340700 	eorseq	r0, r4, r0, lsl #14
     868:	0b3a0e03 	bleq	e8407c <__kernel_end+0xd2207c>
     86c:	13490b3b 	movtne	r0, #39739	; 0x9b3b
     870:	00001702 	andeq	r1, r0, r2, lsl #14
     874:	01828908 	orreq	r8, r2, r8, lsl #18
     878:	31011101 	tstcc	r1, r1, lsl #2
     87c:	09000013 	stmdbeq	r0, {r0, r1, r4}
     880:	0001828a 	andeq	r8, r1, sl, lsl #5
     884:	42911802 	addsmi	r1, r1, #131072	; 0x20000
     888:	0a000018 	beq	8f0 <SCTLR_ENABLE_BRANCH_PREDICTION+0xf0>
     88c:	193f012e 	ldmdbne	pc!, {r1, r2, r3, r5, r8}	; <UNPREDICTABLE>
     890:	0b3a0e03 	bleq	e840a4 <__kernel_end+0xd220a4>
     894:	19270b3b 	stmdbne	r7!, {r0, r1, r3, r4, r5, r8, r9, fp}
     898:	06120111 			; <UNDEFINED> instruction: 0x06120111
     89c:	42971840 	addsmi	r1, r7, #64, 16	; 0x400000
     8a0:	00130119 	andseq	r0, r3, r9, lsl r1
     8a4:	00340b00 	eorseq	r0, r4, r0, lsl #22
     8a8:	0b3a0803 	bleq	e828bc <__kernel_end+0xd208bc>
     8ac:	13490b3b 	movtne	r0, #39739	; 0x9b3b
     8b0:	00001702 	andeq	r1, r0, r2, lsl #14
     8b4:	0182890c 	orreq	r8, r2, ip, lsl #18
     8b8:	31011101 	tstcc	r1, r1, lsl #2
     8bc:	00130113 	andseq	r0, r3, r3, lsl r1
     8c0:	82890d00 	addhi	r0, r9, #0, 26
     8c4:	01110001 	tsteq	r1, r1
     8c8:	00001331 	andeq	r1, r0, r1, lsr r3
     8cc:	0182890e 	orreq	r8, r2, lr, lsl #18
     8d0:	95011101 	strls	r1, [r1, #-257]	; 0xfffffeff
     8d4:	13311942 	teqne	r1, #1081344	; 0x108000
     8d8:	340f0000 	strcc	r0, [pc], #-0	; 8e0 <SCTLR_ENABLE_BRANCH_PREDICTION+0xe0>
     8dc:	3a0e0300 	bcc	3814e4 <__kernel_end+0x21f4e4>
     8e0:	490b3b0b 	stmdbmi	fp, {r0, r1, r3, r8, r9, fp, ip, sp}
     8e4:	00180213 	andseq	r0, r8, r3, lsl r2
     8e8:	00341000 	eorseq	r1, r4, r0
     8ec:	0b3a0e03 	bleq	e84100 <__kernel_end+0xd22100>
     8f0:	13490b3b 	movtne	r0, #39739	; 0x9b3b
     8f4:	193c193f 	ldmdbne	ip!, {r0, r1, r2, r3, r4, r5, r8, fp, ip}
     8f8:	2e110000 	cdpcs	0, 1, cr0, cr1, cr0, {0}
     8fc:	3c193f00 	ldccc	15, cr3, [r9], {-0}
     900:	030e6e19 	movweq	r6, #60953	; 0xee19
     904:	3b0b3a0e 	blcc	2cf144 <__kernel_end+0x16d144>
     908:	0000000b 	andeq	r0, r0, fp
     90c:	25011101 	strcs	r1, [r1, #-257]	; 0xfffffeff
     910:	030b130e 	movweq	r1, #45838	; 0xb30e
     914:	110e1b0e 	tstne	lr, lr, lsl #22
     918:	10061201 	andne	r1, r6, r1, lsl #4
     91c:	02000017 	andeq	r0, r0, #23
     920:	0b0b0024 	bleq	2c09b8 <__kernel_end+0x15e9b8>
     924:	0e030b3e 	vmoveq.16	d3[0], r0
     928:	24030000 	strcs	r0, [r3], #-0
     92c:	3e0b0b00 	vmlacc.f64	d0, d11, d0
     930:	0008030b 	andeq	r0, r8, fp, lsl #6
     934:	00160400 	andseq	r0, r6, r0, lsl #8
     938:	0b3a0e03 	bleq	e8414c <__kernel_end+0xd2214c>
     93c:	13490b3b 	movtne	r0, #39739	; 0x9b3b
     940:	13050000 	movwne	r0, #20480	; 0x5000
     944:	3a0b0b01 	bcc	2c3550 <__kernel_end+0x161550>
     948:	010b3b0b 	tsteq	fp, fp, lsl #22
     94c:	06000013 			; <UNDEFINED> instruction: 0x06000013
     950:	0e03000d 	cdpeq	0, 0, cr0, cr3, cr13, {0}
     954:	0b3b0b3a 	bleq	ec3644 <__kernel_end+0xd61644>
     958:	0b0b1349 	bleq	2c5684 <__kernel_end+0x163684>
     95c:	0b0c0b0d 	bleq	303598 <__kernel_end+0x1a1598>
     960:	00000b38 	andeq	r0, r0, r8, lsr fp
     964:	03011307 	movweq	r1, #4871	; 0x1307
     968:	3a0b0b0e 	bcc	2c35a8 <__kernel_end+0x1615a8>
     96c:	010b3b0b 	tsteq	fp, fp, lsl #22
     970:	08000013 	stmdaeq	r0, {r0, r1, r4}
     974:	0e03000d 	cdpeq	0, 0, cr0, cr3, cr13, {0}
     978:	0b3b0b3a 	bleq	ec3668 <__kernel_end+0xd61668>
     97c:	0b381349 	bleq	e056a8 <__kernel_end+0xca36a8>
     980:	0f090000 	svceq	0x00090000
     984:	490b0b00 	stmdbmi	fp, {r8, r9, fp}
     988:	0a000013 	beq	9dc <SCTLR_ENABLE_BRANCH_PREDICTION+0x1dc>
     98c:	0b0b0104 	bleq	2c0da4 <__kernel_end+0x15eda4>
     990:	0b3a1349 	bleq	e856bc <__kernel_end+0xd236bc>
     994:	13010b3b 	movwne	r0, #6971	; 0x1b3b
     998:	280b0000 	stmdacs	fp, {}	; <UNPREDICTABLE>
     99c:	1c0e0300 	stcne	3, cr0, [lr], {-0}
     9a0:	0c00000b 	stceq	0, cr0, [r0], {11}
     9a4:	0e030028 	cdpeq	0, 0, cr0, cr3, cr8, {1}
     9a8:	0000061c 	andeq	r0, r0, ip, lsl r6
     9ac:	0300280d 	movweq	r2, #2061	; 0x80d
     9b0:	00051c0e 	andeq	r1, r5, lr, lsl #24
     9b4:	01170e00 	tsteq	r7, r0, lsl #28
     9b8:	0b3a050b 	bleq	e81dec <__kernel_end+0xd1fdec>
     9bc:	13010b3b 	movwne	r0, #6971	; 0x1b3b
     9c0:	0d0f0000 	stceq	0, cr0, [pc, #-0]	; 9c8 <SCTLR_ENABLE_BRANCH_PREDICTION+0x1c8>
     9c4:	3a0e0300 	bcc	3815cc <__kernel_end+0x21f5cc>
     9c8:	490b3b0b 	stmdbmi	fp, {r0, r1, r3, r8, r9, fp, ip, sp}
     9cc:	10000013 	andne	r0, r0, r3, lsl r0
     9d0:	13490101 	movtne	r0, #37121	; 0x9101
     9d4:	00001301 	andeq	r1, r0, r1, lsl #6
     9d8:	49002111 	stmdbmi	r0, {r0, r4, r8, sp}
     9dc:	000b2f13 	andeq	r2, fp, r3, lsl pc
     9e0:	01131200 	tsteq	r3, r0, lsl #4
     9e4:	0b3a050b 	bleq	e81e18 <__kernel_end+0xd1fe18>
     9e8:	13010b3b 	movwne	r0, #6971	; 0x1b3b
     9ec:	0d130000 	ldceq	0, cr0, [r3, #-0]
     9f0:	3a080300 	bcc	2015f8 <__kernel_end+0x9f5f8>
     9f4:	490b3b0b 	stmdbmi	fp, {r0, r1, r3, r8, r9, fp, ip, sp}
     9f8:	000b3813 	andeq	r3, fp, r3, lsl r8
     9fc:	012e1400 			; <UNDEFINED> instruction: 0x012e1400
     a00:	0e03193f 	mcreq	9, 0, r1, cr3, cr15, {1}
     a04:	0b3b0b3a 	bleq	ec36f4 <__kernel_end+0xd616f4>
     a08:	0b201349 	bleq	805734 <__kernel_end+0x6a3734>
     a0c:	00001301 	andeq	r1, r0, r1, lsl #6
     a10:	03003415 	movweq	r3, #1045	; 0x415
     a14:	3b0b3a08 	blcc	2cf23c <__kernel_end+0x16d23c>
     a18:	0013490b 	andseq	r4, r3, fp, lsl #18
     a1c:	012e1600 			; <UNDEFINED> instruction: 0x012e1600
     a20:	0e03193f 	mcreq	9, 0, r1, cr3, cr15, {1}
     a24:	0b3b0b3a 	bleq	ec3714 <__kernel_end+0xd61714>
     a28:	01111927 	tsteq	r1, r7, lsr #18
     a2c:	18400612 	stmdane	r0, {r1, r4, r9, sl}^
     a30:	01194297 			; <UNDEFINED> instruction: 0x01194297
     a34:	17000013 	smladne	r0, r3, r0, r0
     a38:	0e030005 	cdpeq	0, 0, cr0, cr3, cr5, {0}
     a3c:	0b3b0b3a 	bleq	ec372c <__kernel_end+0xd6172c>
     a40:	18021349 	stmdane	r2, {r0, r3, r6, r8, r9, ip}
     a44:	2e180000 	cdpcs	0, 1, cr0, cr8, cr0, {0}
     a48:	03193f01 	tsteq	r9, #1, 30
     a4c:	3b0b3a0e 	blcc	2cf28c <__kernel_end+0x16d28c>
     a50:	4919270b 	ldmdbmi	r9, {r0, r1, r3, r8, r9, sl, sp}
     a54:	12011113 	andne	r1, r1, #-1073741820	; 0xc0000004
     a58:	97184006 	ldrls	r4, [r8, -r6]
     a5c:	13011942 	movwne	r1, #6466	; 0x1942
     a60:	05190000 	ldreq	r0, [r9, #-0]
     a64:	3a0e0300 	bcc	38166c <__kernel_end+0x21f66c>
     a68:	490b3b0b 	stmdbmi	fp, {r0, r1, r3, r8, r9, fp, ip, sp}
     a6c:	00170213 	andseq	r0, r7, r3, lsl r2
     a70:	00341a00 	eorseq	r1, r4, r0, lsl #20
     a74:	0b3a0803 	bleq	e82a88 <__kernel_end+0xd20a88>
     a78:	13490b3b 	movtne	r0, #39739	; 0x9b3b
     a7c:	00001702 	andeq	r1, r0, r2, lsl #14
     a80:	3f012e1b 	svccc	0x00012e1b
     a84:	3a0e0319 	bcc	3816f0 <__kernel_end+0x21f6f0>
     a88:	490b3b0b 	stmdbmi	fp, {r0, r1, r3, r8, r9, fp, ip, sp}
     a8c:	12011113 	andne	r1, r1, #-1073741820	; 0xc0000004
     a90:	97184006 	ldrls	r4, [r8, -r6]
     a94:	13011942 	movwne	r1, #6466	; 0x1942
     a98:	891c0000 	ldmdbhi	ip, {}	; <UNPREDICTABLE>
     a9c:	11000182 	smlabbne	r0, r2, r1, r0
     aa0:	19429501 	stmdbne	r2, {r0, r8, sl, ip, pc}^
     aa4:	00001331 	andeq	r1, r0, r1, lsr r3
     aa8:	0300341d 	movweq	r3, #1053	; 0x41d
     aac:	3b0b3a0e 	blcc	2cf2ec <__kernel_end+0x16d2ec>
     ab0:	0213490b 	andseq	r4, r3, #180224	; 0x2c000
     ab4:	1e000017 	mcrne	0, 0, r0, cr0, cr7, {0}
     ab8:	0e030034 	mcreq	0, 0, r0, cr3, cr4, {1}
     abc:	0b3b0b3a 	bleq	ec37ac <__kernel_end+0xd617ac>
     ac0:	18021349 	stmdane	r2, {r0, r3, r6, r8, r9, ip}
     ac4:	891f0000 	ldmdbhi	pc, {}	; <UNPREDICTABLE>
     ac8:	11010182 	smlabbne	r1, r2, r1, r0
     acc:	01133101 	tsteq	r3, r1, lsl #2
     ad0:	20000013 	andcs	r0, r0, r3, lsl r0
     ad4:	0001828a 	andeq	r8, r1, sl, lsl #5
     ad8:	42911802 	addsmi	r1, r1, #131072	; 0x20000
     adc:	21000018 	tstcs	r0, r8, lsl r0
     ae0:	01018289 	smlabbeq	r1, r9, r2, r8
     ae4:	13310111 	teqne	r1, #1073741828	; 0x40000004
     ae8:	0f220000 	svceq	0x00220000
     aec:	000b0b00 	andeq	r0, fp, r0, lsl #22
     af0:	00052300 	andeq	r2, r5, r0, lsl #6
     af4:	0b3a0803 	bleq	e82b08 <__kernel_end+0xd20b08>
     af8:	13490b3b 	movtne	r0, #39739	; 0x9b3b
     afc:	00001702 	andeq	r1, r0, r2, lsl #14
     b00:	31012e24 	tstcc	r1, r4, lsr #28
     b04:	12011113 	andne	r1, r1, #-1073741820	; 0xc0000004
     b08:	97184006 	ldrls	r4, [r8, -r6]
     b0c:	13011942 	movwne	r1, #6466	; 0x1942
     b10:	34250000 	strtcc	r0, [r5], #-0
     b14:	00133100 	andseq	r3, r3, r0, lsl #2
     b18:	010b2600 	tsteq	fp, r0, lsl #12
     b1c:	06120111 			; <UNDEFINED> instruction: 0x06120111
     b20:	34270000 	strtcc	r0, [r7], #-0
     b24:	02133100 	andseq	r3, r3, #0, 2
     b28:	28000017 	stmdacs	r0, {r0, r1, r2, r4}
     b2c:	00018289 	andeq	r8, r1, r9, lsl #5
     b30:	13310111 	teqne	r1, #1073741828	; 0x40000004
     b34:	2e290000 	cdpcs	0, 2, cr0, cr9, cr0, {0}
     b38:	03193f01 	tsteq	r9, #1, 30
     b3c:	3b0b3a0e 	blcc	2cf37c <__kernel_end+0x16d37c>
     b40:	1201110b 	andne	r1, r1, #-1073741822	; 0xc0000002
     b44:	97184006 	ldrls	r4, [r8, -r6]
     b48:	13011942 	movwne	r1, #6466	; 0x1942
     b4c:	342a0000 	strtcc	r0, [sl], #-0
     b50:	3a0e0300 	bcc	381758 <__kernel_end+0x21f758>
     b54:	490b3b0b 	stmdbmi	fp, {r0, r1, r3, r8, r9, fp, ip, sp}
     b58:	3c193f13 	ldccc	15, cr3, [r9], {19}
     b5c:	2b000019 	blcs	bc8 <SCTLR_ENABLE_BRANCH_PREDICTION+0x3c8>
     b60:	0e030034 	mcreq	0, 0, r0, cr3, cr4, {1}
     b64:	0b3b0b3a 	bleq	ec3854 <__kernel_end+0xd61854>
     b68:	193f1349 	ldmdbne	pc!, {r0, r3, r6, r8, r9, ip}	; <UNPREDICTABLE>
     b6c:	00001802 	andeq	r1, r0, r2, lsl #16
     b70:	3f002e2c 	svccc	0x00002e2c
     b74:	6e193c19 	mrcvs	12, 0, r3, cr9, cr9, {0}
     b78:	3a0e030e 	bcc	3817b8 <__kernel_end+0x21f7b8>
     b7c:	000b3b0b 	andeq	r3, fp, fp, lsl #22
     b80:	11010000 	mrsne	r0, (UNDEF: 1)
     b84:	130e2501 	movwne	r2, #58625	; 0xe501
     b88:	1b0e030b 	blne	3817bc <__kernel_end+0x21f7bc>
     b8c:	1201110e 	andne	r1, r1, #-2147483645	; 0x80000003
     b90:	00171006 	andseq	r1, r7, r6
     b94:	00240200 	eoreq	r0, r4, r0, lsl #4
     b98:	0b3e0b0b 	bleq	f837cc <__kernel_end+0xe217cc>
     b9c:	00000e03 	andeq	r0, r0, r3, lsl #28
     ba0:	03001603 	movweq	r1, #1539	; 0x603
     ba4:	3b0b3a0e 	blcc	2cf3e4 <__kernel_end+0x16d3e4>
     ba8:	0013490b 	andseq	r4, r3, fp, lsl #18
     bac:	00240400 	eoreq	r0, r4, r0, lsl #8
     bb0:	0b3e0b0b 	bleq	f837e4 <__kernel_end+0xe217e4>
     bb4:	00000803 	andeq	r0, r0, r3, lsl #16
     bb8:	0b010405 	bleq	41bd4 <__first_lvl_tbl_end+0x20bd4>
     bbc:	3a13490b 	bcc	4d2ff0 <__kernel_end+0x370ff0>
     bc0:	010b3b0b 	tsteq	fp, fp, lsl #22
     bc4:	06000013 			; <UNDEFINED> instruction: 0x06000013
     bc8:	0e030028 	cdpeq	0, 0, cr0, cr3, cr8, {1}
     bcc:	0000061c 	andeq	r0, r0, ip, lsl r6
     bd0:	03012e07 	movweq	r2, #7687	; 0x1e07
     bd4:	3b0b3a0e 	blcc	2cf414 <__kernel_end+0x16d414>
     bd8:	2019270b 	andscs	r2, r9, fp, lsl #14
     bdc:	0013010b 	andseq	r0, r3, fp, lsl #2
     be0:	00050800 	andeq	r0, r5, r0, lsl #16
     be4:	0b3a0803 	bleq	e82bf8 <__kernel_end+0xd20bf8>
     be8:	13490b3b 	movtne	r0, #39739	; 0x9b3b
     bec:	05090000 	streq	r0, [r9, #-0]
     bf0:	3a0e0300 	bcc	3817f8 <__kernel_end+0x21f7f8>
     bf4:	490b3b0b 	stmdbmi	fp, {r0, r1, r3, r8, r9, fp, ip, sp}
     bf8:	0a000013 	beq	c4c <SCTLR_ENABLE_BRANCH_PREDICTION+0x44c>
     bfc:	0e03012e 	adfeqsp	f0, f3, #0.5
     c00:	0b3b0b3a 	bleq	ec38f0 <__kernel_end+0xd618f0>
     c04:	13491927 	movtne	r1, #39207	; 0x9927
     c08:	13010b20 	movwne	r0, #6944	; 0x1b20
     c0c:	2e0b0000 	cdpcs	0, 0, cr0, cr11, cr0, {0}
     c10:	03193f01 	tsteq	r9, #1, 30
     c14:	3b0b3a0e 	blcc	2cf454 <__kernel_end+0x16d454>
     c18:	1201110b 	andne	r1, r1, #-1073741822	; 0xc0000002
     c1c:	97184006 	ldrls	r4, [r8, -r6]
     c20:	13011942 	movwne	r1, #6466	; 0x1942
     c24:	1d0c0000 	stcne	0, cr0, [ip, #-0]
     c28:	52133101 	andspl	r3, r3, #1073741824	; 0x40000000
     c2c:	58175501 	ldmdapl	r7, {r0, r8, sl, ip, lr}
     c30:	010b590b 	tsteq	fp, fp, lsl #18
     c34:	0d000013 	stceq	0, cr0, [r0, #-76]	; 0xffffffb4
     c38:	13310005 	teqne	r1, #5
     c3c:	00001702 	andeq	r1, r0, r2, lsl #14
     c40:	31011d0e 	tstcc	r1, lr, lsl #26
     c44:	12011113 	andne	r1, r1, #-1073741820	; 0xc0000004
     c48:	590b5806 	stmdbpl	fp, {r1, r2, fp, ip, lr}
     c4c:	0013010b 	andseq	r0, r3, fp, lsl #2
     c50:	011d0f00 	tsteq	sp, r0, lsl #30
     c54:	01521331 	cmpeq	r2, r1, lsr r3
     c58:	0b581755 	bleq	16069b4 <__kernel_end+0x14a49b4>
     c5c:	00000b59 	andeq	r0, r0, r9, asr fp
     c60:	3f012e10 	svccc	0x00012e10
     c64:	3a0e0319 	bcc	3818d0 <__kernel_end+0x21f8d0>
     c68:	270b3b0b 	strcs	r3, [fp, -fp, lsl #22]
     c6c:	12011119 	andne	r1, r1, #1073741830	; 0x40000006
     c70:	97184006 	ldrls	r4, [r8, -r6]
     c74:	13011942 	movwne	r1, #6466	; 0x1942
     c78:	05110000 	ldreq	r0, [r1, #-0]
     c7c:	3a080300 	bcc	201884 <__kernel_end+0x9f884>
     c80:	490b3b0b 	stmdbmi	fp, {r0, r1, r3, r8, r9, fp, ip, sp}
     c84:	00180213 	andseq	r0, r8, r3, lsl r2
     c88:	011d1200 	tsteq	sp, r0, lsl #4
     c8c:	01111331 	tsteq	r1, r1, lsr r3
     c90:	0b580612 	bleq	16024e0 <__kernel_end+0x14a04e0>
     c94:	00000b59 	andeq	r0, r0, r9, asr fp
     c98:	3f012e13 	svccc	0x00012e13
     c9c:	3a0e0319 	bcc	381908 <__kernel_end+0x21f908>
     ca0:	490b3b0b 	stmdbmi	fp, {r0, r1, r3, r8, r9, fp, ip, sp}
     ca4:	12011113 	andne	r1, r1, #-1073741820	; 0xc0000004
     ca8:	97184006 	ldrls	r4, [r8, -r6]
     cac:	13011942 	movwne	r1, #6466	; 0x1942
     cb0:	05140000 	ldreq	r0, [r4, #-0]
     cb4:	3a080300 	bcc	2018bc <__kernel_end+0x9f8bc>
     cb8:	490b3b0b 	stmdbmi	fp, {r0, r1, r3, r8, r9, fp, ip, sp}
     cbc:	00170213 	andseq	r0, r7, r3, lsl r2
     cc0:	010b1500 	tsteq	fp, r0, lsl #10
     cc4:	06120111 			; <UNDEFINED> instruction: 0x06120111
     cc8:	34160000 	ldrcc	r0, [r6], #-0
     ccc:	3a080300 	bcc	2018d4 <__kernel_end+0x9f8d4>
     cd0:	490b3b0b 	stmdbmi	fp, {r0, r1, r3, r8, r9, fp, ip, sp}
     cd4:	00170213 	andseq	r0, r7, r3, lsl r2
     cd8:	82891700 	addhi	r1, r9, #0, 14
     cdc:	01110001 	tsteq	r1, r1
     ce0:	00001331 	andeq	r1, r0, r1, lsr r3
     ce4:	0b000f18 	bleq	494c <SCTLR_ENABLE_INSTRUCTION_CACHE+0x394c>
     ce8:	0013490b 	andseq	r4, r3, fp, lsl #18
     cec:	00261900 	eoreq	r1, r6, r0, lsl #18
     cf0:	00001349 	andeq	r1, r0, r9, asr #6
     cf4:	3f012e1a 	svccc	0x00012e1a
     cf8:	3a0e0319 	bcc	381964 <__kernel_end+0x21f964>
     cfc:	270b3b0b 	strcs	r3, [fp, -fp, lsl #22]
     d00:	12011119 	andne	r1, r1, #1073741830	; 0x40000006
     d04:	97184006 	ldrls	r4, [r8, -r6]
     d08:	00001942 	andeq	r1, r0, r2, asr #18
     d0c:	0182891b 	orreq	r8, r2, fp, lsl r9
     d10:	31011101 	tstcc	r1, r1, lsl #2
     d14:	00130113 	andseq	r0, r3, r3, lsl r1
     d18:	828a1c00 	addhi	r1, sl, #0, 24
     d1c:	18020001 	stmdane	r2, {r0}
     d20:	00184291 	mulseq	r8, r1, r2
     d24:	82891d00 	addhi	r1, r9, #0, 26
     d28:	01110101 	tsteq	r1, r1, lsl #2
     d2c:	31194295 			; <UNDEFINED> instruction: 0x31194295
     d30:	00000013 	andeq	r0, r0, r3, lsl r0
     d34:	25011101 	strcs	r1, [r1, #-257]	; 0xfffffeff
     d38:	030b130e 	movweq	r1, #45838	; 0xb30e
     d3c:	110e1b0e 	tstne	lr, lr, lsl #22
     d40:	10061201 	andne	r1, r6, r1, lsl #4
     d44:	02000017 	andeq	r0, r0, #23
     d48:	0b0b0024 	bleq	2c0de0 <__kernel_end+0x15ede0>
     d4c:	0e030b3e 	vmoveq.16	d3[0], r0
     d50:	16030000 	strne	r0, [r3], -r0
     d54:	3a0e0300 	bcc	38195c <__kernel_end+0x21f95c>
     d58:	490b3b0b 	stmdbmi	fp, {r0, r1, r3, r8, r9, fp, ip, sp}
     d5c:	04000013 	streq	r0, [r0], #-19	; 0xffffffed
     d60:	0b0b0024 	bleq	2c0df8 <__kernel_end+0x15edf8>
     d64:	08030b3e 	stmdaeq	r3, {r1, r2, r3, r4, r5, r8, r9, fp}
     d68:	35050000 	strcc	r0, [r5, #-0]
     d6c:	00134900 	andseq	r4, r3, r0, lsl #18
     d70:	01130600 	tsteq	r3, r0, lsl #12
     d74:	0b0b0e03 	bleq	2c4588 <__kernel_end+0x162588>
     d78:	0b3b0b3a 	bleq	ec3a68 <__kernel_end+0xd61a68>
     d7c:	00001301 	andeq	r1, r0, r1, lsl #6
     d80:	03000d07 	movweq	r0, #3335	; 0xd07
     d84:	3b0b3a0e 	blcc	2cf5c4 <__kernel_end+0x16d5c4>
     d88:	3813490b 	ldmdacc	r3, {r0, r1, r3, r8, fp, lr}
     d8c:	0800000b 	stmdaeq	r0, {r0, r1, r3}
     d90:	0803000d 	stmdaeq	r3, {r0, r2, r3}
     d94:	0b3b0b3a 	bleq	ec3a84 <__kernel_end+0xd61a84>
     d98:	0b381349 	bleq	e05ac4 <__kernel_end+0xca3ac4>
     d9c:	01090000 	mrseq	r0, (UNDEF: 9)
     da0:	01134901 	tsteq	r3, r1, lsl #18
     da4:	0a000013 	beq	df8 <SCTLR_ENABLE_BRANCH_PREDICTION+0x5f8>
     da8:	13490021 	movtne	r0, #36897	; 0x9021
     dac:	00000b2f 	andeq	r0, r0, pc, lsr #22
     db0:	0b000f0b 	bleq	49e4 <SCTLR_ENABLE_INSTRUCTION_CACHE+0x39e4>
     db4:	0013490b 	andseq	r4, r3, fp, lsl #18
     db8:	012e0c00 			; <UNDEFINED> instruction: 0x012e0c00
     dbc:	0b3a0e03 	bleq	e845d0 <__kernel_end+0xd225d0>
     dc0:	19270b3b 	stmdbne	r7!, {r0, r1, r3, r4, r5, r8, r9, fp}
     dc4:	06120111 			; <UNDEFINED> instruction: 0x06120111
     dc8:	42971840 	addsmi	r1, r7, #64, 16	; 0x400000
     dcc:	00130119 	andseq	r0, r3, r9, lsl r1
     dd0:	00340d00 	eorseq	r0, r4, r0, lsl #26
     dd4:	0b3a0e03 	bleq	e845e8 <__kernel_end+0xd225e8>
     dd8:	13490b3b 	movtne	r0, #39739	; 0x9b3b
     ddc:	0000061c 	andeq	r0, r0, ip, lsl r6
     de0:	0300340e 	movweq	r3, #1038	; 0x40e
     de4:	3b0b3a0e 	blcc	2cf624 <__kernel_end+0x16d624>
     de8:	0213490b 	andseq	r4, r3, #180224	; 0x2c000
     dec:	0f000017 	svceq	0x00000017
     df0:	00018289 	andeq	r8, r1, r9, lsl #5
     df4:	42950111 	addsmi	r0, r5, #1073741828	; 0x40000004
     df8:	00133119 	andseq	r3, r3, r9, lsl r1
     dfc:	012e1000 			; <UNDEFINED> instruction: 0x012e1000
     e00:	0e03193f 	mcreq	9, 0, r1, cr3, cr15, {1}
     e04:	0b3b0b3a 	bleq	ec3af4 <__kernel_end+0xd61af4>
     e08:	01111927 	tsteq	r1, r7, lsr #18
     e0c:	18400612 	stmdane	r0, {r1, r4, r9, sl}^
     e10:	01194297 			; <UNDEFINED> instruction: 0x01194297
     e14:	11000013 	tstne	r0, r3, lsl r0
     e18:	0e030005 	cdpeq	0, 0, cr0, cr3, cr5, {0}
     e1c:	0b3b0b3a 	bleq	ec3b0c <__kernel_end+0xd61b0c>
     e20:	17021349 	strne	r1, [r2, -r9, asr #6]
     e24:	0b120000 	bleq	480e2c <__kernel_end+0x31ee2c>
     e28:	12011101 	andne	r1, r1, #1073741824	; 0x40000000
     e2c:	00130106 	andseq	r0, r3, r6, lsl #2
     e30:	00341300 	eorseq	r1, r4, r0, lsl #6
     e34:	0b3a0803 	bleq	e82e48 <__kernel_end+0xd20e48>
     e38:	13490b3b 	movtne	r0, #39739	; 0x9b3b
     e3c:	00001702 	andeq	r1, r0, r2, lsl #14
     e40:	01828914 	orreq	r8, r2, r4, lsl r9
     e44:	31011100 	mrscc	r1, (UNDEF: 17)
     e48:	15000013 	strne	r0, [r0, #-19]	; 0xffffffed
     e4c:	0e030005 	cdpeq	0, 0, cr0, cr3, cr5, {0}
     e50:	0b3b0b3a 	bleq	ec3b40 <__kernel_end+0xd61b40>
     e54:	18021349 	stmdane	r2, {r0, r3, r6, r8, r9, ip}
     e58:	34160000 	ldrcc	r0, [r6], #-0
     e5c:	3a080300 	bcc	201a64 <__kernel_end+0x9fa64>
     e60:	490b3b0b 	stmdbmi	fp, {r0, r1, r3, r8, r9, fp, ip, sp}
     e64:	00180213 	andseq	r0, r8, r3, lsl r2
     e68:	012e1700 			; <UNDEFINED> instruction: 0x012e1700
     e6c:	0e03193f 	mcreq	9, 0, r1, cr3, cr15, {1}
     e70:	0b3b0b3a 	bleq	ec3b60 <__kernel_end+0xd61b60>
     e74:	06120111 			; <UNDEFINED> instruction: 0x06120111
     e78:	42971840 	addsmi	r1, r7, #64, 16	; 0x400000
     e7c:	00130119 	andseq	r0, r3, r9, lsl r1
     e80:	00341800 	eorseq	r1, r4, r0, lsl #16
     e84:	0b3a0e03 	bleq	e84698 <__kernel_end+0xd22698>
     e88:	13490b3b 	movtne	r0, #39739	; 0x9b3b
     e8c:	00001802 	andeq	r1, r0, r2, lsl #16
     e90:	03003419 	movweq	r3, #1049	; 0x419
     e94:	3b0b3a0e 	blcc	2cf6d4 <__kernel_end+0x16d6d4>
     e98:	1c13490b 	ldcne	9, cr4, [r3], {11}
     e9c:	1a00000b 	bne	ed0 <SCTLR_ENABLE_BRANCH_PREDICTION+0x6d0>
     ea0:	0e030034 	mcreq	0, 0, r0, cr3, cr4, {1}
     ea4:	0b3b0b3a 	bleq	ec3b94 <__kernel_end+0xd61b94>
     ea8:	00001349 	andeq	r1, r0, r9, asr #6
     eac:	0300341b 	movweq	r3, #1051	; 0x41b
     eb0:	3b0b3a08 	blcc	2cf6d8 <__kernel_end+0x16d6d8>
     eb4:	0013490b 	andseq	r4, r3, fp, lsl #18
     eb8:	00341c00 	eorseq	r1, r4, r0, lsl #24
     ebc:	0b3a0803 	bleq	e82ed0 <__kernel_end+0xd20ed0>
     ec0:	13490b3b 	movtne	r0, #39739	; 0x9b3b
     ec4:	0000051c 	andeq	r0, r0, ip, lsl r5
     ec8:	0182891d 	orreq	r8, r2, sp, lsl r9
     ecc:	31011101 	tstcc	r1, r1, lsl #2
     ed0:	00130113 	andseq	r0, r3, r3, lsl r1
     ed4:	828a1e00 	addhi	r1, sl, #0, 28
     ed8:	18020001 	stmdane	r2, {r0}
     edc:	00184291 	mulseq	r8, r1, r2
     ee0:	82891f00 	addhi	r1, r9, #0, 30
     ee4:	01110101 	tsteq	r1, r1, lsl #2
     ee8:	00001331 	andeq	r1, r0, r1, lsr r3
     eec:	03003420 	movweq	r3, #1056	; 0x420
     ef0:	3b0b3a0e 	blcc	2cf730 <__kernel_end+0x16d730>
     ef4:	3f13490b 	svccc	0x0013490b
     ef8:	00193c19 	andseq	r3, r9, r9, lsl ip
     efc:	00342100 	eorseq	r2, r4, r0, lsl #2
     f00:	0b3a0e03 	bleq	e84714 <__kernel_end+0xd22714>
     f04:	13490b3b 	movtne	r0, #39739	; 0x9b3b
     f08:	1802193f 	stmdane	r2, {r0, r1, r2, r3, r4, r5, r8, fp, ip}
     f0c:	2e220000 	cdpcs	0, 2, cr0, cr2, cr0, {0}
     f10:	3c193f00 	ldccc	15, cr3, [r9], {-0}
     f14:	030e6e19 	movweq	r6, #60953	; 0xee19
     f18:	3b0b3a0e 	blcc	2cf758 <__kernel_end+0x16d758>
     f1c:	0000000b 	andeq	r0, r0, fp
     f20:	25011101 	strcs	r1, [r1, #-257]	; 0xfffffeff
     f24:	030b130e 	movweq	r1, #45838	; 0xb30e
     f28:	110e1b0e 	tstne	lr, lr, lsl #22
     f2c:	10061201 	andne	r1, r6, r1, lsl #4
     f30:	02000017 	andeq	r0, r0, #23
     f34:	0b0b0024 	bleq	2c0fcc <__kernel_end+0x15efcc>
     f38:	0e030b3e 	vmoveq.16	d3[0], r0
     f3c:	16030000 	strne	r0, [r3], -r0
     f40:	3a0e0300 	bcc	381b48 <__kernel_end+0x21fb48>
     f44:	490b3b0b 	stmdbmi	fp, {r0, r1, r3, r8, r9, fp, ip, sp}
     f48:	04000013 	streq	r0, [r0], #-19	; 0xffffffed
     f4c:	0b0b0024 	bleq	2c0fe4 <__kernel_end+0x15efe4>
     f50:	08030b3e 	stmdaeq	r3, {r1, r2, r3, r4, r5, r8, r9, fp}
     f54:	35050000 	strcc	r0, [r5, #-0]
     f58:	00134900 	andseq	r4, r3, r0, lsl #18
     f5c:	01040600 	tsteq	r4, r0, lsl #12
     f60:	0b0b0e03 	bleq	2c4774 <__kernel_end+0x162774>
     f64:	0b3a1349 	bleq	e85c90 <__kernel_end+0xd23c90>
     f68:	13010b3b 	movwne	r0, #6971	; 0x1b3b
     f6c:	28070000 	stmdacs	r7, {}	; <UNPREDICTABLE>
     f70:	1c0e0300 	stcne	3, cr0, [lr], {-0}
     f74:	0800000b 	stmdaeq	r0, {r0, r1, r3}
     f78:	0e030028 	cdpeq	0, 0, cr0, cr3, cr8, {1}
     f7c:	0000051c 	andeq	r0, r0, ip, lsl r5
     f80:	0b011309 	bleq	45bac <__first_lvl_tbl_end+0x24bac>
     f84:	3b0b3a0b 	blcc	2cf7b8 <__kernel_end+0x16d7b8>
     f88:	0013010b 	andseq	r0, r3, fp, lsl #2
     f8c:	000d0a00 	andeq	r0, sp, r0, lsl #20
     f90:	0b3a0e03 	bleq	e847a4 <__kernel_end+0xd227a4>
     f94:	13490b3b 	movtne	r0, #39739	; 0x9b3b
     f98:	0b0d0b0b 	bleq	343bcc <__kernel_end+0x1e1bcc>
     f9c:	0b380b0c 	bleq	e03bd4 <__kernel_end+0xca1bd4>
     fa0:	170b0000 	strne	r0, [fp, -r0]
     fa4:	3a0b0b01 	bcc	2c3bb0 <__kernel_end+0x161bb0>
     fa8:	010b3b0b 	tsteq	fp, fp, lsl #22
     fac:	0c000013 	stceq	0, cr0, [r0], {19}
     fb0:	1349000d 	movtne	r0, #36877	; 0x900d
     fb4:	0d0d0000 	stceq	0, cr0, [sp, #-0]
     fb8:	3a0e0300 	bcc	381bc0 <__kernel_end+0x21fbc0>
     fbc:	490b3b0b 	stmdbmi	fp, {r0, r1, r3, r8, r9, fp, ip, sp}
     fc0:	0e000013 	mcreq	0, 0, r0, cr0, cr3, {0}
     fc4:	0e030113 	mcreq	1, 0, r0, cr3, cr3, {0}
     fc8:	0b3a0b0b 	bleq	e83bfc <__kernel_end+0xd21bfc>
     fcc:	13010b3b 	movwne	r0, #6971	; 0x1b3b
     fd0:	0d0f0000 	stceq	0, cr0, [pc, #-0]	; fd8 <SCTLR_ENABLE_BRANCH_PREDICTION+0x7d8>
     fd4:	38134900 	ldmdacc	r3, {r8, fp, lr}
     fd8:	1000000b 	andne	r0, r0, fp
     fdc:	0b0b0104 	bleq	2c13f4 <__kernel_end+0x15f3f4>
     fe0:	0b3a1349 	bleq	e85d0c <__kernel_end+0xd23d0c>
     fe4:	13010b3b 	movwne	r0, #6971	; 0x1b3b
     fe8:	28110000 	ldmdacs	r1, {}	; <UNPREDICTABLE>
     fec:	1c0e0300 	stcne	3, cr0, [lr], {-0}
     ff0:	12000006 	andne	r0, r0, #6
     ff4:	050b0117 	streq	r0, [fp, #-279]	; 0xfffffee9
     ff8:	0b3b0b3a 	bleq	ec3ce8 <__kernel_end+0xd61ce8>
     ffc:	00001301 	andeq	r1, r0, r1, lsl #6
    1000:	49010113 	stmdbmi	r1, {r0, r1, r4, r8}
    1004:	00130113 	andseq	r0, r3, r3, lsl r1
    1008:	00211400 	eoreq	r1, r1, r0, lsl #8
    100c:	0b2f1349 	bleq	bc5d38 <__kernel_end+0xa63d38>
    1010:	13150000 	tstne	r5, #0
    1014:	3a050b01 	bcc	143c20 <dma_dest_page_1+0x1c20>
    1018:	010b3b0b 	tsteq	fp, fp, lsl #22
    101c:	16000013 			; <UNDEFINED> instruction: 0x16000013
    1020:	0803000d 	stmdaeq	r3, {r0, r2, r3}
    1024:	0b3b0b3a 	bleq	ec3d14 <__kernel_end+0xd61d14>
    1028:	0b381349 	bleq	e05d54 <__kernel_end+0xca3d54>
    102c:	0d170000 	ldceq	0, cr0, [r7, #-0]
    1030:	3a0e0300 	bcc	381c38 <__kernel_end+0x21fc38>
    1034:	490b3b0b 	stmdbmi	fp, {r0, r1, r3, r8, r9, fp, ip, sp}
    1038:	000b3813 	andeq	r3, fp, r3, lsl r8
    103c:	012e1800 			; <UNDEFINED> instruction: 0x012e1800
    1040:	0e03193f 	mcreq	9, 0, r1, cr3, cr15, {1}
    1044:	0b3b0b3a 	bleq	ec3d34 <__kernel_end+0xd61d34>
    1048:	13491927 	movtne	r1, #39207	; 0x9927
    104c:	13010b20 	movwne	r0, #6944	; 0x1b20
    1050:	34190000 	ldrcc	r0, [r9], #-0
    1054:	3a0e0300 	bcc	381c5c <__kernel_end+0x21fc5c>
    1058:	490b3b0b 	stmdbmi	fp, {r0, r1, r3, r8, r9, fp, ip, sp}
    105c:	1a000013 	bne	10b0 <SCTLR_ENABLE_INSTRUCTION_CACHE+0xb0>
    1060:	0b0b000f 	bleq	2c10a4 <__kernel_end+0x15f0a4>
    1064:	00001349 	andeq	r1, r0, r9, asr #6
    1068:	3f012e1b 	svccc	0x00012e1b
    106c:	3a0e0319 	bcc	381cd8 <__kernel_end+0x21fcd8>
    1070:	110b3b0b 	tstne	fp, fp, lsl #22
    1074:	40061201 	andmi	r1, r6, r1, lsl #4
    1078:	19429718 	stmdbne	r2, {r3, r4, r8, r9, sl, ip, pc}^
    107c:	00001301 	andeq	r1, r0, r1, lsl #6
    1080:	0300341c 	movweq	r3, #1052	; 0x41c
    1084:	3b0b3a0e 	blcc	2cf8c4 <__kernel_end+0x16d8c4>
    1088:	1c13490b 	ldcne	9, cr4, [r3], {11}
    108c:	1d00000b 	stcne	0, cr0, [r0, #-44]	; 0xffffffd4
    1090:	00018289 	andeq	r8, r1, r9, lsl #5
    1094:	13310111 	teqne	r1, #1073741828	; 0x40000004
    1098:	891e0000 	ldmdbhi	lr, {}	; <UNPREDICTABLE>
    109c:	11010182 	smlabbne	r1, r2, r1, r0
    10a0:	01133101 	tsteq	r3, r1, lsl #2
    10a4:	1f000013 	svcne	0x00000013
    10a8:	0001828a 	andeq	r8, r1, sl, lsl #5
    10ac:	42911802 	addsmi	r1, r1, #131072	; 0x20000
    10b0:	20000018 	andcs	r0, r0, r8, lsl r0
    10b4:	00018289 	andeq	r8, r1, r9, lsl #5
    10b8:	42950111 	addsmi	r0, r5, #1073741828	; 0x40000004
    10bc:	00133119 	andseq	r3, r3, r9, lsl r1
    10c0:	00342100 	eorseq	r2, r4, r0, lsl #2
    10c4:	0b3a0803 	bleq	e830d8 <__kernel_end+0xd210d8>
    10c8:	13490b3b 	movtne	r0, #39739	; 0x9b3b
    10cc:	00001702 	andeq	r1, r0, r2, lsl #14
    10d0:	3f012e22 	svccc	0x00012e22
    10d4:	3a0e0319 	bcc	381d40 <__kernel_end+0x21fd40>
    10d8:	490b3b0b 	stmdbmi	fp, {r0, r1, r3, r8, r9, fp, ip, sp}
    10dc:	12011113 	andne	r1, r1, #-1073741820	; 0xc0000004
    10e0:	97184006 	ldrls	r4, [r8, -r6]
    10e4:	13011942 	movwne	r1, #6466	; 0x1942
    10e8:	34230000 	strtcc	r0, [r3], #-0
    10ec:	3a0e0300 	bcc	381cf4 <__kernel_end+0x21fcf4>
    10f0:	490b3b0b 	stmdbmi	fp, {r0, r1, r3, r8, r9, fp, ip, sp}
    10f4:	00061c13 	andeq	r1, r6, r3, lsl ip
    10f8:	012e2400 			; <UNDEFINED> instruction: 0x012e2400
    10fc:	0e03193f 	mcreq	9, 0, r1, cr3, cr15, {1}
    1100:	0b3b0b3a 	bleq	ec3df0 <__kernel_end+0xd61df0>
    1104:	13491927 	movtne	r1, #39207	; 0x9927
    1108:	06120111 			; <UNDEFINED> instruction: 0x06120111
    110c:	42971840 	addsmi	r1, r7, #64, 16	; 0x400000
    1110:	00130119 	andseq	r0, r3, r9, lsl r1
    1114:	00052500 	andeq	r2, r5, r0, lsl #10
    1118:	0b3a0803 	bleq	e8312c <__kernel_end+0xd2112c>
    111c:	13490b3b 	movtne	r0, #39739	; 0x9b3b
    1120:	00001702 	andeq	r1, r0, r2, lsl #14
    1124:	03000526 	movweq	r0, #1318	; 0x526
    1128:	3b0b3a08 	blcc	2cf950 <__kernel_end+0x16d950>
    112c:	0213490b 	andseq	r4, r3, #180224	; 0x2c000
    1130:	27000018 	smladcs	r0, r8, r0, r0
    1134:	1331012e 	teqne	r1, #-2147483637	; 0x8000000b
    1138:	06120111 			; <UNDEFINED> instruction: 0x06120111
    113c:	42971840 	addsmi	r1, r7, #64, 16	; 0x400000
    1140:	00130119 	andseq	r0, r3, r9, lsl r1
    1144:	00342800 	eorseq	r2, r4, r0, lsl #16
    1148:	17021331 	smladxne	r2, r1, r3, r1
    114c:	34290000 	strtcc	r0, [r9], #-0
    1150:	1c133100 	ldfnes	f3, [r3], {-0}
    1154:	2a000006 	bcs	1174 <SCTLR_ENABLE_INSTRUCTION_CACHE+0x174>
    1158:	13310034 	teqne	r1, #52	; 0x34
    115c:	0b2b0000 	bleq	ac1164 <__kernel_end+0x95f164>
    1160:	01175501 	tsteq	r7, r1, lsl #10
    1164:	2c000013 	stccs	0, cr0, [r0], {19}
    1168:	13310034 	teqne	r1, #52	; 0x34
    116c:	00001802 	andeq	r1, r0, r2, lsl #16
    1170:	0300342d 	movweq	r3, #1069	; 0x42d
    1174:	3b0b3a0e 	blcc	2cf9b4 <__kernel_end+0x16d9b4>
    1178:	3f13490b 	svccc	0x0013490b
    117c:	00180219 	andseq	r0, r8, r9, lsl r2
    1180:	002e2e00 	eoreq	r2, lr, r0, lsl #28
    1184:	193c193f 	ldmdbne	ip!, {r0, r1, r2, r3, r4, r5, r8, fp, ip}
    1188:	0e030e6e 	cdpeq	14, 0, cr0, cr3, cr14, {3}
    118c:	0b3b0b3a 	bleq	ec3e7c <__kernel_end+0xd61e7c>
    1190:	01000000 	mrseq	r0, (UNDEF: 0)
    1194:	0e250111 	mcreq	1, 1, r0, cr5, cr1, {0}
    1198:	0e030b13 	vmoveq.32	d3[0], r0
    119c:	01110e1b 	tsteq	r1, fp, lsl lr
    11a0:	17100612 			; <UNDEFINED> instruction: 0x17100612
    11a4:	24020000 	strcs	r0, [r2], #-0
    11a8:	3e0b0b00 	vmlacc.f64	d0, d11, d0
    11ac:	0008030b 	andeq	r0, r8, fp, lsl #6
    11b0:	00240300 	eoreq	r0, r4, r0, lsl #6
    11b4:	0b3e0b0b 	bleq	f83de8 <__kernel_end+0xe21de8>
    11b8:	00000e03 	andeq	r0, r0, r3, lsl #28
    11bc:	03001604 	movweq	r1, #1540	; 0x604
    11c0:	3b0b3a0e 	blcc	2cfa00 <__kernel_end+0x16da00>
    11c4:	0013490b 	andseq	r4, r3, fp, lsl #18
    11c8:	012e0500 			; <UNDEFINED> instruction: 0x012e0500
    11cc:	0e03193f 	mcreq	9, 0, r1, cr3, cr15, {1}
    11d0:	0b3b0b3a 	bleq	ec3ec0 <__kernel_end+0xd61ec0>
    11d4:	01111927 	tsteq	r1, r7, lsr #18
    11d8:	18400612 	stmdane	r0, {r1, r4, r9, sl}^
    11dc:	01194297 			; <UNDEFINED> instruction: 0x01194297
    11e0:	06000013 			; <UNDEFINED> instruction: 0x06000013
    11e4:	08030005 	stmdaeq	r3, {r0, r2}
    11e8:	0b3b0b3a 	bleq	ec3ed8 <__kernel_end+0xd61ed8>
    11ec:	17021349 	strne	r1, [r2, -r9, asr #6]
    11f0:	05070000 	streq	r0, [r7, #-0]
    11f4:	3a0e0300 	bcc	381dfc <__kernel_end+0x21fdfc>
    11f8:	490b3b0b 	stmdbmi	fp, {r0, r1, r3, r8, r9, fp, ip, sp}
    11fc:	00170213 	andseq	r0, r7, r3, lsl r2
    1200:	82890800 	addhi	r0, r9, #0, 16
    1204:	01110001 	tsteq	r1, r1
    1208:	00001331 	andeq	r1, r0, r1, lsr r3
    120c:	03003409 	movweq	r3, #1033	; 0x409
    1210:	3b0b3a0e 	blcc	2cfa50 <__kernel_end+0x16da50>
    1214:	3f13490b 	svccc	0x0013490b
    1218:	00193c19 	andseq	r3, r9, r9, lsl ip
    121c:	002e0a00 	eoreq	r0, lr, r0, lsl #20
    1220:	193c193f 	ldmdbne	ip!, {r0, r1, r2, r3, r4, r5, r8, fp, ip}
    1224:	0e030e6e 	cdpeq	14, 0, cr0, cr3, cr14, {3}
    1228:	0b3b0b3a 	bleq	ec3f18 <__kernel_end+0xd61f18>
    122c:	01000000 	mrseq	r0, (UNDEF: 0)
    1230:	0e250111 	mcreq	1, 1, r0, cr5, cr1, {0}
    1234:	0e030b13 	vmoveq.32	d3[0], r0
    1238:	01110e1b 	tsteq	r1, fp, lsl lr
    123c:	17100612 			; <UNDEFINED> instruction: 0x17100612
    1240:	24020000 	strcs	r0, [r2], #-0
    1244:	3e0b0b00 	vmlacc.f64	d0, d11, d0
    1248:	0008030b 	andeq	r0, r8, fp, lsl #6
    124c:	00160300 	andseq	r0, r6, r0, lsl #6
    1250:	0b3a0e03 	bleq	e84a64 <__kernel_end+0xd22a64>
    1254:	13490b3b 	movtne	r0, #39739	; 0x9b3b
    1258:	24040000 	strcs	r0, [r4], #-0
    125c:	3e0b0b00 	vmlacc.f64	d0, d11, d0
    1260:	000e030b 	andeq	r0, lr, fp, lsl #6
    1264:	000f0500 	andeq	r0, pc, r0, lsl #10
    1268:	00000b0b 	andeq	r0, r0, fp, lsl #22
    126c:	0b000f06 	bleq	4e8c <SCTLR_ENABLE_INSTRUCTION_CACHE+0x3e8c>
    1270:	0013490b 	andseq	r4, r3, fp, lsl #18
    1274:	012e0700 			; <UNDEFINED> instruction: 0x012e0700
    1278:	0e03193f 	mcreq	9, 0, r1, cr3, cr15, {1}
    127c:	0b3b0b3a 	bleq	ec3f6c <__kernel_end+0xd61f6c>
    1280:	13491927 	movtne	r1, #39207	; 0x9927
    1284:	06120111 			; <UNDEFINED> instruction: 0x06120111
    1288:	42971840 	addsmi	r1, r7, #64, 16	; 0x400000
    128c:	00130119 	andseq	r0, r3, r9, lsl r1
    1290:	00050800 	andeq	r0, r5, r0, lsl #16
    1294:	0b3a0e03 	bleq	e84aa8 <__kernel_end+0xd22aa8>
    1298:	13490b3b 	movtne	r0, #39739	; 0x9b3b
    129c:	00001802 	andeq	r1, r0, r2, lsl #16
    12a0:	03000509 	movweq	r0, #1289	; 0x509
    12a4:	3b0b3a0e 	blcc	2cfae4 <__kernel_end+0x16dae4>
    12a8:	0213490b 	andseq	r4, r3, #180224	; 0x2c000
    12ac:	0a000017 	beq	1310 <SCTLR_ENABLE_INSTRUCTION_CACHE+0x310>
    12b0:	08030034 	stmdaeq	r3, {r2, r4, r5}
    12b4:	0b3b0b3a 	bleq	ec3fa4 <__kernel_end+0xd61fa4>
    12b8:	18021349 	stmdane	r2, {r0, r3, r6, r8, r9, ip}
    12bc:	340b0000 	strcc	r0, [fp], #-0
    12c0:	3a080300 	bcc	201ec8 <__kernel_end+0x9fec8>
    12c4:	490b3b0b 	stmdbmi	fp, {r0, r1, r3, r8, r9, fp, ip, sp}
    12c8:	00170213 	andseq	r0, r7, r3, lsl r2
    12cc:	010b0c00 	tsteq	fp, r0, lsl #24
    12d0:	06120111 			; <UNDEFINED> instruction: 0x06120111
    12d4:	370d0000 	strcc	r0, [sp, -r0]
    12d8:	00134900 	andseq	r4, r3, r0, lsl #18
    12dc:	00260e00 	eoreq	r0, r6, r0, lsl #28
    12e0:	260f0000 	strcs	r0, [pc], -r0
    12e4:	00134900 	andseq	r4, r3, r0, lsl #18
    12e8:	11010000 	mrsne	r0, (UNDEF: 1)
    12ec:	130e2501 	movwne	r2, #58625	; 0xe501
    12f0:	1b0e030b 	blne	381f24 <__kernel_end+0x21ff24>
    12f4:	1201110e 	andne	r1, r1, #-2147483645	; 0x80000003
    12f8:	00171006 	andseq	r1, r7, r6
    12fc:	00160200 	andseq	r0, r6, r0, lsl #4
    1300:	0b3a0e03 	bleq	e84b14 <__kernel_end+0xd22b14>
    1304:	13490b3b 	movtne	r0, #39739	; 0x9b3b
    1308:	13030000 	movwne	r0, #12288	; 0x3000
    130c:	0b0e0301 	bleq	381f18 <__kernel_end+0x21ff18>
    1310:	3b0b3a0b 	blcc	2cfb44 <__kernel_end+0x16db44>
    1314:	0013010b 	andseq	r0, r3, fp, lsl #2
    1318:	000d0400 	andeq	r0, sp, r0, lsl #8
    131c:	13490e03 	movtne	r0, #40451	; 0x9e03
    1320:	19340b38 	ldmdbne	r4!, {r3, r4, r5, r8, r9, fp}
    1324:	0f050000 	svceq	0x00050000
    1328:	000b0b00 	andeq	r0, fp, r0, lsl #22
    132c:	00240600 	eoreq	r0, r4, r0, lsl #12
    1330:	0b3e0b0b 	bleq	f83f64 <__kernel_end+0xe21f64>
    1334:	00000e03 	andeq	r0, r0, r3, lsl #28
    1338:	0b002407 	bleq	a35c <__aeabi_idiv0+0x84>
    133c:	030b3e0b 	movweq	r3, #48651	; 0xbe0b
    1340:	08000008 	stmdaeq	r0, {r3}
    1344:	193f012e 	ldmdbne	pc!, {r1, r2, r3, r5, r8}	; <UNPREDICTABLE>
    1348:	0b3a0e03 	bleq	e84b5c <__kernel_end+0xd22b5c>
    134c:	19270b3b 	stmdbne	r7!, {r0, r1, r3, r4, r5, r8, r9, fp}
    1350:	01111349 	tsteq	r1, r9, asr #6
    1354:	18400612 	stmdane	r0, {r1, r4, r9, sl}^
    1358:	01194297 			; <UNDEFINED> instruction: 0x01194297
    135c:	09000013 	stmdbeq	r0, {r0, r1, r4}
    1360:	08030005 	stmdaeq	r3, {r0, r2}
    1364:	0b3b0b3a 	bleq	ec4054 <__kernel_end+0xd62054>
    1368:	17021349 	strne	r1, [r2, -r9, asr #6]
    136c:	890a0000 	stmdbhi	sl, {}	; <UNPREDICTABLE>
    1370:	11010182 	smlabbne	r1, r2, r1, r0
    1374:	00133101 	andseq	r3, r3, r1, lsl #2
    1378:	828a0b00 	addhi	r0, sl, #0, 22
    137c:	18020001 	stmdane	r2, {r0}
    1380:	00184291 	mulseq	r8, r1, r2
    1384:	00050c00 	andeq	r0, r5, r0, lsl #24
    1388:	0b3a0e03 	bleq	e84b9c <__kernel_end+0xd22b9c>
    138c:	13490b3b 	movtne	r0, #39739	; 0x9b3b
    1390:	00001802 	andeq	r1, r0, r2, lsl #16
    1394:	0000180d 	andeq	r1, r0, sp, lsl #16
    1398:	00340e00 	eorseq	r0, r4, r0, lsl #28
    139c:	0b3a0803 	bleq	e833b0 <__kernel_end+0xd213b0>
    13a0:	13490b3b 	movtne	r0, #39739	; 0x9b3b
    13a4:	00001802 	andeq	r1, r0, r2, lsl #16
    13a8:	0b000f0f 	bleq	4fec <SCTLR_ENABLE_INSTRUCTION_CACHE+0x3fec>
    13ac:	0013490b 	andseq	r4, r3, fp, lsl #18
    13b0:	00261000 	eoreq	r1, r6, r0
    13b4:	00001349 	andeq	r1, r0, r9, asr #6
    13b8:	3f002e11 	svccc	0x00002e11
    13bc:	6e193c19 	mrcvs	12, 0, r3, cr9, cr9, {0}
    13c0:	3a0e030e 	bcc	382000 <__kernel_end+0x220000>
    13c4:	000b3b0b 	andeq	r3, fp, fp, lsl #22
    13c8:	11010000 	mrsne	r0, (UNDEF: 1)
    13cc:	130e2501 	movwne	r2, #58625	; 0xe501
    13d0:	1b0e030b 	blne	382004 <__kernel_end+0x220004>
    13d4:	1201110e 	andne	r1, r1, #-2147483645	; 0x80000003
    13d8:	00171006 	andseq	r1, r7, r6
    13dc:	00240200 	eoreq	r0, r4, r0, lsl #4
    13e0:	0b3e0b0b 	bleq	f84014 <__kernel_end+0xe22014>
    13e4:	00000803 	andeq	r0, r0, r3, lsl #16
    13e8:	0b002403 	bleq	a3fc <__aeabi_idiv0+0x124>
    13ec:	030b3e0b 	movweq	r3, #48651	; 0xbe0b
    13f0:	0400000e 	streq	r0, [r0], #-14
    13f4:	0b0b000f 	bleq	2c1438 <__kernel_end+0x15f438>
    13f8:	0f050000 	svceq	0x00050000
    13fc:	490b0b00 	stmdbmi	fp, {r8, r9, fp}
    1400:	06000013 			; <UNDEFINED> instruction: 0x06000013
    1404:	13490026 	movtne	r0, #36902	; 0x9026
    1408:	16070000 	strne	r0, [r7], -r0
    140c:	3a0e0300 	bcc	382014 <__kernel_end+0x220014>
    1410:	490b3b0b 	stmdbmi	fp, {r0, r1, r3, r8, r9, fp, ip, sp}
    1414:	08000013 	stmdaeq	r0, {r0, r1, r4}
    1418:	0e030113 	mcreq	1, 0, r0, cr3, cr3, {0}
    141c:	0b3a0b0b 	bleq	e84050 <__kernel_end+0xd22050>
    1420:	13010b3b 	movwne	r0, #6971	; 0x1b3b
    1424:	0d090000 	stceq	0, cr0, [r9, #-0]
    1428:	490e0300 	stmdbmi	lr, {r8, r9}
    142c:	340b3813 	strcc	r3, [fp], #-2067	; 0xfffff7ed
    1430:	0a000019 	beq	149c <SCTLR_ENABLE_INSTRUCTION_CACHE+0x49c>
    1434:	0e030104 	adfeqs	f0, f3, f4
    1438:	13490b0b 	movtne	r0, #39691	; 0x9b0b
    143c:	0b3b0b3a 	bleq	ec412c <__kernel_end+0xd6212c>
    1440:	00001301 	andeq	r1, r0, r1, lsl #6
    1444:	0300280b 	movweq	r2, #2059	; 0x80b
    1448:	000b1c0e 	andeq	r1, fp, lr, lsl #24
    144c:	012e0c00 			; <UNDEFINED> instruction: 0x012e0c00
    1450:	0b3a0e03 	bleq	e84c64 <__kernel_end+0xd22c64>
    1454:	1927053b 	stmdbne	r7!, {r0, r1, r3, r4, r5, r8, sl}
    1458:	13010b20 	movwne	r0, #6944	; 0x1b20
    145c:	050d0000 	streq	r0, [sp, #-0]
    1460:	3a080300 	bcc	202068 <__kernel_end+0xa0068>
    1464:	49053b0b 	stmdbmi	r5, {r0, r1, r3, r8, r9, fp, ip, sp}
    1468:	0e000013 	mcreq	0, 0, r0, cr0, cr3, {0}
    146c:	0e030005 	cdpeq	0, 0, cr0, cr3, cr5, {0}
    1470:	053b0b3a 	ldreq	r0, [fp, #-2874]!	; 0xfffff4c6
    1474:	00001349 	andeq	r1, r0, r9, asr #6
    1478:	0300340f 	movweq	r3, #1039	; 0x40f
    147c:	3b0b3a0e 	blcc	2cfcbc <__kernel_end+0x16dcbc>
    1480:	00134905 	andseq	r4, r3, r5, lsl #18
    1484:	00341000 	eorseq	r1, r4, r0
    1488:	0b3a0803 	bleq	e8349c <__kernel_end+0xd2149c>
    148c:	1349053b 	movtne	r0, #38203	; 0x953b
    1490:	0b110000 	bleq	441498 <__kernel_end+0x2df498>
    1494:	12000001 	andne	r0, r0, #1
    1498:	13490101 	movtne	r0, #37121	; 0x9101
    149c:	00001301 	andeq	r1, r0, r1, lsl #6
    14a0:	49002113 	stmdbmi	r0, {r0, r1, r4, r8, sp}
    14a4:	000b2f13 	andeq	r2, fp, r3, lsl pc
    14a8:	012e1400 			; <UNDEFINED> instruction: 0x012e1400
    14ac:	0e03193f 	mcreq	9, 0, r1, cr3, cr15, {1}
    14b0:	0b3b0b3a 	bleq	ec41a0 <__kernel_end+0xd621a0>
    14b4:	13491927 	movtne	r1, #39207	; 0x9927
    14b8:	06120111 			; <UNDEFINED> instruction: 0x06120111
    14bc:	42961840 	addsmi	r1, r6, #64, 16	; 0x400000
    14c0:	00130119 	andseq	r0, r3, r9, lsl r1
    14c4:	00051500 	andeq	r1, r5, r0, lsl #10
    14c8:	0b3a0803 	bleq	e834dc <__kernel_end+0xd214dc>
    14cc:	13490b3b 	movtne	r0, #39739	; 0x9b3b
    14d0:	00001702 	andeq	r1, r0, r2, lsl #14
    14d4:	03000516 	movweq	r0, #1302	; 0x516
    14d8:	3b0b3a0e 	blcc	2cfd18 <__kernel_end+0x16dd18>
    14dc:	0213490b 	andseq	r4, r3, #180224	; 0x2c000
    14e0:	17000017 	smladne	r0, r7, r0, r0
    14e4:	0e030034 	mcreq	0, 0, r0, cr3, cr4, {1}
    14e8:	0b3b0b3a 	bleq	ec41d8 <__kernel_end+0xd621d8>
    14ec:	17021349 	strne	r1, [r2, -r9, asr #6]
    14f0:	34180000 	ldrcc	r0, [r8], #-0
    14f4:	3a080300 	bcc	2020fc <__kernel_end+0xa00fc>
    14f8:	490b3b0b 	stmdbmi	fp, {r0, r1, r3, r8, r9, fp, ip, sp}
    14fc:	00170213 	andseq	r0, r7, r3, lsl r2
    1500:	00341900 	eorseq	r1, r4, r0, lsl #18
    1504:	0b3a0e03 	bleq	e84d18 <__kernel_end+0xd22d18>
    1508:	13490b3b 	movtne	r0, #39739	; 0x9b3b
    150c:	00001802 	andeq	r1, r0, r2, lsl #16
    1510:	0300341a 	movweq	r3, #1050	; 0x41a
    1514:	3b0b3a0e 	blcc	2cfd54 <__kernel_end+0x16dd54>
    1518:	0013490b 	andseq	r4, r3, fp, lsl #18
    151c:	000a1b00 	andeq	r1, sl, r0, lsl #22
    1520:	0b3a0e03 	bleq	e84d34 <__kernel_end+0xd22d34>
    1524:	01110b3b 	tsteq	r1, fp, lsr fp
    1528:	0a1c0000 	beq	701530 <__kernel_end+0x59f530>
    152c:	3a0e0300 	bcc	382134 <__kernel_end+0x220134>
    1530:	11053b0b 	tstne	r5, fp, lsl #22
    1534:	1d000001 	stcne	0, cr0, [r0, #-4]
    1538:	1331011d 	teqne	r1, #1073741831	; 0x40000007
    153c:	17550152 			; <UNDEFINED> instruction: 0x17550152
    1540:	05590b58 	ldrbeq	r0, [r9, #-2904]	; 0xfffff4a8
    1544:	00001301 	andeq	r1, r0, r1, lsl #6
    1548:	3100051e 	tstcc	r0, lr, lsl r5
    154c:	00170213 	andseq	r0, r7, r3, lsl r2
    1550:	010b1f00 	tsteq	fp, r0, lsl #30
    1554:	00001755 	andeq	r1, r0, r5, asr r7
    1558:	31003420 	tstcc	r0, r0, lsr #8
    155c:	00170213 	andseq	r0, r7, r3, lsl r2
    1560:	00342100 	eorseq	r2, r4, r0, lsl #2
    1564:	18021331 	stmdane	r2, {r0, r4, r5, r8, r9, ip}
    1568:	34220000 	strtcc	r0, [r2], #-0
    156c:	00133100 	andseq	r3, r3, r0, lsl #2
    1570:	82892300 	addhi	r2, r9, #0, 6
    1574:	01110101 	tsteq	r1, r1, lsl #2
    1578:	00001301 	andeq	r1, r0, r1, lsl #6
    157c:	01828a24 	orreq	r8, r2, r4, lsr #20
    1580:	91180200 	tstls	r8, r0, lsl #4
    1584:	00001842 	andeq	r1, r0, r2, asr #16
    1588:	01828925 	orreq	r8, r2, r5, lsr #18
    158c:	31011101 	tstcc	r1, r1, lsl #2
    1590:	00130113 	andseq	r0, r3, r3, lsl r1
    1594:	82892600 	addhi	r2, r9, #0, 12
    1598:	01110101 	tsteq	r1, r1, lsl #2
    159c:	15270000 	strne	r0, [r7, #-0]!
    15a0:	49192701 	ldmdbmi	r9, {r0, r8, r9, sl, sp}
    15a4:	00130113 	andseq	r0, r3, r3, lsl r1
    15a8:	00052800 	andeq	r2, r5, r0, lsl #16
    15ac:	00001349 	andeq	r1, r0, r9, asr #6
    15b0:	03003429 	movweq	r3, #1065	; 0x429
    15b4:	3b0b3a0e 	blcc	2cfdf4 <__kernel_end+0x16ddf4>
    15b8:	02134905 	andseq	r4, r3, #81920	; 0x14000
    15bc:	2a000018 	bcs	1624 <SCTLR_ENABLE_INSTRUCTION_CACHE+0x624>
    15c0:	0e030034 	mcreq	0, 0, r0, cr3, cr4, {1}
    15c4:	053b0b3a 	ldreq	r0, [fp, #-2874]!	; 0xfffff4c6
    15c8:	0a1c1349 	beq	7062f4 <__kernel_end+0x5a42f4>
    15cc:	362b0000 	strtcc	r0, [fp], -r0
    15d0:	00180200 	andseq	r0, r8, r0, lsl #4
    15d4:	002e2c00 	eoreq	r2, lr, r0, lsl #24
    15d8:	193c193f 	ldmdbne	ip!, {r0, r1, r2, r3, r4, r5, r8, fp, ip}
    15dc:	0e030e6e 	cdpeq	14, 0, cr0, cr3, cr14, {3}
    15e0:	0b3b0b3a 	bleq	ec42d0 <__kernel_end+0xd622d0>
    15e4:	01000000 	mrseq	r0, (UNDEF: 0)
    15e8:	0e250111 	mcreq	1, 1, r0, cr5, cr1, {0}
    15ec:	0e030b13 	vmoveq.32	d3[0], r0
    15f0:	01110e1b 	tsteq	r1, fp, lsl lr
    15f4:	17100612 			; <UNDEFINED> instruction: 0x17100612
    15f8:	24020000 	strcs	r0, [r2], #-0
    15fc:	3e0b0b00 	vmlacc.f64	d0, d11, d0
    1600:	0008030b 	andeq	r0, r8, fp, lsl #6
    1604:	00160300 	andseq	r0, r6, r0, lsl #6
    1608:	0b3a0e03 	bleq	e84e1c <__kernel_end+0xd22e1c>
    160c:	13490b3b 	movtne	r0, #39739	; 0x9b3b
    1610:	24040000 	strcs	r0, [r4], #-0
    1614:	3e0b0b00 	vmlacc.f64	d0, d11, d0
    1618:	000e030b 	andeq	r0, lr, fp, lsl #6
    161c:	000f0500 	andeq	r0, pc, r0, lsl #10
    1620:	13490b0b 	movtne	r0, #39691	; 0x9b0b
    1624:	26060000 	strcs	r0, [r6], -r0
    1628:	00134900 	andseq	r4, r3, r0, lsl #18
    162c:	012e0700 			; <UNDEFINED> instruction: 0x012e0700
    1630:	0e03193f 	mcreq	9, 0, r1, cr3, cr15, {1}
    1634:	0b3b0b3a 	bleq	ec4324 <__kernel_end+0xd62324>
    1638:	13491927 	movtne	r1, #39207	; 0x9927
    163c:	06120111 			; <UNDEFINED> instruction: 0x06120111
    1640:	42971840 	addsmi	r1, r7, #64, 16	; 0x400000
    1644:	08000019 	stmdaeq	r0, {r0, r3, r4}
    1648:	08030005 	stmdaeq	r3, {r0, r2}
    164c:	0b3b0b3a 	bleq	ec433c <__kernel_end+0xd6233c>
    1650:	17021349 	strne	r1, [r2, -r9, asr #6]
    1654:	34090000 	strcc	r0, [r9], #-0
    1658:	3a080300 	bcc	202260 <__kernel_end+0xa0260>
    165c:	490b3b0b 	stmdbmi	fp, {r0, r1, r3, r8, r9, fp, ip, sp}
    1660:	00170213 	andseq	r0, r7, r3, lsl r2
	...

Disassembly of section .debug_aranges:

00000000 <.debug_aranges>:
   0:	0000001c 	andeq	r0, r0, ip, lsl r0
   4:	00000002 	andeq	r0, r0, r2
   8:	00040000 	andeq	r0, r4, r0
   c:	00000000 	andeq	r0, r0, r0
  10:	00008000 	andeq	r8, r0, r0
  14:	00000214 	andeq	r0, r0, r4, lsl r2
	...
  20:	0000001c 	andeq	r0, r0, ip, lsl r0
  24:	00890002 	addeq	r0, r9, r2
  28:	00040000 	andeq	r0, r4, r0
  2c:	00000000 	andeq	r0, r0, r0
  30:	00008214 	andeq	r8, r0, r4, lsl r2
  34:	00000060 	andeq	r0, r0, r0, rrx
	...
  40:	0000001c 	andeq	r0, r0, ip, lsl r0
  44:	01950002 	orrseq	r0, r5, r2
  48:	00040000 	andeq	r0, r4, r0
  4c:	00000000 	andeq	r0, r0, r0
  50:	00008274 	andeq	r8, r0, r4, ror r2
  54:	00000038 	andeq	r0, r0, r8, lsr r0
	...
  60:	0000001c 	andeq	r0, r0, ip, lsl r0
  64:	03390002 	teqeq	r9, #2
  68:	00040000 	andeq	r0, r4, r0
  6c:	00000000 	andeq	r0, r0, r0
  70:	000082ac 	andeq	r8, r0, ip, lsr #5
  74:	000003b0 			; <UNDEFINED> instruction: 0x000003b0
	...
  80:	0000001c 	andeq	r0, r0, ip, lsl r0
  84:	08e80002 	stmiaeq	r8!, {r1}^
  88:	00040000 	andeq	r0, r4, r0
  8c:	00000000 	andeq	r0, r0, r0
  90:	0000865c 	andeq	r8, r0, ip, asr r6
  94:	0000006c 	andeq	r0, r0, ip, rrx
	...
  a0:	0000001c 	andeq	r0, r0, ip, lsl r0
  a4:	0afe0002 	beq	fff800b4 <__kernel_end+0xffe1e0b4>
  a8:	00040000 	andeq	r0, r4, r0
  ac:	00000000 	andeq	r0, r0, r0
  b0:	000086c8 	andeq	r8, r0, r8, asr #13
  b4:	000005d0 	ldrdeq	r0, [r0], -r0	; <UNPREDICTABLE>
	...
  c0:	0000001c 	andeq	r0, r0, ip, lsl r0
  c4:	107c0002 	rsbsne	r0, ip, r2
  c8:	00040000 	andeq	r0, r4, r0
  cc:	00000000 	andeq	r0, r0, r0
  d0:	00008c98 	muleq	r0, r8, ip
  d4:	000001f8 	strdeq	r0, [r0], -r8
	...
  e0:	0000001c 	andeq	r0, r0, ip, lsl r0
  e4:	13360002 	teqne	r6, #2
  e8:	00040000 	andeq	r0, r4, r0
  ec:	00000000 	andeq	r0, r0, r0
  f0:	00008e90 	muleq	r0, r0, lr
  f4:	000000e4 	andeq	r0, r0, r4, ror #1
	...
 100:	0000001c 	andeq	r0, r0, ip, lsl r0
 104:	151e0002 	ldrne	r0, [lr, #-2]
 108:	00040000 	andeq	r0, r4, r0
 10c:	00000000 	andeq	r0, r0, r0
 110:	00008f74 	andeq	r8, r0, r4, ror pc
 114:	000002c0 	andeq	r0, r0, r0, asr #5
	...
 120:	0000001c 	andeq	r0, r0, ip, lsl r0
 124:	1ce00002 	stclne	0, cr0, [r0], #8
 128:	00040000 	andeq	r0, r4, r0
 12c:	00000000 	andeq	r0, r0, r0
 130:	00009234 	andeq	r9, r0, r4, lsr r2
 134:	00000128 	andeq	r0, r0, r8, lsr #2
	...
 140:	0000001c 	andeq	r0, r0, ip, lsl r0
 144:	21f20002 	mvnscs	r0, r2
 148:	00040000 	andeq	r0, r4, r0
 14c:	00000000 	andeq	r0, r0, r0
 150:	0000935c 	andeq	r9, r0, ip, asr r3
 154:	00000324 	andeq	r0, r0, r4, lsr #6
	...
 160:	0000001c 	andeq	r0, r0, ip, lsl r0
 164:	277e0002 	ldrbcs	r0, [lr, -r2]!
 168:	00040000 	andeq	r0, r4, r0
 16c:	00000000 	andeq	r0, r0, r0
 170:	00009680 	andeq	r9, r0, r0, lsl #13
 174:	00000304 	andeq	r0, r0, r4, lsl #6
	...
 180:	0000001c 	andeq	r0, r0, ip, lsl r0
 184:	31d20002 	bicscc	r0, r2, r2
 188:	00040000 	andeq	r0, r4, r0
 18c:	00000000 	andeq	r0, r0, r0
 190:	00009984 	andeq	r9, r0, r4, lsl #19
 194:	0000004c 	andeq	r0, r0, ip, asr #32
	...
 1a0:	0000001c 	andeq	r0, r0, ip, lsl r0
 1a4:	33030002 	movwcc	r0, #12290	; 0x3002
 1a8:	00040000 	andeq	r0, r4, r0
 1ac:	00000000 	andeq	r0, r0, r0
 1b0:	000099d0 	ldrdeq	r9, [r0], -r0
 1b4:	00000024 	andeq	r0, r0, r4, lsr #32
	...
 1c0:	0000001c 	andeq	r0, r0, ip, lsl r0
 1c4:	342b0002 	strtcc	r0, [fp], #-2
 1c8:	00040000 	andeq	r0, r4, r0
 1cc:	00000000 	andeq	r0, r0, r0
 1d0:	000099f4 	strdeq	r9, [r0], -r4
 1d4:	00000054 	andeq	r0, r0, r4, asr r0
	...
 1e0:	0000001c 	andeq	r0, r0, ip, lsl r0
 1e4:	35a00002 	strcc	r0, [r0, #2]!
 1e8:	00040000 	andeq	r0, r4, r0
 1ec:	00000000 	andeq	r0, r0, r0
 1f0:	00009a48 	andeq	r9, r0, r8, asr #20
 1f4:	0000074c 	andeq	r0, r0, ip, asr #14
	...
 200:	0000001c 	andeq	r0, r0, ip, lsl r0
 204:	3a600002 	bcc	1800214 <__kernel_end+0x169e214>
 208:	00040000 	andeq	r0, r4, r0
 20c:	00000000 	andeq	r0, r0, r0
 210:	0000a194 	muleq	r0, r4, r1
 214:	00000030 	andeq	r0, r0, r0, lsr r0
	...

Disassembly of section .debug_loc:

00000000 <.debug_loc>:
       0:	00000000 	andeq	r0, r0, r0
       4:	0000004f 	andeq	r0, r0, pc, asr #32
       8:	4f500001 	svcmi	0x00500001
       c:	60000000 	andvs	r0, r0, r0
      10:	04000000 	streq	r0, [r0], #-0
      14:	5001f300 	andpl	pc, r1, r0, lsl #6
      18:	0000009f 	muleq	r0, pc, r0	; <UNPREDICTABLE>
	...
      24:	00004f00 	andeq	r4, r0, r0, lsl #30
      28:	51000100 	mrspl	r0, (UNDEF: 16)
      2c:	0000004f 	andeq	r0, r0, pc, asr #32
      30:	00000060 	andeq	r0, r0, r0, rrx
      34:	01f30004 	mvnseq	r0, r4
      38:	00009f51 	andeq	r9, r0, r1, asr pc
	...
      44:	004f0000 	subeq	r0, pc, r0
      48:	00010000 	andeq	r0, r1, r0
      4c:	00004f52 	andeq	r4, r0, r2, asr pc
      50:	00006000 	andeq	r6, r0, r0
      54:	f3000400 	vshl.u8	d0, d0, d0
      58:	009f5201 	addseq	r5, pc, r1, lsl #4
      5c:	00000000 	andeq	r0, r0, r0
      60:	40000000 	andmi	r0, r0, r0
      64:	4c000000 	stcmi	0, cr0, [r0], {-0}
      68:	01000000 	mrseq	r0, (UNDEF: 0)
      6c:	00005400 	andeq	r5, r0, r0, lsl #8
      70:	00000000 	andeq	r0, r0, r0
      74:	00c00000 	sbceq	r0, r0, r0
      78:	00dc0000 	sbcseq	r0, ip, r0
      7c:	00020000 	andeq	r0, r2, r0
      80:	00dc9f30 	sbcseq	r9, ip, r0, lsr pc
      84:	01940000 	orrseq	r0, r4, r0
      88:	00010000 	andeq	r0, r1, r0
      8c:	00000054 	andeq	r0, r0, r4, asr r0
      90:	00000000 	andeq	r0, r0, r0
      94:	00019400 	andeq	r9, r1, r0, lsl #8
      98:	0001d800 	andeq	sp, r1, r0, lsl #16
      9c:	50000100 	andpl	r0, r0, r0, lsl #2
      a0:	000001d8 	ldrdeq	r0, [r0], -r8
      a4:	000001e0 	andeq	r0, r0, r0, ror #3
      a8:	01f30004 	mvnseq	r0, r4
      ac:	01e09f50 	mvneq	r9, r0, asr pc
      b0:	02500000 	subseq	r0, r0, #0
      b4:	00010000 	andeq	r0, r1, r0
      b8:	00000050 	andeq	r0, r0, r0, asr r0
      bc:	00000000 	andeq	r0, r0, r0
      c0:	0001b000 	andeq	fp, r1, r0
      c4:	0001d800 	andeq	sp, r1, r0, lsl #16
      c8:	70000600 	andvc	r0, r0, r0, lsl #12
      cc:	1aff0800 	bne	fffc20d4 <__kernel_end+0xffe600d4>
      d0:	0001d89f 	muleq	r1, pc, r8	; <UNPREDICTABLE>
      d4:	0001e000 	andeq	lr, r1, r0
      d8:	f3000700 	vabd.u8	d0, d0, d0
      dc:	ff085001 			; <UNDEFINED> instruction: 0xff085001
      e0:	01e09f1a 	mvneq	r9, sl, lsl pc
      e4:	02100000 	andseq	r0, r0, #0
      e8:	00030000 	andeq	r0, r3, r0
      ec:	109f6070 	addsne	r6, pc, r0, ror r0	; <UNPREDICTABLE>
      f0:	24000002 	strcs	r0, [r0], #-2
      f4:	03000002 	movweq	r0, #2
      f8:	9f407000 	svcls	0x00407000
      fc:	00000224 	andeq	r0, r0, r4, lsr #4
     100:	00000250 	andeq	r0, r0, r0, asr r2
     104:	00550001 	subseq	r0, r5, r1
     108:	00000000 	andeq	r0, r0, r0
     10c:	50000000 	andpl	r0, r0, r0
     110:	98000002 	stmdals	r0, {r1}
     114:	01000002 	tsteq	r0, r2
     118:	02985000 	addseq	r5, r8, #0
     11c:	02a00000 	adceq	r0, r0, #0
     120:	00040000 	andeq	r0, r4, r0
     124:	9f5001f3 	svcls	0x005001f3
     128:	000002a0 	andeq	r0, r0, r0, lsr #5
     12c:	00000318 	andeq	r0, r0, r8, lsl r3
     130:	00500001 	subseq	r0, r0, r1
     134:	00000000 	andeq	r0, r0, r0
     138:	6c000000 	stcvs	0, cr0, [r0], {-0}
     13c:	98000002 	stmdals	r0, {r1}
     140:	06000002 	streq	r0, [r0], -r2
     144:	08007000 	stmdaeq	r0, {ip, sp, lr}
     148:	989f1aff 	ldmls	pc, {r0, r1, r2, r3, r4, r5, r6, r7, r9, fp, ip}	; <UNPREDICTABLE>
     14c:	a0000002 	andge	r0, r0, r2
     150:	07000002 	streq	r0, [r0, -r2]
     154:	5001f300 	andpl	pc, r1, r0, lsl #6
     158:	9f1aff08 	svcls	0x001aff08
     15c:	000002a0 	andeq	r0, r0, r0, lsr #5
     160:	000002d4 	ldrdeq	r0, [r0], -r4
     164:	60700003 	rsbsvs	r0, r0, r3
     168:	0002d49f 	muleq	r2, pc, r4	; <UNPREDICTABLE>
     16c:	0002e800 	andeq	lr, r2, r0, lsl #16
     170:	70000300 	andvc	r0, r0, r0, lsl #6
     174:	02e89f40 	rsceq	r9, r8, #64, 30	; 0x100
     178:	03180000 	tsteq	r8, #0
     17c:	00010000 	andeq	r0, r1, r0
     180:	00000054 	andeq	r0, r0, r4, asr r0
     184:	00000000 	andeq	r0, r0, r0
     188:	00031800 	andeq	r1, r3, r0, lsl #16
     18c:	00032000 	andeq	r2, r3, r0
     190:	51000100 	mrspl	r0, (UNDEF: 16)
     194:	00000320 	andeq	r0, r0, r0, lsr #6
     198:	0000033c 	andeq	r0, r0, ip, lsr r3
     19c:	01f30004 	mvnseq	r0, r4
     1a0:	00009f51 	andeq	r9, r0, r1, asr pc
     1a4:	00000000 	andeq	r0, r0, r0
     1a8:	03180000 	tsteq	r8, #0
     1ac:	03280000 			; <UNDEFINED> instruction: 0x03280000
     1b0:	00010000 	andeq	r0, r1, r0
     1b4:	00032852 	andeq	r2, r3, r2, asr r8
     1b8:	00033c00 	andeq	r3, r3, r0, lsl #24
     1bc:	f3000400 	vshl.u8	d0, d0, d0
     1c0:	009f5201 	addseq	r5, pc, r1, lsl #4
     1c4:	00000000 	andeq	r0, r0, r0
     1c8:	20000000 	andcs	r0, r0, r0
     1cc:	2c000003 	stccs	0, cr0, [r0], {3}
     1d0:	02000003 	andeq	r0, r0, #3
     1d4:	009f3000 	addseq	r3, pc, r0
     1d8:	00000000 	andeq	r0, r0, r0
     1dc:	3c000000 	stccc	0, cr0, [r0], {-0}
     1e0:	47000003 	strmi	r0, [r0, -r3]
     1e4:	01000003 	tsteq	r0, r3
     1e8:	03475000 	movteq	r5, #28672	; 0x7000
     1ec:	03480000 	movteq	r0, #32768	; 0x8000
     1f0:	00040000 	andeq	r0, r4, r0
     1f4:	9f5001f3 	svcls	0x005001f3
	...
     200:	0000033c 	andeq	r0, r0, ip, lsr r3
     204:	00000344 	andeq	r0, r0, r4, asr #6
     208:	44510001 	ldrbmi	r0, [r1], #-1
     20c:	47000003 	strmi	r0, [r0, -r3]
     210:	01000003 	tsteq	r0, r3
     214:	03475200 	movteq	r5, #29184	; 0x7200
     218:	03480000 	movteq	r0, #32768	; 0x8000
     21c:	00040000 	andeq	r0, r4, r0
     220:	9f5101f3 	svcls	0x005101f3
	...
     230:	00000010 	andeq	r0, r0, r0, lsl r0
     234:	10500001 	subsne	r0, r0, r1
     238:	2c000000 	stccs	0, cr0, [r0], {-0}
     23c:	04000000 	streq	r0, [r0], #-0
     240:	5001f300 	andpl	pc, r1, r0, lsl #6
     244:	0000009f 	muleq	r0, pc, r0	; <UNPREDICTABLE>
	...
     250:	00000400 	andeq	r0, r0, r0, lsl #8
     254:	51000100 	mrspl	r0, (UNDEF: 16)
     258:	00000004 	andeq	r0, r0, r4
     25c:	00000010 	andeq	r0, r0, r0, lsl r0
     260:	10510001 	subsne	r0, r1, r1
     264:	2c000000 	stccs	0, cr0, [r0], {-0}
     268:	01000000 	mrseq	r0, (UNDEF: 0)
     26c:	00005000 	andeq	r5, r0, r0
     270:	00000000 	andeq	r0, r0, r0
     274:	002c0000 	eoreq	r0, ip, r0
     278:	00600000 	rsbeq	r0, r0, r0
     27c:	00010000 	andeq	r0, r1, r0
     280:	00006050 	andeq	r6, r0, r0, asr r0
     284:	00006400 	andeq	r6, r0, r0, lsl #8
     288:	f3000400 	vshl.u8	d0, d0, d0
     28c:	649f5001 	ldrvs	r5, [pc], #1	; 294 <ARM_I_BIT+0x214>
     290:	68000000 	stmdavs	r0, {}	; <UNPREDICTABLE>
     294:	01000000 	mrseq	r0, (UNDEF: 0)
     298:	00685000 	rsbeq	r5, r8, r0
     29c:	006c0000 	rsbeq	r0, ip, r0
     2a0:	00040000 	andeq	r0, r4, r0
     2a4:	9f5001f3 	svcls	0x005001f3
	...
     2b0:	0000002c 	andeq	r0, r0, ip, lsr #32
     2b4:	00000040 	andeq	r0, r0, r0, asr #32
     2b8:	ff090003 			; <UNDEFINED> instruction: 0xff090003
     2bc:	0000509f 	muleq	r0, pc, r0	; <UNPREDICTABLE>
     2c0:	00006400 	andeq	r6, r0, r0, lsl #8
     2c4:	53000100 	movwpl	r0, #256	; 0x100
     2c8:	00000064 	andeq	r0, r0, r4, rrx
     2cc:	0000006c 	andeq	r0, r0, ip, rrx
     2d0:	ff090003 			; <UNDEFINED> instruction: 0xff090003
     2d4:	0000009f 	muleq	r0, pc, r0	; <UNPREDICTABLE>
     2d8:	00000000 	andeq	r0, r0, r0
     2dc:	00052400 	andeq	r2, r5, r0, lsl #8
     2e0:	00058800 	andeq	r8, r5, r0, lsl #16
     2e4:	50000100 	andpl	r0, r0, r0, lsl #2
     2e8:	00000588 	andeq	r0, r0, r8, lsl #11
     2ec:	0000058c 	andeq	r0, r0, ip, lsl #11
     2f0:	54030005 	strpl	r0, [r3], #-5
     2f4:	8c000152 	stfhis	f0, [r0], {82}	; 0x52
     2f8:	ac000005 	stcge	0, cr0, [r0], {5}
     2fc:	01000005 	tsteq	r0, r5
     300:	05ac5000 	streq	r5, [ip, #0]!
     304:	05b70000 	ldreq	r0, [r7, #0]!
     308:	00050000 	andeq	r0, r5, r0
     30c:	01525403 	cmpeq	r2, r3, lsl #8
     310:	0005b700 	andeq	fp, r5, r0, lsl #14
     314:	0005d000 	andeq	sp, r5, r0
     318:	f3000400 	vshl.u8	d0, d0, d0
     31c:	009f5001 	addseq	r5, pc, r1
     320:	00000000 	andeq	r0, r0, r0
     324:	24000000 	strcs	r0, [r0], #-0
     328:	9c000005 	stcls	0, cr0, [r0], {5}
     32c:	02000005 	andeq	r0, r0, #5
     330:	9c9f3000 	ldcls	0, cr3, [pc], {0}
     334:	b7000005 	strlt	r0, [r0, -r5]
     338:	01000005 	tsteq	r0, r5
     33c:	00005300 	andeq	r5, r0, r0, lsl #6
     340:	00000000 	andeq	r0, r0, r0
     344:	05400000 	strbeq	r0, [r0, #-0]
     348:	05600000 	strbeq	r0, [r0, #-0]!
     34c:	00020000 	andeq	r0, r2, r0
     350:	05609f32 	strbeq	r9, [r0, #-3890]!	; 0xfffff0ce
     354:	05780000 	ldrbeq	r0, [r8, #-0]!
     358:	00010000 	andeq	r0, r1, r0
     35c:	00057c53 	andeq	r7, r5, r3, asr ip
     360:	00058400 	andeq	r8, r5, r0, lsl #8
     364:	53000100 	movwpl	r0, #256	; 0x100
	...
     370:	0000002c 	andeq	r0, r0, ip, lsr #32
     374:	0000003c 	andeq	r0, r0, ip, lsr r0
     378:	3c500001 	mrrccc	0, 0, r0, r0, cr1	; <UNPREDICTABLE>
     37c:	48000000 	stmdami	r0, {}	; <UNPREDICTABLE>
     380:	04000000 	streq	r0, [r0], #-0
     384:	5001f300 	andpl	pc, r1, r0, lsl #6
     388:	0000009f 	muleq	r0, pc, r0	; <UNPREDICTABLE>
     38c:	00000000 	andeq	r0, r0, r0
     390:	00004800 	andeq	r4, r0, r0, lsl #16
     394:	00009c00 	andeq	r9, r0, r0, lsl #24
     398:	50000100 	andpl	r0, r0, r0, lsl #2
     39c:	0000009c 	muleq	r0, ip, r0
     3a0:	00000144 	andeq	r0, r0, r4, asr #2
     3a4:	687b0002 	ldmdavs	fp!, {r1}^
     3a8:	00000144 	andeq	r0, r0, r4, asr #2
     3ac:	00000170 	andeq	r0, r0, r0, ror r1
     3b0:	64910002 	ldrvs	r0, [r1], #2
	...
     3c0:	00000010 	andeq	r0, r0, r0, lsl r0
     3c4:	10500001 	subsne	r0, r0, r1
     3c8:	3c000000 	stccc	0, cr0, [r0], {-0}
     3cc:	04000000 	streq	r0, [r0], #-0
     3d0:	5001f300 	andpl	pc, r1, r0, lsl #6
     3d4:	0000009f 	muleq	r0, pc, r0	; <UNPREDICTABLE>
	...
     3e0:	00000800 	andeq	r0, r0, r0, lsl #16
     3e4:	51000100 	mrspl	r0, (UNDEF: 16)
     3e8:	00000008 	andeq	r0, r0, r8
     3ec:	0000003c 	andeq	r0, r0, ip, lsr r0
     3f0:	01f30004 	mvnseq	r0, r4
     3f4:	00009f51 	andeq	r9, r0, r1, asr pc
	...
     400:	000c0000 	andeq	r0, ip, r0
     404:	00010000 	andeq	r0, r1, r0
     408:	00000c52 	andeq	r0, r0, r2, asr ip
     40c:	00003c00 	andeq	r3, r0, r0, lsl #24
     410:	f3000400 	vshl.u8	d0, d0, d0
     414:	009f5201 	addseq	r5, pc, r1, lsl #4
	...
     420:	10000000 	andne	r0, r0, r0
     424:	07000000 	streq	r0, [r0, -r0]
     428:	44007000 	strmi	r7, [r0], #-0
     42c:	9f243225 	svcls	0x00243225
     430:	00000010 	andeq	r0, r0, r0, lsl r0
     434:	0000003c 	andeq	r0, r0, ip, lsr r0
     438:	01f30008 	mvnseq	r0, r8
     43c:	32254450 	eorcc	r4, r5, #80, 8	; 0x50000000
     440:	00009f24 	andeq	r9, r0, r4, lsr #30
	...
     44c:	00100000 	andseq	r0, r0, r0
     450:	000e0000 	andeq	r0, lr, r0
     454:	25440070 	strbcs	r0, [r4, #-112]	; 0xffffff90
     458:	60032432 	andvs	r2, r3, r2, lsr r4
     45c:	06000153 			; <UNDEFINED> instruction: 0x06000153
     460:	00109f21 	andseq	r9, r0, r1, lsr #30
     464:	002c0000 	eoreq	r0, ip, r0
     468:	000f0000 	andeq	r0, pc, r0
     46c:	445001f3 	ldrbmi	r0, [r0], #-499	; 0xfffffe0d
     470:	03243225 			; <UNDEFINED> instruction: 0x03243225
     474:	00015360 	andeq	r5, r1, r0, ror #6
     478:	2c9f2106 	ldfcss	f2, [pc], {6}
     47c:	2f000000 	svccs	0x00000000
     480:	01000000 	mrseq	r0, (UNDEF: 0)
     484:	00005000 	andeq	r5, r0, r0
     488:	00000000 	andeq	r0, r0, r0
     48c:	001c0000 	andseq	r0, ip, r0
     490:	00280000 	eoreq	r0, r8, r0
     494:	000b0000 	andeq	r0, fp, r0
     498:	715201f3 	ldrshvc	r0, [r2, #-19]	; 0xffffffed
     49c:	020a2100 	andeq	r2, sl, #0, 2
     4a0:	289f210c 	ldmcs	pc, {r2, r3, r8, sp}	; <UNPREDICTABLE>
     4a4:	3c000000 	stccc	0, cr0, [r0], {-0}
     4a8:	10000000 	andne	r0, r0, r0
     4ac:	5101f300 	mrspl	pc, SP_irq	; <UNPREDICTABLE>
     4b0:	24442544 	strbcs	r2, [r4], #-1348	; 0xfffffabc
     4b4:	215201f3 	ldrshcs	r0, [r2, #-19]	; 0xffffffed
     4b8:	210c020a 	tstcs	ip, sl, lsl #4
     4bc:	0000009f 	muleq	r0, pc, r0	; <UNPREDICTABLE>
     4c0:	00000000 	andeq	r0, r0, r0
     4c4:	00006400 	andeq	r6, r0, r0, lsl #8
     4c8:	00006800 	andeq	r6, r0, r0, lsl #16
     4cc:	30000200 	andcc	r0, r0, r0, lsl #4
     4d0:	0000689f 	muleq	r0, pc, r8	; <UNPREDICTABLE>
     4d4:	0000c400 	andeq	ip, r0, r0, lsl #8
     4d8:	54000100 	strpl	r0, [r0], #-256	; 0xffffff00
	...
     4e4:	00000048 	andeq	r0, r0, r8, asr #32
     4e8:	0000004c 	andeq	r0, r0, ip, asr #32
     4ec:	4c500001 	mrrcmi	0, 0, r0, r0, cr1	; <UNPREDICTABLE>
     4f0:	50000000 	andpl	r0, r0, r0
     4f4:	04000000 	streq	r0, [r0], #-0
     4f8:	5001f300 	andpl	pc, r1, r0, lsl #6
     4fc:	0000009f 	muleq	r0, pc, r0	; <UNPREDICTABLE>
     500:	00000000 	andeq	r0, r0, r0
     504:	00005000 	andeq	r5, r0, r0
     508:	00006400 	andeq	r6, r0, r0, lsl #8
     50c:	50000100 	andpl	r0, r0, r0, lsl #2
     510:	00000064 	andeq	r0, r0, r4, rrx
     514:	0000007c 	andeq	r0, r0, ip, ror r0
     518:	00530001 	subseq	r0, r3, r1
     51c:	00000000 	andeq	r0, r0, r0
     520:	54000000 	strpl	r0, [r0], #-0
     524:	68000000 	stmdavs	r0, {}	; <UNPREDICTABLE>
     528:	01000000 	mrseq	r0, (UNDEF: 0)
     52c:	00685100 	rsbeq	r5, r8, r0, lsl #2
     530:	007c0000 	rsbseq	r0, ip, r0
     534:	00010000 	andeq	r0, r1, r0
     538:	00000050 	andeq	r0, r0, r0, asr r0
     53c:	00000000 	andeq	r0, r0, r0
     540:	00007c00 	andeq	r7, r0, r0, lsl #24
     544:	00008000 	andeq	r8, r0, r0
     548:	50000100 	andpl	r0, r0, r0, lsl #2
     54c:	00000080 	andeq	r0, r0, r0, lsl #1
     550:	00000084 	andeq	r0, r0, r4, lsl #1
     554:	01f30004 	mvnseq	r0, r4
     558:	00009f50 	andeq	r9, r0, r0, asr pc
     55c:	00000000 	andeq	r0, r0, r0
     560:	00840000 	addeq	r0, r4, r0
     564:	00880000 	addeq	r0, r8, r0
     568:	00010000 	andeq	r0, r1, r0
     56c:	00008850 	andeq	r8, r0, r0, asr r8
     570:	00008c00 	andeq	r8, r0, r0, lsl #24
     574:	f3000400 	vshl.u8	d0, d0, d0
     578:	009f5001 	addseq	r5, pc, r1
     57c:	00000000 	andeq	r0, r0, r0
     580:	d4000000 	strle	r0, [r0], #-0
     584:	f4000000 	vst4.8	{d0-d3}, [r0], r0
     588:	01000000 	mrseq	r0, (UNDEF: 0)
     58c:	00005000 	andeq	r5, r0, r0
     590:	00000000 	andeq	r0, r0, r0
     594:	01140000 	tsteq	r4, r0
     598:	011c0000 	tsteq	ip, r0
     59c:	00010000 	andeq	r0, r1, r0
     5a0:	00011c50 	andeq	r1, r1, r0, asr ip
     5a4:	00015800 	andeq	r5, r1, r0, lsl #16
     5a8:	f3000400 	vshl.u8	d0, d0, d0
     5ac:	009f5001 	addseq	r5, pc, r1
     5b0:	00000000 	andeq	r0, r0, r0
     5b4:	34000000 	strcc	r0, [r0], #-0
     5b8:	48000001 	stmdami	r0, {r0}
     5bc:	01000001 	tsteq	r0, r1
     5c0:	01485000 	mrseq	r5, (UNDEF: 72)
     5c4:	014b0000 	mrseq	r0, (UNDEF: 75)
     5c8:	00010000 	andeq	r0, r1, r0
     5cc:	00000051 	andeq	r0, r0, r1, asr r0
     5d0:	00000000 	andeq	r0, r0, r0
     5d4:	00019000 	andeq	r9, r1, r0
     5d8:	00019800 	andeq	r9, r1, r0, lsl #16
     5dc:	50000100 	andpl	r0, r0, r0, lsl #2
	...
     5e8:	000001b8 			; <UNDEFINED> instruction: 0x000001b8
     5ec:	000001bc 			; <UNDEFINED> instruction: 0x000001bc
     5f0:	bc500001 	mrrclt	0, 0, r0, r0, cr1	; <UNPREDICTABLE>
     5f4:	cb000001 	blgt	600 <ARM_I_BIT+0x580>
     5f8:	01000001 	tsteq	r0, r1
     5fc:	00005100 	andeq	r5, r0, r0, lsl #2
     600:	00000000 	andeq	r0, r0, r0
     604:	01f40000 	mvnseq	r0, r0
     608:	01fc0000 	mvnseq	r0, r0
     60c:	00050000 	andeq	r0, r5, r0
     610:	24340071 	ldrtcs	r0, [r4], #-113	; 0xffffff8f
     614:	0001fc9f 	muleq	r1, pc, ip	; <UNPREDICTABLE>
     618:	00020700 	andeq	r0, r2, r0, lsl #14
     61c:	51000100 	mrspl	r0, (UNDEF: 16)
	...
     628:	00000208 	andeq	r0, r0, r8, lsl #4
     62c:	00000210 	andeq	r0, r0, r0, lsl r2
     630:	00740005 	rsbseq	r0, r4, r5
     634:	109f253c 	addsne	r2, pc, ip, lsr r5	; <UNPREDICTABLE>
     638:	6c000002 	stcvs	0, cr0, [r0], {2}
     63c:	01000002 	tsteq	r0, r2
     640:	00005400 	andeq	r5, r0, r0, lsl #8
     644:	00000000 	andeq	r0, r0, r0
     648:	02080000 	andeq	r0, r8, #0
     64c:	02300000 	eorseq	r0, r0, #0
     650:	00020000 	andeq	r0, r2, r0
     654:	02309f30 	eorseq	r9, r0, #48, 30	; 0xc0
     658:	02540000 	subseq	r0, r4, #0
     65c:	00010000 	andeq	r0, r1, r0
     660:	00025453 	andeq	r5, r2, r3, asr r4
     664:	00027800 	andeq	r7, r2, r0, lsl #16
     668:	54000100 	strpl	r0, [r0], #-256	; 0xffffff00
     66c:	00000278 	andeq	r0, r0, r8, ror r2
     670:	00000294 	muleq	r0, r4, r2
     674:	7f740003 	svcvc	0x00740003
     678:	0002949f 	muleq	r2, pc, r4	; <UNPREDICTABLE>
     67c:	0002c000 	andeq	ip, r2, r0
     680:	54000100 	strpl	r0, [r0], #-256	; 0xffffff00
	...
     690:	00000020 	andeq	r0, r0, r0, lsr #32
     694:	9f300002 	svcls	0x00300002
	...
     6a4:	00000020 	andeq	r0, r0, r0, lsr #32
     6a8:	300c0006 	andcc	r0, ip, r6
     6ac:	9f3f2010 	svcls	0x003f2010
	...
     6b8:	00000020 	andeq	r0, r0, r0, lsr #32
     6bc:	00000024 	andeq	r0, r0, r4, lsr #32
     6c0:	9f300002 	svcls	0x00300002
	...
     6cc:	00000020 	andeq	r0, r0, r0, lsr #32
     6d0:	00000024 	andeq	r0, r0, r4, lsr #32
     6d4:	940c0006 	strls	r0, [ip], #-6
     6d8:	9f3f2000 	svcls	0x003f2000
	...
     6e4:	00000024 	andeq	r0, r0, r4, lsr #32
     6e8:	0000002c 	andeq	r0, r0, ip, lsr #32
     6ec:	96080003 	strls	r0, [r8], -r3
     6f0:	0000009f 	muleq	r0, pc, r0	; <UNPREDICTABLE>
     6f4:	00000000 	andeq	r0, r0, r0
     6f8:	00002c00 	andeq	r2, r0, r0, lsl #24
     6fc:	00003400 	andeq	r3, r0, r0, lsl #8
     700:	0a000400 	beq	1708 <SCTLR_ENABLE_INSTRUCTION_CACHE+0x708>
     704:	009fc000 	addseq	ip, pc, r0
     708:	00000000 	andeq	r0, r0, r0
     70c:	2c000000 	stccs	0, cr0, [r0], {-0}
     710:	34000000 	strcc	r0, [r0], #-0
     714:	06000000 	streq	r0, [r0], -r0
     718:	00980c00 	addseq	r0, r8, r0, lsl #24
     71c:	009f3f20 	addseq	r3, pc, r0, lsr #30
     720:	00000000 	andeq	r0, r0, r0
     724:	34000000 	strcc	r0, [r0], #-0
     728:	3c000000 	stccc	0, cr0, [r0], {-0}
     72c:	03000000 	movweq	r0, #0
     730:	9f960800 	svcls	0x00960800
	...
     73c:	00000050 	andeq	r0, r0, r0, asr r0
     740:	00000054 	andeq	r0, r0, r4, asr r0
     744:	9f310002 	svcls	0x00310002
	...
     750:	00000050 	andeq	r0, r0, r0, asr r0
     754:	00000054 	andeq	r0, r0, r4, asr r0
     758:	240c0006 	strcs	r0, [ip], #-6
     75c:	9f3f2010 	svcls	0x003f2010
	...
     768:	0000003c 	andeq	r0, r0, ip, lsr r0
     76c:	00000044 	andeq	r0, r0, r4, asr #32
     770:	9f300002 	svcls	0x00300002
	...
     77c:	0000003c 	andeq	r0, r0, ip, lsr r0
     780:	00000044 	andeq	r0, r0, r4, asr #32
     784:	980c0006 	stmdals	ip, {r1, r2}
     788:	9f3f2000 	svcls	0x003f2000
	...
     794:	00000044 	andeq	r0, r0, r4, asr #32
     798:	00000050 	andeq	r0, r0, r0, asr r0
     79c:	ff0a0004 			; <UNDEFINED> instruction: 0xff0a0004
     7a0:	00009f07 	andeq	r9, r0, r7, lsl #30
     7a4:	00000000 	andeq	r0, r0, r0
     7a8:	00440000 	subeq	r0, r4, r0
     7ac:	00500000 	subseq	r0, r0, r0
     7b0:	00060000 	andeq	r0, r6, r0
     7b4:	2010440c 	andscs	r4, r0, ip, lsl #8
     7b8:	00009f3f 	andeq	r9, r0, pc, lsr pc
     7bc:	00000000 	andeq	r0, r0, r0
     7c0:	00540000 	subseq	r0, r4, r0
     7c4:	005c0000 	subseq	r0, ip, r0
     7c8:	00030000 	andeq	r0, r3, r0
     7cc:	009f2808 	addseq	r2, pc, r8, lsl #16
     7d0:	00000000 	andeq	r0, r0, r0
     7d4:	54000000 	strpl	r0, [r0], #-0
     7d8:	5c000000 	stcpl	0, cr0, [r0], {-0}
     7dc:	06000000 	streq	r0, [r0], -r0
     7e0:	10280c00 	eorne	r0, r8, r0, lsl #24
     7e4:	009f3f20 	addseq	r3, pc, r0, lsr #30
     7e8:	00000000 	andeq	r0, r0, r0
     7ec:	5c000000 	stcpl	0, cr0, [r0], {-0}
     7f0:	64000000 	strvs	r0, [r0], #-0
     7f4:	03000000 	movweq	r0, #0
     7f8:	9f700800 	svcls	0x00700800
	...
     804:	0000005c 	andeq	r0, r0, ip, asr r0
     808:	00000064 	andeq	r0, r0, r4, rrx
     80c:	2c0c0006 	stccs	0, cr0, [ip], {6}
     810:	9f3f2010 	svcls	0x003f2010
	...
     81c:	00000064 	andeq	r0, r0, r4, rrx
     820:	0000006c 	andeq	r0, r0, ip, rrx
     824:	f20a0004 	vhadd.s8	d0, d10, d4
     828:	00009f07 	andeq	r9, r0, r7, lsl #30
     82c:	00000000 	andeq	r0, r0, r0
     830:	00640000 	rsbeq	r0, r4, r0
     834:	006c0000 	rsbeq	r0, ip, r0
     838:	00060000 	andeq	r0, r6, r0
     83c:	2010380c 	andscs	r3, r0, ip, lsl #16
     840:	00009f3f 	andeq	r9, r0, pc, lsr pc
     844:	00000000 	andeq	r0, r0, r0
     848:	006c0000 	rsbeq	r0, ip, r0
     84c:	00700000 	rsbseq	r0, r0, r0
     850:	00040000 	andeq	r0, r4, r0
     854:	9f03010a 	svcls	0x0003010a
	...
     860:	0000006c 	andeq	r0, r0, ip, rrx
     864:	00000070 	andeq	r0, r0, r0, ror r0
     868:	300c0006 	andcc	r0, ip, r6
     86c:	9f3f2010 	svcls	0x003f2010
	...
     878:	0000007c 	andeq	r0, r0, ip, ror r0
     87c:	00000080 	andeq	r0, r0, r0, lsl #1
     880:	180c0006 	stmdane	ip, {r1, r2}
     884:	9f3f2010 	svcls	0x003f2010
	...
     890:	00000090 	muleq	r0, r0, r0
     894:	00000094 	muleq	r0, r4, r0
     898:	00500001 	subseq	r0, r0, r1
     89c:	00000000 	andeq	r0, r0, r0
     8a0:	90000000 	andls	r0, r0, r0
     8a4:	94000000 	strls	r0, [r0], #-0
     8a8:	06000000 	streq	r0, [r0], -r0
     8ac:	10000c00 	andne	r0, r0, r0, lsl #24
     8b0:	009f3f20 	addseq	r3, pc, r0, lsr #30
     8b4:	00000000 	andeq	r0, r0, r0
     8b8:	a0000000 	andge	r0, r0, r0
     8bc:	a4000000 	strge	r0, [r0], #-0
     8c0:	06000000 	streq	r0, [r0], -r0
     8c4:	10180c00 	andsne	r0, r8, r0, lsl #24
     8c8:	009f3f20 	addseq	r3, pc, r0, lsr #30
     8cc:	00000000 	andeq	r0, r0, r0
     8d0:	b4000000 	strlt	r0, [r0], #-0
     8d4:	b8000000 	stmdalt	r0, {}	; <UNPREDICTABLE>
     8d8:	06000000 	streq	r0, [r0], -r0
     8dc:	10000c00 	andne	r0, r0, r0, lsl #24
     8e0:	009f3f20 	addseq	r3, pc, r0, lsr #30
     8e4:	00000000 	andeq	r0, r0, r0
     8e8:	c0000000 	andgt	r0, r0, r0
     8ec:	cc000000 	stcgt	0, cr0, [r0], {-0}
     8f0:	01000000 	mrseq	r0, (UNDEF: 0)
     8f4:	00cc5000 	sbceq	r5, ip, r0
     8f8:	00d40000 	sbcseq	r0, r4, r0
     8fc:	00010000 	andeq	r0, r1, r0
     900:	0000d454 	andeq	sp, r0, r4, asr r4
     904:	0000e800 	andeq	lr, r0, r0, lsl #16
     908:	f3000400 	vshl.u8	d0, d0, d0
     90c:	009f5001 	addseq	r5, pc, r1
     910:	00000000 	andeq	r0, r0, r0
     914:	c0000000 	andgt	r0, r0, r0
     918:	d4000000 	strle	r0, [r0], #-0
     91c:	02000000 	andeq	r0, r0, #0
     920:	d49f3000 	ldrle	r3, [pc], #0	; 928 <SCTLR_ENABLE_BRANCH_PREDICTION+0x128>
     924:	d8000000 	stmdale	r0, {}	; <UNPREDICTABLE>
     928:	07000000 	streq	r0, [r0, -r0]
     92c:	f3007400 	vshl.u8	d7, d0, d0
     930:	9f1c5001 	svcls	0x001c5001
     934:	000000d8 	ldrdeq	r0, [r0], -r8
     938:	000000dc 	ldrdeq	r0, [r0], -ip
     93c:	00740009 	rsbseq	r0, r4, r9
     940:	1c5001f3 	ldfnee	f0, [r0], {243}	; 0xf3
     944:	dc9f0123 	ldfles	f0, [pc], {35}	; 0x23
     948:	e8000000 	stmda	r0, {}	; <UNPREDICTABLE>
     94c:	07000000 	streq	r0, [r0, -r0]
     950:	f3007400 	vshl.u8	d7, d0, d0
     954:	9f1c5001 	svcls	0x001c5001
	...
     960:	000000e8 	andeq	r0, r0, r8, ror #1
     964:	000000f4 	strdeq	r0, [r0], -r4
     968:	f4500001 			; <UNDEFINED> instruction: 0xf4500001
     96c:	24000000 	strcs	r0, [r0], #-0
     970:	01000001 	tsteq	r0, r1
     974:	01245500 			; <UNDEFINED> instruction: 0x01245500
     978:	01280000 			; <UNDEFINED> instruction: 0x01280000
     97c:	00040000 	andeq	r0, r4, r0
     980:	9f5001f3 	svcls	0x005001f3
	...
     98c:	000000e8 	andeq	r0, r0, r8, ror #1
     990:	000000f4 	strdeq	r0, [r0], -r4
     994:	20080003 	andcs	r0, r8, r3
     998:	0000f49f 	muleq	r0, pc, r4	; <UNPREDICTABLE>
     99c:	00012400 	andeq	r2, r1, r0, lsl #8
     9a0:	54000100 	strpl	r0, [r0], #-256	; 0xffffff00
	...
     9ac:	00000100 	andeq	r0, r0, r0, lsl #2
     9b0:	00000108 	andeq	r0, r0, r8, lsl #2
     9b4:	08530001 	ldmdaeq	r3, {r0}^
     9b8:	10000001 	andne	r0, r0, r1
     9bc:	01000001 	tsteq	r0, r1
     9c0:	01135000 	tsteq	r3, r0
     9c4:	01240000 			; <UNDEFINED> instruction: 0x01240000
     9c8:	00290000 	eoreq	r0, r9, r0
     9cc:	00740075 	rsbseq	r0, r4, r5, ror r0
     9d0:	231a3f25 	tstcs	sl, #37, 30	; 0x94
     9d4:	74007537 	strvc	r7, [r0], #-1335	; 0xfffffac9
     9d8:	1a3f2500 	bne	fc9de0 <__kernel_end+0xe67de0>
     9dc:	00753023 	rsbseq	r3, r5, r3, lsr #32
     9e0:	3f250074 	svccc	0x00250074
     9e4:	244b401a 	strbcs	r4, [fp], #-26	; 0xffffffe6
     9e8:	00090c22 	andeq	r0, r9, r2, lsr #24
     9ec:	282b8000 	stmdacs	fp!, {pc}
     9f0:	13160001 	tstne	r6, #1
     9f4:	0000009f 	muleq	r0, pc, r0	; <UNPREDICTABLE>
     9f8:	00000000 	andeq	r0, r0, r0
     9fc:	00002c00 	andeq	r2, r0, r0, lsl #24
     a00:	00003300 	andeq	r3, r0, r0, lsl #6
     a04:	53000100 	movwpl	r0, #256	; 0x100
	...
     a10:	00000050 	andeq	r0, r0, r0, asr r0
     a14:	0000005c 	andeq	r0, r0, ip, asr r0
     a18:	5c500001 	mrrcpl	0, 0, r0, r0, cr1	; <UNPREDICTABLE>
     a1c:	78000000 	stmdavc	r0, {}	; <UNPREDICTABLE>
     a20:	01000000 	mrseq	r0, (UNDEF: 0)
     a24:	00785400 	rsbseq	r5, r8, r0, lsl #8
     a28:	007c0000 	rsbseq	r0, ip, r0
     a2c:	00030000 	andeq	r0, r3, r0
     a30:	7c9f7f74 	ldcvc	15, cr7, [pc], {116}	; 0x74
     a34:	8c000000 	stchi	0, cr0, [r0], {-0}
     a38:	01000000 	mrseq	r0, (UNDEF: 0)
     a3c:	00005400 	andeq	r5, r0, r0, lsl #8
     a40:	00000000 	andeq	r0, r0, r0
     a44:	00500000 	subseq	r0, r0, r0
     a48:	00670000 	rsbeq	r0, r7, r0
     a4c:	00010000 	andeq	r0, r1, r0
     a50:	00006751 	andeq	r6, r0, r1, asr r7
     a54:	00007000 	andeq	r7, r0, r0
     a58:	55000100 	strpl	r0, [r0, #-256]	; 0xffffff00
     a5c:	00000070 	andeq	r0, r0, r0, ror r0
     a60:	0000009c 	muleq	r0, ip, r0
     a64:	01f30004 	mvnseq	r0, r4
     a68:	00009f51 	andeq	r9, r0, r1, asr pc
     a6c:	00000000 	andeq	r0, r0, r0
     a70:	00680000 	rsbeq	r0, r8, r0
     a74:	00840000 	addeq	r0, r4, r0
     a78:	00020000 	andeq	r0, r2, r0
     a7c:	00009f30 	andeq	r9, r0, r0, lsr pc
     a80:	00000000 	andeq	r0, r0, r0
     a84:	009c0000 	addseq	r0, ip, r0
     a88:	00a80000 	adceq	r0, r8, r0
     a8c:	00010000 	andeq	r0, r1, r0
     a90:	0000a850 	andeq	sl, r0, r0, asr r8
     a94:	0000b000 	andeq	fp, r0, r0
     a98:	70000300 	andvc	r0, r0, r0, lsl #6
     a9c:	00b09f01 	adcseq	r9, r0, r1, lsl #30
     aa0:	00b40000 	adcseq	r0, r4, r0
     aa4:	00010000 	andeq	r0, r1, r0
     aa8:	0000b450 	andeq	fp, r0, r0, asr r4
     aac:	0000c000 	andeq	ip, r0, r0
     ab0:	70000300 	andvc	r0, r0, r0, lsl #6
     ab4:	00009f01 	andeq	r9, r0, r1, lsl #30
     ab8:	00000000 	andeq	r0, r0, r0
     abc:	009c0000 	addseq	r0, ip, r0
     ac0:	00b40000 	adcseq	r0, r4, r0
     ac4:	00010000 	andeq	r0, r1, r0
     ac8:	0000b451 	andeq	fp, r0, r1, asr r4
     acc:	0000c000 	andeq	ip, r0, r0
     ad0:	51000100 	mrspl	r0, (UNDEF: 16)
	...
     adc:	0000009c 	muleq	r0, ip, r0
     ae0:	000000ac 	andeq	r0, r0, ip, lsr #1
     ae4:	ac520001 	mrrcge	0, 0, r0, r2, cr1
     ae8:	b0000000 	andlt	r0, r0, r0
     aec:	0c000000 	stceq	0, cr0, [r0], {-0}
     af0:	20007000 	andcs	r7, r0, r0
     af4:	225201f3 	subscs	r0, r2, #-1073741764	; 0xc000003c
     af8:	225001f3 	subscs	r0, r0, #-1073741764	; 0xc000003c
     afc:	0000b09f 	muleq	r0, pc, r0	; <UNPREDICTABLE>
     b00:	0000b400 	andeq	fp, r0, r0, lsl #8
     b04:	f3000b00 	vqrdmulh.s<illegal width 8>	d0, d0, d0
     b08:	01f35001 	mvnseq	r5, r1
     b0c:	00702252 	rsbseq	r2, r0, r2, asr r2
     b10:	00b49f1c 	adcseq	r9, r4, ip, lsl pc
     b14:	00c00000 	sbceq	r0, r0, r0
     b18:	000c0000 	andeq	r0, ip, r0
     b1c:	f3200070 	vqadd.u32	q0, q0, q8
     b20:	f3225201 	vhsub.u32	d5, d2, d1
     b24:	9f225001 	svcls	0x00225001
	...
     b30:	000000c0 	andeq	r0, r0, r0, asr #1
     b34:	000000cc 	andeq	r0, r0, ip, asr #1
     b38:	cc510001 	mrrcgt	0, 0, r0, r1, cr1
     b3c:	dc000000 	stcle	0, cr0, [r0], {-0}
     b40:	04000000 	streq	r0, [r0], #-0
     b44:	5101f300 	mrspl	pc, SP_irq	; <UNPREDICTABLE>
     b48:	0000009f 	muleq	r0, pc, r0	; <UNPREDICTABLE>
     b4c:	00000000 	andeq	r0, r0, r0
     b50:	0000c000 	andeq	ip, r0, r0
     b54:	0000c800 	andeq	ip, r0, r0, lsl #16
     b58:	52000100 	andpl	r0, r0, #0, 2
     b5c:	000000c8 	andeq	r0, r0, r8, asr #1
     b60:	000000dc 	ldrdeq	r0, [r0], -ip
     b64:	01f30004 	mvnseq	r0, r4
     b68:	00009f52 	andeq	r9, r0, r2, asr pc
     b6c:	00000000 	andeq	r0, r0, r0
     b70:	00c40000 	sbceq	r0, r4, r0
     b74:	00d00000 	sbcseq	r0, r0, r0
     b78:	00010000 	andeq	r0, r1, r0
     b7c:	00000053 	andeq	r0, r0, r3, asr r0
     b80:	00000000 	andeq	r0, r0, r0
     b84:	00025c00 	andeq	r5, r2, r0, lsl #24
     b88:	0002d400 	andeq	sp, r2, r0, lsl #8
     b8c:	55000100 	strpl	r0, [r0, #-256]	; 0xffffff00
	...
     b98:	000000cc 	andeq	r0, r0, ip, asr #1
     b9c:	000000d0 	ldrdeq	r0, [r0], -r0	; <UNPREDICTABLE>
     ba0:	d0500001 	subsle	r0, r0, r1
     ba4:	ec000000 	stc	0, cr0, [r0], {-0}
     ba8:	01000000 	mrseq	r0, (UNDEF: 0)
     bac:	00005400 	andeq	r5, r0, r0, lsl #8
     bb0:	00000000 	andeq	r0, r0, r0
     bb4:	017c0000 	cmneq	ip, r0
     bb8:	01800000 	orreq	r0, r0, r0
     bbc:	00060000 	andeq	r0, r6, r0
     bc0:	51049350 	tstpl	r4, r0, asr r3
     bc4:	01800493 			; <UNDEFINED> instruction: 0x01800493
     bc8:	01880000 	orreq	r0, r8, r0
     bcc:	00060000 	andeq	r0, r6, r0
     bd0:	00f503f3 	ldrshteq	r0, [r5], #51	; 0x33
     bd4:	00009f25 	andeq	r9, r0, r5, lsr #30
     bd8:	00000000 	andeq	r0, r0, r0
     bdc:	01a80000 			; <UNDEFINED> instruction: 0x01a80000
     be0:	02080000 	andeq	r0, r8, #0
     be4:	00060000 	andeq	r0, r6, r0
     be8:	57049356 	smlsdpl	r4, r6, r3, r9
     bec:	00000493 	muleq	r0, r3, r4
	...
     bf8:	00040000 	andeq	r0, r4, r0
     bfc:	00010000 	andeq	r0, r1, r0
     c00:	00000450 	andeq	r0, r0, r0, asr r4
     c04:	00004c00 	andeq	r4, r0, r0, lsl #24
     c08:	f3000400 	vshl.u8	d0, d0, d0
     c0c:	009f5001 	addseq	r5, pc, r1
	...
     c18:	13000000 	movwne	r0, #0
     c1c:	01000000 	mrseq	r0, (UNDEF: 0)
     c20:	00135100 	andseq	r5, r3, r0, lsl #2
     c24:	004c0000 	subeq	r0, ip, r0
     c28:	00040000 	andeq	r0, r4, r0
     c2c:	9f5101f3 	svcls	0x005101f3
	...
     c3c:	00000013 	andeq	r0, r0, r3, lsl r0
     c40:	13520001 	cmpne	r2, #1
     c44:	4c000000 	stcmi	0, cr0, [r0], {-0}
     c48:	04000000 	streq	r0, [r0], #-0
     c4c:	5201f300 	andpl	pc, r1, #0, 6
     c50:	0000009f 	muleq	r0, pc, r0	; <UNPREDICTABLE>
	...
     c5c:	00001000 	andeq	r1, r0, r0
     c60:	51000100 	mrspl	r0, (UNDEF: 16)
     c64:	00000010 	andeq	r0, r0, r0, lsl r0
     c68:	00000024 	andeq	r0, r0, r4, lsr #32
     c6c:	01f30004 	mvnseq	r0, r4
     c70:	00009f51 	andeq	r9, r0, r1, asr pc
	...
     c7c:	00100000 	andseq	r0, r0, r0
     c80:	00010000 	andeq	r0, r1, r0
     c84:	00001052 	andeq	r1, r0, r2, asr r0
     c88:	00002400 	andeq	r2, r0, r0, lsl #8
     c8c:	f3000400 	vshl.u8	d0, d0, d0
     c90:	009f5201 	addseq	r5, pc, r1, lsl #4
     c94:	00000000 	andeq	r0, r0, r0
     c98:	04000000 	streq	r0, [r0], #-0
     c9c:	10000000 	andne	r0, r0, r0
     ca0:	01000000 	mrseq	r0, (UNDEF: 0)
     ca4:	00105100 	andseq	r5, r0, r0, lsl #2
     ca8:	00240000 	eoreq	r0, r4, r0
     cac:	00040000 	andeq	r0, r4, r0
     cb0:	9f5101f3 	svcls	0x005101f3
	...
     cbc:	00000004 	andeq	r0, r0, r4
     cc0:	00000010 	andeq	r0, r0, r0, lsl r0
     cc4:	9f300002 	svcls	0x00300002
     cc8:	00000010 	andeq	r0, r0, r0, lsl r0
     ccc:	00000014 	andeq	r0, r0, r4, lsl r0
     cd0:	00710007 	rsbseq	r0, r1, r7
     cd4:	1c5101f3 	ldfnee	f0, [r1], {243}	; 0xf3
     cd8:	0000149f 	muleq	r0, pc, r4	; <UNPREDICTABLE>
     cdc:	00001c00 	andeq	r1, r0, r0, lsl #24
     ce0:	f3000800 	vsub.i8	d0, d0, d0
     ce4:	71205101 			; <UNDEFINED> instruction: 0x71205101
     ce8:	1c9f2200 	lfmne	f2, 4, [pc], {0}
     cec:	24000000 	strcs	r0, [r0], #-0
     cf0:	07000000 	streq	r0, [r0, -r0]
     cf4:	f3007100 	vrhadd.u8	d7, d0, d0
     cf8:	9f1c5101 	svcls	0x001c5101
	...
     d08:	00000008 	andeq	r0, r0, r8
     d0c:	08500001 	ldmdaeq	r0, {r0}^
     d10:	18000000 	stmdane	r0, {}	; <UNPREDICTABLE>
     d14:	04000000 	streq	r0, [r0], #-0
     d18:	5001f300 	andpl	pc, r1, r0, lsl #6
     d1c:	0000009f 	muleq	r0, pc, r0	; <UNPREDICTABLE>
	...
     d28:	00000b00 	andeq	r0, r0, r0, lsl #22
     d2c:	51000100 	mrspl	r0, (UNDEF: 16)
     d30:	0000000b 	andeq	r0, r0, fp
     d34:	00000018 	andeq	r0, r0, r8, lsl r0
     d38:	01f30004 	mvnseq	r0, r4
     d3c:	00009f51 	andeq	r9, r0, r1, asr pc
	...
     d48:	001c0000 	andseq	r0, ip, r0
     d4c:	00010000 	andeq	r0, r1, r0
     d50:	00001c50 	andeq	r1, r0, r0, asr ip
     d54:	00004400 	andeq	r4, r0, r0, lsl #8
     d58:	91000300 	mrsls	r0, LR_irq
     d5c:	00447ee4 	subeq	r7, r4, r4, ror #29
     d60:	00880000 	addeq	r0, r8, r0
     d64:	00010000 	andeq	r0, r1, r0
     d68:	00008853 	andeq	r8, r0, r3, asr r8
     d6c:	0000ac00 	andeq	sl, r0, r0, lsl #24
     d70:	91000300 	mrsls	r0, LR_irq
     d74:	00ac7ee4 	adceq	r7, ip, r4, ror #29
     d78:	00d00000 	sbcseq	r0, r0, r0
     d7c:	00010000 	andeq	r0, r1, r0
     d80:	0000d053 	andeq	sp, r0, r3, asr r0
     d84:	0000d800 	andeq	sp, r0, r0, lsl #16
     d88:	73000300 	movwvc	r0, #768	; 0x300
     d8c:	00e89f7f 	rsceq	r9, r8, pc, ror pc
     d90:	01d40000 	bicseq	r0, r4, r0
     d94:	00010000 	andeq	r0, r1, r0
     d98:	0001d453 	andeq	sp, r1, r3, asr r4
     d9c:	0001e000 	andeq	lr, r1, r0
     da0:	73000300 	movwvc	r0, #768	; 0x300
     da4:	01e09f7f 	mvneq	r9, pc, ror pc
     da8:	01e40000 	mvneq	r0, r0
     dac:	00010000 	andeq	r0, r1, r0
     db0:	0001e453 	andeq	lr, r1, r3, asr r4
     db4:	0002f400 	andeq	pc, r2, r0, lsl #8
     db8:	91000300 	mrsls	r0, LR_irq
     dbc:	02f47ee4 	rscseq	r7, r4, #228, 28	; 0xe40
     dc0:	031c0000 	tsteq	ip, #0
     dc4:	00010000 	andeq	r0, r1, r0
     dc8:	00031c53 	andeq	r1, r3, r3, asr ip
     dcc:	00032400 	andeq	r2, r3, r0, lsl #8
     dd0:	73000300 	movwvc	r0, #768	; 0x300
     dd4:	03249f01 			; <UNDEFINED> instruction: 0x03249f01
     dd8:	03280000 			; <UNDEFINED> instruction: 0x03280000
     ddc:	00010000 	andeq	r0, r1, r0
     de0:	00032853 	andeq	r2, r3, r3, asr r8
     de4:	00033000 	andeq	r3, r3, r0
     de8:	73000300 	movwvc	r0, #768	; 0x300
     dec:	03309f01 	teqeq	r0, #1, 30
     df0:	03340000 	teqeq	r4, #0
     df4:	00010000 	andeq	r0, r1, r0
     df8:	00033453 	andeq	r3, r3, r3, asr r4
     dfc:	00035400 	andeq	r5, r3, r0, lsl #8
     e00:	73000300 	movwvc	r0, #768	; 0x300
     e04:	03549f01 	cmpeq	r4, #1, 30
     e08:	035c0000 	cmpeq	ip, #0
     e0c:	00010000 	andeq	r0, r1, r0
     e10:	00035c53 	andeq	r5, r3, r3, asr ip
     e14:	00036400 	andeq	r6, r3, r0, lsl #8
     e18:	73000300 	movwvc	r0, #768	; 0x300
     e1c:	03789f7f 	cmneq	r8, #508	; 0x1fc
     e20:	03880000 	orreq	r0, r8, #0
     e24:	00030000 	andeq	r0, r3, r0
     e28:	889f0173 	ldmhi	pc, {r0, r1, r4, r5, r6, r8}	; <UNPREDICTABLE>
     e2c:	8c000003 	stchi	0, cr0, [r0], {3}
     e30:	03000003 	movweq	r0, #3
     e34:	9f027300 	svcls	0x00027300
     e38:	00000390 	muleq	r0, r0, r3
     e3c:	000003ac 	andeq	r0, r0, ip, lsr #7
     e40:	ac530001 	mrrcge	0, 0, r0, r3, cr1
     e44:	b4000003 	strlt	r0, [r0], #-3
     e48:	03000003 	movweq	r0, #3
     e4c:	9f7f7300 	svcls	0x007f7300
     e50:	000003b4 			; <UNDEFINED> instruction: 0x000003b4
     e54:	000003b7 			; <UNDEFINED> instruction: 0x000003b7
     e58:	b7530001 	ldrblt	r0, [r3, -r1]
     e5c:	80000003 	andhi	r0, r0, r3
     e60:	03000004 	movweq	r0, #4
     e64:	7ee49100 	urdvcs	f1, f0
     e68:	00000480 	andeq	r0, r0, r0, lsl #9
     e6c:	0000051c 	andeq	r0, r0, ip, lsl r5
     e70:	1c530001 	mrrcne	0, 0, r0, r3, cr1
     e74:	20000005 	andcs	r0, r0, r5
     e78:	03000005 	movweq	r0, #5
     e7c:	9f7f7300 	svcls	0x007f7300
     e80:	00000520 	andeq	r0, r0, r0, lsr #10
     e84:	00000524 	andeq	r0, r0, r4, lsr #10
     e88:	24530001 	ldrbcs	r0, [r3], #-1
     e8c:	a4000005 	strge	r0, [r0], #-5
     e90:	03000006 	movweq	r0, #6
     e94:	7ee49100 	urdvcs	f1, f0
     e98:	000006a4 	andeq	r0, r0, r4, lsr #13
     e9c:	000006ac 	andeq	r0, r0, ip, lsr #13
     ea0:	01730003 	cmneq	r3, r3
     ea4:	0006ac9f 	muleq	r6, pc, ip	; <UNPREDICTABLE>
     ea8:	0006bc00 	andeq	fp, r6, r0, lsl #24
     eac:	73000300 	movwvc	r0, #768	; 0x300
     eb0:	06bc9f02 	ldrteq	r9, [ip], r2, lsl #30
     eb4:	06c00000 	strbeq	r0, [r0], r0
     eb8:	00010000 	andeq	r0, r1, r0
     ebc:	0006c053 	andeq	ip, r6, r3, asr r0
     ec0:	0006e000 	andeq	lr, r6, r0
     ec4:	91000300 	mrsls	r0, LR_irq
     ec8:	06e07ee4 	strbteq	r7, [r0], r4, ror #29
     ecc:	06e80000 	strbteq	r0, [r8], r0
     ed0:	00010000 	andeq	r0, r1, r0
     ed4:	0006e853 	andeq	lr, r6, r3, asr r8
     ed8:	00070000 	andeq	r0, r7, r0
     edc:	91000300 	mrsls	r0, LR_irq
     ee0:	07007ee4 	streq	r7, [r0, -r4, ror #29]
     ee4:	07180000 	ldreq	r0, [r8, -r0]
     ee8:	00010000 	andeq	r0, r1, r0
     eec:	00071853 	andeq	r1, r7, r3, asr r8
     ef0:	00072800 	andeq	r2, r7, r0, lsl #16
     ef4:	91000300 	mrsls	r0, LR_irq
     ef8:	07287ee4 	streq	r7, [r8, -r4, ror #29]!
     efc:	07300000 	ldreq	r0, [r0, -r0]!
     f00:	00010000 	andeq	r0, r1, r0
     f04:	00073053 	andeq	r3, r7, r3, asr r0
     f08:	00074c00 	andeq	r4, r7, r0, lsl #24
     f0c:	91000300 	mrsls	r0, LR_irq
     f10:	00007ee4 	andeq	r7, r0, r4, ror #29
	...
     f1c:	00840000 	addeq	r0, r4, r0
     f20:	00010000 	andeq	r0, r1, r0
     f24:	00008851 	andeq	r8, r0, r1, asr r8
     f28:	00008c00 	andeq	r8, r0, r0, lsl #24
     f2c:	51000100 	mrspl	r0, (UNDEF: 16)
     f30:	000000b0 	strheq	r0, [r0], -r0	; <UNPREDICTABLE>
     f34:	000000c0 	andeq	r0, r0, r0, asr #1
     f38:	e8510001 	ldmda	r1, {r0}^
     f3c:	0c000002 	stceq	0, cr0, [r0], {2}
     f40:	01000003 	tsteq	r0, r3
     f44:	06e05100 	strbteq	r5, [r0], r0, lsl #2
     f48:	06e80000 	strbteq	r0, [r8], r0
     f4c:	00010000 	andeq	r0, r1, r0
     f50:	00000051 	andeq	r0, r0, r1, asr r0
	...
     f5c:	00001c00 	andeq	r1, r0, r0, lsl #24
     f60:	52000100 	andpl	r0, r0, #0, 2
     f64:	0000001c 	andeq	r0, r0, ip, lsl r0
     f68:	0000074c 	andeq	r0, r0, ip, asr #14
     f6c:	01f30004 	mvnseq	r0, r4
     f70:	00009f52 	andeq	r9, r0, r2, asr pc
	...
     f7c:	001c0000 	andseq	r0, ip, r0
     f80:	00010000 	andeq	r0, r1, r0
     f84:	00001c53 	andeq	r1, r0, r3, asr ip
     f88:	0002f000 	andeq	pc, r2, r0
     f8c:	5a000100 	bpl	1394 <SCTLR_ENABLE_INSTRUCTION_CACHE+0x394>
     f90:	000002f0 	strdeq	r0, [r0], -r0	; <UNPREDICTABLE>
     f94:	000002f4 	strdeq	r0, [r0], -r4
     f98:	01f30004 	mvnseq	r0, r4
     f9c:	02f49f53 	rscseq	r9, r4, #332	; 0x14c
     fa0:	074c0000 	strbeq	r0, [ip, -r0]
     fa4:	00010000 	andeq	r0, r1, r0
     fa8:	0000005a 	andeq	r0, r0, sl, asr r0
     fac:	00000000 	andeq	r0, r0, r0
     fb0:	00001c00 	andeq	r1, r0, r0, lsl #24
     fb4:	00024000 	andeq	r4, r2, r0
     fb8:	5b000100 	blpl	13c0 <SCTLR_ENABLE_INSTRUCTION_CACHE+0x3c0>
     fbc:	000002a4 	andeq	r0, r0, r4, lsr #5
     fc0:	000002e4 	andeq	r0, r0, r4, ror #5
     fc4:	f45b0001 			; <UNDEFINED> instruction: 0xf45b0001
     fc8:	f4000002 	vst4.8	{d0-d3}, [r0], r2
     fcc:	01000003 	tsteq	r0, r3
     fd0:	042c5b00 	strteq	r5, [ip], #-2816	; 0xfffff500
     fd4:	04440000 	strbeq	r0, [r4], #-0
     fd8:	00010000 	andeq	r0, r1, r0
     fdc:	0004445b 	andeq	r4, r4, fp, asr r4
     fe0:	00048000 	andeq	r8, r4, r0
     fe4:	56000100 	strpl	r0, [r0], -r0, lsl #2
     fe8:	00000480 	andeq	r0, r0, r0, lsl #9
     fec:	00000570 	andeq	r0, r0, r0, ror r5
     ff0:	705b0001 	subsvc	r0, fp, r1
     ff4:	c8000005 	stmdagt	r0, {r0, r2}
     ff8:	03000005 	movweq	r0, #5
     ffc:	7f809100 	svcvc	0x00809100
    1000:	000005c8 	andeq	r0, r0, r8, asr #11
    1004:	000005cc 	andeq	r0, r0, ip, asr #11
    1008:	cc5b0001 	mrrcgt	0, 0, r0, fp, cr1
    100c:	08000005 	stmdaeq	r0, {r0, r2}
    1010:	01000006 	tsteq	r0, r6
    1014:	06085800 	streq	r5, [r8], -r0, lsl #16
    1018:	06280000 	strteq	r0, [r8], -r0
    101c:	00010000 	andeq	r0, r1, r0
    1020:	0006485b 	andeq	r4, r6, fp, asr r8
    1024:	00065800 	andeq	r5, r6, r0, lsl #16
    1028:	58000100 	stmdapl	r0, {r8}
    102c:	00000658 	andeq	r0, r0, r8, asr r6
    1030:	00000694 	muleq	r0, r4, r6
    1034:	a45b0001 	ldrbge	r0, [fp], #-1
    1038:	e8000006 	stmda	r0, {r1, r2}
    103c:	01000006 	tsteq	r0, r6
    1040:	06e85b00 	strbteq	r5, [r8], r0, lsl #22
    1044:	06fc0000 	ldrbteq	r0, [ip], r0
    1048:	00010000 	andeq	r0, r1, r0
    104c:	0006fc56 	andeq	pc, r6, r6, asr ip	; <UNPREDICTABLE>
    1050:	00074c00 	andeq	r4, r7, r0, lsl #24
    1054:	5b000100 	blpl	145c <SCTLR_ENABLE_INSTRUCTION_CACHE+0x45c>
	...
    1060:	000002b0 			; <UNDEFINED> instruction: 0x000002b0
    1064:	000002e4 	andeq	r0, r0, r4, ror #5
    1068:	9f300002 	svcls	0x00300002
    106c:	0000042c 	andeq	r0, r0, ip, lsr #8
    1070:	00000480 	andeq	r0, r0, r0, lsl #9
    1074:	9f300002 	svcls	0x00300002
    1078:	000005c8 	andeq	r0, r0, r8, asr #11
    107c:	000005e0 	andeq	r0, r0, r0, ror #11
    1080:	9f300002 	svcls	0x00300002
    1084:	00000648 	andeq	r0, r0, r8, asr #12
    1088:	0000064c 	andeq	r0, r0, ip, asr #12
    108c:	9f300002 	svcls	0x00300002
    1090:	00000658 	andeq	r0, r0, r8, asr r6
    1094:	00000694 	muleq	r0, r4, r6
    1098:	9f300002 	svcls	0x00300002
    109c:	000006e8 	andeq	r0, r0, r8, ror #13
    10a0:	00000700 	andeq	r0, r0, r0, lsl #14
    10a4:	9f300002 	svcls	0x00300002
	...
    10b0:	00000084 	andeq	r0, r0, r4, lsl #1
    10b4:	00000088 	andeq	r0, r0, r8, lsl #1
    10b8:	88910004 	ldmhi	r1, {r2}
    10bc:	01189f7f 	tsteq	r8, pc, ror pc
    10c0:	02640000 	rsbeq	r0, r4, #0
    10c4:	00040000 	andeq	r0, r4, r0
    10c8:	9f7f8891 	svcls	0x007f8891
    10cc:	00000264 	andeq	r0, r0, r4, ror #4
    10d0:	00000267 	andeq	r0, r0, r7, ror #4
    10d4:	67500001 	ldrbvs	r0, [r0, -r1]
    10d8:	94000002 	strls	r0, [r0], #-2
    10dc:	04000002 	streq	r0, [r0], #-2
    10e0:	7f889100 	svcvc	0x00889100
    10e4:	0002949f 	muleq	r2, pc, r4	; <UNPREDICTABLE>
    10e8:	0002a400 	andeq	sl, r2, r0, lsl #8
    10ec:	59000100 	stmdbpl	r0, {r8}
    10f0:	00000390 	muleq	r0, r0, r3
    10f4:	000003a0 	andeq	r0, r0, r0, lsr #7
    10f8:	88910004 	ldmhi	r1, {r2}
    10fc:	04809f7f 	streq	r9, [r0], #3967	; 0xf7f
    1100:	04f00000 	ldrbteq	r0, [r0], #0
    1104:	00040000 	andeq	r0, r4, r0
    1108:	9f7f8891 	svcls	0x007f8891
    110c:	000004f0 	strdeq	r0, [r0], -r0	; <UNPREDICTABLE>
    1110:	000004f4 	strdeq	r0, [r0], -r4
    1114:	f4590001 			; <UNDEFINED> instruction: 0xf4590001
    1118:	c8000004 	stmdagt	r0, {r2}
    111c:	04000005 	streq	r0, [r0], #-5
    1120:	7f889100 	svcvc	0x00889100
    1124:	0006289f 	muleq	r6, pc, r8	; <UNPREDICTABLE>
    1128:	00063800 	andeq	r3, r6, r0, lsl #16
    112c:	91000400 	tstls	r0, r0, lsl #8
    1130:	389f7f88 	ldmcc	pc, {r3, r7, r8, r9, sl, fp, ip, sp, lr}	; <UNPREDICTABLE>
    1134:	48000006 	stmdami	r0, {r1, r2}
    1138:	01000006 	tsteq	r0, r6
    113c:	06945900 	ldreq	r5, [r4], r0, lsl #18
    1140:	06a40000 	strteq	r0, [r4], r0
    1144:	00010000 	andeq	r0, r1, r0
    1148:	00070059 	andeq	r0, r7, r9, asr r0
    114c:	00072800 	andeq	r2, r7, r0, lsl #16
    1150:	91000400 	tstls	r0, r0, lsl #8
    1154:	289f7f88 	ldmcs	pc, {r3, r7, r8, r9, sl, fp, ip, sp, lr}	; <UNPREDICTABLE>
    1158:	30000007 	andcc	r0, r0, r7
    115c:	06000007 	streq	r0, [r0], -r7
    1160:	b4b80300 	ldrtlt	r0, [r8], #768	; 0x300
    1164:	309f0000 	addscc	r0, pc, r0
    1168:	4c000007 	stcmi	0, cr0, [r0], {7}
    116c:	04000007 	streq	r0, [r0], #-7
    1170:	7f889100 	svcvc	0x00889100
    1174:	0000009f 	muleq	r0, pc, r0	; <UNPREDICTABLE>
    1178:	00000000 	andeq	r0, r0, r0
    117c:	00008400 	andeq	r8, r0, r0, lsl #8
    1180:	00008800 	andeq	r8, r0, r0, lsl #16
    1184:	91000300 	mrsls	r0, LR_irq
    1188:	00e87eec 	rsceq	r7, r8, ip, ror #29
    118c:	02e40000 	rsceq	r0, r4, #0
    1190:	00030000 	andeq	r0, r3, r0
    1194:	1c7eec91 	ldclne	12, cr14, [lr], #-580	; 0xfffffdbc
    1198:	34000003 	strcc	r0, [r0], #-3
    119c:	03000003 	movweq	r0, #3
    11a0:	7eec9100 	urdvce	f1, f0
    11a4:	00000334 	andeq	r0, r0, r4, lsr r3
    11a8:	00000348 	andeq	r0, r0, r8, asr #6
    11ac:	48510001 	ldmdami	r1, {r0}^
    11b0:	a4000003 	strge	r0, [r0], #-3
    11b4:	03000006 	movweq	r0, #6
    11b8:	7eec9100 	urdvce	f1, f0
    11bc:	000006a4 	andeq	r0, r0, r4, lsr #13
    11c0:	000006c0 	andeq	r0, r0, r0, asr #13
    11c4:	c0510001 	subsgt	r0, r1, r1
    11c8:	e0000006 	and	r0, r0, r6
    11cc:	03000006 	movweq	r0, #6
    11d0:	7eec9100 	urdvce	f1, f0
    11d4:	000006e8 	andeq	r0, r0, r8, ror #13
    11d8:	0000074c 	andeq	r0, r0, ip, asr #14
    11dc:	ec910003 	ldc	0, cr0, [r1], {3}
    11e0:	0000007e 	andeq	r0, r0, lr, ror r0
    11e4:	00000000 	andeq	r0, r0, r0
    11e8:	00008400 	andeq	r8, r0, r0, lsl #8
    11ec:	00008800 	andeq	r8, r0, r0, lsl #16
    11f0:	91000300 	mrsls	r0, LR_irq
    11f4:	01007ee8 	smlatteq	r0, r8, lr, r7
    11f8:	02800000 	addeq	r0, r0, #0
    11fc:	00030000 	andeq	r0, r3, r0
    1200:	807ee891 			; <UNDEFINED> instruction: 0x807ee891
    1204:	a4000002 	strge	r0, [r0], #-2
    1208:	03000002 	movweq	r0, #2
    120c:	9f200800 	svcls	0x00200800
    1210:	00000328 	andeq	r0, r0, r8, lsr #6
    1214:	0000040c 	andeq	r0, r0, ip, lsl #8
    1218:	e8910003 	ldm	r1, {r0, r1}
    121c:	0004807e 	andeq	r8, r4, lr, ror r0
    1220:	0005c800 	andeq	ip, r5, r0, lsl #16
    1224:	91000300 	mrsls	r0, LR_irq
    1228:	06287ee8 	strteq	r7, [r8], -r8, ror #29
    122c:	06480000 	strbeq	r0, [r8], -r0
    1230:	00030000 	andeq	r0, r3, r0
    1234:	947ee891 	ldrbtls	lr, [lr], #-2193	; 0xfffff76f
    1238:	a4000006 	strge	r0, [r0], #-6
    123c:	03000006 	movweq	r0, #6
    1240:	9f200800 	svcls	0x00200800
    1244:	000006a4 	andeq	r0, r0, r4, lsr #13
    1248:	000006e0 	andeq	r0, r0, r0, ror #13
    124c:	e8910003 	ldm	r1, {r0, r1}
    1250:	0007007e 	andeq	r0, r7, lr, ror r0
    1254:	00074c00 	andeq	r4, r7, r0, lsl #24
    1258:	91000300 	mrsls	r0, LR_irq
    125c:	00007ee8 	andeq	r7, r0, r8, ror #29
    1260:	00000000 	andeq	r0, r0, r0
    1264:	00840000 	addeq	r0, r4, r0
    1268:	00880000 	addeq	r0, r8, r0
    126c:	00010000 	andeq	r0, r1, r0
    1270:	0000b055 	andeq	fp, r0, r5, asr r0
    1274:	0000cc00 	andeq	ip, r0, r0, lsl #24
    1278:	30000200 	andcc	r0, r0, r0, lsl #4
    127c:	0000cc9f 	muleq	r0, pc, ip	; <UNPREDICTABLE>
    1280:	0000d400 	andeq	sp, r0, r0, lsl #8
    1284:	55000100 	strpl	r0, [r0, #-256]	; 0xffffff00
    1288:	000000d4 	ldrdeq	r0, [r0], -r4
    128c:	000000d8 	ldrdeq	r0, [r0], -r8
    1290:	00750005 	rsbseq	r0, r5, r5
    1294:	d89f2431 	ldmle	pc, {r0, r4, r5, sl, sp}	; <UNPREDICTABLE>
    1298:	40000000 	andmi	r0, r0, r0
    129c:	01000002 	tsteq	r0, r2
    12a0:	02fc5500 	rscseq	r5, ip, #0, 10
    12a4:	03100000 	tsteq	r0, #0
    12a8:	00020000 	andeq	r0, r2, r0
    12ac:	03109f30 	tsteq	r0, #48, 30	; 0xc0
    12b0:	03f40000 	mvnseq	r0, #0
    12b4:	00010000 	andeq	r0, r1, r0
    12b8:	00048055 	andeq	r8, r4, r5, asr r0
    12bc:	00057800 	andeq	r7, r5, r0, lsl #16
    12c0:	55000100 	strpl	r0, [r0, #-256]	; 0xffffff00
    12c4:	00000578 	andeq	r0, r0, r8, ror r5
    12c8:	000005c8 	andeq	r0, r0, r8, asr #11
    12cc:	84910003 	ldrhi	r0, [r1], #3
    12d0:	0006a47f 	andeq	sl, r6, pc, ror r4
    12d4:	0006e000 	andeq	lr, r6, r0
    12d8:	55000100 	strpl	r0, [r0, #-256]	; 0xffffff00
    12dc:	00000700 	andeq	r0, r0, r0, lsl #14
    12e0:	0000074c 	andeq	r0, r0, ip, asr #14
    12e4:	00550001 	subseq	r0, r5, r1
    12e8:	00000000 	andeq	r0, r0, r0
    12ec:	84000000 	strhi	r0, [r0], #-0
    12f0:	88000000 	stmdahi	r0, {}	; <UNPREDICTABLE>
    12f4:	01000000 	mrseq	r0, (UNDEF: 0)
    12f8:	01005800 	tsteq	r0, r0, lsl #16
    12fc:	01080000 	mrseq	r0, (UNDEF: 8)
    1300:	00030000 	andeq	r0, r3, r0
    1304:	089fff09 	ldmeq	pc, {r0, r3, r8, r9, sl, fp, ip, sp, lr, pc}	; <UNPREDICTABLE>
    1308:	7c000001 	stcvc	0, cr0, [r0], {1}
    130c:	01000002 	tsteq	r0, r2
    1310:	03285800 			; <UNDEFINED> instruction: 0x03285800
    1314:	03340000 	teqeq	r4, #0
    1318:	00010000 	andeq	r0, r1, r0
    131c:	00033458 	andeq	r3, r3, r8, asr r4
    1320:	00035400 	andeq	r5, r3, r0, lsl #8
    1324:	09000300 	stmdbeq	r0, {r8, r9}
    1328:	03549fff 	cmpeq	r4, #1020	; 0x3fc
    132c:	03580000 	cmpeq	r8, #0
    1330:	00020000 	andeq	r0, r2, r0
    1334:	03589f30 	cmpeq	r8, #48, 30	; 0xc0
    1338:	03600000 	cmneq	r0, #0
    133c:	00010000 	andeq	r0, r1, r0
    1340:	00036058 	andeq	r6, r3, r8, asr r0
    1344:	00036400 	andeq	r6, r3, r0, lsl #8
    1348:	78000500 	stmdavc	r0, {r8, sl}
    134c:	9f243100 	svcls	0x00243100
    1350:	00000364 	andeq	r0, r0, r4, ror #6
    1354:	000003f8 	strdeq	r0, [r0], -r8
    1358:	80580001 	subshi	r0, r8, r1
    135c:	c8000004 	stmdagt	r0, {r2}
    1360:	01000005 	tsteq	r0, r5
    1364:	06285800 	strteq	r5, [r8], -r0, lsl #16
    1368:	06480000 	strbeq	r0, [r8], -r0
    136c:	00010000 	andeq	r0, r1, r0
    1370:	0006a458 	andeq	sl, r6, r8, asr r4
    1374:	0006ac00 	andeq	sl, r6, r0, lsl #24
    1378:	09000300 	stmdbeq	r0, {r8, r9}
    137c:	06ac9fff 			; <UNDEFINED> instruction: 0x06ac9fff
    1380:	06e00000 	strbteq	r0, [r0], r0
    1384:	00010000 	andeq	r0, r1, r0
    1388:	00070058 	andeq	r0, r7, r8, asr r0
    138c:	00074c00 	andeq	r4, r7, r0, lsl #24
    1390:	58000100 	stmdapl	r0, {r8}
	...
    139c:	00000108 	andeq	r0, r0, r8, lsl #2
    13a0:	00000118 	andeq	r0, r0, r8, lsl r1
    13a4:	9f320002 	svcls	0x00320002
    13a8:	00000328 	andeq	r0, r0, r8, lsr #6
    13ac:	00000334 	andeq	r0, r0, r4, lsr r3
    13b0:	9f330002 	svcls	0x00330002
    13b4:	00000378 	andeq	r0, r0, r8, ror r3
    13b8:	00000390 	muleq	r0, r0, r3
    13bc:	9f300002 	svcls	0x00300002
	...
    13c8:	00000084 	andeq	r0, r0, r4, lsl #1
    13cc:	00000088 	andeq	r0, r0, r8, lsl #1
    13d0:	9f300002 	svcls	0x00300002
    13d4:	00000118 	andeq	r0, r0, r8, lsl r1
    13d8:	00000240 	andeq	r0, r0, r0, asr #4
    13dc:	9f300002 	svcls	0x00300002
    13e0:	00000390 	muleq	r0, r0, r3
    13e4:	000003f4 	strdeq	r0, [r0], -r4
    13e8:	9f300002 	svcls	0x00300002
    13ec:	00000480 	andeq	r0, r0, r0, lsl #9
    13f0:	00000518 	andeq	r0, r0, r8, lsl r5
    13f4:	9f300002 	svcls	0x00300002
    13f8:	00000518 	andeq	r0, r0, r8, lsl r5
    13fc:	00000534 	andeq	r0, r0, r4, lsr r5
    1400:	f8910003 			; <UNDEFINED> instruction: 0xf8910003
    1404:	0006c07e 	andeq	ip, r6, lr, ror r0
    1408:	0006e000 	andeq	lr, r6, r0
    140c:	30000200 	andcc	r0, r0, r0, lsl #4
    1410:	0007009f 	muleq	r7, pc, r0	; <UNPREDICTABLE>
    1414:	00071800 	andeq	r1, r7, r0, lsl #16
    1418:	08000300 	stmdaeq	r0, {r8, r9}
    141c:	07189f2d 	ldreq	r9, [r8, -sp, lsr #30]
    1420:	074c0000 	strbeq	r0, [ip, -r0]
    1424:	00020000 	andeq	r0, r2, r0
    1428:	00009f30 	andeq	r9, r0, r0, lsr pc
    142c:	00000000 	andeq	r0, r0, r0
    1430:	04fc0000 	ldrbteq	r0, [ip], #0
    1434:	05180000 	ldreq	r0, [r8, #-0]
    1438:	00010000 	andeq	r0, r1, r0
    143c:	00070054 	andeq	r0, r7, r4, asr r0
    1440:	00071000 	andeq	r1, r7, r0
    1444:	54000100 	strpl	r0, [r0], #-256	; 0xffffff00
    1448:	00000710 	andeq	r0, r0, r0, lsl r7
    144c:	00000718 	andeq	r0, r0, r8, lsl r7
    1450:	00740004 	rsbseq	r0, r4, r4
    1454:	00009f1f 	andeq	r9, r0, pc, lsl pc
    1458:	00000000 	andeq	r0, r0, r0
    145c:	01c80000 	biceq	r0, r8, r0
    1460:	02180000 	andseq	r0, r8, #0
    1464:	00010000 	andeq	r0, r1, r0
    1468:	0004fc54 	andeq	pc, r4, r4, asr ip	; <UNPREDICTABLE>
    146c:	00055c00 	andeq	r5, r5, r0, lsl #24
    1470:	54000100 	strpl	r0, [r0], #-256	; 0xffffff00
    1474:	00000700 	andeq	r0, r0, r0, lsl #14
    1478:	00000728 	andeq	r0, r0, r8, lsr #14
    147c:	30540001 	subscc	r0, r4, r1
    1480:	40000007 	andmi	r0, r0, r7
    1484:	01000007 	tsteq	r0, r7
    1488:	00005400 	andeq	r5, r0, r0, lsl #8
    148c:	00000000 	andeq	r0, r0, r0
    1490:	00840000 	addeq	r0, r4, r0
    1494:	00880000 	addeq	r0, r8, r0
    1498:	00020000 	andeq	r0, r2, r0
    149c:	01189f30 	tsteq	r8, r0, lsr pc
    14a0:	01bc0000 			; <UNDEFINED> instruction: 0x01bc0000
    14a4:	00020000 	andeq	r0, r2, r0
    14a8:	01bc9f30 			; <UNDEFINED> instruction: 0x01bc9f30
    14ac:	01ec0000 	mvneq	r0, r0
    14b0:	00010000 	andeq	r0, r1, r0
    14b4:	00039056 	andeq	r9, r3, r6, asr r0
    14b8:	0003f400 	andeq	pc, r3, r0, lsl #8
    14bc:	30000200 	andcc	r0, r0, r0, lsl #4
    14c0:	0004809f 	muleq	r4, pc, r0	; <UNPREDICTABLE>
    14c4:	0004a800 	andeq	sl, r4, r0, lsl #16
    14c8:	30000200 	andcc	r0, r0, r0, lsl #4
    14cc:	0004a89f 	muleq	r4, pc, r8	; <UNPREDICTABLE>
    14d0:	0004bc00 	andeq	fp, r4, r0, lsl #24
    14d4:	31000200 	mrscc	r0, R8_usr
    14d8:	0004bc9f 	muleq	r4, pc, ip	; <UNPREDICTABLE>
    14dc:	00053400 	andeq	r3, r5, r0, lsl #8
    14e0:	30000200 	andcc	r0, r0, r0, lsl #4
    14e4:	0006c09f 	muleq	r6, pc, r0	; <UNPREDICTABLE>
    14e8:	0006e000 	andeq	lr, r6, r0
    14ec:	30000200 	andcc	r0, r0, r0, lsl #4
    14f0:	0007009f 	muleq	r7, pc, r0	; <UNPREDICTABLE>
    14f4:	00071800 	andeq	r1, r7, r0, lsl #16
    14f8:	30000200 	andcc	r0, r0, r0, lsl #4
    14fc:	0007289f 	muleq	r7, pc, r8	; <UNPREDICTABLE>
    1500:	00073000 	andeq	r3, r7, r0
    1504:	30000200 	andcc	r0, r0, r0, lsl #4
    1508:	0000009f 	muleq	r0, pc, r0	; <UNPREDICTABLE>
    150c:	00000000 	andeq	r0, r0, r0
    1510:	00008400 	andeq	r8, r0, r0, lsl #8
    1514:	00008800 	andeq	r8, r0, r0, lsl #16
    1518:	30000200 	andcc	r0, r0, r0, lsl #4
    151c:	0001189f 	muleq	r1, pc, r8	; <UNPREDICTABLE>
    1520:	0001bc00 	andeq	fp, r1, r0, lsl #24
    1524:	30000200 	andcc	r0, r0, r0, lsl #4
    1528:	0001bc9f 	muleq	r1, pc, ip	; <UNPREDICTABLE>
    152c:	00024000 	andeq	r4, r2, r0
    1530:	91000300 	mrsls	r0, LR_irq
    1534:	03907efc 	orrseq	r7, r0, #252, 28	; 0xfc0
    1538:	03f40000 	mvnseq	r0, #0
    153c:	00020000 	andeq	r0, r2, r0
    1540:	04809f30 	streq	r9, [r0], #3888	; 0xf30
    1544:	04940000 	ldreq	r0, [r4], #0
    1548:	00020000 	andeq	r0, r2, r0
    154c:	04949f30 	ldreq	r9, [r4], #3888	; 0xf30
    1550:	04bc0000 	ldrteq	r0, [ip], #0
    1554:	00020000 	andeq	r0, r2, r0
    1558:	04bc9f40 	ldrteq	r9, [ip], #3904	; 0xf40
    155c:	04d00000 	ldrbeq	r0, [r0], #0
    1560:	00020000 	andeq	r0, r2, r0
    1564:	04d09f32 	ldrbeq	r9, [r0], #3890	; 0xf32
    1568:	04f40000 	ldrbteq	r0, [r4], #0
    156c:	00020000 	andeq	r0, r2, r0
    1570:	04f49f30 	ldrbteq	r9, [r4], #3888	; 0xf30
    1574:	05340000 	ldreq	r0, [r4, #-0]!
    1578:	00020000 	andeq	r0, r2, r0
    157c:	06c09f3a 			; <UNDEFINED> instruction: 0x06c09f3a
    1580:	06e00000 	strbteq	r0, [r0], r0
    1584:	00020000 	andeq	r0, r2, r0
    1588:	07009f30 	smladxeq	r0, r0, pc, r9	; <UNPREDICTABLE>
    158c:	07180000 	ldreq	r0, [r8, -r0]
    1590:	00020000 	andeq	r0, r2, r0
    1594:	07189f3a 			; <UNDEFINED> instruction: 0x07189f3a
    1598:	07280000 	streq	r0, [r8, -r0]!
    159c:	00030000 	andeq	r0, r3, r0
    15a0:	287efc91 	ldmdacs	lr!, {r0, r4, r7, sl, fp, ip, sp, lr, pc}^
    15a4:	30000007 	andcc	r0, r0, r7
    15a8:	02000007 	andeq	r0, r0, #7
    15ac:	309f3000 	addscc	r3, pc, r0
    15b0:	4c000007 	stcmi	0, cr0, [r0], {7}
    15b4:	03000007 	movweq	r0, #7
    15b8:	7efc9100 	nrmvce	f1, f0
	...
    15c4:	00000270 	andeq	r0, r0, r0, ror r2
    15c8:	000002a4 	andeq	r0, r0, r4, lsr #5
    15cc:	c4500001 	ldrbgt	r0, [r0], #-1
    15d0:	f4000003 	vst4.8	{d0-d3}, [r0], r3
    15d4:	01000003 	tsteq	r0, r3
    15d8:	03f45000 	mvnseq	r5, #0
    15dc:	04400000 	strbeq	r0, [r0], #-0
    15e0:	00010000 	andeq	r0, r1, r0
    15e4:	00044056 	andeq	r4, r4, r6, asr r0
    15e8:	00048000 	andeq	r8, r4, r0
    15ec:	91000300 	mrsls	r0, LR_irq
    15f0:	06287ef4 			; <UNDEFINED> instruction: 0x06287ef4
    15f4:	06480000 	strbeq	r0, [r8], -r0
    15f8:	00010000 	andeq	r0, r1, r0
    15fc:	00069450 	andeq	r9, r6, r0, asr r4
    1600:	0006a400 	andeq	sl, r6, r0, lsl #8
    1604:	50000100 	andpl	r0, r0, r0, lsl #2
    1608:	000006c0 	andeq	r0, r0, r0, asr #13
    160c:	000006e0 	andeq	r0, r0, r0, ror #13
    1610:	e8500001 	ldmda	r0, {r0}^
    1614:	00000006 	andeq	r0, r0, r6
    1618:	03000007 	movweq	r0, #7
    161c:	7ef49100 	nrmvcs	f1, f0
	...
    1628:	00000260 	andeq	r0, r0, r0, ror #4
    162c:	00000280 	andeq	r0, r0, r0, lsl #5
    1630:	9f300002 	svcls	0x00300002
    1634:	00000280 	andeq	r0, r0, r0, lsl #5
    1638:	000002a4 	andeq	r0, r0, r4, lsr #5
    163c:	b4580001 	ldrblt	r0, [r8], #-1
    1640:	0c000003 	stceq	0, cr0, [r0], {3}
    1644:	02000004 	andeq	r0, r0, #4
    1648:	209f3000 	addscs	r3, pc, r0
    164c:	4c000004 	stcmi	0, cr0, [r0], {4}
    1650:	01000004 	tsteq	r0, r4
    1654:	044c5800 	strbeq	r5, [ip], #-2048	; 0xfffff800
    1658:	04800000 	streq	r0, [r0], #0
    165c:	00010000 	andeq	r0, r1, r0
    1660:	00062859 	andeq	r2, r6, r9, asr r8
    1664:	00064800 	andeq	r4, r6, r0, lsl #16
    1668:	30000200 	andcc	r0, r0, r0, lsl #4
    166c:	0006949f 	muleq	r6, pc, r4	; <UNPREDICTABLE>
    1670:	0006a400 	andeq	sl, r6, r0, lsl #8
    1674:	58000100 	stmdapl	r0, {r8}
    1678:	000006c0 	andeq	r0, r0, r0, asr #13
    167c:	000006e0 	andeq	r0, r0, r0, ror #13
    1680:	9f300002 	svcls	0x00300002
    1684:	000006e8 	andeq	r0, r0, r8, ror #13
    1688:	000006f4 	strdeq	r0, [r0], -r4
    168c:	f4590001 			; <UNDEFINED> instruction: 0xf4590001
    1690:	00000006 	andeq	r0, r0, r6
    1694:	01000007 	tsteq	r0, r7
    1698:	00005800 	andeq	r5, r0, r0, lsl #16
    169c:	00000000 	andeq	r0, r0, r0
    16a0:	028c0000 	addeq	r0, ip, #0
    16a4:	02a40000 	adceq	r0, r4, #0
    16a8:	00010000 	andeq	r0, r1, r0
    16ac:	00040054 	andeq	r0, r4, r4, asr r0
    16b0:	00043800 	andeq	r3, r4, r0, lsl #16
    16b4:	54000100 	strpl	r0, [r0], #-256	; 0xffffff00
    16b8:	00000694 	muleq	r0, r4, r6
    16bc:	000006a4 	andeq	r0, r0, r4, lsr #13
    16c0:	00540001 	subseq	r0, r4, r1
    16c4:	00000000 	andeq	r0, r0, r0
    16c8:	8c000000 	stchi	0, cr0, [r0], {-0}
    16cc:	a4000002 	strge	r0, [r0], #-2
    16d0:	02000002 	andeq	r0, r0, #2
    16d4:	009f3000 	addseq	r3, pc, r0
    16d8:	10000004 	andne	r0, r0, r4
    16dc:	02000004 	andeq	r0, r0, #4
    16e0:	109f3000 	addsne	r3, pc, r0
    16e4:	1c000004 	stcne	0, cr0, [r0], {4}
    16e8:	01000004 	tsteq	r0, r4
    16ec:	04205500 	strteq	r5, [r0], #-1280	; 0xfffffb00
    16f0:	04500000 	ldrbeq	r0, [r0], #-0
    16f4:	00010000 	andeq	r0, r1, r0
    16f8:	00045055 	andeq	r5, r4, r5, asr r0
    16fc:	00048000 	andeq	r8, r4, r0
    1700:	58000100 	stmdapl	r0, {r8}
    1704:	00000694 	muleq	r0, r4, r6
    1708:	000006a4 	andeq	r0, r0, r4, lsr #13
    170c:	9f300002 	svcls	0x00300002
    1710:	000006e8 	andeq	r0, r0, r8, ror #13
    1714:	000006f0 	strdeq	r0, [r0], -r0	; <UNPREDICTABLE>
    1718:	f0580001 			; <UNDEFINED> instruction: 0xf0580001
    171c:	00000006 	andeq	r0, r0, r6
    1720:	01000007 	tsteq	r0, r7
    1724:	00005500 	andeq	r5, r0, r0, lsl #10
    1728:	00000000 	andeq	r0, r0, r0
    172c:	01e00000 	mvneq	r0, r0
    1730:	01ec0000 	mvneq	r0, r0
    1734:	00010000 	andeq	r0, r1, r0
    1738:	00052056 	andeq	r2, r5, r6, asr r0
    173c:	00053400 	andeq	r3, r5, r0, lsl #8
    1740:	30000200 	andcc	r0, r0, r0, lsl #4
    1744:	0000009f 	muleq	r0, pc, r0	; <UNPREDICTABLE>
    1748:	00000000 	andeq	r0, r0, r0
    174c:	0001e000 	andeq	lr, r1, r0
    1750:	00024000 	andeq	r4, r2, r0
    1754:	91000300 	mrsls	r0, LR_irq
    1758:	05207efc 	streq	r7, [r0, #-3836]!	; 0xfffff104
    175c:	05340000 	ldreq	r0, [r4, #-0]!
    1760:	00020000 	andeq	r0, r2, r0
    1764:	07189f3a 			; <UNDEFINED> instruction: 0x07189f3a
    1768:	07280000 	streq	r0, [r8, -r0]!
    176c:	00030000 	andeq	r0, r3, r0
    1770:	307efc91 			; <UNDEFINED> instruction: 0x307efc91
    1774:	4c000007 	stcmi	0, cr0, [r0], {7}
    1778:	03000007 	movweq	r0, #7
    177c:	7efc9100 	nrmvce	f1, f0
	...
    1788:	000001e0 	andeq	r0, r0, r0, ror #3
    178c:	00000250 	andeq	r0, r0, r0, asr r2
    1790:	88910004 	ldmhi	r1, {r2}
    1794:	02509f7f 	subseq	r9, r0, #508	; 0x1fc
    1798:	02540000 	subseq	r0, r4, #0
    179c:	00030000 	andeq	r0, r3, r0
    17a0:	549f0172 	ldrpl	r0, [pc], #370	; 17a8 <SCTLR_ENABLE_INSTRUCTION_CACHE+0x7a8>
    17a4:	5c000002 	stcpl	0, cr0, [r0], {2}
    17a8:	03000002 	movweq	r0, #2
    17ac:	9f027200 	svcls	0x00027200
    17b0:	0000025c 	andeq	r0, r0, ip, asr r2
    17b4:	00000267 	andeq	r0, r0, r7, ror #4
    17b8:	01720003 	cmneq	r2, r3
    17bc:	0005209f 	muleq	r5, pc, r0	; <UNPREDICTABLE>
    17c0:	0005c800 	andeq	ip, r5, r0, lsl #16
    17c4:	91000400 	tstls	r0, r0, lsl #8
    17c8:	189f7f88 	ldmne	pc, {r3, r7, r8, r9, sl, fp, ip, sp, lr}	; <UNPREDICTABLE>
    17cc:	28000007 	stmdacs	r0, {r0, r1, r2}
    17d0:	04000007 	streq	r0, [r0], #-7
    17d4:	7f889100 	svcvc	0x00889100
    17d8:	0007309f 	muleq	r7, pc, r0	; <UNPREDICTABLE>
    17dc:	00074c00 	andeq	r4, r7, r0, lsl #24
    17e0:	91000400 	tstls	r0, r0, lsl #8
    17e4:	009f7f88 	addseq	r7, pc, r8, lsl #31
    17e8:	00000000 	andeq	r0, r0, r0
    17ec:	e0000000 	and	r0, r0, r0
    17f0:	00000001 	andeq	r0, r0, r1
    17f4:	01000002 	tsteq	r0, r2
    17f8:	02005400 	andeq	r5, r0, #0, 8
    17fc:	020c0000 	andeq	r0, ip, #0
    1800:	00060000 	andeq	r0, r6, r0
    1804:	00710074 	rsbseq	r0, r1, r4, ror r0
    1808:	020c9f25 	andeq	r9, ip, #37, 30	; 0x94
    180c:	02280000 	eoreq	r0, r8, #0
    1810:	00010000 	andeq	r0, r1, r0
    1814:	00052052 	andeq	r2, r5, r2, asr r0
    1818:	00055400 	andeq	r5, r5, r0, lsl #8
    181c:	54000100 	strpl	r0, [r0], #-256	; 0xffffff00
    1820:	00000554 	andeq	r0, r0, r4, asr r5
    1824:	00000584 	andeq	r0, r0, r4, lsl #11
    1828:	84500001 	ldrbhi	r0, [r0], #-1
    182c:	a8000005 	stmdage	r0, {r0, r2}
    1830:	01000005 	tsteq	r0, r5
    1834:	05ac5b00 	streq	r5, [ip, #2816]!	; 0xb00
    1838:	05c80000 	strbeq	r0, [r8]
    183c:	00010000 	andeq	r0, r1, r0
    1840:	00071850 	andeq	r1, r7, r0, asr r8
    1844:	00072800 	andeq	r2, r7, r0, lsl #16
    1848:	54000100 	strpl	r0, [r0], #-256	; 0xffffff00
    184c:	00000730 	andeq	r0, r0, r0, lsr r7
    1850:	0000074c 	andeq	r0, r0, ip, asr #14
    1854:	00520001 	subseq	r0, r2, r1
    1858:	00000000 	andeq	r0, r0, r0
    185c:	e0000000 	and	r0, r0, r0
    1860:	0c000001 	stceq	0, cr0, [r0], {1}
    1864:	01000002 	tsteq	r0, r2
    1868:	020c5200 	andeq	r5, ip, #0, 4
    186c:	02400000 	subeq	r0, r0, #0
    1870:	00010000 	andeq	r0, r1, r0
    1874:	00052056 	andeq	r2, r5, r6, asr r0
    1878:	00053400 	andeq	r3, r5, r0, lsl #8
    187c:	f2000600 	vmax.s8	d0, d0, d0
    1880:	00003a3f 	andeq	r3, r0, pc, lsr sl
    1884:	00053400 	andeq	r3, r5, r0, lsl #8
    1888:	00058000 	andeq	r8, r5, r0
    188c:	56000100 	strpl	r0, [r0], -r0, lsl #2
    1890:	00000580 	andeq	r0, r0, r0, lsl #11
    1894:	000005b4 			; <UNDEFINED> instruction: 0x000005b4
    1898:	18540001 	ldmdane	r4, {r0}^
    189c:	28000007 	stmdacs	r0, {r0, r1, r2}
    18a0:	01000007 	tsteq	r0, r7
    18a4:	07305200 	ldreq	r5, [r0, -r0, lsl #4]!
    18a8:	074c0000 	strbeq	r0, [ip, -r0]
    18ac:	00010000 	andeq	r0, r1, r0
    18b0:	00000056 	andeq	r0, r0, r6, asr r0
    18b4:	00000000 	andeq	r0, r0, r0
    18b8:	0001f000 	andeq	pc, r1, r0
    18bc:	00021c00 	andeq	r1, r2, r0, lsl #24
    18c0:	31000200 	mrscc	r0, R8_usr
    18c4:	00021c9f 	muleq	r2, pc, ip	; <UNPREDICTABLE>
    18c8:	00022c00 	andeq	r2, r2, r0, lsl #24
    18cc:	74000300 	strvc	r0, [r0], #-768	; 0xfffffd00
    18d0:	022c9f01 	eoreq	r9, ip, #1, 30
    18d4:	02400000 	subeq	r0, r0, #0
    18d8:	00010000 	andeq	r0, r1, r0
    18dc:	00052854 	andeq	r2, r5, r4, asr r8
    18e0:	00058400 	andeq	r8, r5, r0, lsl #8
    18e4:	31000200 	mrscc	r0, R8_usr
    18e8:	0005849f 	muleq	r5, pc, r4	; <UNPREDICTABLE>
    18ec:	0005ac00 	andeq	sl, r5, r0, lsl #24
    18f0:	75000300 	strvc	r0, [r0, #-768]	; 0xfffffd00
    18f4:	05ac9f01 	streq	r9, [ip, #3841]!	; 0xf01
    18f8:	05c00000 	strbeq	r0, [r0]
    18fc:	00010000 	andeq	r0, r1, r0
    1900:	0005c055 	andeq	ip, r5, r5, asr r0
    1904:	0005c800 	andeq	ip, r5, r0, lsl #16
    1908:	54000100 	strpl	r0, [r0], #-256	; 0xffffff00
    190c:	00000718 	andeq	r0, r0, r8, lsl r7
    1910:	00000728 	andeq	r0, r0, r8, lsr #14
    1914:	9f310002 	svcls	0x00310002
    1918:	00000730 	andeq	r0, r0, r0, lsr r7
    191c:	0000074c 	andeq	r0, r0, ip, asr #14
    1920:	9f310002 	svcls	0x00310002
	...
    192c:	00000200 	andeq	r0, r0, r0, lsl #4
    1930:	00000240 	andeq	r0, r0, r0, asr #4
    1934:	305c0001 	subscc	r0, ip, r1
    1938:	4c000007 	stcmi	0, cr0, [r0], {7}
    193c:	01000007 	tsteq	r0, r7
    1940:	00005c00 	andeq	r5, r0, r0, lsl #24
	...
    194c:	00140000 	andseq	r0, r4, r0
    1950:	00010000 	andeq	r0, r1, r0
    1954:	00001450 	andeq	r1, r0, r0, asr r4
    1958:	00002800 	andeq	r2, r0, r0, lsl #16
    195c:	f3000400 	vshl.u8	d0, d0, d0
    1960:	289f5001 	ldmcs	pc, {r0, ip, lr}	; <UNPREDICTABLE>
    1964:	2c000000 	stccs	0, cr0, [r0], {-0}
    1968:	01000000 	mrseq	r0, (UNDEF: 0)
    196c:	002c5000 	eoreq	r5, ip, r0
    1970:	00300000 	eorseq	r0, r0, r0
    1974:	00040000 	andeq	r0, r4, r0
    1978:	9f5001f3 	svcls	0x005001f3
	...
    1988:	00000014 	andeq	r0, r0, r4, lsl r0
    198c:	9f300002 	svcls	0x00300002
    1990:	00000014 	andeq	r0, r0, r4, lsl r0
    1994:	00000028 	andeq	r0, r0, r8, lsr #32
    1998:	28500001 	ldmdacs	r0, {r0}^
    199c:	30000000 	andcc	r0, r0, r0
    19a0:	02000000 	andeq	r0, r0, #0
    19a4:	009f3000 	addseq	r3, pc, r0
    19a8:	00000000 	andeq	r0, r0, r0
    19ac:	Address 0x00000000000019ac is out of bounds.


Disassembly of section .debug_str:

00000000 <.debug_str>:
       0:	656c635f 	strbvs	r6, [ip, #-863]!	; 0xfffffca1
       4:	625f7261 	subsvs	r7, pc, #268435462	; 0x10000006
       8:	75007373 	strvc	r7, [r0, #-883]	; 0xfffffc8d
       c:	6769736e 	strbvs	r7, [r9, -lr, ror #6]!
      10:	2064656e 	rsbcs	r6, r4, lr, ror #10
      14:	72616863 	rsbvc	r6, r1, #6488064	; 0x630000
      18:	6f687300 	svcvs	0x00687300
      1c:	75207472 	strvc	r7, [r0, #-1138]!	; 0xfffffb8e
      20:	6769736e 	strbvs	r7, [r9, -lr, ror #6]!
      24:	2064656e 	rsbcs	r6, r4, lr, ror #10
      28:	00746e69 	rsbseq	r6, r4, r9, ror #28
      2c:	68637261 	stmdavs	r3!, {r0, r5, r6, r9, ip, sp, lr}^
      30:	6d72612f 	ldfvse	f6, [r2, #-188]!	; 0xffffff44
      34:	7373622f 	cmnvc	r3, #-268435454	; 0xf0000002
      38:	656c632d 	strbvs	r6, [ip, #-813]!	; 0xfffffcd3
      3c:	632e7261 			; <UNDEFINED> instruction: 0x632e7261
      40:	625f5f00 	subsvs	r5, pc, #0, 30
      44:	735f7373 	cmpvc	pc, #-872415231	; 0xcc000001
      48:	74726174 	ldrbtvc	r6, [r2], #-372	; 0xfffffe8c
      4c:	6e6f6c00 	cdpvs	12, 6, cr6, cr15, cr0, {0}
      50:	6f6c2067 	svcvs	0x006c2067
      54:	7520676e 	strvc	r6, [r0, #-1902]!	; 0xfffff892
      58:	6769736e 	strbvs	r7, [r9, -lr, ror #6]!
      5c:	2064656e 	rsbcs	r6, r4, lr, ror #10
      60:	00746e69 	rsbseq	r6, r4, r9, ror #28
      64:	20554e47 	subscs	r4, r5, r7, asr #28
      68:	20313143 	eorscs	r3, r1, r3, asr #2
      6c:	2e342e35 	mrccs	14, 1, r2, cr4, cr5, {1}
      70:	30322031 	eorscc	r2, r2, r1, lsr r0
      74:	39303631 	ldmdbcc	r0!, {r0, r4, r5, r9, sl, ip, sp}
      78:	28203931 	stmdacs	r0!, {r0, r4, r5, r8, fp, ip, sp}
      7c:	656c6572 	strbvs	r6, [ip, #-1394]!	; 0xfffffa8e
      80:	29657361 	stmdbcs	r5!, {r0, r5, r6, r8, r9, ip, sp, lr}^
      84:	52415b20 	subpl	r5, r1, #32, 22	; 0x8000
      88:	6d652f4d 	stclvs	15, cr2, [r5, #-308]!	; 0xfffffecc
      8c:	64646562 	strbtvs	r6, [r4], #-1378	; 0xfffffa9e
      90:	352d6465 	strcc	r6, [sp, #-1125]!	; 0xfffffb9b
      94:	6172622d 	cmnvs	r2, sp, lsr #4
      98:	2068636e 	rsbcs	r6, r8, lr, ror #6
      9c:	69766572 	ldmdbvs	r6!, {r1, r4, r5, r6, r8, sl, sp, lr}^
      a0:	6e6f6973 	mcrvs	9, 3, r6, cr15, cr3, {3}
      a4:	30343220 	eorscc	r3, r4, r0, lsr #4
      a8:	5d363934 	ldcpl	9, cr3, [r6, #-208]!	; 0xffffff30
      ac:	616d2d20 	cmnvs	sp, r0, lsr #26
      b0:	3d686372 	stclcc	3, cr6, [r8, #-456]!	; 0xfffffe38
      b4:	766d7261 	strbtvc	r7, [sp], -r1, ror #4
      b8:	2b612d38 	blcs	184b5a0 <__kernel_end+0x16e95a0>
      bc:	20637263 	rsbcs	r7, r3, r3, ror #4
      c0:	70666d2d 	rsbvc	r6, r6, sp, lsr #26
      c4:	72633d75 	rsbvc	r3, r3, #7488	; 0x1d40
      c8:	6f747079 	svcvs	0x00747079
      cc:	6f656e2d 	svcvs	0x00656e2d
      d0:	70662d6e 	rsbvc	r2, r6, lr, ror #26
      d4:	6d72612d 	ldfvse	f6, [r2, #-180]!	; 0xffffff4c
      d8:	2d203876 	stccs	8, cr3, [r0, #-472]!	; 0xfffffe28
      dc:	4f2d2067 	svcmi	0x002d2067
      e0:	732d2032 			; <UNDEFINED> instruction: 0x732d2032
      e4:	673d6474 			; <UNDEFINED> instruction: 0x673d6474
      e8:	3131756e 	teqcc	r1, lr, ror #10
      ec:	70662d20 	rsbvc	r2, r6, r0, lsr #26
      f0:	2d206369 	stccs	3, cr6, [r0, #-420]!	; 0xfffffe5c
      f4:	65726666 	ldrbvs	r6, [r2, #-1638]!	; 0xfffff99a
      f8:	61747365 	cmnvs	r4, r5, ror #6
      fc:	6e69646e 	cdpvs	4, 6, cr6, cr9, cr14, {3}
     100:	5f5f0067 	svcpl	0x005f0067
     104:	5f737362 	svcpl	0x00737362
     108:	00646e65 	rsbeq	r6, r4, r5, ror #28
     10c:	676e6f6c 	strbvs	r6, [lr, -ip, ror #30]!
     110:	6e6f6c20 	cdpvs	12, 6, cr6, cr15, cr0, {1}
     114:	6e692067 	cdpvs	0, 6, cr2, cr9, cr7, {3}
     118:	552f0074 	strpl	r0, [pc, #-116]!	; ac <ARM_I_BIT+0x2c>
     11c:	73726573 	cmnvc	r2, #482344960	; 0x1cc00000
     120:	6172702f 	cmnvs	r2, pc, lsr #32
     124:	6873616b 	ldmdavs	r3!, {r0, r1, r3, r5, r6, r8, sp, lr}^
     128:	6b726f62 	blvs	1c9beb8 <__kernel_end+0x1b39eb8>
     12c:	442f7261 	strtmi	r7, [pc], #-609	; 134 <ARM_I_BIT+0xb4>
     130:	746b7365 	strbtvc	r7, [fp], #-869	; 0xfffffc9b
     134:	522f706f 	eorpl	r7, pc, #111	; 0x6f
     138:	746f6d65 	strbtvc	r6, [pc], #-3429	; 140 <ARM_I_BIT+0xc0>
     13c:	65525f65 	ldrbvs	r5, [r2, #-3941]	; 0xfffff09b
     140:	722f6f70 	eorvc	r6, pc, #112, 30	; 0x1c0
     144:	6f2d6970 	svcvs	0x002d6970
     148:	61752d73 	cmnvs	r5, r3, ror sp
     14c:	722f7472 	eorvc	r7, pc, #1912602624	; 0x72000000
     150:	62336970 	eorsvs	r6, r3, #112, 18	; 0x1c0000
     154:	61656d2d 	cmnvs	r5, sp, lsr #26
     158:	732d7974 			; <UNDEFINED> instruction: 0x732d7974
     15c:	656c656b 	strbvs	r6, [ip, #-1387]!	; 0xfffffa95
     160:	2f6e6f74 	svccs	0x006e6f74
     164:	6e72656b 	cdpvs	5, 7, cr6, cr2, cr11, {3}
     168:	73006c65 	movwvc	r6, #3173	; 0xc65
     16c:	74726f68 	ldrbtvc	r6, [r2], #-3944	; 0xfffff098
     170:	746e6920 	strbtvc	r6, [lr], #-2336	; 0xfffff6e0
     174:	6e697500 	cdpvs	5, 6, cr7, cr9, cr0, {0}
     178:	5f323374 	svcpl	0x00323374
     17c:	656b0074 	strbvs	r0, [fp, #-116]!	; 0xffffff8c
     180:	6c656e72 	stclvs	14, cr6, [r5], #-456	; 0xfffffe38
     184:	69616d5f 	stmdbvs	r1!, {r0, r1, r2, r3, r4, r6, r8, sl, fp, sp, lr}^
     188:	5052006e 	subspl	r0, r2, lr, rrx
     18c:	41425f49 	cmpmi	r2, r9, asr #30
     190:	5f434953 	svcpl	0x00434953
     194:	5f4d5241 	svcpl	0x004d5241
     198:	454d4954 	strbmi	r4, [sp, #-2388]	; 0xfffff6ac
     19c:	52495f52 	subpl	r5, r9, #328	; 0x148
     1a0:	70720051 	rsbsvc	r0, r2, r1, asr r0
     1a4:	72615f69 	rsbvc	r5, r1, #420	; 0x1a4
     1a8:	69745f6d 	ldmdbvs	r4!, {r0, r2, r3, r5, r6, r8, r9, sl, fp, ip, lr}^
     1ac:	5f72656d 	svcpl	0x0072656d
     1b0:	41520074 	cmpmi	r2, r4, ror r0
     1b4:	51524957 	cmppl	r2, r7, asr r9
     1b8:	6d726100 	ldfvse	f6, [r2, #-0]
     1bc:	6d69745f 	cfstrdvs	mvd7, [r9, #-380]!	; 0xfffffe84
     1c0:	695f7265 	ldmdbvs	pc, {r0, r2, r5, r6, r9, ip, sp, lr}^	; <UNPREDICTABLE>
     1c4:	0074696e 	rsbseq	r6, r4, lr, ror #18
     1c8:	5f495052 	svcpl	0x00495052
     1cc:	49534142 	ldmdbmi	r3, {r1, r6, r8, lr}^
     1d0:	52415f43 	subpl	r5, r1, #268	; 0x10c
     1d4:	4f445f4d 	svcmi	0x00445f4d
     1d8:	4542524f 	strbmi	r5, [r2, #-591]	; 0xfffffdb1
     1dc:	315f4c4c 	cmpcc	pc, ip, asr #24
     1e0:	5152495f 	cmppl	r2, pc, asr r9
     1e4:	6c655200 	sfmvs	f5, 2, [r5], #-0
     1e8:	0064616f 	rsbeq	r6, r4, pc, ror #2
     1ec:	65657246 	strbvs	r7, [r5, #-582]!	; 0xfffffdba
     1f0:	6e6e7552 	mcrvs	5, 3, r7, cr14, cr2, {2}
     1f4:	43676e69 	cmnmi	r7, #1680	; 0x690
     1f8:	746e756f 	strbtvc	r7, [lr], #-1391	; 0xfffffa91
     1fc:	52007265 	andpl	r7, r0, #1342177286	; 0x50000006
     200:	425f4950 	subsmi	r4, pc, #80, 18	; 0x140000
     204:	43495341 	movtmi	r5, #37697	; 0x9341
     208:	4343415f 	movtmi	r4, #12639	; 0x315f
     20c:	5f535345 	svcpl	0x00535345
     210:	4f525245 	svcmi	0x00525245
     214:	5f315f52 	svcpl	0x00315f52
     218:	00515249 	subseq	r5, r1, r9, asr #4
     21c:	44657250 	strbtmi	r7, [r5], #-592	; 0xfffffdb0
     220:	64697669 	strbtvs	r7, [r9], #-1641	; 0xfffff997
     224:	56007265 	strpl	r7, [r0], -r5, ror #4
     228:	65756c61 	ldrbvs	r6, [r5, #-3169]!	; 0xfffff39f
     22c:	49505200 	ldmdbmi	r0, {r9, ip, lr}^
     230:	5341425f 	movtpl	r4, #4703	; 0x125f
     234:	475f4349 	ldrbmi	r4, [pc, -r9, asr #6]
     238:	305f5550 	subscc	r5, pc, r0, asr r5	; <UNPREDICTABLE>
     23c:	4c41485f 	mcrrmi	8, 5, r4, r1, cr15
     240:	5f444554 	svcpl	0x00444554
     244:	00515249 	subseq	r5, r1, r9, asr #4
     248:	5f495052 	svcpl	0x00495052
     24c:	49534142 	ldmdbmi	r3, {r1, r6, r8, lr}^
     250:	50475f43 	subpl	r5, r7, r3, asr #30
     254:	5f315f55 	svcpl	0x00315f55
     258:	544c4148 	strbpl	r4, [ip], #-328	; 0xfffffeb8
     25c:	495f4445 	ldmdbmi	pc, {r0, r2, r6, sl, lr}^	; <UNPREDICTABLE>
     260:	52005152 	andpl	r5, r0, #-2147483628	; 0x80000014
     264:	475f4950 			; <UNDEFINED> instruction: 0x475f4950
     268:	72417465 	subvc	r7, r1, #1694498816	; 0x65000000
     26c:	6d69546d 	cfstrdvs	mvd5, [r9, #-436]!	; 0xfffffe4c
     270:	61007265 	tstvs	r0, r5, ror #4
     274:	2f686372 	svccs	0x00686372
     278:	2f6d7261 	svccs	0x006d7261
     27c:	2d697072 	stclcs	0, cr7, [r9, #-456]!	; 0xfffffe38
     280:	746d7261 	strbtvc	r7, [sp], #-609	; 0xfffffd9f
     284:	72656d69 	rsbvc	r6, r5, #6720	; 0x1a40
     288:	5200632e 	andpl	r6, r0, #-1207959552	; 0xb8000000
     28c:	425f4950 	subsmi	r4, pc, #80, 18	; 0x140000
     290:	43495341 	movtmi	r5, #37697	; 0x9341
     294:	4d52415f 	ldfmie	f4, [r2, #-380]	; 0xfffffe84
     298:	4f4f445f 	svcmi	0x004f445f
     29c:	4c454252 	sfmmi	f4, 2, [r5], {82}	; 0x52
     2a0:	5f305f4c 	svcpl	0x00305f4c
     2a4:	00515249 	subseq	r5, r1, r9, asr #4
     2a8:	41697072 	smcmi	38658	; 0x9702
     2ac:	69546d72 	ldmdbvs	r4, {r1, r4, r5, r6, r8, sl, fp, sp, lr}^
     2b0:	0072656d 	rsbseq	r6, r2, sp, ror #10
     2b4:	64616f4c 	strbtvs	r6, [r1], #-3916	; 0xfffff0b4
     2b8:	51524900 	cmppl	r2, r0, lsl #18
     2bc:	61656c43 	cmnvs	r5, r3, asr #24
     2c0:	50520072 	subspl	r0, r2, r2, ror r0
     2c4:	41425f49 	cmpmi	r2, r9, asr #30
     2c8:	5f434953 	svcpl	0x00434953
     2cc:	45434341 	strbmi	r4, [r3, #-833]	; 0xfffffcbf
     2d0:	455f5353 	ldrbmi	r5, [pc, #-851]	; ffffff85 <__kernel_end+0xffe9df85>
     2d4:	524f5252 	subpl	r5, pc, #536870917	; 0x20000005
     2d8:	495f305f 	ldmdbmi	pc, {r0, r1, r2, r3, r4, r6, ip, sp}^	; <UNPREDICTABLE>
     2dc:	52005152 	andpl	r5, r0, #-2147483628	; 0x80000014
     2e0:	475f4950 			; <UNDEFINED> instruction: 0x475f4950
     2e4:	72497465 	subvc	r7, r9, #1694498816	; 0x65000000
     2e8:	6e6f4371 	mcrvs	3, 3, r4, cr15, cr1, {3}
     2ec:	6c6f7274 	sfmvs	f7, 2, [pc], #-464	; 124 <ARM_I_BIT+0xa4>
     2f0:	0072656c 	rsbseq	r6, r2, ip, ror #10
     2f4:	6b73614d 	blvs	1cd8830 <__kernel_end+0x1b76830>
     2f8:	52496465 	subpl	r6, r9, #1694498816	; 0x65000000
     2fc:	50520051 	subspl	r0, r2, r1, asr r0
     300:	41425f49 	cmpmi	r2, r9, asr #30
     304:	5f434953 	svcpl	0x00434953
     308:	5f4d5241 	svcpl	0x004d5241
     30c:	4c49414d 	stfmie	f4, [r9], {77}	; 0x4d
     310:	5f584f42 	svcpl	0x00584f42
     314:	00515249 	subseq	r5, r1, r9, asr #4
     318:	66657270 			; <UNDEFINED> instruction: 0x66657270
     31c:	68637465 	stmdavs	r3!, {r0, r2, r5, r6, sl, ip, sp, lr}^
     320:	6f62615f 	svcvs	0x0062615f
     324:	765f7472 			; <UNDEFINED> instruction: 0x765f7472
     328:	6f746365 	svcvs	0x00746365
     32c:	6f630072 	svcvs	0x00630072
     330:	5f746e75 	svcpl	0x00746e75
     334:	73717269 	cmnvc	r1, #-1879048186	; 0x90000006
     338:	73694400 	cmnvc	r9, #0, 8
     33c:	656c6261 	strbvs	r6, [ip, #-609]!	; 0xfffffd9f
     340:	5152495f 	cmppl	r2, pc, asr r9
     344:	00325f73 	eorseq	r5, r2, r3, ror pc
     348:	657a6973 	ldrbvs	r6, [sl, #-2419]!	; 0xfffff68d
     34c:	7300745f 	movwvc	r7, #1119	; 0x45f
     350:	74657a69 	strbtvc	r7, [r5], #-2665	; 0xfffff597
     354:	00657079 	rsbeq	r7, r5, r9, ror r0
     358:	72657a62 	rsbvc	r7, r5, #401408	; 0x62000
     35c:	4946006f 	stmdbmi	r6, {r0, r1, r2, r3, r5, r6}^
     360:	6f635f51 	svcvs	0x00635f51
     364:	6f72746e 	svcvs	0x0072746e
     368:	6975006c 	ldmdbvs	r5!, {r2, r3, r5, r6}^
     36c:	5f38746e 	svcpl	0x0038746e
     370:	6e690074 	mcrvs	0, 3, r0, cr9, cr4, {3}
     374:	72726574 	rsbsvc	r6, r2, #116, 10	; 0x1d000000
     378:	5f747075 	svcpl	0x00747075
     37c:	646e6168 	strbtvs	r6, [lr], #-360	; 0xfffffe98
     380:	5f72656c 	svcpl	0x0072656c
     384:	70720066 	rsbsvc	r0, r2, r6, rrx
     388:	51524969 	cmppl	r2, r9, ror #18
     38c:	746e6f43 	strbtvc	r6, [lr], #-3907	; 0xfffff0bd
     390:	6c6c6f72 	stclvs	15, cr6, [ip], #-456	; 0xfffffe38
     394:	75007265 	strvc	r7, [r0, #-613]	; 0xfffffd9b
     398:	6765726e 	strbvs	r7, [r5, -lr, ror #4]!
     39c:	65747369 	ldrbvs	r7, [r4, #-873]!	; 0xfffffc97
     3a0:	72695f72 	rsbvc	r5, r9, #456	; 0x1c8
     3a4:	61685f71 	smcvs	34289	; 0x85f1
     3a8:	656c646e 	strbvs	r6, [ip, #-1134]!	; 0xfffffb92
     3ac:	6f730072 	svcvs	0x00730072
     3b0:	61777466 	cmnvs	r7, r6, ror #8
     3b4:	695f6572 	ldmdbvs	pc, {r1, r4, r5, r6, r8, sl, sp, lr}^	; <UNPREDICTABLE>
     3b8:	7265746e 	rsbvc	r7, r5, #1845493760	; 0x6e000000
     3bc:	74707572 	ldrbtvc	r7, [r0], #-1394	; 0xfffffa8e
     3c0:	6365765f 	cmnvs	r5, #99614720	; 0x5f00000
     3c4:	00726f74 	rsbseq	r6, r2, r4, ror pc
     3c8:	65646e75 	strbvs	r6, [r4, #-3701]!	; 0xfffff18b
     3cc:	656e6966 	strbvs	r6, [lr, #-2406]!	; 0xfffff69a
     3d0:	6e695f64 	cdpvs	15, 6, cr5, cr9, cr4, {3}
     3d4:	75727473 	ldrbvc	r7, [r2, #-1139]!	; 0xfffffb8d
     3d8:	6f697463 	svcvs	0x00697463
     3dc:	65765f6e 	ldrbvs	r5, [r6, #-3950]!	; 0xfffff092
     3e0:	726f7463 	rsbvc	r7, pc, #1660944384	; 0x63000000
     3e4:	6d656d00 	stclvs	13, cr6, [r5, #-0]
     3e8:	00746573 	rsbseq	r6, r4, r3, ror r5
     3ec:	74736166 	ldrbtvc	r6, [r3], #-358	; 0xfffffe9a
     3f0:	746e695f 	strbtvc	r6, [lr], #-2399	; 0xfffff6a1
     3f4:	75727265 	ldrbvc	r7, [r2, #-613]!	; 0xfffffd9b
     3f8:	765f7470 			; <UNDEFINED> instruction: 0x765f7470
     3fc:	6f746365 	svcvs	0x00746365
     400:	72690072 	rsbvc	r0, r9, #114	; 0x72
     404:	756e5f71 	strbvc	r5, [lr, #-3953]!	; 0xfffff08f
     408:	6e45006d 	cdpvs	0, 4, cr0, cr5, cr13, {3}
     40c:	656c6261 	strbvs	r6, [ip, #-609]!	; 0xfffffd9f
     410:	5152495f 	cmppl	r2, pc, asr r9
     414:	00315f73 	eorseq	r5, r1, r3, ror pc
     418:	62616e45 	rsbvs	r6, r1, #1104	; 0x450
     41c:	495f656c 	ldmdbmi	pc, {r2, r3, r5, r6, r8, sl, sp, lr}^	; <UNPREDICTABLE>
     420:	5f735152 	svcpl	0x00735152
     424:	6f6c0032 	svcvs	0x006c0032
     428:	6420676e 	strtvs	r6, [r0], #-1902	; 0xfffff892
     42c:	6c62756f 	cfstr64vs	mvdx7, [r2], #-444	; 0xfffffe44
     430:	69440065 	stmdbvs	r4, {r0, r2, r5, r6}^
     434:	6c626173 	stfvse	f6, [r2], #-460	; 0xfffffe34
     438:	61425f65 	cmpvs	r2, r5, ror #30
     43c:	5f636973 	svcpl	0x00636973
     440:	73515249 	cmpvc	r1, #-1879048188	; 0x90000004
     444:	6e616800 	cdpvs	8, 6, cr6, cr1, cr0, {0}
     448:	72656c64 	rsbvc	r6, r5, #100, 24	; 0x6400
     44c:	79620073 	stmdbvc	r2!, {r0, r1, r4, r5, r6}^
     450:	69006574 	stmdbvs	r0, {r2, r4, r5, r6, r8, sl, sp, lr}
     454:	705f7172 	subsvc	r7, pc, r2, ror r1	; <UNPREDICTABLE>
     458:	7200736f 	andvc	r7, r0, #-1140850687	; 0xbc000001
     45c:	74657365 	strbtvc	r7, [r5], #-869	; 0xfffffc9b
     460:	6365765f 	cmnvs	r5, #99614720	; 0x5f00000
     464:	00726f74 	rsbseq	r6, r2, r4, ror pc
     468:	65746e69 	ldrbvs	r6, [r4, #-3689]!	; 0xfffff197
     46c:	70757272 	rsbsvc	r7, r5, r2, ror r2
     470:	6c635f74 	stclvs	15, cr5, [r3], #-464	; 0xfffffe30
     474:	65726165 	ldrbvs	r6, [r2, #-357]!	; 0xfffffe9b
     478:	00665f72 	rsbeq	r5, r6, r2, ror pc
     47c:	5f515249 	svcpl	0x00515249
     480:	646e6570 	strbtvs	r6, [lr], #-1392	; 0xfffffa90
     484:	5f676e69 	svcpl	0x00676e69
     488:	72700032 	rsbsvc	r0, r0, #50	; 0x32
     48c:	66746e69 	ldrbtvs	r6, [r4], -r9, ror #28
     490:	53494400 	movtpl	r4, #37888	; 0x9400
     494:	454c4241 	strbmi	r4, [ip, #-577]	; 0xfffffdbf
     498:	544e495f 	strbpl	r4, [lr], #-2399	; 0xfffff6a1
     49c:	55525245 	ldrbpl	r5, [r2, #-581]	; 0xfffffdbb
     4a0:	00535450 	subseq	r5, r3, r0, asr r4
     4a4:	68637261 	stmdavs	r3!, {r0, r5, r6, r9, ip, sp, lr}^
     4a8:	6d72612f 	ldfvse	f6, [r2, #-188]!	; 0xffffff44
     4ac:	6970722f 	ldmdbvs	r0!, {r0, r1, r2, r3, r5, r9, ip, sp, lr}^
     4b0:	746e692d 	strbtvc	r6, [lr], #-2349	; 0xfffff6d3
     4b4:	75727265 	ldrbvc	r7, [r2, #-613]!	; 0xfffffd9b
     4b8:	2e737470 	mrccs	4, 3, r7, cr3, cr0, {3}
     4bc:	655f0063 	ldrbvs	r0, [pc, #-99]	; 461 <ARM_I_BIT+0x3e1>
     4c0:	6c62616e 	stfvse	f6, [r2], #-440	; 0xfffffe48
     4c4:	6e695f65 	cdpvs	15, 6, cr5, cr9, cr5, {3}
     4c8:	72726574 	rsbsvc	r6, r2, #116, 10	; 0x1d000000
     4cc:	73747075 	cmnvc	r4, #117	; 0x75
     4d0:	73694400 	cmnvc	r9, #0, 8
     4d4:	656c6261 	strbvs	r6, [ip, #-609]!	; 0xfffffd9f
     4d8:	5152495f 	cmppl	r2, pc, asr r9
     4dc:	00315f73 	eorseq	r5, r1, r3, ror pc
     4e0:	62616e45 	rsbvs	r6, r1, #1104	; 0x450
     4e4:	425f656c 	subsmi	r6, pc, #108, 10	; 0x1b000000
     4e8:	63697361 	cmnvs	r9, #-2080374783	; 0x84000001
     4ec:	5152495f 	cmppl	r2, pc, asr r9
     4f0:	4e450073 	mcrmi	0, 2, r0, cr5, cr3, {3}
     4f4:	454c4241 	strbmi	r4, [ip, #-577]	; 0xfffffdbf
     4f8:	544e495f 	strbpl	r4, [lr], #-2399	; 0xfffff6a1
     4fc:	55525245 	ldrbpl	r5, [r2, #-581]	; 0xfffffdbb
     500:	00535450 	subseq	r5, r3, r0, asr r4
     504:	5f697072 	svcpl	0x00697072
     508:	5f717269 	svcpl	0x00717269
     50c:	746e6f63 	strbtvc	r6, [lr], #-3939	; 0xfffff09d
     510:	6c6c6f72 	stclvs	15, cr6, [ip], #-456	; 0xfffffe38
     514:	745f7265 	ldrbvc	r7, [pc], #-613	; 51c <ARM_I_BIT+0x49c>
     518:	72617500 	rsbvc	r7, r1, #0, 10
     51c:	75705f74 	ldrbvc	r5, [r0, #-3956]!	; 0xfffff08c
     520:	69007374 	stmdbvs	r0, {r2, r4, r5, r6, r8, r9, ip, sp, lr}
     524:	7265746e 	rsbvc	r7, r5, #1845493760	; 0x6e000000
     528:	74707572 	ldrbtvc	r7, [r0], #-1394	; 0xfffffa8e
     52c:	6e695f73 	mcrvs	15, 3, r5, cr9, cr3, {3}
     530:	63007469 	movwvs	r7, #1129	; 0x469
     534:	7261656c 	rsbvc	r6, r1, #108, 10	; 0x1b000000
     538:	00737265 	rsbseq	r7, r3, r5, ror #4
     53c:	5f717269 	svcpl	0x00717269
     540:	626d756e 	rsbvs	r7, sp, #461373440	; 0x1b800000
     544:	745f7265 	ldrbvc	r7, [pc], #-613	; 54c <ARM_I_BIT+0x4cc>
     548:	544e4900 	strbpl	r4, [lr], #-2304	; 0xfffff700
     54c:	55525245 	ldrbpl	r5, [r2, #-581]	; 0xfffffdbb
     550:	5f535450 	svcpl	0x00535450
     554:	42414e45 	submi	r4, r1, #1104	; 0x450
     558:	0044454c 	subeq	r4, r4, ip, asr #10
     55c:	61746164 	cmnvs	r4, r4, ror #2
     560:	6f62615f 	svcvs	0x0062615f
     564:	765f7472 			; <UNDEFINED> instruction: 0x765f7472
     568:	6f746365 	svcvs	0x00746365
     56c:	52490072 	subpl	r0, r9, #114	; 0x72
     570:	65705f51 	ldrbvs	r5, [r0, #-3921]!	; 0xfffff0af
     574:	6e69646e 	cdpvs	4, 6, cr6, cr9, cr14, {3}
     578:	00315f67 	eorseq	r5, r1, r7, ror #30
     57c:	5f515249 	svcpl	0x00515249
     580:	69736162 	ldmdbvs	r3!, {r1, r5, r6, r8, sp, lr}^
     584:	65705f63 	ldrbvs	r5, [r0, #-3939]!	; 0xfffff09d
     588:	6e69646e 	cdpvs	4, 6, cr6, cr9, cr14, {3}
     58c:	52410067 	subpl	r0, r1, #103	; 0x67
     590:	534d5f4d 	movtpl	r5, #57165	; 0xdf4d
     594:	4c55465f 	mrrcmi	6, 5, r4, r5, cr15
     598:	616d004c 	cmnvs	sp, ip, asr #32
     59c:	6f626c69 	svcvs	0x00626c69
     5a0:	74735f78 	ldrbtvc	r5, [r3], #-3960	; 0xfffff088
     5a4:	73757461 	cmnvc	r5, #1627389952	; 0x61000000
     5a8:	6765725f 			; <UNDEFINED> instruction: 0x6765725f
     5ac:	7469625f 	strbtvc	r6, [r9], #-607	; 0xfffffda1
     5b0:	68630073 	stmdavs	r3!, {r0, r1, r4, r5, r6}^
     5b4:	656e6e61 	strbvs	r6, [lr, #-3681]!	; 0xfffff19f
     5b8:	424d006c 	submi	r0, sp, #108	; 0x6c
     5bc:	41545f30 	cmpmi	r4, r0, lsr pc
     5c0:	415f5347 	cmpmi	pc, r7, asr #6
     5c4:	545f4d52 	ldrbpl	r4, [pc], #-3410	; 5cc <ARM_I_BIT+0x54c>
     5c8:	43565f4f 	cmpmi	r6, #316	; 0x13c
     5cc:	6c617600 	stclvs	6, cr7, [r1], #-0
     5d0:	72006575 	andvc	r6, r0, #490733568	; 0x1d400000
     5d4:	614d6970 	hvcvs	54928	; 0xd690
     5d8:	6f626c69 	svcvs	0x00626c69
     5dc:	6d003078 	stcvs	0, cr3, [r0, #-480]	; 0xfffffe20
     5e0:	626c6961 	rsbvs	r6, ip, #1589248	; 0x184000
     5e4:	745f786f 	ldrbvc	r7, [pc], #-2159	; 5ec <ARM_I_BIT+0x56c>
     5e8:	6e655300 	cdpvs	3, 6, cr5, cr5, cr0, {0}
     5ec:	00726564 	rsbseq	r6, r2, r4, ror #10
     5f0:	5f30424d 	svcpl	0x0030424d
     5f4:	53554e55 	cmppl	r5, #1360	; 0x550
     5f8:	4d004445 	cfstrsmi	mvf4, [r0, #-276]	; 0xfffffeec
     5fc:	465f3042 	ldrbmi	r3, [pc], -r2, asr #32
     600:	454d4152 	strbmi	r4, [sp, #-338]	; 0xfffffeae
     604:	46465542 	strbmi	r5, [r6], -r2, asr #10
     608:	52005245 	andpl	r5, r0, #1342177284	; 0x50000004
     60c:	4d5f4950 	ldclmi	9, cr4, [pc, #-320]	; 4d4 <ARM_I_BIT+0x454>
     610:	626c6961 	rsbvs	r6, ip, #1589248	; 0x184000
     614:	5230786f 	eorspl	r7, r0, #7274496	; 0x6f0000
     618:	00646165 	rsbeq	r6, r4, r5, ror #2
     61c:	5f30424d 	svcpl	0x0030424d
     620:	49484356 	stmdbmi	r8, {r1, r2, r4, r6, r8, r9, lr}^
     624:	424d0051 	submi	r0, sp, #81	; 0x51
     628:	4f545f30 	svcmi	0x00545f30
     62c:	53484355 	movtpl	r4, #33621	; 0x8355
     630:	45455243 	strbmi	r5, [r5, #-579]	; 0xfffffdbd
     634:	5241004e 	subpl	r0, r1, #78	; 0x4e
     638:	534d5f4d 	movtpl	r5, #57165	; 0xdf4d
     63c:	504d455f 	subpl	r4, sp, pc, asr r5
     640:	41005954 	tstmi	r0, r4, asr r9
     644:	4d5f4d52 	ldclmi	13, cr4, [pc, #-328]	; 504 <ARM_I_BIT+0x484>
     648:	454c5f53 	strbmi	r5, [ip, #-3923]	; 0xfffff0ad
     64c:	004c4556 	subeq	r4, ip, r6, asr r5
     650:	666e6f43 	strbtvs	r6, [lr], -r3, asr #30
     654:	72756769 	rsbsvc	r6, r5, #27525120	; 0x1a40000
     658:	6f697461 	svcvs	0x00697461
     65c:	424d006e 	submi	r0, sp, #110	; 0x6e
     660:	49565f30 	ldmdbmi	r6, {r4, r5, r8, r9, sl, fp, ip, lr}^
     664:	41555452 	cmpmi	r5, r2, asr r4
     668:	41555f4c 	cmpmi	r5, ip, asr #30
     66c:	4d005452 	cfstrsmi	mvf5, [r0, #-328]	; 0xfffffeb8
     670:	505f3042 	subspl	r3, pc, r2, asr #32
     674:	5245574f 	subpl	r5, r5, #20709376	; 0x13c0000
     678:	4e414d5f 	mcrmi	13, 2, r4, cr1, cr15, {2}
     67c:	4d454741 	stclmi	7, cr4, [r5, #-260]	; 0xfffffefc
     680:	00544e45 	subseq	r4, r4, r5, asr #28
     684:	6c6c6f50 	stclvs	15, cr6, [ip], #-320	; 0xfffffec0
     688:	69616d00 	stmdbvs	r1!, {r8, sl, fp, sp, lr}^
     68c:	786f626c 	stmdavc	pc!, {r2, r3, r5, r6, r9, sp, lr}^	; <UNPREDICTABLE>
     690:	68635f30 	stmdavs	r3!, {r4, r5, r8, r9, sl, fp, ip, lr}^
     694:	656e6e61 	strbvs	r6, [lr, #-3681]!	; 0xfffff19f
     698:	00745f6c 	rsbseq	r5, r4, ip, ror #30
     69c:	5f30424d 	svcpl	0x0030424d
     6a0:	5344454c 	movtpl	r4, #17740	; 0x454c
     6a4:	63726100 	cmnvs	r2, #0, 2
     6a8:	72612f68 	rsbvc	r2, r1, #104, 30	; 0x1a0
     6ac:	70722f6d 	rsbsvc	r2, r2, sp, ror #30
     6b0:	616d2d69 	cmnvs	sp, r9, ror #26
     6b4:	6f626c69 	svcvs	0x00626c69
     6b8:	00632e78 	rsbeq	r2, r3, r8, ror lr
     6bc:	5f30424d 	svcpl	0x0030424d
     6c0:	53474154 	movtpl	r4, #29012	; 0x7154
     6c4:	5f43565f 	svcpl	0x0043565f
     6c8:	415f4f54 	cmpmi	pc, r4, asr pc	; <UNPREDICTABLE>
     6cc:	52004d52 	andpl	r4, r0, #5248	; 0x1480
     6d0:	4d5f4950 	ldclmi	9, cr4, [pc, #-320]	; 598 <ARM_I_BIT+0x518>
     6d4:	626c6961 	rsbvs	r6, ip, #1589248	; 0x184000
     6d8:	5730786f 	ldrpl	r7, [r0, -pc, ror #16]!
     6dc:	65746972 	ldrbvs	r6, [r4, #-2418]!	; 0xfffff68e
     6e0:	30424d00 	subcc	r4, r2, r0, lsl #26
     6e4:	5455425f 	ldrbpl	r4, [r5], #-607	; 0xfffffda1
     6e8:	534e4f54 	movtpl	r4, #61268	; 0xef54
     6ec:	73657200 	cmnvc	r5, #0, 4
     6f0:	65767265 	ldrbvs	r7, [r6, #-613]!	; 0xfffffd9b
     6f4:	54003164 	strpl	r3, [r0], #-356	; 0xfffffe9c
     6f8:	425f4741 	subsmi	r4, pc, #17039360	; 0x1040000
     6fc:	4b4e414c 	blmi	1390c34 <__kernel_end+0x122ec34>
     700:	5243535f 	subpl	r5, r3, #2080374785	; 0x7c000001
     704:	004e4545 	subeq	r4, lr, r5, asr #10
     708:	5f474154 	svcpl	0x00474154
     70c:	5f544547 	svcpl	0x00544547
     710:	5245564f 	subpl	r5, r5, #82837504	; 0x4f00000
     714:	4e414353 	mcrmi	3, 2, r4, cr1, cr3, {2}
     718:	47415400 	strbmi	r5, [r1, -r0, lsl #8]
     71c:	5445475f 	strbpl	r4, [r5], #-1887	; 0xfffff8a1
     720:	414f425f 	cmpmi	pc, pc, asr r2	; <UNPREDICTABLE>
     724:	535f4452 	cmppl	pc, #1375731712	; 0x52000000
     728:	41495245 	cmpmi	r9, r5, asr #4
     72c:	4154004c 	cmpmi	r4, ip, asr #32
     730:	45475f47 	strbmi	r5, [r7, #-3911]	; 0xfffff0b9
     734:	4f425f54 	svcmi	0x00425f54
     738:	5f445241 	svcpl	0x00445241
     73c:	49564552 	ldmdbmi	r6, {r1, r4, r6, r8, sl, lr}^
     740:	4e4f4953 	mcrmi	9, 2, r4, cr15, cr3, {2}
     744:	47415400 	strbmi	r5, [r1, -r0, lsl #8]
     748:	5445475f 	strbpl	r4, [r5], #-1887	; 0xfffff8a1
     74c:	4e494d5f 	mcrmi	13, 2, r4, cr9, cr15, {2}
     750:	4f4c435f 	svcmi	0x004c435f
     754:	525f4b43 	subspl	r4, pc, #68608	; 0x10c00
     758:	00455441 	subeq	r5, r5, r1, asr #8
     75c:	5f474154 	svcpl	0x00474154
     760:	54534554 	ldrbpl	r4, [r3], #-1364	; 0xfffffaac
     764:	5249565f 	subpl	r5, r9, #99614720	; 0x5f00000
     768:	4c415554 	cfstr64mi	mvdx5, [r1], {84}	; 0x54
     76c:	46464f5f 			; <UNDEFINED> instruction: 0x46464f5f
     770:	00544553 	subseq	r4, r4, r3, asr r5
     774:	5f474154 	svcpl	0x00474154
     778:	5f544553 	svcpl	0x00544553
     77c:	54524956 	ldrbpl	r4, [r2], #-2390	; 0xfffff6aa
     780:	5f4c4155 	svcpl	0x004c4155
     784:	5346464f 	movtpl	r4, #26191	; 0x664f
     788:	54005445 	strpl	r5, [r0], #-1093	; 0xfffffbbb
     78c:	475f4741 	ldrbmi	r4, [pc, -r1, asr #14]
     790:	505f5445 	subspl	r5, pc, r5, asr #8
     794:	49535948 	ldmdbmi	r3, {r3, r6, r8, fp, ip, lr}^
     798:	5f4c4143 	svcpl	0x004c4143
     79c:	455a4953 	ldrbmi	r4, [sl, #-2387]	; 0xfffff6ad
     7a0:	74616400 	strbtvc	r6, [r1], #-1024	; 0xfffffc00
     7a4:	41540061 	cmpmi	r4, r1, rrx
     7a8:	45475f47 	strbmi	r5, [r7, #-3911]	; 0xfffff0b9
     7ac:	45545f54 	ldrbmi	r5, [r4, #-3924]	; 0xfffff0ac
     7b0:	5245504d 	subpl	r5, r5, #77	; 0x4d
     7b4:	52555441 	subspl	r5, r5, #1090519040	; 0x41000000
     7b8:	41540045 	cmpmi	r4, r5, asr #32
     7bc:	45525f47 	ldrbmi	r5, [r2, #-3911]	; 0xfffff0b9
     7c0:	5341454c 	movtpl	r4, #5452	; 0x154c
     7c4:	55425f45 	strbpl	r5, [r2, #-3909]	; 0xfffff0bb
     7c8:	52454646 	subpl	r4, r5, #73400320	; 0x4600000
     7cc:	47415400 	strbmi	r5, [r1, -r0, lsl #8]
     7d0:	5445535f 	strbpl	r5, [r5], #-863	; 0xfffffca1
     7d4:	4c4f565f 	mcrrmi	6, 5, r5, pc, cr15
     7d8:	45474154 	strbmi	r4, [r7, #-340]	; 0xfffffeac
     7dc:	47415400 	strbmi	r5, [r1, -r0, lsl #8]
     7e0:	5445475f 	strbpl	r4, [r5], #-1887	; 0xfffff8a1
     7e4:	4f4c435f 	svcmi	0x004c435f
     7e8:	525f4b43 	subspl	r4, pc, #68608	; 0x10c00
     7ec:	00455441 	subeq	r5, r5, r1, asr #8
     7f0:	5f474154 	svcpl	0x00474154
     7f4:	5f544553 	svcpl	0x00544553
     7f8:	54504544 	ldrbpl	r4, [r0], #-1348	; 0xfffffabc
     7fc:	41540048 	cmpmi	r4, r8, asr #32
     800:	45475f47 	strbmi	r5, [r7, #-3911]	; 0xfffff0b9
     804:	41505f54 	cmpmi	r0, r4, asr pc
     808:	5454454c 	ldrbpl	r4, [r4], #-1356	; 0xfffffab4
     80c:	41540045 	cmpmi	r4, r5, asr #32
     810:	45475f47 	strbmi	r5, [r7, #-3911]	; 0xfffff0b9
     814:	43565f54 	cmpmi	r6, #84, 30	; 0x150
     818:	4d454d5f 	stclmi	13, cr4, [r5, #-380]	; 0xfffffe84
     81c:	0059524f 	subseq	r5, r9, pc, asr #4
     820:	66667562 	strbtvs	r7, [r6], -r2, ror #10
     824:	385f7265 	ldmdacc	pc, {r0, r2, r5, r6, r9, ip, sp, lr}^	; <UNPREDICTABLE>
     828:	6f727000 	svcvs	0x00727000
     82c:	74726570 	ldrbtvc	r6, [r2], #-1392	; 0xfffffa90
     830:	41540079 	cmpmi	r4, r9, ror r0
     834:	45535f47 	ldrbmi	r5, [r3, #-3911]	; 0xfffff0b9
     838:	4c435f54 	mcrrmi	15, 5, r5, r3, cr4
     83c:	5f4b434f 	svcpl	0x004b434f
     840:	54415453 	strbpl	r5, [r1], #-1107	; 0xfffffbad
     844:	41540045 	cmpmi	r4, r5, asr #32
     848:	45545f47 	ldrbmi	r5, [r4, #-3911]	; 0xfffff0b9
     84c:	505f5453 	subspl	r5, pc, r3, asr r4	; <UNPREDICTABLE>
     850:	4c455849 	mcrrmi	8, 4, r5, r5, cr9
     854:	44524f5f 	ldrbmi	r4, [r2], #-3935	; 0xfffff0a1
     858:	5f005245 	svcpl	0x00005245
     85c:	5f61765f 	svcpl	0x0061765f
     860:	7473696c 	ldrbtvc	r6, [r3], #-2412	; 0xfffff694
     864:	47415400 	strbmi	r5, [r1, -r0, lsl #8]
     868:	5445535f 	strbpl	r5, [r5], #-863	; 0xfffffca1
     86c:	5255435f 	subspl	r4, r5, #2080374785	; 0x7c000001
     870:	5f524f53 	svcpl	0x00524f53
     874:	4f464e49 	svcmi	0x00464e49
     878:	47415400 	strbmi	r5, [r1, -r0, lsl #8]
     87c:	5445475f 	strbpl	r4, [r5], #-1887	; 0xfffff8a1
     880:	5849505f 	stmdapl	r9, {r0, r1, r2, r3, r4, r6, ip, lr}^
     884:	4f5f4c45 	svcmi	0x005f4c45
     888:	52454452 	subpl	r4, r5, #1375731712	; 0x52000000
     88c:	47415400 	strbmi	r5, [r1, -r0, lsl #8]
     890:	5445475f 	strbpl	r4, [r5], #-1887	; 0xfffff8a1
     894:	4944455f 	stmdbmi	r4, {r0, r1, r2, r3, r4, r6, r8, sl, lr}^
     898:	4c425f44 	mcrrmi	15, 4, r5, r2, cr4
     89c:	004b434f 	subeq	r4, fp, pc, asr #6
     8a0:	5f474154 	svcpl	0x00474154
     8a4:	5f544547 	svcpl	0x00544547
     8a8:	5f58414d 	svcpl	0x0058414d
     8ac:	434f4c43 	movtmi	r4, #64579	; 0xfc43
     8b0:	41525f4b 	cmpmi	r2, fp, asr #30
     8b4:	54004554 	strpl	r4, [r0], #-1364	; 0xfffffaac
     8b8:	545f4741 	ldrbpl	r4, [pc], #-1857	; 8c0 <SCTLR_ENABLE_BRANCH_PREDICTION+0xc0>
     8bc:	5f545345 	svcpl	0x00545345
     8c0:	48504c41 	ldmdami	r0, {r0, r6, sl, fp, lr}^
     8c4:	4f4d5f41 	svcmi	0x004d5f41
     8c8:	52004544 	andpl	r4, r0, #68, 10	; 0x11000000
     8cc:	505f4950 	subspl	r4, pc, r0, asr r9	; <UNPREDICTABLE>
     8d0:	65706f72 	ldrbvs	r6, [r0, #-3954]!	; 0xfffff08e
     8d4:	49797472 	ldmdbmi	r9!, {r1, r4, r5, r6, sl, ip, sp, lr}^
     8d8:	0074696e 	rsbseq	r6, r4, lr, ror #18
     8dc:	4f5f5450 	svcmi	0x005f5450
     8e0:	455a4953 	ldrbmi	r4, [sl, #-2387]	; 0xfffff6ad
     8e4:	47415400 	strbmi	r5, [r1, -r0, lsl #8]
     8e8:	5345545f 	movtpl	r5, #21599	; 0x545f
     8ec:	41505f54 	cmpmi	r0, r4, asr pc
     8f0:	5454454c 	ldrbpl	r4, [r4], #-1356	; 0xfffffab4
     8f4:	50520045 	subspl	r0, r2, r5, asr #32
     8f8:	72505f49 	subsvc	r5, r0, #292	; 0x124
     8fc:	7265706f 	rsbvc	r7, r5, #111	; 0x6f
     900:	64417974 	strbvs	r7, [r1], #-2420	; 0xfffff68c
     904:	67615464 	strbvs	r5, [r1, -r4, ror #8]!
     908:	69707200 	ldmdbvs	r0!, {r9, ip, sp, lr}^
     90c:	69616d5f 	stmdbvs	r1!, {r0, r1, r2, r3, r4, r6, r8, sl, fp, sp, lr}^
     910:	786f626c 	stmdavc	pc!, {r2, r3, r5, r6, r9, sp, lr}^	; <UNPREDICTABLE>
     914:	6f72705f 	svcvs	0x0072705f
     918:	74726570 	ldrbtvc	r6, [r2], #-1392	; 0xfffffa90
     91c:	00745f79 	rsbseq	r5, r4, r9, ror pc
     920:	4f5f5450 	svcmi	0x005f5450
     924:	55514552 	ldrbpl	r4, [r1, #-1362]	; 0xfffffaae
     928:	5f545345 	svcpl	0x00545345
     92c:	525f524f 	subspl	r5, pc, #-268435452	; 0xf0000004
     930:	4f505345 	svcmi	0x00505345
     934:	0045534e 	subeq	r5, r5, lr, asr #6
     938:	5f474154 	svcpl	0x00474154
     93c:	54534554 	ldrbpl	r4, [r3], #-1364	; 0xfffffaac
     940:	45564f5f 	ldrbmi	r4, [r6, #-3935]	; 0xfffff0a1
     944:	41435352 	cmpmi	r3, r2, asr r3
     948:	4154004e 	cmpmi	r4, lr, asr #32
     94c:	45475f47 	strbmi	r5, [r7, #-3911]	; 0xfffff0b9
     950:	49565f54 	ldmdbmi	r6, {r2, r4, r6, r8, r9, sl, fp, ip, lr}^
     954:	41555452 	cmpmi	r5, r2, asr r4
     958:	464f5f4c 	strbmi	r5, [pc], -ip, asr #30
     95c:	54455346 	strbpl	r5, [r5], #-838	; 0xfffffcba
     960:	47415400 	strbmi	r5, [r1, -r0, lsl #8]
     964:	5445475f 	strbpl	r4, [r5], #-1887	; 0xfffff8a1
     968:	4d52415f 	ldfmie	f4, [r2, #-380]	; 0xfffffe84
     96c:	4d454d5f 	stclmi	13, cr4, [r5, #-380]	; 0xfffffe84
     970:	0059524f 	subseq	r5, r9, pc, asr #4
     974:	5f474154 	svcpl	0x00474154
     978:	5f544547 	svcpl	0x00544547
     97c:	54504544 	ldrbpl	r4, [r0], #-1348	; 0xfffffabc
     980:	41540048 	cmpmi	r4, r8, asr #32
     984:	45475f47 	strbmi	r5, [r7, #-3911]	; 0xfffff0b9
     988:	49565f54 	ldmdbmi	r6, {r2, r4, r6, r8, r9, sl, fp, ip, lr}^
     98c:	41555452 	cmpmi	r5, r2, asr r4
     990:	49535f4c 	ldmdbmi	r3, {r2, r3, r6, r8, r9, sl, fp, ip, lr}^
     994:	5400455a 	strpl	r4, [r0], #-1370	; 0xfffffaa6
     998:	525f4741 	subspl	r4, pc, #17039360	; 0x1040000
     99c:	41454c45 	cmpmi	r5, r5, asr #24
     9a0:	4d5f4553 	cfldr64mi	mvdx4, [pc, #-332]	; 85c <SCTLR_ENABLE_BRANCH_PREDICTION+0x5c>
     9a4:	524f4d45 	subpl	r4, pc, #4416	; 0x1140
     9a8:	41540059 	cmpmi	r4, r9, asr r0
     9ac:	45535f47 	ldrbmi	r5, [r3, #-3911]	; 0xfffff0b9
     9b0:	4f505f54 	svcmi	0x00505f54
     9b4:	5f524557 	svcpl	0x00524557
     9b8:	54415453 	strbpl	r5, [r1], #-1107	; 0xfffffbad
     9bc:	41540045 	cmpmi	r4, r5, asr #32
     9c0:	4f4c5f47 	svcmi	0x004c5f47
     9c4:	4d5f4b43 	vldrmi	d20, [pc, #-268]	; 8c0 <SCTLR_ENABLE_BRANCH_PREDICTION+0xc0>
     9c8:	524f4d45 	subpl	r4, pc, #4416	; 0x1140
     9cc:	79620059 	stmdbvc	r2!, {r0, r3, r4, r6}^
     9d0:	6c5f6574 	cfldr64vs	mvdx6, [pc], {116}	; 0x74
     9d4:	74676e65 	strbtvc	r6, [r7], #-3685	; 0xfffff19b
     9d8:	41540068 	cmpmi	r4, r8, rrx
     9dc:	45475f47 	strbmi	r5, [r7, #-3911]	; 0xfffff0b9
     9e0:	4c415f54 	mcrrmi	15, 5, r5, r1, cr4
     9e4:	5f414850 	svcpl	0x00414850
     9e8:	45444f4d 	strbmi	r4, [r4, #-3917]	; 0xfffff0b3
     9ec:	47415400 	strbmi	r5, [r1, -r0, lsl #8]
     9f0:	5445475f 	strbpl	r4, [r5], #-1887	; 0xfffff8a1
     9f4:	5449505f 	strbpl	r5, [r9], #-95	; 0xffffffa1
     9f8:	54004843 	strpl	r4, [r0], #-2115	; 0xfffff7bd
     9fc:	415f4741 	cmpmi	pc, r1, asr #14
     a00:	434f4c4c 	movtmi	r4, #64588	; 0xfc4c
     a04:	5f455441 	svcpl	0x00455441
     a08:	46465542 	strbmi	r5, [r6], -r2, asr #10
     a0c:	5f005245 	svcpl	0x00005245
     a10:	756e675f 	strbvc	r6, [lr, #-1887]!	; 0xfffff8a1
     a14:	61765f63 	cmnvs	r6, r3, ror #30
     a18:	73696c5f 	cmnvc	r9, #24320	; 0x5f00
     a1c:	41540074 	cmpmi	r4, r4, ror r0
     a20:	45535f47 	ldrbmi	r5, [r3, #-3911]	; 0xfffff0b9
     a24:	48505f54 	ldmdami	r0, {r2, r4, r6, r8, r9, sl, fp, ip, lr}^
     a28:	43495359 	movtmi	r5, #37721	; 0x9359
     a2c:	535f4c41 	cmppl	pc, #16640	; 0x4100
     a30:	00455a49 	subeq	r5, r5, r9, asr #20
     a34:	5f474154 	svcpl	0x00474154
     a38:	5f544547 	svcpl	0x00544547
     a3c:	544c4f56 	strbpl	r4, [ip], #-3926	; 0xfffff0aa
     a40:	00454741 	subeq	r4, r5, r1, asr #14
     a44:	5f474154 	svcpl	0x00474154
     a48:	5f544553 	svcpl	0x00544553
     a4c:	54524956 	ldrbpl	r4, [r2], #-2390	; 0xfffff6aa
     a50:	5f4c4155 	svcpl	0x004c4155
     a54:	455a4953 	ldrbmi	r4, [sl, #-2387]	; 0xfffff6ad
     a58:	49505200 	ldmdbmi	r0, {r9, ip, lr}^
     a5c:	6f72505f 	svcvs	0x0072505f
     a60:	74726570 	ldrbtvc	r6, [r2], #-1392	; 0xfffffa90
     a64:	6f725079 	svcvs	0x00725079
     a68:	73736563 	cmnvc	r3, #415236096	; 0x18c00000
     a6c:	47415400 	strbmi	r5, [r1, -r0, lsl #8]
     a70:	4558455f 	ldrbmi	r4, [r8, #-1375]	; 0xfffffaa1
     a74:	45545543 	ldrbmi	r5, [r4, #-1347]	; 0xfffffabd
     a78:	444f435f 	strbmi	r4, [pc], #-863	; a80 <SCTLR_ENABLE_BRANCH_PREDICTION+0x280>
     a7c:	70720045 	rsbsvc	r0, r2, r5, asr #32
     a80:	616d5f69 	cmnvs	sp, r9, ror #30
     a84:	6f626c69 	svcvs	0x00626c69
     a88:	61745f78 	cmnvs	r4, r8, ror pc
     a8c:	00745f67 	rsbseq	r5, r4, r7, ror #30
     a90:	5f676174 	svcpl	0x00676174
     a94:	66667562 	strbtvs	r7, [r6], -r2, ror #10
     a98:	54007265 	strpl	r7, [r0], #-613	; 0xfffffd9b
     a9c:	44494f5f 	strbmi	r4, [r9], #-3935	; 0xfffff0a1
     aa0:	00544e45 	subseq	r4, r4, r5, asr #28
     aa4:	5f474154 	svcpl	0x00474154
     aa8:	5f544547 	svcpl	0x00544547
     aac:	4d4d4f43 	stclmi	15, cr4, [sp, #-268]	; 0xfffffef4
     ab0:	5f444e41 	svcpl	0x00444e41
     ab4:	454e494c 	strbmi	r4, [lr, #-2380]	; 0xfffff6b4
     ab8:	47415400 	strbmi	r5, [r1, -r0, lsl #8]
     abc:	5445475f 	strbpl	r4, [r5], #-1887	; 0xfffff8a1
     ac0:	414f425f 	cmpmi	pc, pc, asr r2	; <UNPREDICTABLE>
     ac4:	4d5f4452 	cfldrdmi	mvd4, [pc, #-328]	; 984 <SCTLR_ENABLE_BRANCH_PREDICTION+0x184>
     ac8:	4c45444f 	cfstrdmi	mvd4, [r5], {79}	; 0x4f
     acc:	47415400 	strbmi	r5, [r1, -r0, lsl #8]
     ad0:	5445475f 	strbpl	r4, [r5], #-1887	; 0xfffff8a1
     ad4:	5249465f 	subpl	r4, r9, #99614720	; 0x5f00000
     ad8:	5241574d 	subpl	r5, r1, #20185088	; 0x1340000
     adc:	45565f45 	ldrbmi	r5, [r6, #-3909]	; 0xfffff0bb
     ae0:	4f495352 	svcmi	0x00495352
     ae4:	7562004e 	strbvc	r0, [r2, #-78]!	; 0xffffffb2
     ae8:	72656666 	rsbvc	r6, r5, #106954752	; 0x6600000
     aec:	0032335f 	eorseq	r3, r2, pc, asr r3
     af0:	5f474154 	svcpl	0x00474154
     af4:	5f544547 	svcpl	0x00544547
     af8:	5f58414d 	svcpl	0x0058414d
     afc:	504d4554 	subpl	r4, sp, r4, asr r5
     b00:	54415245 	strbpl	r5, [r1], #-581	; 0xfffffdbb
     b04:	00455255 	subeq	r5, r5, r5, asr r2
     b08:	564f5f54 			; <UNDEFINED> instruction: 0x564f5f54
     b0c:	45554c41 	ldrbmi	r4, [r5, #-3137]	; 0xfffff3bf
     b10:	5a49535f 	bpl	1255894 <__kernel_end+0x10f3894>
     b14:	41540045 	cmpmi	r4, r5, asr #32
     b18:	45535f47 	ldrbmi	r5, [r3, #-3911]	; 0xfffff0b9
     b1c:	49505f54 	ldmdbmi	r0, {r2, r4, r6, r8, r9, sl, fp, ip, lr}^
     b20:	5f4c4558 	svcpl	0x004c4558
     b24:	4544524f 	strbmi	r5, [r4, #-591]	; 0xfffffdb1
     b28:	41540052 	cmpmi	r4, r2, asr r0
     b2c:	4c415f47 	mcrrmi	15, 4, r5, r1, cr7
     b30:	41434f4c 	cmpmi	r3, ip, asr #30
     b34:	4d5f4554 	cfldr64mi	mvdx4, [pc, #-336]	; 9ec <SCTLR_ENABLE_BRANCH_PREDICTION+0x1ec>
     b38:	524f4d45 	subpl	r4, pc, #4416	; 0x1140
     b3c:	41540059 	cmpmi	r4, r9, asr r0
     b40:	45475f47 	strbmi	r5, [r7, #-3911]	; 0xfffff0b9
     b44:	414d5f54 	cmpmi	sp, r4, asr pc
     b48:	4f565f58 	svcmi	0x00565f58
     b4c:	4741544c 	strbmi	r5, [r1, -ip, asr #8]
     b50:	41540045 	cmpmi	r4, r5, asr #32
     b54:	45535f47 	ldrbmi	r5, [r3, #-3911]	; 0xfffff0b9
     b58:	4c435f54 	mcrrmi	15, 5, r5, r3, cr4
     b5c:	5f4b434f 	svcpl	0x004b434f
     b60:	45544152 	ldrbmi	r4, [r4, #-338]	; 0xfffffeae
     b64:	47415400 	strbmi	r5, [r1, -r0, lsl #8]
     b68:	5445475f 	strbpl	r4, [r5], #-1887	; 0xfffff8a1
     b6c:	4f4c435f 	svcmi	0x004c435f
     b70:	535f4b43 	cmppl	pc, #68608	; 0x10c00
     b74:	45544154 	ldrbmi	r4, [r4, #-340]	; 0xfffffeac
     b78:	47415400 	strbmi	r5, [r1, -r0, lsl #8]
     b7c:	5445535f 	strbpl	r5, [r5], #-863	; 0xfffffca1
     b80:	5255545f 	subspl	r5, r5, #1593835520	; 0x5f000000
     b84:	54004f42 	strpl	r4, [r0], #-3906	; 0xfffff0be
     b88:	41564f5f 	cmpmi	r6, pc, asr pc
     b8c:	0045554c 	subeq	r5, r5, ip, asr #10
     b90:	5f474154 	svcpl	0x00474154
     b94:	5f544553 	svcpl	0x00544553
     b98:	454c4150 	strbmi	r4, [ip, #-336]	; 0xfffffeb0
     b9c:	00455454 	subeq	r5, r5, r4, asr r4
     ba0:	5f474154 	svcpl	0x00474154
     ba4:	5f544553 	svcpl	0x00544553
     ba8:	48504c41 	ldmdami	r0, {r0, r6, sl, fp, lr}^
     bac:	4f4d5f41 	svcmi	0x004d5f41
     bb0:	54004544 	strpl	r4, [r0], #-1348	; 0xfffffabc
     bb4:	535f4741 	cmppl	pc, #17039360	; 0x1040000
     bb8:	435f5445 	cmpmi	pc, #1157627904	; 0x45000000
     bbc:	4f535255 	svcmi	0x00535255
     bc0:	54535f52 	ldrbpl	r5, [r3], #-3922	; 0xfffff0ae
     bc4:	00455441 	subeq	r5, r5, r1, asr #8
     bc8:	5f474154 	svcpl	0x00474154
     bcc:	5f544547 	svcpl	0x00544547
     bd0:	5f4e494d 	svcpl	0x004e494d
     bd4:	544c4f56 	strbpl	r4, [ip], #-3926	; 0xfffff0aa
     bd8:	00454741 	subeq	r4, r5, r1, asr #14
     bdc:	5f474154 	svcpl	0x00474154
     be0:	5f544547 	svcpl	0x00544547
     be4:	434f4c43 	movtmi	r4, #64579	; 0xfc43
     be8:	5400534b 	strpl	r5, [r0], #-843	; 0xfffffcb5
     bec:	535f4741 	cmppl	pc, #17039360	; 0x1040000
     bf0:	4f5f5445 	svcmi	0x005f5445
     bf4:	53524556 	cmppl	r2, #360710144	; 0x15800000
     bf8:	004e4143 	subeq	r4, lr, r3, asr #2
     bfc:	636d656d 	cmnvs	sp, #457179136	; 0x1b400000
     c00:	5f007970 	svcpl	0x00007970
     c04:	0070615f 	rsbseq	r6, r0, pc, asr r1
     c08:	756c6176 	strbvc	r6, [ip, #-374]!	; 0xfffffe8a
     c0c:	32335f65 	eorscc	r5, r3, #404	; 0x194
     c10:	47415400 	strbmi	r5, [r1, -r0, lsl #8]
     c14:	5345545f 	movtpl	r5, #21599	; 0x545f
     c18:	49565f54 	ldmdbmi	r6, {r2, r4, r6, r8, r9, sl, fp, ip, lr}^
     c1c:	41555452 	cmpmi	r5, r2, asr r4
     c20:	49535f4c 	ldmdbmi	r3, {r2, r3, r6, r8, r9, sl, fp, ip, lr}^
     c24:	5200455a 	andpl	r4, r0, #377487360	; 0x16800000
     c28:	505f4950 	subspl	r4, pc, r0, asr r9	; <UNPREDICTABLE>
     c2c:	65706f72 	ldrbvs	r6, [r0, #-3954]!	; 0xfffff08e
     c30:	47797472 			; <UNDEFINED> instruction: 0x47797472
     c34:	54007465 	strpl	r7, [r0], #-1125	; 0xfffffb9b
     c38:	545f4741 	ldrbpl	r4, [pc], #-1857	; c40 <SCTLR_ENABLE_BRANCH_PREDICTION+0x440>
     c3c:	5f545345 	svcpl	0x00545345
     c40:	54504544 	ldrbpl	r4, [r0], #-1348	; 0xfffffabc
     c44:	41540048 	cmpmi	r4, r8, asr #32
     c48:	45475f47 	strbmi	r5, [r7, #-3911]	; 0xfffff0b9
     c4c:	49445f54 	stmdbmi	r4, {r2, r4, r6, r8, r9, sl, fp, ip, lr}^
     c50:	414d5053 	qdaddmi	r5, r3, sp
     c54:	4d5f584e 	ldclmi	8, cr5, [pc, #-312]	; b24 <SCTLR_ENABLE_BRANCH_PREDICTION+0x324>
     c58:	485f4d45 	ldmdami	pc, {r0, r2, r6, r8, sl, fp, lr}^	; <UNPREDICTABLE>
     c5c:	4c444e41 	mcrrmi	14, 4, r4, r4, cr1
     c60:	74700045 	ldrbtvc	r0, [r0], #-69	; 0xffffffbb
     c64:	646e695f 	strbtvs	r6, [lr], #-2399	; 0xfffff6a1
     c68:	61007865 	tstvs	r0, r5, ror #16
     c6c:	2f686372 	svccs	0x00686372
     c70:	2f6d7261 	svccs	0x006d7261
     c74:	2d697072 	stclcs	0, cr7, [r9, #-456]!	; 0xfffffe38
     c78:	6c69616d 	stfvse	f6, [r9], #-436	; 0xfffffe4c
     c7c:	2d786f62 	ldclcs	15, cr6, [r8, #-392]!	; 0xfffffe78
     c80:	65746e69 	ldrbvs	r6, [r4, #-3689]!	; 0xfffff197
     c84:	63616672 	cmnvs	r1, #119537664	; 0x7200000
     c88:	00632e65 	rsbeq	r2, r3, r5, ror #28
     c8c:	5f474154 	svcpl	0x00474154
     c90:	4f4c4e55 	svcmi	0x004c4e55
     c94:	4d5f4b43 	vldrmi	d20, [pc, #-268]	; b90 <SCTLR_ENABLE_BRANCH_PREDICTION+0x390>
     c98:	524f4d45 	subpl	r4, pc, #4416	; 0x1140
     c9c:	41540059 	cmpmi	r4, r9, asr r0
     ca0:	45475f47 	strbmi	r5, [r7, #-3911]	; 0xfffff0b9
     ca4:	4f425f54 	svcmi	0x00425f54
     ca8:	5f445241 	svcpl	0x00445241
     cac:	5f43414d 	svcpl	0x0043414d
     cb0:	52444441 	subpl	r4, r4, #1090519040	; 0x41000000
     cb4:	00535345 	subseq	r5, r3, r5, asr #6
     cb8:	5f474154 	svcpl	0x00474154
     cbc:	5f544547 	svcpl	0x00544547
     cc0:	42525554 	subsmi	r5, r2, #84, 10	; 0x15000000
     cc4:	4154004f 	cmpmi	r4, pc, asr #32
     cc8:	45475f47 	strbmi	r5, [r7, #-3911]	; 0xfffff0b9
     ccc:	4d445f54 	stclmi	15, cr5, [r4, #-336]	; 0xfffffeb0
     cd0:	48435f41 	stmdami	r3, {r0, r6, r8, r9, sl, fp, ip, lr}^
     cd4:	454e4e41 	strbmi	r4, [lr, #-3649]	; 0xfffff1bf
     cd8:	5400534c 	strpl	r5, [r0], #-844	; 0xfffffcb4
     cdc:	45524f5f 	ldrbmi	r4, [r2, #-3935]	; 0xfffff0a1
     ce0:	4e4f5053 	mcrmi	0, 2, r5, cr15, cr3, {2}
     ce4:	54004553 	strpl	r4, [r0], #-1363	; 0xfffffaad
     ce8:	545f4741 	ldrbpl	r4, [pc], #-1857	; cf0 <SCTLR_ENABLE_BRANCH_PREDICTION+0x4f0>
     cec:	5f545345 	svcpl	0x00545345
     cf0:	53594850 	cmppl	r9, #80, 16	; 0x500000
     cf4:	4c414349 	mcrrmi	3, 4, r4, r1, cr9
     cf8:	5a49535f 	bpl	1255a7c <__kernel_end+0x10f3a7c>
     cfc:	41540045 	cmpmi	r4, r5, asr #32
     d00:	45475f47 	strbmi	r5, [r7, #-3911]	; 0xfffff0b9
     d04:	4f505f54 	svcmi	0x00505f54
     d08:	5f524557 	svcpl	0x00524557
     d0c:	54415453 	strbpl	r5, [r1], #-1107	; 0xfffffbad
     d10:	65720045 	ldrbvs	r0, [r2, #-69]!	; 0xffffffbb
     d14:	746c7573 	strbtvc	r7, [ip], #-1395	; 0xfffffa8d
     d18:	47415400 	strbmi	r5, [r1, -r0, lsl #8]
     d1c:	5445475f 	strbpl	r4, [r5], #-1887	; 0xfffff8a1
     d20:	4d49545f 	cfstrdmi	mvd5, [r9, #-380]	; 0xfffffe84
     d24:	00474e49 	subeq	r4, r7, r9, asr #28
     d28:	656d6974 	strbvs	r6, [sp, #-2420]!	; 0xfffff68c
     d2c:	74003072 	strvc	r3, [r0], #-114	; 0xffffff8e
     d30:	72656d69 	rsbvc	r6, r5, #6720	; 0x1a40
     d34:	69740031 	ldmdbvs	r4!, {r0, r4, r5}^
     d38:	3272656d 	rsbscc	r6, r2, #457179136	; 0x1b400000
     d3c:	6d697400 	cfstrdvs	mvd7, [r9, #-0]
     d40:	00337265 	eorseq	r7, r3, r5, ror #4
     d44:	746e6975 	strbtvc	r6, [lr], #-2421	; 0xfffff68b
     d48:	745f3436 	ldrbvc	r3, [pc], #-1078	; d50 <SCTLR_ENABLE_BRANCH_PREDICTION+0x550>
     d4c:	6d697400 	cfstrdvs	mvd7, [r9, #-0]
     d50:	5f307265 	svcpl	0x00307265
     d54:	6374616d 	cmnvs	r4, #1073741851	; 0x4000001b
     d58:	00646568 	rsbeq	r6, r4, r8, ror #10
     d5c:	656d6974 	strbvs	r6, [sp, #-2420]!	; 0xfffff68c
     d60:	65735f72 	ldrbvs	r5, [r3, #-3954]!	; 0xfffff08e
     d64:	65720074 	ldrbvs	r0, [r2, #-116]!	; 0xffffff8c
     d68:	6c615673 	stclvs	6, cr5, [r1], #-460	; 0xfffffe34
     d6c:	65647500 	strbvs	r7, [r4, #-1280]!	; 0xfffffb00
     d70:	0079616c 	rsbseq	r6, r9, ip, ror #2
     d74:	656d6974 	strbvs	r6, [sp, #-2420]!	; 0xfffff68c
     d78:	65725f72 	ldrbvs	r5, [r2, #-3954]!	; 0xfffff08e
     d7c:	6c007367 	stcvs	3, cr7, [r0], {103}	; 0x67
     d80:	6f43776f 	svcvs	0x0043776f
     d84:	00746e75 	rsbseq	r6, r4, r5, ror lr
     d88:	656d6974 	strbvs	r6, [sp, #-2420]!	; 0xfffff68c
     d8c:	65675f72 	strbvs	r5, [r7, #-3954]!	; 0xfffff08e
     d90:	63695474 	cmnvs	r9, #116, 8	; 0x74000000
     d94:	756f436b 	strbvc	r4, [pc, #-875]!	; a31 <SCTLR_ENABLE_BRANCH_PREDICTION+0x231>
     d98:	3436746e 	ldrtcc	r7, [r6], #-1134	; 0xfffffb92
     d9c:	756f6300 	strbvc	r6, [pc, #-768]!	; aa4 <SCTLR_ENABLE_BRANCH_PREDICTION+0x2a4>
     da0:	7265746e 	rsbvc	r7, r5, #1845493760	; 0x6e000000
     da4:	6769685f 			; <UNDEFINED> instruction: 0x6769685f
     da8:	69740068 	ldmdbvs	r4!, {r3, r5, r6}^
     dac:	3272656d 	rsbscc	r6, r2, #457179136	; 0x1b400000
     db0:	74616d5f 	strbtvc	r6, [r1], #-3423	; 0xfffff2a1
     db4:	64656863 	strbtvs	r6, [r5], #-2147	; 0xfffff79d
     db8:	65737500 	ldrbvs	r7, [r3, #-1280]!	; 0xfffffb00
     dbc:	74007363 	strvc	r7, [r0], #-867	; 0xfffffc9d
     dc0:	72656d69 	rsbvc	r6, r5, #6720	; 0x1a40
     dc4:	616d5f33 	cmnvs	sp, r3, lsr pc
     dc8:	65686374 	strbvs	r6, [r8, #-884]!	; 0xfffffc8c
     dcc:	6f630064 	svcvs	0x00630064
     dd0:	65746e75 	ldrbvs	r6, [r4, #-3701]!	; 0xfffff18b
     dd4:	6f6c5f72 	svcvs	0x006c5f72
     dd8:	72610077 	rsbvc	r0, r1, #119	; 0x77
     ddc:	612f6863 			; <UNDEFINED> instruction: 0x612f6863
     de0:	732f6d72 			; <UNDEFINED> instruction: 0x732f6d72
     de4:	69747379 	ldmdbvs	r4!, {r0, r3, r4, r5, r6, r8, r9, ip, sp, lr}^
     de8:	2e72656d 	cdpcs	5, 7, cr6, cr2, cr13, {3}
     dec:	69680063 	stmdbvs	r8!, {r0, r1, r5, r6}^
     df0:	6f436867 	svcvs	0x00436867
     df4:	00746e75 	rsbseq	r6, r4, r5, ror lr
     df8:	72727563 	rsbsvc	r7, r2, #415236096	; 0x18c00000
     dfc:	6d697400 	cfstrdvs	mvd7, [r9, #-0]
     e00:	675f7265 	ldrbvs	r7, [pc, -r5, ror #4]
     e04:	69547465 	ldmdbvs	r4, {r0, r2, r5, r6, sl, ip, sp, lr}^
     e08:	6f436b63 	svcvs	0x00436b63
     e0c:	33746e75 	cmncc	r4, #1872	; 0x750
     e10:	6f630032 	svcvs	0x00630032
     e14:	00746e75 	rsbseq	r6, r4, r5, ror lr
     e18:	656d6974 	strbvs	r6, [sp, #-2420]!	; 0xfffff68c
     e1c:	65725f72 	ldrbvs	r5, [r2, #-3954]!	; 0xfffff08e
     e20:	74736967 	ldrbtvc	r6, [r3], #-2407	; 0xfffff699
     e24:	5f737265 	svcpl	0x00737265
     e28:	69740074 	ldmdbvs	r4!, {r2, r4, r5, r6}^
     e2c:	5f72656d 	svcpl	0x0072656d
     e30:	746e6f63 	strbtvc	r6, [lr], #-3939	; 0xfffff09d
     e34:	5f6c6f72 	svcpl	0x006c6f72
     e38:	5f676572 	svcpl	0x00676572
     e3c:	65720074 	ldrbvs	r0, [r2, #-116]!	; 0xffffff8c
     e40:	76726573 			; <UNDEFINED> instruction: 0x76726573
     e44:	74006465 	strvc	r6, [r0], #-1125	; 0xfffffb9b
     e48:	72656d69 	rsbvc	r6, r5, #6720	; 0x1a40
     e4c:	616d5f31 	cmnvs	sp, r1, lsr pc
     e50:	65686374 	strbvs	r6, [r8, #-884]!	; 0xfffffc8c
     e54:	74730064 	ldrbtvc	r0, [r3], #-100	; 0xffffff9c
     e58:	5f747261 	svcpl	0x00747261
     e5c:	00756d6d 	rsbseq	r6, r5, sp, ror #26
     e60:	67616c66 	strbvs	r6, [r1, -r6, ror #24]!
     e64:	6e690073 	mcrvs	0, 3, r0, cr9, cr3, {3}
     e68:	61697469 	cmnvs	r9, r9, ror #8
     e6c:	657a696c 	ldrbvs	r6, [sl, #-2412]!	; 0xfffff694
     e70:	7269765f 	rsbvc	r7, r9, #99614720	; 0x5f00000
     e74:	6c617574 	cfstr64vs	mvdx7, [r1], #-464	; 0xfffffe30
     e78:	6d656d5f 	stclvs	13, cr6, [r5, #-380]!	; 0xfffffe84
     e7c:	0079726f 	rsbseq	r7, r9, pc, ror #4
     e80:	6c626174 	stfvse	f6, [r2], #-464	; 0xfffffe30
     e84:	6e453165 	dvfvssz	f3, f5, f5
     e88:	4f797274 	svcmi	0x00797274
     e8c:	65736666 	ldrbvs	r6, [r3, #-1638]!	; 0xfffff99a
     e90:	61740074 	cmnvs	r4, r4, ror r0
     e94:	45656c62 	strbmi	r6, [r5, #-3170]!	; 0xfffff39e
     e98:	7972746e 	ldmdbvc	r2!, {r1, r2, r3, r5, r6, sl, ip, sp, lr}^
     e9c:	54555000 	ldrbpl	r5, [r5], #-0
     ea0:	6d003233 	sfmvs	f3, 4, [r0, #-204]	; 0xffffff34
     ea4:	762f6d65 	strtvc	r6, [pc], -r5, ror #26
     ea8:	6d747269 	lfmvs	f7, 2, [r4, #-420]!	; 0xfffffe5c
     eac:	632e6d65 			; <UNDEFINED> instruction: 0x632e6d65
     eb0:	62617400 	rsbvs	r7, r1, #0, 8
     eb4:	4531656c 	ldrmi	r6, [r1, #-1388]!	; 0xfffffa94
     eb8:	7972746e 	ldmdbvc	r2!, {r1, r2, r3, r5, r6, sl, ip, sp, lr}^
     ebc:	72646441 	rsbvc	r6, r4, #1090519040	; 0x41000000
     ec0:	00737365 	rsbseq	r7, r3, r5, ror #6
     ec4:	5f756d6d 	svcpl	0x00756d6d
     ec8:	74636573 	strbtvc	r6, [r3], #-1395	; 0xfffffa8d
     ecc:	006e6f69 	rsbeq	r6, lr, r9, ror #30
     ed0:	64646176 	strbtvs	r6, [r4], #-374	; 0xfffffe8a
     ed4:	6b5f5f00 	blvs	17d8adc <__kernel_end+0x1676adc>
     ed8:	656e7265 	strbvs	r7, [lr, #-613]!	; 0xfffffd9b
     edc:	6e655f6c 	cdpvs	15, 6, cr5, cr5, cr12, {3}
     ee0:	4d4d0064 	stclmi	0, cr0, [sp, #-400]	; 0xfffffe70
     ee4:	42415455 	submi	r5, r1, #1426063360	; 0x55000000
     ee8:	4142454c 	cmpmi	r2, ip, asr #10
     eec:	5f004553 	svcpl	0x00004553
     ef0:	7269665f 	rsbvc	r6, r9, #99614720	; 0x5f00000
     ef4:	6c5f7473 	cfldrdvs	mvd7, [pc], {115}	; 0x73
     ef8:	745f6c76 	ldrbvc	r6, [pc], #-3190	; f00 <SCTLR_ENABLE_BRANCH_PREDICTION+0x700>
     efc:	625f6c62 	subsvs	r6, pc, #25088	; 0x6200
     f00:	00657361 	rsbeq	r7, r5, r1, ror #6
     f04:	64646170 	strbtvs	r6, [r4], #-368	; 0xfffffe90
     f08:	74656700 	strbtvc	r6, [r5], #-1792	; 0xfffff900
     f0c:	6d756e5f 	ldclvs	14, cr6, [r5, #-380]!	; 0xfffffe84
     f10:	5f666f5f 	svcpl	0x00666f5f
     f14:	65657266 	strbvs	r7, [r5, #-614]!	; 0xfffffd9a
     f18:	6761705f 			; <UNDEFINED> instruction: 0x6761705f
     f1c:	70007365 	andvc	r7, r0, r5, ror #6
     f20:	6c656761 	stclvs	7, cr6, [r5], #-388	; 0xfffffe7c
     f24:	00747369 	rsbseq	r7, r4, r9, ror #6
     f28:	6f6c6c61 	svcvs	0x006c6c61
     f2c:	61705f63 	cmnvs	r0, r3, ror #30
     f30:	6b006567 	blvs	1a4d4 <__bss_end+0x44d4>
     f34:	656e7265 	strbvs	r7, [lr, #-613]!	; 0xfffffd9b
     f38:	61705f6c 	cmnvs	r0, ip, ror #30
     f3c:	00736567 	rsbseq	r6, r3, r7, ror #10
     f40:	65676170 	strbvs	r6, [r7, #-368]!	; 0xfffffe90
     f44:	7272615f 	rsbsvc	r6, r2, #-1073741801	; 0xc0000017
     f48:	6c5f7961 	mrrcvs	9, 6, r7, pc, cr1	; <UNPREDICTABLE>
     f4c:	70006e65 	andvc	r6, r0, r5, ror #28
     f50:	5f6b6565 	svcpl	0x006b6565
     f54:	65676170 	strbvs	r6, [r7, #-368]!	; 0xfffffe90
     f58:	73696c5f 	cmnvc	r9, #24320	; 0x5f00
     f5c:	65670074 	strbvs	r0, [r7, #-116]!	; 0xffffff8c
     f60:	656d5f74 	strbvs	r5, [sp, #-3956]!	; 0xfffff08c
     f64:	69735f6d 	ldmdbvs	r3!, {r0, r2, r3, r5, r6, r8, r9, sl, fp, ip, lr}^
     f68:	7000657a 	andvc	r6, r0, sl, ror r5
     f6c:	5f656761 	svcpl	0x00656761
     f70:	67616c66 	strbvs	r6, [r1, -r6, ror #24]!
     f74:	00745f73 	rsbseq	r5, r4, r3, ror pc
     f78:	65676170 	strbvs	r6, [r7, #-368]!	; 0xfffffe90
     f7c:	6e00745f 	cfmvsrvs	mvf0, r7
     f80:	70747865 	rsbsvc	r7, r4, r5, ror #16
     f84:	00656761 	rsbeq	r6, r5, r1, ror #14
     f88:	65657266 	strbvs	r7, [r5, #-614]!	; 0xfffffd9a
     f8c:	6761705f 			; <UNDEFINED> instruction: 0x6761705f
     f90:	61740065 	cmnvs	r4, r5, rrx
     f94:	6e006c69 	cdpvs	12, 0, cr6, cr0, cr9, {3}
     f98:	5f747865 	svcpl	0x00747865
     f9c:	65676170 	strbvs	r6, [r7, #-368]!	; 0xfffffe90
     fa0:	73696c5f 	cmnvc	r9, #24320	; 0x5f00
     fa4:	6f6e0074 	svcvs	0x006e0074
     fa8:	6b006564 	blvs	1a540 <__bss_end+0x4540>
     fac:	656e7265 	strbvs	r7, [lr, #-613]!	; 0xfffffd9b
     fb0:	61705f6c 	cmnvs	r0, ip, ror #30
     fb4:	70006567 	andvc	r6, r0, r7, ror #10
     fb8:	5f687375 	svcpl	0x00687375
     fbc:	65676170 	strbvs	r6, [r7, #-368]!	; 0xfffffe90
     fc0:	73696c5f 	cmnvc	r9, #24320	; 0x5f00
     fc4:	656d0074 	strbvs	r0, [sp, #-116]!	; 0xffffff8c
     fc8:	6e695f6d 	cdpvs	15, 6, cr5, cr9, cr13, {3}
     fcc:	6d007469 	cfstrsvs	mvf7, [r0, #-420]	; 0xfffffe5c
     fd0:	702f6d65 	eorvc	r6, pc, r5, ror #26
     fd4:	6d737968 	ldclvs	9, cr7, [r3, #-416]!	; 0xfffffe60
     fd8:	632e6d65 			; <UNDEFINED> instruction: 0x632e6d65
     fdc:	706f7000 	rsbvc	r7, pc, r0
     fe0:	6761705f 			; <UNDEFINED> instruction: 0x6761705f
     fe4:	696c5f65 	stmdbvs	ip!, {r0, r2, r5, r6, r8, r9, sl, fp, ip, lr}^
     fe8:	68007473 	stmdavs	r0, {r0, r1, r4, r5, r6, sl, ip, sp, lr}
     fec:	00646165 	rsbeq	r6, r4, r5, ror #2
     ff0:	65676170 	strbvs	r6, [r7, #-368]!	; 0xfffffe90
     ff4:	73696c5f 	cmnvc	r9, #24320	; 0x5f00
     ff8:	00745f74 	rsbseq	r5, r4, r4, ror pc
     ffc:	5f6d756e 	svcpl	0x006d756e
    1000:	65676170 	strbvs	r6, [r7, #-368]!	; 0xfffffe90
    1004:	72610073 	rsbvc	r0, r1, #115	; 0x73
    1008:	656d5f6d 	strbvs	r5, [sp, #-3949]!	; 0xfffff093
    100c:	69735f6d 	ldmdbvs	r3!, {r0, r2, r3, r5, r6, r8, r9, sl, fp, ip, lr}^
    1010:	7600657a 			; <UNDEFINED> instruction: 0x7600657a
    1014:	72646461 	rsbvc	r6, r4, #1627389952	; 0x61000000
    1018:	70616d5f 	rsbvc	r6, r1, pc, asr sp
    101c:	00646570 	rsbeq	r6, r4, r0, ror r5
    1020:	6f6c6c61 	svcvs	0x006c6c61
    1024:	65746163 	ldrbvs	r6, [r4, #-355]!	; 0xfffffe9d
    1028:	69730064 	ldmdbvs	r3!, {r2, r5, r6}^
    102c:	705f657a 	subsvc	r6, pc, sl, ror r5	; <UNPREDICTABLE>
    1030:	5f656761 	svcpl	0x00656761
    1034:	7473696c 	ldrbtvc	r6, [r3], #-2412	; 0xfffff694
    1038:	70706100 	rsbsvc	r6, r0, r0, lsl #2
    103c:	5f646e65 	svcpl	0x00646e65
    1040:	65676170 	strbvs	r6, [r7, #-368]!	; 0xfffffe90
    1044:	73696c5f 	cmnvc	r9, #24320	; 0x5f00
    1048:	61700074 	cmnvs	r0, r4, ror r0
    104c:	6d5f6567 	cfldr64vs	mvdx6, [pc, #-412]	; eb8 <SCTLR_ENABLE_BRANCH_PREDICTION+0x6b8>
    1050:	70006d65 	andvc	r6, r0, r5, ror #26
    1054:	70766572 	rsbsvc	r6, r6, r2, ror r5
    1058:	00656761 	rsbeq	r6, r5, r1, ror #14
    105c:	5f6c6c61 	svcpl	0x006c6c61
    1060:	65676170 	strbvs	r6, [r7, #-368]!	; 0xfffffe90
    1064:	72615f73 	rsbvc	r5, r1, #460	; 0x1cc
    1068:	00796172 	rsbseq	r6, r9, r2, ror r1
    106c:	6f696d6d 	svcvs	0x00696d6d
    1070:	6972775f 	ldmdbvs	r2!, {r0, r1, r2, r3, r4, r6, r8, r9, sl, ip, sp, lr}^
    1074:	6d006574 	cfstr32vs	mvfx6, [r0, #-464]	; 0xfffffe30
    1078:	5f6f696d 	svcpl	0x006f696d
    107c:	64616572 	strbtvs	r6, [r1], #-1394	; 0xfffffa8e
    1080:	52415500 	subpl	r5, r1, #0, 10
    1084:	4d5f3054 	ldclmi	0, cr3, [pc, #-336]	; f3c <SCTLR_ENABLE_BRANCH_PREDICTION+0x73c>
    1088:	55005349 	strpl	r5, [r0, #-841]	; 0xfffffcb7
    108c:	30545241 	subscc	r5, r4, r1, asr #4
    1090:	0052445f 	subseq	r4, r2, pc, asr r4
    1094:	54524155 	ldrbpl	r4, [r2], #-341	; 0xfffffeab
    1098:	41425f30 	cmpmi	r2, r0, lsr pc
    109c:	55004553 	strpl	r4, [r0, #-1363]	; 0xfffffaad
    10a0:	30545241 	subscc	r5, r4, r1, asr #4
    10a4:	4f54495f 	svcmi	0x0054495f
    10a8:	50470050 	subpl	r0, r7, r0, asr r0
    10ac:	43445550 	movtmi	r5, #17744	; 0x4550
    10b0:	00304b4c 	eorseq	r4, r0, ip, asr #22
    10b4:	74726175 	ldrbtvc	r6, [r2], #-373	; 0xfffffe8b
    10b8:	696e695f 	stmdbvs	lr!, {r0, r1, r2, r3, r4, r6, r8, fp, sp, lr}^
    10bc:	50470074 	subpl	r0, r7, r4, ror r0
    10c0:	00445550 	subeq	r5, r4, r0, asr r5
    10c4:	74726175 	ldrbtvc	r6, [r2], #-373	; 0xfffffe8b
    10c8:	7465675f 	strbtvc	r6, [r5], #-1887	; 0xfffff8a1
    10cc:	41550063 	cmpmi	r5, r3, rrx
    10d0:	5f305452 	svcpl	0x00305452
    10d4:	44524249 	ldrbmi	r4, [r2], #-585	; 0xfffffdb7
    10d8:	52415500 	subpl	r5, r1, #0, 10
    10dc:	465f3054 			; <UNDEFINED> instruction: 0x465f3054
    10e0:	41550052 	cmpmi	r5, r2, asr r0
    10e4:	5f305452 	svcpl	0x00305452
    10e8:	4852434c 	ldmdami	r2, {r2, r3, r6, r8, r9, lr}^
    10ec:	52415500 	subpl	r5, r1, #0, 10
    10f0:	525f3054 	subspl	r3, pc, #84	; 0x54
    10f4:	55005349 	strpl	r5, [r0, #-841]	; 0xfffffcb7
    10f8:	30545241 	subscc	r5, r4, r1, asr #4
    10fc:	5243495f 	subpl	r4, r3, #1556480	; 0x17c000
    1100:	76656400 	strbtvc	r6, [r5], -r0, lsl #8
    1104:	2f656369 	svccs	0x00656369
    1108:	74726175 	ldrbtvc	r6, [r2], #-373	; 0xfffffe8b
    110c:	00632e30 	rsbeq	r2, r3, r0, lsr lr
    1110:	54524155 	ldrbpl	r4, [r2], #-341	; 0xfffffeab
    1114:	53525f30 	cmppl	r2, #48, 30	; 0xc0
    1118:	52434552 	subpl	r4, r3, #343932928	; 0x14800000
    111c:	52415500 	subpl	r5, r1, #0, 10
    1120:	445f3054 	ldrbmi	r3, [pc], #-84	; 1128 <SCTLR_ENABLE_INSTRUCTION_CACHE+0x128>
    1124:	5243414d 	subpl	r4, r3, #1073741843	; 0x40000013
    1128:	52415500 	subpl	r5, r1, #0, 10
    112c:	495f3054 	ldmdbmi	pc, {r2, r4, r6, ip, sp}^	; <UNPREDICTABLE>
    1130:	0043534d 	subeq	r5, r3, sp, asr #6
    1134:	54524155 	ldrbpl	r4, [r2], #-341	; 0xfffffeab
    1138:	46495f30 			; <UNDEFINED> instruction: 0x46495f30
    113c:	6800534c 	stmdavs	r0, {r2, r3, r6, r8, r9, ip, lr}
    1140:	74737865 	ldrbtvc	r7, [r3], #-2149	; 0xfffff79b
    1144:	676e6972 			; <UNDEFINED> instruction: 0x676e6972
    1148:	50470073 	subpl	r0, r7, r3, ror r0
    114c:	425f4f49 	subsmi	r4, pc, #292	; 0x124
    1150:	00455341 	subeq	r5, r5, r1, asr #6
    1154:	54524155 	ldrbpl	r4, [r2], #-341	; 0xfffffeab
    1158:	52435f30 	subpl	r5, r3, #48, 30	; 0xc0
    115c:	52415500 	subpl	r5, r1, #0, 10
    1160:	495f3054 	ldmdbmi	pc, {r2, r4, r6, ip, sp}^	; <UNPREDICTABLE>
    1164:	00524354 	subseq	r4, r2, r4, asr r3
    1168:	54524155 	ldrbpl	r4, [r2], #-341	; 0xfffffeab
    116c:	44545f30 	ldrbmi	r5, [r4], #-3888	; 0xfffff0d0
    1170:	41550052 	cmpmi	r5, r2, asr r0
    1174:	5f305452 	svcpl	0x00305452
    1178:	44524246 	ldrbmi	r4, [r2], #-582	; 0xfffffdba
    117c:	52415500 	subpl	r5, r1, #0, 10
    1180:	495f3054 	ldmdbmi	pc, {r2, r4, r6, ip, sp}^	; <UNPREDICTABLE>
    1184:	0052504c 	subseq	r5, r2, ip, asr #32
    1188:	74726175 	ldrbtvc	r6, [r2], #-373	; 0xfffffe8b
    118c:	7475705f 	ldrbtvc	r7, [r5], #-95	; 0xffffffa1
    1190:	41550063 	cmpmi	r5, r3, rrx
    1194:	5f305452 	svcpl	0x00305452
    1198:	50495449 	subpl	r5, r9, r9, asr #8
    119c:	73656400 	cmnvc	r5, #0, 8
    11a0:	656e0074 	strbvs	r0, [lr, #-116]!	; 0xffffff8c
    11a4:	44007478 	strmi	r7, [r0], #-1144	; 0xfffffb88
    11a8:	47554245 	ldrbmi	r4, [r5, -r5, asr #4]
    11ac:	6f687300 	svcvs	0x00687300
    11b0:	6d645f77 	stclvs	15, cr5, [r4, #-476]!	; 0xfffffe24
    11b4:	65645f61 	strbvs	r5, [r4, #-3937]!	; 0xfffff09f
    11b8:	64006f6d 	strvs	r6, [r0], #-3949	; 0xfffff093
    11bc:	615f7473 	cmpvs	pc, r3, ror r4	; <UNPREDICTABLE>
    11c0:	00726464 	rsbseq	r6, r2, r4, ror #8
    11c4:	5f616d64 	svcpl	0x00616d64
    11c8:	74736564 	ldrbtvc	r6, [r3], #-1380	; 0xfffffa9c
    11cc:	6761705f 			; <UNDEFINED> instruction: 0x6761705f
    11d0:	00315f65 	eorseq	r5, r1, r5, ror #30
    11d4:	5f616d64 	svcpl	0x00616d64
    11d8:	74736564 	ldrbtvc	r6, [r3], #-1380	; 0xfffffa9c
    11dc:	6761705f 			; <UNDEFINED> instruction: 0x6761705f
    11e0:	00325f65 	eorseq	r5, r2, r5, ror #30
    11e4:	52554f53 	subspl	r4, r5, #332	; 0x14c
    11e8:	415f4543 	cmpmi	pc, r3, asr #10
    11ec:	65640044 	strbvs	r0, [r4, #-68]!	; 0xffffffbc
    11f0:	65636976 	strbvs	r6, [r3, #-2422]!	; 0xfffff68a
    11f4:	616d642f 	cmnvs	sp, pc, lsr #8
    11f8:	7000632e 	andvc	r6, r0, lr, lsr #6
    11fc:	746e6972 	strbtvc	r6, [lr], #-2418	; 0xfffff68e
    1200:	6572615f 	ldrbvs	r6, [r2, #-351]!	; 0xfffffea1
    1204:	72730061 	rsbsvc	r0, r3, #97	; 0x61
    1208:	64615f63 	strbtvs	r5, [r1], #-3939	; 0xfffff09d
    120c:	64007264 	strvs	r7, [r0], #-612	; 0xfffffd9c
    1210:	735f616d 	cmpvc	pc, #1073741851	; 0x4000001b
    1214:	705f6372 	subsvc	r6, pc, r2, ror r3	; <UNPREDICTABLE>
    1218:	5f656761 	svcpl	0x00656761
    121c:	6d640031 	stclvs	0, cr0, [r4, #-196]!	; 0xffffff3c
    1220:	5f305f61 	svcpl	0x00305f61
    1224:	5f717269 	svcpl	0x00717269
    1228:	61656c63 	cmnvs	r5, r3, ror #24
    122c:	00726572 	rsbseq	r6, r2, r2, ror r5
    1230:	49525453 	ldmdbmi	r2, {r0, r1, r4, r6, sl, ip, lr}^
    1234:	44004544 	strmi	r4, [r0], #-1348	; 0xfffffabc
    1238:	5f545345 	svcpl	0x00545345
    123c:	64004441 	strvs	r4, [r0], #-1089	; 0xfffffbbf
    1240:	635f616d 	cmpvs	pc, #1073741851	; 0x4000001b
    1244:	61705f62 	cmnvs	r0, r2, ror #30
    1248:	77006567 	strvc	r6, [r0, -r7, ror #10]
    124c:	65746972 	ldrbvs	r6, [r4, #-2418]!	; 0xfffff68e
    1250:	6d746942 	ldclvs	9, cr6, [r4, #-264]!	; 0xfffffef8
    1254:	656b7361 	strbvs	r7, [fp, #-865]!	; 0xfffffc9f
    1258:	58540064 	ldmdapl	r4, {r2, r5, r6}^
    125c:	4c5f5246 	lfmmi	f5, 2, [pc], {70}	; 0x46
    1260:	4e004e45 	cdpmi	14, 0, cr4, cr0, cr5, {2}
    1264:	43545845 	cmpmi	r4, #4521984	; 0x450000
    1268:	4b424e4f 	blmi	1094bac <__kernel_end+0xf32bac>
    126c:	616d6400 	cmnvs	sp, r0, lsl #8
    1270:	754e6843 	strbvc	r6, [lr, #-2115]	; 0xfffff7bd
    1274:	7473006d 	ldrbtvc	r0, [r3], #-109	; 0xffffff93
    1278:	65646972 	strbvs	r6, [r4, #-2418]!	; 0xfffff68e
    127c:	616d6400 	cmnvs	sp, r0, lsl #8
    1280:	64616548 	strbtvs	r6, [r1], #-1352	; 0xfffffab8
    1284:	62007265 	andvs	r7, r0, #1342177286	; 0x50000006
    1288:	38326d63 	ldmdacc	r2!, {r0, r1, r5, r6, r8, sl, fp, sp, lr}
    128c:	645f3533 	ldrbvs	r3, [pc], #-1331	; 1294 <SCTLR_ENABLE_INSTRUCTION_CACHE+0x294>
    1290:	635f616d 	cmpvs	pc, #1073741851	; 0x4000001b
    1294:	4f430062 	svcmi	0x00430062
    1298:	4b4c424e 	blmi	1311bd8 <__kernel_end+0x11afbd8>
    129c:	0044415f 	subeq	r4, r4, pc, asr r1
    12a0:	42616d64 	rsbmi	r6, r1, #100, 26	; 0x1900
    12a4:	4d657361 	stclmi	3, cr7, [r5, #-388]!	; 0xfffffe7c
    12a8:	64006d65 	strvs	r6, [r0], #-3429	; 0xfffff29b
    12ac:	5f617461 	svcpl	0x00617461
    12b0:	676e656c 	strbvs	r6, [lr, -ip, ror #10]!
    12b4:	44006874 	strmi	r6, [r0], #-2164	; 0xfffff78c
    12b8:	6843616d 	stmdavs	r3, {r0, r2, r3, r5, r6, r8, sp, lr}^
    12bc:	656e6e61 	strbvs	r6, [lr, #-3681]!	; 0xfffff19f
    12c0:	6165486c 	cmnvs	r5, ip, ror #16
    12c4:	00726564 	rsbseq	r6, r2, r4, ror #10
    12c8:	6b73616d 	blvs	1cd9884 <__kernel_end+0x1b77884>
    12cc:	666e6900 	strbtvs	r6, [lr], -r0, lsl #18
    12d0:	6d64006f 	stclvs	0, cr0, [r4, #-444]!	; 0xfffffe44
    12d4:	5f305f61 	svcpl	0x00305f61
    12d8:	5f717269 	svcpl	0x00717269
    12dc:	646e6168 	strbtvs	r6, [lr], #-360	; 0xfffffe98
    12e0:	0072656c 	rsbseq	r6, r2, ip, ror #10
    12e4:	79706f63 	ldmdbvc	r0!, {r0, r1, r5, r6, r8, r9, sl, fp, sp, lr}^
    12e8:	63727300 	cmnvs	r2, #0, 6
    12ec:	7274705f 	rsbsvc	r7, r4, #95	; 0x5f
    12f0:	74616400 	strbtvc	r6, [r1], #-1024	; 0xfffffc00
    12f4:	72615f61 	rsbvc	r5, r1, #388	; 0x184
    12f8:	00796172 	rsbseq	r6, r9, r2, ror r1
    12fc:	69706c55 	ldmdbvs	r0!, {r0, r2, r4, r6, sl, fp, sp, lr}^
    1300:	76697244 	strbtvc	r7, [r9], -r4, asr #4
    1304:	74784565 	ldrbtvc	r4, [r8], #-1381	; 0xfffffa9b
    1308:	616e7265 	cmnvs	lr, r5, ror #4
    130c:	7562566c 	strbvc	r5, [r2, #-1644]!	; 0xfffff994
    1310:	6f660073 	svcvs	0x00660073
    1314:	5f656372 	svcpl	0x00656372
    1318:	74736f68 	ldrbtvc	r6, [r3], #-3944	; 0xfffff098
    131c:	646f6d5f 	strbtvs	r6, [pc], #-3423	; 1324 <SCTLR_ENABLE_INSTRUCTION_CACHE+0x324>
    1320:	65520065 	ldrbvs	r0, [r2, #-101]	; 0xffffff9b
    1324:	746e4967 	strbtvc	r4, [lr], #-2407	; 0xfffff699
    1328:	75727265 	ldrbvc	r7, [r2, #-613]!	; 0xfffffd9b
    132c:	52007470 	andpl	r7, r0, #112, 8	; 0x70000000
    1330:	73556765 	cmpvc	r5, #26476544	; 0x1940000
    1334:	72530062 	subsvc	r0, r3, #98	; 0x62
    1338:	70614370 	rsbvc	r4, r1, r0, ror r3
    133c:	656c6261 	strbvs	r6, [ip, #-609]!	; 0xfffffd9f
    1340:	67655200 	strbvs	r5, [r5, -r0, lsl #4]!
    1344:	65636552 	strbvs	r6, [r3, #-1362]!	; 0xfffffaae
    1348:	53657669 	cmnpl	r5, #110100480	; 0x6900000
    134c:	00657a69 	rsbeq	r7, r5, r9, ror #20
    1350:	755f6369 	ldrbvc	r6, [pc, #-873]	; fef <SCTLR_ENABLE_BRANCH_PREDICTION+0x7ef>
    1354:	635f6273 	cmpvs	pc, #805306375	; 0x30000007
    1358:	62617061 	rsbvs	r7, r1, #97	; 0x61
    135c:	7000656c 	andvc	r6, r0, ip, ror #10
    1360:	65737968 	ldrbvs	r7, [r3, #-2408]!	; 0xfffff698
    1364:	7375006c 	cmnvc	r5, #108	; 0x6c
    1368:	64727462 	ldrbtvs	r7, [r2], #-1122	; 0xfffffb9e
    136c:	006d6974 	rsbeq	r6, sp, r4, ror r9
    1370:	4c676552 	cfstr64mi	mvdx6, [r7], #-328	; 0xfffffeb8
    1374:	6f50776f 	svcvs	0x0050776f
    1378:	4d726577 	cfldr64mi	mvdx6, [r2, #-476]!	; 0xfffffe24
    137c:	4365646f 	cmnmi	r5, #1862270976	; 0x6f000000
    1380:	69666e6f 	stmdbvs	r6!, {r0, r1, r2, r3, r5, r6, r9, sl, fp, sp, lr}^
    1384:	74617567 	strbtvc	r7, [r1], #-1383	; 0xfffffa99
    1388:	006e6f69 	rsbeq	r6, lr, r9, ror #30
    138c:	65726f43 	ldrbvs	r6, [r2, #-3907]!	; 0xfffff0bd
    1390:	65736552 	ldrbvs	r6, [r3, #-1362]!	; 0xfffffaae
    1394:	6f630074 	svcvs	0x00630074
    1398:	73556572 	cmpvc	r5, #478150656	; 0x1c800000
    139c:	725f0062 	subsvc	r0, pc, #98	; 0x62
    13a0:	72657365 	rsbvc	r7, r5, #-1811939327	; 0x94000001
    13a4:	33646576 	cmncc	r4, #494927872	; 0x1d800000
    13a8:	54550031 	ldrbpl	r0, [r5], #-49	; 0xffffffcf
    13ac:	5200494d 	andpl	r4, r0, #1261568	; 0x134000
    13b0:	6f506765 	svcvs	0x00506765
    13b4:	00726577 	rsbseq	r6, r2, r7, ror r5
    13b8:	5f627375 	svcpl	0x00627375
    13bc:	74696e69 	strbtvc	r6, [r9], #-3689	; 0xfffff197
    13c0:	696c6169 	stmdbvs	ip!, {r0, r3, r5, r6, r8, sp, lr}^
    13c4:	52006573 	andpl	r6, r0, #482344960	; 0x1cc00000
    13c8:	68416765 	stmdavs	r1, {r0, r2, r5, r6, r8, r9, sl, sp, lr}^
    13cc:	65520062 	ldrbvs	r0, [r2, #-98]	; 0xffffff9e
    13d0:	65735567 	ldrbvs	r5, [r3, #-1383]!	; 0xfffffa99
    13d4:	00644972 	rsbeq	r4, r4, r2, ror r9
    13d8:	47676552 			; <UNDEFINED> instruction: 0x47676552
    13dc:	006f6970 	rsbeq	r6, pc, r0, ror r9	; <UNPREDICTABLE>
    13e0:	43627355 	cmnmi	r2, #1409286145	; 0x54000001
    13e4:	72746e6f 	rsbsvc	r6, r4, #1776	; 0x6f0
    13e8:	76006c6f 	strvc	r6, [r0], -pc, ror #24
    13ec:	6f646e65 	svcvs	0x00646e65
    13f0:	64695f72 	strbtvs	r5, [r9], #-3954	; 0xfffff08e
    13f4:	69726f00 	ldmdbvs	r2!, {r8, r9, sl, fp, sp, lr}^
    13f8:	616e6967 	cmnvs	lr, r7, ror #18
    13fc:	69745f6c 	ldmdbvs	r4!, {r2, r3, r5, r6, r8, r9, sl, fp, ip, lr}^
    1400:	52006b63 	andpl	r6, r0, #101376	; 0x18c00
    1404:	69656365 	stmdbvs	r5!, {r0, r2, r5, r6, r8, r9, sp, lr}^
    1408:	69466576 	stmdbvs	r6, {r1, r2, r4, r5, r6, r8, sl, sp, lr}^
    140c:	6c466f66 	mcrrvs	15, 6, r6, r6, cr6
    1410:	00687375 	rsbeq	r7, r8, r5, ror r3
    1414:	49676552 	stmdbmi	r7!, {r1, r4, r6, r8, sl, sp, lr}^
    1418:	7265746e 	rsbvc	r7, r5, #1845493760	; 0x6e000000
    141c:	74707572 	ldrbtvc	r7, [r0], #-1394	; 0xfffffa8e
    1420:	6b73614d 	blvs	1cd995c <__kernel_end+0x1b7795c>
    1424:	64636800 	strbtvs	r6, [r3], #-2048	; 0xfffff800
    1428:	6174735f 	cmnvs	r4, pc, asr r3
    142c:	54007472 	strpl	r7, [r0], #-1138	; 0xfffffb8e
    1430:	736e6172 	cmnvc	lr, #-2147483620	; 0x8000001c
    1434:	4674696d 	ldrbtmi	r6, [r4], -sp, ror #18
    1438:	466f6669 	strbtmi	r6, [pc], -r9, ror #12
    143c:	6873756c 	ldmdavs	r3!, {r2, r3, r5, r6, r8, sl, ip, sp, lr}^
    1440:	626d754e 	rsbvs	r7, sp, #327155712	; 0x13800000
    1444:	4d007265 	sfmmi	f7, 4, [r0, #-404]	; 0xfffffe6c
    1448:	5365646f 	cmnpl	r5, #1862270976	; 0x6f000000
    144c:	63656c65 	cmnvs	r5, #25856	; 0x6500
    1450:	65520074 	ldrbvs	r0, [r2, #-116]	; 0xffffff8c
    1454:	73694d67 	cmnvc	r9, #6592	; 0x19c0
    1458:	6e6f4363 	cdpvs	3, 6, cr4, cr15, cr3, {3}
    145c:	6c6f7274 	sfmvs	f7, 2, [pc], #-464	; 1294 <SCTLR_ENABLE_INSTRUCTION_CACHE+0x294>
    1460:	67655200 	strbvs	r5, [r5, -r0, lsl #4]!
    1464:	56796850 			; <UNDEFINED> instruction: 0x56796850
    1468:	6f646e65 	svcvs	0x00646e65
    146c:	6e6f4372 	mcrvs	3, 3, r4, cr15, cr2, {3}
    1470:	6c6f7274 	sfmvs	f7, 2, [pc], #-464	; 12a8 <SCTLR_ENABLE_INSTRUCTION_CACHE+0x2a8>
    1474:	64636800 	strbtvs	r6, [r3], #-2048	; 0xfffff800
    1478:	7365725f 	cmnvc	r5, #-268435451	; 0xf0000005
    147c:	52007465 	andpl	r7, r0, #1694498816	; 0x65000000
    1480:	32496765 	subcc	r6, r9, #26476544	; 0x1940000
    1484:	6e6f4363 	cdpvs	3, 6, cr4, cr15, cr3, {3}
    1488:	6c6f7274 	sfmvs	f7, 2, [pc], #-464	; 12c0 <SCTLR_ENABLE_INSTRUCTION_CACHE+0x2c0>
    148c:	6d657400 	cfstrdvs	mvd7, [r5, #-0]
    1490:	65640070 	strbvs	r0, [r4, #-112]!	; 0xffffff90
    1494:	65636976 	strbvs	r6, [r3, #-2422]!	; 0xfffff68a
    1498:	6273752f 	rsbsvs	r7, r3, #197132288	; 0xbc00000
    149c:	7500632e 	strvc	r6, [r0, #-814]	; 0xfffffcd2
    14a0:	5f69706c 	svcpl	0x0069706c
    14a4:	5f6b6c63 	svcpl	0x006b6c63
    14a8:	5f737573 	svcpl	0x00737573
    14ac:	6f43006d 	svcvs	0x0043006d
    14b0:	65526572 	ldrbvs	r6, [r2, #-1394]	; 0xfffffa8e
    14b4:	74736967 	ldrbtvc	r6, [r3], #-2407	; 0xfffff699
    14b8:	00737265 	rsbseq	r7, r3, r5, ror #4
    14bc:	69646e69 	stmdbvs	r4!, {r0, r3, r5, r6, r9, sl, fp, sp, lr}^
    14c0:	6f746163 	svcvs	0x00746163
    14c4:	6f635f72 	svcvs	0x00635f72
    14c8:	656c706d 	strbvs	r7, [ip, #-109]!	; 0xffffff93
    14cc:	746e656d 	strbtvc	r6, [lr], #-1389	; 0xfffffa93
    14d0:	67655200 	strbvs	r5, [r5, -r0, lsl #4]!
    14d4:	65636552 	strbvs	r6, [r3, #-1362]!	; 0xfffffaae
    14d8:	50657669 	rsbpl	r7, r5, r9, ror #12
    14dc:	006b6565 	rsbeq	r6, fp, r5, ror #10
    14e0:	74736f48 	ldrbtvc	r6, [r3], #-3912	; 0xfffff0b8
    14e4:	6d617246 	sfmvs	f7, 2, [r1, #-280]!	; 0xfffffee8
    14e8:	756f4365 	strbvc	r4, [pc, #-869]!	; 118b <SCTLR_ENABLE_INSTRUCTION_CACHE+0x18b>
    14ec:	7265746e 	rsbvc	r7, r5, #1845493760	; 0x6e000000
    14f0:	62684100 	rsbvs	r4, r8, #0, 2
    14f4:	7473614d 	ldrbtvc	r6, [r3], #-333	; 0xfffffeb3
    14f8:	64497265 	strbvs	r7, [r9], #-613	; 0xfffffd9b
    14fc:	5200656c 	andpl	r6, r0, #108, 10	; 0x1b000000
    1500:	6f4e6765 	svcvs	0x004e6765
    1504:	7265506e 	rsbvc	r5, r5, #110	; 0x6e
    1508:	69646f69 	stmdbvs	r4!, {r0, r3, r5, r6, r8, r9, sl, fp, sp, lr}^
    150c:	66694663 	strbtvs	r4, [r9], -r3, ror #12
    1510:	6174536f 	cmnvs	r4, pc, ror #6
    1514:	00737574 	rsbseq	r7, r3, r4, ror r5
    1518:	655f7874 	ldrbvs	r7, [pc, #-2164]	; cac <SCTLR_ENABLE_BRANCH_PREDICTION+0x4ac>
    151c:	645f646e 	ldrbvs	r6, [pc], #-1134	; 1524 <SCTLR_ENABLE_INSTRUCTION_CACHE+0x524>
    1520:	79616c65 	stmdbvc	r1!, {r0, r2, r5, r6, sl, fp, sp, lr}^
    1524:	67655200 	strbvs	r5, [r5, -r0, lsl #4]!
    1528:	65736552 	ldrbvs	r6, [r3, #-1362]!	; 0xfffffaae
    152c:	6c750074 	ldclvs	0, cr0, [r5], #-464	; 0xfffffe30
    1530:	695f6970 	ldmdbvs	pc, {r4, r5, r6, r8, fp, sp, lr}^	; <UNPREDICTABLE>
    1534:	765f746e 	ldrbvc	r7, [pc], -lr, ror #8
    1538:	5f737562 	svcpl	0x00737562
    153c:	69646e69 	stmdbvs	r4!, {r0, r3, r5, r6, r9, sl, fp, sp, lr}^
    1540:	6f746163 	svcvs	0x00746163
    1544:	75740072 	ldrbvc	r0, [r4, #-114]!	; 0xffffff8e
    1548:	6f5f6e72 	svcvs	0x005f6e72
    154c:	755f6666 	ldrbvc	r6, [pc, #-1638]	; eee <SCTLR_ENABLE_BRANCH_PREDICTION+0x6ee>
    1550:	52006273 	andpl	r6, r0, #805306375	; 0x30000007
    1554:	61486765 	cmpvs	r8, r5, ror #14
    1558:	61776472 	cmnvs	r7, r2, ror r4
    155c:	52006572 	andpl	r6, r0, #478150656	; 0x1c800000
    1560:	744f6765 	strbvc	r6, [pc], #-1893	; 1568 <SCTLR_ENABLE_INSTRUCTION_CACHE+0x568>
    1564:	746e4967 	strbtvc	r4, [lr], #-2407	; 0xfffff699
    1568:	75727265 	ldrbvc	r7, [r2, #-613]!	; 0xfffffd9b
    156c:	66007470 			; <UNDEFINED> instruction: 0x66007470
    1570:	746e6973 	strbtvc	r6, [lr], #-2419	; 0xfffff68d
    1574:	73540066 	cmpvc	r4, #102	; 0x66
    1578:	6e696c44 	cdpvs	12, 6, cr6, cr9, cr4, {2}
    157c:	6c755065 	ldclvs	0, cr5, [r5], #-404	; 0xfffffe6c
    1580:	6e456573 	mcrvs	5, 2, r6, cr5, cr3, {3}
    1584:	656c6261 	strbvs	r6, [ip, #-609]!	; 0xfffffd9f
    1588:	79685000 	stmdbvc	r8!, {ip, lr}^
    158c:	65746e49 	ldrbvs	r6, [r4, #-3657]!	; 0xfffff1b7
    1590:	63616672 	cmnvs	r1, #119537664	; 0x7200000
    1594:	65520065 	ldrbvs	r0, [r2, #-101]	; 0xffffff9b
    1598:	6e655667 	cdpvs	6, 6, cr5, cr5, cr7, {3}
    159c:	49726f64 	ldmdbmi	r2!, {r2, r5, r6, r8, r9, sl, fp, sp, lr}^
    15a0:	65520064 	ldrbvs	r0, [r2, #-100]	; 0xffffff9c
    15a4:	63655267 	cmnvs	r5, #1879048198	; 0x70000006
    15a8:	65766965 	ldrbvs	r6, [r6, #-2405]!	; 0xfffff69b
    15ac:	00706f50 	rsbseq	r6, r0, r0, asr pc
    15b0:	50676552 	rsbpl	r6, r7, r2, asr r5
    15b4:	6f697265 	svcvs	0x00697265
    15b8:	46636964 	strbtmi	r6, [r3], -r4, ror #18
    15bc:	536f6669 	cmnpl	pc, #110100480	; 0x6900000
    15c0:	00657a69 	rsbeq	r7, r5, r9, ror #20
    15c4:	69706c75 	ldmdbvs	r0!, {r0, r2, r4, r5, r6, sl, fp, sp, lr}^
    15c8:	746e695f 	strbtvc	r6, [lr], #-2399	; 0xfffff6a1
    15cc:	6f72705f 	svcvs	0x0072705f
    15d0:	69645f74 	stmdbvs	r4!, {r2, r4, r5, r6, r8, r9, sl, fp, ip, lr}^
    15d4:	72700073 	rsbsvc	r0, r0, #115	; 0x73
    15d8:	5f746e69 	svcpl	0x00746e69
    15dc:	5f627375 	svcpl	0x00627375
    15e0:	65776f70 	ldrbvs	r6, [r7, #-3952]!	; 0xfffff090
    15e4:	74735f72 	ldrbtvc	r5, [r3], #-3954	; 0xfffff08e
    15e8:	00657461 	rsbeq	r7, r5, r1, ror #8
    15ec:	69646e69 	stmdbvs	r4!, {r0, r3, r5, r6, r9, sl, fp, sp, lr}^
    15f0:	6f746163 	svcvs	0x00746163
    15f4:	61705f72 	cmnvs	r0, r2, ror pc
    15f8:	745f7373 	ldrbvc	r7, [pc], #-883	; 1600 <SCTLR_ENABLE_INSTRUCTION_CACHE+0x600>
    15fc:	756f7268 	strbvc	r7, [pc, #-616]!	; 139c <SCTLR_ENABLE_INSTRUCTION_CACHE+0x39c>
    1600:	74006867 	strvc	r6, [r0], #-2151	; 0xfffff799
    1604:	6374756f 	cmnvs	r4, #465567744	; 0x1bc00000
    1608:	52006c61 	andpl	r6, r0, #24832	; 0x6100
    160c:	32337761 	eorscc	r7, r3, #25427968	; 0x1840000
    1610:	6c634800 	stclvs	8, cr4, [r3], #-0
    1614:	666f536b 	strbtvs	r5, [pc], -fp, ror #6
    1618:	68700074 	ldmdavs	r0!, {r2, r4, r5, r6}^
    161c:	706c5f79 	rsbvc	r5, ip, r9, ror pc
    1620:	6c635f6d 	stclvs	15, cr5, [r3], #-436	; 0xfffffe4c
    1624:	65735f6b 	ldrbvs	r5, [r3, #-3947]!	; 0xfffff095
    1628:	425f006c 	subsmi	r0, pc, #108	; 0x6c
    162c:	006c6f6f 	rsbeq	r6, ip, pc, ror #30
    1630:	4e676552 	mcrmi	5, 3, r6, cr7, cr2, {2}
    1634:	65506e6f 	ldrbvs	r6, [r0, #-3695]	; 0xfffff191
    1638:	646f6972 	strbtvs	r6, [pc], #-2418	; 1640 <SCTLR_ENABLE_INSTRUCTION_CACHE+0x640>
    163c:	69466369 	stmdbvs	r6, {r0, r3, r5, r6, r8, r9, sp, lr}^
    1640:	69536f66 	ldmdbvs	r3, {r1, r2, r5, r6, r8, r9, sl, fp, sp, lr}^
    1644:	6400657a 	strvs	r6, [r0], #-1402	; 0xfffffa86
    1648:	65737264 	ldrbvs	r7, [r3, #-612]!	; 0xfffffd9c
    164c:	4d55006c 	ldclmi	0, cr0, [r5, #-432]	; 0xfffffe50
    1650:	0065646f 	rsbeq	r6, r5, pc, ror #8
    1654:	49504c55 	ldmdbmi	r0, {r0, r2, r4, r6, sl, fp, lr}^
    1658:	706e4800 	rsbvc	r4, lr, r0, lsl #16
    165c:	61706143 	cmnvs	r0, r3, asr #2
    1660:	00656c62 	rsbeq	r6, r5, r2, ror #24
    1664:	6e617254 	mcrvs	2, 3, r7, cr1, cr4, {2}
    1668:	74696d73 	strbtvc	r6, [r9], #-3443	; 0xfffff28d
    166c:	6f666946 	svcvs	0x00666946
    1670:	73756c46 	cmnvc	r5, #17920	; 0x4600
    1674:	65520068 	ldrbvs	r0, [r2, #-104]	; 0xffffff98
    1678:	69644d67 	stmdbvs	r4!, {r0, r1, r2, r5, r6, r8, sl, fp, lr}^
    167c:	6e6f436f 	cdpvs	3, 6, cr4, cr15, cr15, {3}
    1680:	6c6f7274 	sfmvs	f7, 2, [pc], #-464	; 14b8 <SCTLR_ENABLE_INSTRUCTION_CACHE+0x4b8>
    1684:	63697400 	cmnvs	r9, #0, 8
    1688:	69645f6b 	stmdbvs	r4!, {r0, r1, r3, r5, r6, r8, r9, sl, fp, ip, lr}^
    168c:	72656666 	rsbvc	r6, r5, #106954752	; 0x6600000
    1690:	65636e65 	strbvs	r6, [r3, #-3685]!	; 0xfffff19b
    1694:	5f636900 	svcpl	0x00636900
    1698:	66617274 			; <UNDEFINED> instruction: 0x66617274
    169c:	5f636966 	svcpl	0x00636966
    16a0:	6c6c7570 	cfstr64vs	mvdx7, [ip], #-448	; 0xfffffe40
    16a4:	6d65725f 	sfmvs	f7, 2, [r5, #-380]!	; 0xfffffe84
    16a8:	0065766f 	rsbeq	r7, r5, pc, ror #12
    16ac:	63726f66 	cmnvs	r2, #408	; 0x198
    16b0:	65645f65 	strbvs	r5, [r4, #-3941]!	; 0xfffff09b
    16b4:	6f6d5f76 	svcvs	0x006d5f76
    16b8:	52006564 	andpl	r6, r0, #100, 10	; 0x19000000
    16bc:	644d6765 	strbvs	r6, [sp], #-1893	; 0xfffff89b
    16c0:	72576f69 	subsvc	r6, r7, #420	; 0x1a4
    16c4:	00657469 	rsbeq	r7, r5, r9, ror #8
    16c8:	72657375 	rsbvc	r7, r5, #-738197503	; 0xd4000001
    16cc:	0064695f 	rsbeq	r6, r4, pc, asr r9
    16d0:	69706c75 	ldmdbvs	r0!, {r0, r2, r4, r5, r6, sl, fp, sp, lr}^
    16d4:	7475615f 	ldrbtvc	r6, [r5], #-351	; 0xfffffea1
    16d8:	65725f6f 	ldrbvs	r5, [r2, #-3951]!	; 0xfffff091
    16dc:	746f0073 	strbtvc	r0, [pc], #-115	; 16e4 <SCTLR_ENABLE_INSTRUCTION_CACHE+0x6e4>
    16e0:	6d747567 	cfldr64vs	mvdx7, [r4, #-412]!	; 0xfffffe64
    16e4:	73736669 	cmnvc	r3, #110100480	; 0x6900000
    16e8:	52006c65 	andpl	r6, r0, #25856	; 0x6500
    16ec:	644d6765 	strbvs	r6, [sp], #-1893	; 0xfffff89b
    16f0:	65526f69 	ldrbvs	r6, [r2, #-3945]	; 0xfffff097
    16f4:	70006461 	andvc	r6, r0, r1, ror #8
    16f8:	7265776f 	rsbvc	r7, r5, #29097984	; 0x1bc0000
    16fc:	5f6e6f5f 	svcpl	0x006e6f5f
    1700:	74736f68 	ldrbtvc	r6, [r3], #-3944	; 0xfffff098
    1704:	6e6f635f 	mcrvs	3, 3, r6, cr15, cr15, {2}
    1708:	6c6f7274 	sfmvs	f7, 2, [pc], #-464	; 1540 <SCTLR_ENABLE_INSTRUCTION_CACHE+0x540>
    170c:	0072656c 	rsbseq	r6, r2, ip, ror #10
    1710:	65726f43 	ldrbvs	r6, [r2, #-3907]!	; 0xfffff0bd
    1714:	74666f53 	strbtvc	r6, [r6], #-3923	; 0xfffff0ad
    1718:	62737500 	rsbsvs	r7, r3, #0, 10
    171c:	6463685f 	strbtvs	r6, [r3], #-2143	; 0xfffff7a1
    1720:	7665645f 			; <UNDEFINED> instruction: 0x7665645f
    1724:	5f656369 	svcpl	0x00656369
    1728:	49006469 	stmdbmi	r0, {r0, r3, r5, r6, sl, sp, lr}
    172c:	6b6f546e 	blvs	1bd68ec <__kernel_end+0x1a748ec>
    1730:	75516e65 	ldrbvc	r6, [r1, #-3685]	; 0xfffff19b
    1734:	46657565 	strbtmi	r7, [r5], -r5, ror #10
    1738:	6873756c 	ldmdavs	r3!, {r2, r3, r5, r6, r8, sl, ip, sp, lr}^
    173c:	72757400 	rsbsvc	r7, r5, #0, 8
    1740:	6e6f5f6e 	cdpvs	15, 6, cr5, cr15, cr14, {3}
    1744:	6273755f 	rsbsvs	r7, r3, #398458880	; 0x17c00000
    1748:	65725f00 	ldrbvs	r5, [r2, #-3840]!	; 0xfffff100
    174c:	76726573 			; <UNDEFINED> instruction: 0x76726573
    1750:	31316465 	teqcc	r1, r5, ror #8
    1754:	0039325f 	eorseq	r3, r9, pc, asr r2
    1758:	65726f63 	ldrbvs	r6, [r2, #-3939]!	; 0xfffff09d
    175c:	7365725f 	cmnvc	r5, #-268435451	; 0xf0000005
    1760:	55007465 	strpl	r7, [r0, #-1125]	; 0xfffffb9b
    1764:	4669706c 	strbtmi	r7, [r9], -ip, rrx
    1768:	00736c73 	rsbseq	r6, r3, r3, ror ip
    176c:	50676552 	rsbpl	r6, r7, r2, asr r5
    1770:	6f697265 	svcvs	0x00697265
    1774:	46636964 	strbtmi	r6, [r3], -r4, ror #18
    1778:	426f6669 	rsbmi	r6, pc, #110100480	; 0x6900000
    177c:	00657361 	rsbeq	r7, r5, r1, ror #6
    1780:	4f676552 	svcmi	0x00676552
    1784:	6f436774 	svcvs	0x00436774
    1788:	6f72746e 	svcvs	0x0072746e
    178c:	6d44006c 	stclvs	0, cr0, [r4, #-432]	; 0xfffffe50
    1790:	71655261 	cmnvc	r5, r1, ror #4
    1794:	74736575 	ldrbtvc	r6, [r3], #-1397	; 0xfffffa8b
    1798:	6e676953 	mcrvs	9, 3, r6, cr7, cr3, {2}
    179c:	61006c61 	tstvs	r0, r1, ror #24
    17a0:	73676174 	cmnvc	r7, #116, 2
    17a4:	72656b00 	rsbvc	r6, r5, #0, 22
    17a8:	2f6c656e 	svccs	0x006c656e
    17ac:	6e72656b 	cdpvs	5, 7, cr6, cr2, cr11, {3}
    17b0:	632e6c65 			; <UNDEFINED> instruction: 0x632e6c65
    17b4:	554e4700 	strbpl	r4, [lr, #-1792]	; 0xfffff900
    17b8:	31314320 	teqcc	r1, r0, lsr #6
    17bc:	342e3520 	strtcc	r3, [lr], #-1312	; 0xfffffae0
    17c0:	3220312e 	eorcc	r3, r0, #-2147483637	; 0x8000000b
    17c4:	30363130 	eorscc	r3, r6, r0, lsr r1
    17c8:	20393139 	eorscs	r3, r9, r9, lsr r1
    17cc:	6c657228 	sfmvs	f7, 2, [r5], #-160	; 0xffffff60
    17d0:	65736165 	ldrbvs	r6, [r3, #-357]!	; 0xfffffe9b
    17d4:	415b2029 	cmpmi	fp, r9, lsr #32
    17d8:	652f4d52 	strvs	r4, [pc, #-3410]!	; a8e <SCTLR_ENABLE_BRANCH_PREDICTION+0x28e>
    17dc:	6465626d 	strbtvs	r6, [r5], #-621	; 0xfffffd93
    17e0:	2d646564 	cfstr64cs	mvdx6, [r4, #-400]!	; 0xfffffe70
    17e4:	72622d35 	rsbvc	r2, r2, #3392	; 0xd40
    17e8:	68636e61 	stmdavs	r3!, {r0, r5, r6, r9, sl, fp, sp, lr}^
    17ec:	76657220 	strbtvc	r7, [r5], -r0, lsr #4
    17f0:	6f697369 	svcvs	0x00697369
    17f4:	3432206e 	ldrtcc	r2, [r2], #-110	; 0xffffff92
    17f8:	36393430 			; <UNDEFINED> instruction: 0x36393430
    17fc:	672d205d 			; <UNDEFINED> instruction: 0x672d205d
    1800:	324f2d20 	subcc	r2, pc, #32, 26	; 0x800
    1804:	74732d20 	ldrbtvc	r2, [r3], #-3360	; 0xfffff2e0
    1808:	6e673d64 	cdpvs	13, 6, cr3, cr7, cr4, {3}
    180c:	20313175 	eorscs	r3, r1, r5, ror r1
    1810:	7266662d 	rsbvc	r6, r6, #47185920	; 0x2d00000
    1814:	74736565 	ldrbtvc	r6, [r3], #-1381	; 0xfffffa9b
    1818:	69646e61 	stmdbvs	r4!, {r0, r5, r6, r9, sl, fp, sp, lr}^
    181c:	6400676e 	strvs	r6, [r0], #-1902	; 0xfffff892
    1820:	74707473 	ldrbtvc	r7, [r0], #-1139	; 0xfffffb8d
    1824:	72730072 	rsbsvc	r0, r3, #114	; 0x72
    1828:	72747063 	rsbsvc	r7, r4, #99	; 0x63
    182c:	73552f00 	cmpvc	r5, #0, 30
    1830:	2f737265 	svccs	0x00737265
    1834:	6b617270 	blvs	185e1fc <__kernel_end+0x16fc1fc>
    1838:	62687361 	rsbvs	r7, r8, #-2080374783	; 0x84000001
    183c:	616b726f 	cmnvs	fp, pc, ror #4
    1840:	65442f72 	strbvs	r2, [r4, #-3954]	; 0xfffff08e
    1844:	6f746b73 	svcvs	0x00746b73
    1848:	65522f70 	ldrbvs	r2, [r2, #-3952]	; 0xfffff090
    184c:	65746f6d 	ldrbvs	r6, [r4, #-3949]!	; 0xfffff093
    1850:	7065525f 	rsbvc	r5, r5, pc, asr r2
    1854:	70722f6f 	rsbsvc	r2, r2, pc, ror #30
    1858:	736f2d69 	cmnvc	pc, #6720	; 0x1a40
    185c:	7261752d 	rsbvc	r7, r1, #188743680	; 0xb400000
    1860:	70722f74 	rsbsvc	r2, r2, r4, ror pc
    1864:	2d623369 	stclcs	3, cr3, [r2, #-420]!	; 0xfffffe5c
    1868:	7461656d 	strbtvc	r6, [r1], #-1389	; 0xfffffa93
    186c:	6b732d79 	blvs	1ccce58 <__kernel_end+0x1b6ae58>
    1870:	74656c65 	strbtvc	r6, [r5], #-3173	; 0xfffff39b
    1874:	6c2f6e6f 	stcvs	14, cr6, [pc], #-444	; 16c0 <SCTLR_ENABLE_INSTRUCTION_CACHE+0x6c0>
    1878:	00636269 	rsbeq	r6, r3, r9, ror #4
    187c:	69727473 	ldmdbvs	r2!, {r0, r1, r4, r5, r6, sl, ip, sp, lr}^
    1880:	6d2f676e 	stcvs	7, cr6, [pc, #-440]!	; 16d0 <SCTLR_ENABLE_INSTRUCTION_CACHE+0x6d0>
    1884:	70636d65 	rsbvc	r6, r3, r5, ror #26
    1888:	00632e79 	rsbeq	r2, r3, r9, ror lr
    188c:	69647473 	stmdbvs	r4!, {r0, r1, r4, r5, r6, sl, ip, sp, lr}^
    1890:	72702f6f 	rsbsvc	r2, r0, #444	; 0x1bc
    1894:	66746e69 	ldrbtvs	r6, [r4], -r9, ror #28
    1898:	6600632e 	strvs	r6, [r0], -lr, lsr #6
    189c:	63747570 	cmnvs	r4, #112, 10	; 0x1c000000
    18a0:	726f6600 	rsbvc	r6, pc, #0, 12
    18a4:	0074616d 	rsbseq	r6, r4, sp, ror #2
    18a8:	706f645f 	rsbvc	r6, pc, pc, asr r4	; <UNPREDICTABLE>
    18ac:	00746e72 	rsbseq	r6, r4, r2, ror lr
    18b0:	5f646170 	svcpl	0x00646170
    18b4:	72616863 	rsbvc	r6, r1, #6488064	; 0x630000
    18b8:	69687300 	stmdbvs	r8!, {r8, r9, ip, sp, lr}^
    18bc:	75007466 	strvc	r7, [r0, #-1126]	; 0xfffffb9a
    18c0:	6772616c 	ldrbvs	r6, [r2, -ip, ror #2]!
    18c4:	74696c00 	strbtvc	r6, [r9], #-3072	; 0xfffff400
    18c8:	6c617265 	sfmvs	f7, 2, [r1], #-404	; 0xfffffe6c
    18cc:	67696400 	strbvs	r6, [r9, -r0, lsl #8]!
    18d0:	5f737469 	svcpl	0x00737469
    18d4:	70006375 	andvc	r6, r0, r5, ror r3
    18d8:	5f637475 	svcpl	0x00637475
    18dc:	00677261 	rsbeq	r7, r7, r1, ror #4
    18e0:	6e696d66 	cdpvs	13, 6, cr6, cr9, cr6, {3}
    18e4:	66656c00 	strbtvs	r6, [r5], -r0, lsl #24
    18e8:	73756a74 	cmnvc	r5, #116, 20	; 0x74000
    18ec:	74730074 	ldrbtvc	r0, [r3], #-116	; 0xffffff8c
    18f0:	6e656c72 	mcrvs	12, 3, r6, cr5, cr2, {3}
    18f4:	6d756e00 	ldclvs	14, cr6, [r5, #-0]
    18f8:	72657a5f 	rsbvc	r7, r5, #389120	; 0x5f000
    18fc:	0073656f 	rsbseq	r6, r3, pc, ror #10
    1900:	524f4853 	subpl	r4, pc, #5439488	; 0x530000
    1904:	48535f54 	ldmdami	r3, {r2, r4, r6, r8, r9, sl, fp, ip, lr}^
    1908:	5f54524f 	svcpl	0x0054524f
    190c:	455a4953 	ldrbmi	r4, [sl, #-2387]	; 0xfffff6ad
    1910:	73616200 	cmnvc	r1, #0, 4
    1914:	6f745f65 	svcvs	0x00745f65
    1918:	69626e5f 	stmdbvs	r2!, {r0, r1, r2, r3, r4, r6, r9, sl, fp, sp, lr}^
    191c:	64007374 	strvs	r7, [r0], #-884	; 0xfffffc8c
    1920:	74696769 	strbtvc	r6, [r9], #-1897	; 0xfffff897
    1924:	636c5f73 	cmnvs	ip, #460	; 0x1cc
    1928:	6f6c7500 	svcvs	0x006c7500
    192c:	745f676e 	ldrbvc	r6, [pc], #-1902	; 1934 <SCTLR_ENABLE_INSTRUCTION_CACHE+0x934>
    1930:	74735f6f 	ldrbtvc	r5, [r3], #-3951	; 0xfffff091
    1934:	676e6972 			; <UNDEFINED> instruction: 0x676e6972
    1938:	746e6900 	strbtvc	r6, [lr], #-2304	; 0xfffff700
    193c:	72656765 	rsbvc	r6, r5, #26476544	; 0x1940000
    1940:	7a69735f 	bvc	1a5e6c4 <__kernel_end+0x18fc6c4>
    1944:	6c660065 	stclvs	0, cr0, [r6], #-404	; 0xfffffe6c
    1948:	5f736761 	svcpl	0x00736761
    194c:	6e616373 	mcrvs	3, 3, r6, cr1, cr3, {3}
    1950:	0064656e 	rsbeq	r6, r4, lr, ror #10
    1954:	5f6e656c 	svcpl	0x006e656c
    1958:	00727473 	rsbseq	r7, r2, r3, ror r4
    195c:	5f6e656c 	svcpl	0x006e656c
    1960:	706e6f6e 	rsbvc	r6, lr, lr, ror #30
    1964:	69646461 	stmdbvs	r4!, {r0, r5, r6, sl, sp, lr}^
    1968:	7000676e 	andvc	r6, r0, lr, ror #14
    196c:	5f637475 	svcpl	0x00637475
    1970:	636e7566 	cmnvs	lr, #427819008	; 0x19800000
    1974:	6e616800 	cdpvs	8, 6, cr6, cr1, cr0, {0}
    1978:	5f656c64 	svcpl	0x00656c64
    197c:	69736e75 	ldmdbvs	r3!, {r0, r2, r4, r5, r6, r9, sl, fp, sp, lr}^
    1980:	64656e67 	strbtvs	r6, [r5], #-3687	; 0xfffff199
    1984:	47455200 	strbmi	r5, [r5, -r0, lsl #4]
    1988:	52414c55 	subpl	r4, r1, #21760	; 0x5500
    198c:	5a49535f 	bpl	1256710 <__kernel_end+0x10f4710>
    1990:	74730045 	ldrbtvc	r0, [r3], #-69	; 0xffffffbb
    1994:	2f6f6964 	svccs	0x006f6964
    1998:	72706f64 	rsbsvc	r6, r0, #100, 30	; 0x190
    199c:	632e746e 			; <UNDEFINED> instruction: 0x632e746e
    19a0:	65727000 	ldrbvs	r7, [r2, #-0]!
    19a4:	4f4c0063 	svcmi	0x004c0063
    19a8:	535f474e 	cmppl	pc, #20447232	; 0x1380000
    19ac:	00455a49 	subeq	r5, r5, r9, asr #20
    19b0:	72616863 	rsbvc	r6, r1, #6488064	; 0x630000
    19b4:	72775f73 	rsbsvc	r5, r7, #460	; 0x1cc
    19b8:	65747469 	ldrbvs	r7, [r4, #-1129]!	; 0xfffffb97
    19bc:	6c61006e 	stclvs	0, cr0, [r1], #-440	; 0xfffffe48
    19c0:	69645f74 	stmdbvs	r4!, {r2, r4, r5, r6, r8, r9, sl, fp, ip, lr}^
    19c4:	73746967 	cmnvc	r4, #1687552	; 0x19c000
    19c8:	67697300 	strbvs	r7, [r9, -r0, lsl #6]!
    19cc:	7073006e 	rsbsvc	r0, r3, lr, rrx
    19d0:	735f6365 	cmpvc	pc, #-1811939327	; 0x94000001
    19d4:	74726174 	ldrbtvc	r6, [r2], #-372	; 0xfffffe8c
    19d8:	6e656c00 	cdpvs	12, 6, cr6, cr5, cr0, {0}
    19dc:	6461705f 	strbtvs	r7, [r1], #-95	; 0xffffffa1
    19e0:	676e6964 	strbvs	r6, [lr, -r4, ror #18]!
    19e4:	72747300 	rsbsvc	r7, r4, #0, 6
    19e8:	2f676e69 	svccs	0x00676e69
    19ec:	6c727473 	cfldrdvs	mvd7, [r2], #-460	; 0xfffffe34
    19f0:	632e6e65 			; <UNDEFINED> instruction: 0x632e6e65
	...

Disassembly of section .debug_frame:

00000000 <.debug_frame>:
   0:	0000000c 	andeq	r0, r0, ip
   4:	ffffffff 			; <UNDEFINED> instruction: 0xffffffff
   8:	7c020001 	stcvc	0, cr0, [r2], {1}
   c:	000d0c0e 	andeq	r0, sp, lr, lsl #24
  10:	00000014 	andeq	r0, r0, r4, lsl r0
  14:	00000000 	andeq	r0, r0, r0
  18:	00008214 	andeq	r8, r0, r4, lsl r2
  1c:	00000060 	andeq	r0, r0, r0, rrx
  20:	84080e44 	strhi	r0, [r8], #-3652	; 0xfffff1bc
  24:	00018e02 	andeq	r8, r1, r2, lsl #28
  28:	0000000c 	andeq	r0, r0, ip
  2c:	ffffffff 			; <UNDEFINED> instruction: 0xffffffff
  30:	7c020001 	stcvc	0, cr0, [r2], {1}
  34:	000d0c0e 	andeq	r0, sp, lr, lsl #24
  38:	0000000c 	andeq	r0, r0, ip
  3c:	00000028 	andeq	r0, r0, r8, lsr #32
  40:	00008274 	andeq	r8, r0, r4, ror r2
  44:	0000000c 	andeq	r0, r0, ip
  48:	00000014 	andeq	r0, r0, r4, lsl r0
  4c:	00000028 	andeq	r0, r0, r8, lsr #32
  50:	00008280 	andeq	r8, r0, r0, lsl #5
  54:	0000002c 	andeq	r0, r0, ip, lsr #32
  58:	84080e42 	strhi	r0, [r8], #-3650	; 0xfffff1be
  5c:	00018e02 	andeq	r8, r1, r2, lsl #28
  60:	0000000c 	andeq	r0, r0, ip
  64:	ffffffff 			; <UNDEFINED> instruction: 0xffffffff
  68:	7c020001 	stcvc	0, cr0, [r2], {1}
  6c:	000d0c0e 	andeq	r0, sp, lr, lsl #24
  70:	0000000c 	andeq	r0, r0, ip
  74:	00000060 	andeq	r0, r0, r0, rrx
  78:	000082ac 	andeq	r8, r0, ip, lsr #5
  7c:	0000000c 	andeq	r0, r0, ip
  80:	0000001c 	andeq	r0, r0, ip, lsl r0
  84:	00000060 	andeq	r0, r0, r0, rrx
  88:	000082b8 			; <UNDEFINED> instruction: 0x000082b8
  8c:	0000001c 	andeq	r0, r0, ip, lsl r0
  90:	80180e44 	andshi	r0, r8, r4, asr #28
  94:	82058106 	andhi	r8, r5, #-2147483647	; 0x80000001
  98:	8c038304 	stchi	3, cr8, [r3], {4}
  9c:	00018e02 	andeq	r8, r1, r2, lsl #28
  a0:	0000001c 	andeq	r0, r0, ip, lsl r0
  a4:	00000060 	andeq	r0, r0, r0, rrx
  a8:	000082d4 	ldrdeq	r8, [r0], -r4
  ac:	00000018 	andeq	r0, r0, r8, lsl r0
  b0:	80180e42 	andshi	r0, r8, r2, asr #28
  b4:	82058106 	andhi	r8, r5, #-2147483647	; 0x80000001
  b8:	8c038304 	stchi	3, cr8, [r3], {4}
  bc:	00018e02 	andeq	r8, r1, r2, lsl #28
  c0:	0000001c 	andeq	r0, r0, ip, lsl r0
  c4:	00000060 	andeq	r0, r0, r0, rrx
  c8:	000082ec 	andeq	r8, r0, ip, ror #5
  cc:	00000018 	andeq	r0, r0, r8, lsl r0
  d0:	80180e42 	andshi	r0, r8, r2, asr #28
  d4:	82058106 	andhi	r8, r5, #-2147483647	; 0x80000001
  d8:	8c038304 	stchi	3, cr8, [r3], {4}
  dc:	00018e02 	andeq	r8, r1, r2, lsl #28
  e0:	0000001c 	andeq	r0, r0, ip, lsl r0
  e4:	00000060 	andeq	r0, r0, r0, rrx
  e8:	00008304 	andeq	r8, r0, r4, lsl #6
  ec:	0000001c 	andeq	r0, r0, ip, lsl r0
  f0:	80180e44 	andshi	r0, r8, r4, asr #28
  f4:	82058106 	andhi	r8, r5, #-2147483647	; 0x80000001
  f8:	8c038304 	stchi	3, cr8, [r3], {4}
  fc:	00018e02 	andeq	r8, r1, r2, lsl #28
 100:	0000001c 	andeq	r0, r0, ip, lsl r0
 104:	00000060 	andeq	r0, r0, r0, rrx
 108:	00008320 	andeq	r8, r0, r0, lsr #6
 10c:	0000001c 	andeq	r0, r0, ip, lsl r0
 110:	80180e44 	andshi	r0, r8, r4, asr #28
 114:	82058106 	andhi	r8, r5, #-2147483647	; 0x80000001
 118:	8c038304 	stchi	3, cr8, [r3], {4}
 11c:	00018e02 	andeq	r8, r1, r2, lsl #28
 120:	0000001c 	andeq	r0, r0, ip, lsl r0
 124:	00000060 	andeq	r0, r0, r0, rrx
 128:	0000833c 	andeq	r8, r0, ip, lsr r3
 12c:	0000001c 	andeq	r0, r0, ip, lsl r0
 130:	80180e44 	andshi	r0, r8, r4, asr #28
 134:	82058106 	andhi	r8, r5, #-2147483647	; 0x80000001
 138:	84038304 	strhi	r8, [r3], #-772	; 0xfffffcfc
 13c:	00018e02 	andeq	r8, r1, r2, lsl #28
 140:	00000014 	andeq	r0, r0, r4, lsl r0
 144:	00000060 	andeq	r0, r0, r0, rrx
 148:	00008358 	andeq	r8, r0, r8, asr r3
 14c:	000000e8 	andeq	r0, r0, r8, ror #1
 150:	84080e44 	strhi	r0, [r8], #-3652	; 0xfffff1bc
 154:	00018e02 	andeq	r8, r1, r2, lsl #28
 158:	00000018 	andeq	r0, r0, r8, lsl r0
 15c:	00000060 	andeq	r0, r0, r0, rrx
 160:	00008440 	andeq	r8, r0, r0, asr #8
 164:	000000bc 	strheq	r0, [r0], -ip
 168:	84100e44 	ldrhi	r0, [r0], #-3652	; 0xfffff1bc
 16c:	86038504 	strhi	r8, [r3], -r4, lsl #10
 170:	00018e02 	andeq	r8, r1, r2, lsl #28
 174:	00000018 	andeq	r0, r0, r8, lsl r0
 178:	00000060 	andeq	r0, r0, r0, rrx
 17c:	000084fc 	strdeq	r8, [r0], -ip
 180:	000000c8 	andeq	r0, r0, r8, asr #1
 184:	840c0e44 	strhi	r0, [ip], #-3652	; 0xfffff1bc
 188:	8e028503 	cfsh32hi	mvfx8, mvfx2, #3
 18c:	00000001 	andeq	r0, r0, r1
 190:	0000000c 	andeq	r0, r0, ip
 194:	00000060 	andeq	r0, r0, r0, rrx
 198:	000085c4 	andeq	r8, r0, r4, asr #11
 19c:	00000024 	andeq	r0, r0, r4, lsr #32
 1a0:	0000000c 	andeq	r0, r0, ip
 1a4:	00000060 	andeq	r0, r0, r0, rrx
 1a8:	000085e8 	andeq	r8, r0, r8, ror #11
 1ac:	0000000c 	andeq	r0, r0, ip
 1b0:	00000014 	andeq	r0, r0, r4, lsl r0
 1b4:	00000060 	andeq	r0, r0, r0, rrx
 1b8:	000085f4 	strdeq	r8, [r0], -r4
 1bc:	00000068 	andeq	r0, r0, r8, rrx
 1c0:	84080e42 	strhi	r0, [r8], #-3650	; 0xfffff1be
 1c4:	00018e02 	andeq	r8, r1, r2, lsl #28
 1c8:	0000000c 	andeq	r0, r0, ip
 1cc:	ffffffff 			; <UNDEFINED> instruction: 0xffffffff
 1d0:	7c020001 	stcvc	0, cr0, [r2], {1}
 1d4:	000d0c0e 	andeq	r0, sp, lr, lsl #24
 1d8:	0000000c 	andeq	r0, r0, ip
 1dc:	000001c8 	andeq	r0, r0, r8, asr #3
 1e0:	0000865c 	andeq	r8, r0, ip, asr r6
 1e4:	0000002c 	andeq	r0, r0, ip, lsr #32
 1e8:	0000000c 	andeq	r0, r0, ip
 1ec:	000001c8 	andeq	r0, r0, r8, asr #3
 1f0:	00008688 	andeq	r8, r0, r8, lsl #13
 1f4:	00000040 	andeq	r0, r0, r0, asr #32
 1f8:	0000000c 	andeq	r0, r0, ip
 1fc:	ffffffff 			; <UNDEFINED> instruction: 0xffffffff
 200:	7c020001 	stcvc	0, cr0, [r2], {1}
 204:	000d0c0e 	andeq	r0, sp, lr, lsl #24
 208:	0000000c 	andeq	r0, r0, ip
 20c:	000001f8 	strdeq	r0, [r0], -r8
 210:	000086c8 	andeq	r8, r0, r8, asr #13
 214:	00000038 	andeq	r0, r0, r8, lsr r0
 218:	00000040 	andeq	r0, r0, r0, asr #32
 21c:	000001f8 	strdeq	r0, [r0], -r8
 220:	00008700 	andeq	r8, r0, r0, lsl #14
 224:	000004a0 	andeq	r0, r0, r0, lsr #9
 228:	80100e42 	andshi	r0, r0, r2, asr #28
 22c:	82038104 	andhi	r8, r3, #4, 2
 230:	48018302 	stmdami	r1, {r1, r8, r9, pc}
 234:	0984240e 	stmibeq	r4, {r1, r2, r3, sl, sp}
 238:	07860885 	streq	r0, [r6, r5, lsl #17]
 23c:	058e0687 	streq	r0, [lr, #1671]	; 0x687
 240:	02300e46 	eorseq	r0, r0, #1120	; 0x460
 244:	240e0a60 	strcs	r0, [lr], #-2656	; 0xfffff5a0
 248:	c6c7ce42 	strbgt	ip, [r7], r2, asr #28
 24c:	100ec4c5 	andne	ip, lr, r5, asr #9
 250:	c1c2c342 	bicgt	ip, r2, r2, asr #6
 254:	42000ec0 	andmi	r0, r0, #192, 28	; 0xc00
 258:	0000000b 	andeq	r0, r0, fp
 25c:	00000018 	andeq	r0, r0, r8, lsl r0
 260:	000001f8 	strdeq	r0, [r0], -r8
 264:	00008ba0 	andeq	r8, r0, r0, lsr #23
 268:	0000004c 	andeq	r0, r0, ip, asr #32
 26c:	84080e4c 	strhi	r0, [r8], #-3660	; 0xfffff1b4
 270:	54018e02 	strpl	r8, [r1], #-3586	; 0xfffff1fe
 274:	000ec4ce 	andeq	ip, lr, lr, asr #9
 278:	00000014 	andeq	r0, r0, r4, lsl r0
 27c:	000001f8 	strdeq	r0, [r0], -r8
 280:	00008bec 	andeq	r8, r0, ip, ror #23
 284:	000000ac 	andeq	r0, r0, ip, lsr #1
 288:	84080e4a 	strhi	r0, [r8], #-3658	; 0xfffff1b6
 28c:	00018e02 	andeq	r8, r1, r2, lsl #28
 290:	0000000c 	andeq	r0, r0, ip
 294:	ffffffff 			; <UNDEFINED> instruction: 0xffffffff
 298:	7c020001 	stcvc	0, cr0, [r2], {1}
 29c:	000d0c0e 	andeq	r0, sp, lr, lsl #24
 2a0:	0000000c 	andeq	r0, r0, ip
 2a4:	00000290 	muleq	r0, r0, r2
 2a8:	00008c98 	muleq	r0, r8, ip
 2ac:	0000002c 	andeq	r0, r0, ip, lsr #32
 2b0:	0000000c 	andeq	r0, r0, ip
 2b4:	00000290 	muleq	r0, r0, r2
 2b8:	00008cc4 	andeq	r8, r0, r4, asr #25
 2bc:	0000001c 	andeq	r0, r0, ip, lsl r0
 2c0:	0000001c 	andeq	r0, r0, ip, lsl r0
 2c4:	00000290 	muleq	r0, r0, r2
 2c8:	00008ce0 	andeq	r8, r0, r0, ror #25
 2cc:	00000128 	andeq	r0, r0, r8, lsr #2
 2d0:	8b080e42 	blhi	203be0 <__kernel_end+0xa1be0>
 2d4:	42018e02 	andmi	r8, r1, #2, 28
 2d8:	02040b0c 	andeq	r0, r4, #12, 22	; 0x3000
 2dc:	080d0c78 	stmdaeq	sp, {r3, r4, r5, r6, sl, fp}
 2e0:	0000000c 	andeq	r0, r0, ip
 2e4:	00000290 	muleq	r0, r0, r2
 2e8:	00008e08 	andeq	r8, r0, r8, lsl #28
 2ec:	00000018 	andeq	r0, r0, r8, lsl r0
 2f0:	00000014 	andeq	r0, r0, r4, lsl r0
 2f4:	00000290 	muleq	r0, r0, r2
 2f8:	00008e20 	andeq	r8, r0, r0, lsr #28
 2fc:	00000070 	andeq	r0, r0, r0, ror r0
 300:	70100e44 	andsvc	r0, r0, r4, asr #28
 304:	0000000e 	andeq	r0, r0, lr
 308:	0000000c 	andeq	r0, r0, ip
 30c:	ffffffff 			; <UNDEFINED> instruction: 0xffffffff
 310:	7c020001 	stcvc	0, cr0, [r2], {1}
 314:	000d0c0e 	andeq	r0, sp, lr, lsl #24
 318:	00000014 	andeq	r0, r0, r4, lsl r0
 31c:	00000308 	andeq	r0, r0, r8, lsl #6
 320:	00008e90 	muleq	r0, r0, lr
 324:	0000003c 	andeq	r0, r0, ip, lsr r0
 328:	84080e50 	strhi	r0, [r8], #-3664	; 0xfffff1b0
 32c:	00018e02 	andeq	r8, r1, r2, lsl #28
 330:	00000020 	andeq	r0, r0, r0, lsr #32
 334:	00000308 	andeq	r0, r0, r8, lsl #6
 338:	00008ecc 	andeq	r8, r0, ip, asr #29
 33c:	000000a8 	andeq	r0, r0, r8, lsr #1
 340:	84100e46 	ldrhi	r0, [r0], #-3654	; 0xfffff1ba
 344:	86038504 	strhi	r8, [r3], -r4, lsl #10
 348:	7e018e02 	cdpvc	14, 0, cr8, cr1, cr2, {0}
 34c:	c4c5c6ce 	strbgt	ip, [r5], #1742	; 0x6ce
 350:	0000000e 	andeq	r0, r0, lr
 354:	0000000c 	andeq	r0, r0, ip
 358:	ffffffff 			; <UNDEFINED> instruction: 0xffffffff
 35c:	7c020001 	stcvc	0, cr0, [r2], {1}
 360:	000d0c0e 	andeq	r0, sp, lr, lsl #24
 364:	0000000c 	andeq	r0, r0, ip
 368:	00000354 	andeq	r0, r0, r4, asr r3
 36c:	00008f74 	andeq	r8, r0, r4, ror pc
 370:	00000024 	andeq	r0, r0, r4, lsr #32
 374:	0000000c 	andeq	r0, r0, ip
 378:	00000354 	andeq	r0, r0, r4, asr r3
 37c:	00008f98 	muleq	r0, r8, pc	; <UNPREDICTABLE>
 380:	00000024 	andeq	r0, r0, r4, lsr #32
 384:	0000000c 	andeq	r0, r0, ip
 388:	00000354 	andeq	r0, r0, r4, asr r3
 38c:	00008fbc 			; <UNDEFINED> instruction: 0x00008fbc
 390:	00000008 	andeq	r0, r0, r8
 394:	0000000c 	andeq	r0, r0, ip
 398:	00000354 	andeq	r0, r0, r4, asr r3
 39c:	00008fc4 	andeq	r8, r0, r4, asr #31
 3a0:	0000002c 	andeq	r0, r0, ip, lsr #32
 3a4:	0000000c 	andeq	r0, r0, ip
 3a8:	00000354 	andeq	r0, r0, r4, asr r3
 3ac:	00008ff0 	strdeq	r8, [r0], -r0
 3b0:	00000008 	andeq	r0, r0, r8
 3b4:	0000000c 	andeq	r0, r0, ip
 3b8:	00000354 	andeq	r0, r0, r4, asr r3
 3bc:	00008ff8 	strdeq	r8, [r0], -r8	; <UNPREDICTABLE>
 3c0:	00000008 	andeq	r0, r0, r8
 3c4:	0000000c 	andeq	r0, r0, ip
 3c8:	00000354 	andeq	r0, r0, r4, asr r3
 3cc:	00009000 	andeq	r9, r0, r0
 3d0:	0000001c 	andeq	r0, r0, ip, lsl r0
 3d4:	00000014 	andeq	r0, r0, r4, lsl r0
 3d8:	00000354 	andeq	r0, r0, r4, asr r3
 3dc:	0000901c 	andeq	r9, r0, ip, lsl r0
 3e0:	0000006c 	andeq	r0, r0, ip, rrx
 3e4:	84080e44 	strhi	r0, [r8], #-3652	; 0xfffff1bc
 3e8:	00018e02 	andeq	r8, r1, r2, lsl #28
 3ec:	0000000c 	andeq	r0, r0, ip
 3f0:	00000354 	andeq	r0, r0, r4, asr r3
 3f4:	00009088 	andeq	r9, r0, r8, lsl #1
 3f8:	00000044 	andeq	r0, r0, r4, asr #32
 3fc:	00000014 	andeq	r0, r0, r4, lsl r0
 400:	00000354 	andeq	r0, r0, r4, asr r3
 404:	000090cc 	andeq	r9, r0, ip, asr #1
 408:	00000050 	andeq	r0, r0, r0, asr r0
 40c:	84080e42 	strhi	r0, [r8], #-3650	; 0xfffff1be
 410:	00018e02 	andeq	r8, r1, r2, lsl #28
 414:	0000001c 	andeq	r0, r0, ip, lsl r0
 418:	00000354 	andeq	r0, r0, r4, asr r3
 41c:	0000911c 	andeq	r9, r0, ip, lsl r1
 420:	00000118 	andeq	r0, r0, r8, lsl r1
 424:	84180e42 	ldrhi	r0, [r8], #-3650	; 0xfffff1be
 428:	86058506 	strhi	r8, [r5], -r6, lsl #10
 42c:	88038704 	stmdahi	r3, {r2, r8, r9, sl, pc}
 430:	00018e02 	andeq	r8, r1, r2, lsl #28
 434:	0000000c 	andeq	r0, r0, ip
 438:	ffffffff 			; <UNDEFINED> instruction: 0xffffffff
 43c:	7c020001 	stcvc	0, cr0, [r2], {1}
 440:	000d0c0e 	andeq	r0, sp, lr, lsl #24
 444:	0000000c 	andeq	r0, r0, ip
 448:	00000434 	andeq	r0, r0, r4, lsr r4
 44c:	00009234 	andeq	r9, r0, r4, lsr r2
 450:	00000074 	andeq	r0, r0, r4, ror r0
 454:	0000000c 	andeq	r0, r0, ip
 458:	00000434 	andeq	r0, r0, r4, lsr r4
 45c:	000092a8 	andeq	r9, r0, r8, lsr #5
 460:	00000024 	andeq	r0, r0, r4, lsr #32
 464:	0000000c 	andeq	r0, r0, ip
 468:	00000434 	andeq	r0, r0, r4, lsr r4
 46c:	000092cc 	andeq	r9, r0, ip, asr #5
 470:	00000028 	andeq	r0, r0, r8, lsr #32
 474:	00000014 	andeq	r0, r0, r4, lsl r0
 478:	00000434 	andeq	r0, r0, r4, lsr r4
 47c:	000092f4 	strdeq	r9, [r0], -r4
 480:	00000028 	andeq	r0, r0, r8, lsr #32
 484:	84080e42 	strhi	r0, [r8], #-3650	; 0xfffff1be
 488:	00018e02 	andeq	r8, r1, r2, lsl #28
 48c:	00000020 	andeq	r0, r0, r0, lsr #32
 490:	00000434 	andeq	r0, r0, r4, lsr r4
 494:	0000931c 	andeq	r9, r0, ip, lsl r3
 498:	00000040 	andeq	r0, r0, r0, asr #32
 49c:	84100e42 	ldrhi	r0, [r0], #-3650	; 0xfffff1be
 4a0:	86038504 	strhi	r8, [r3], -r4, lsl #10
 4a4:	5c018e02 	stcpl	14, cr8, [r1], {2}
 4a8:	c4c5c6ce 	strbgt	ip, [r5], #1742	; 0x6ce
 4ac:	0000000e 	andeq	r0, r0, lr
 4b0:	0000000c 	andeq	r0, r0, ip
 4b4:	ffffffff 			; <UNDEFINED> instruction: 0xffffffff
 4b8:	7c020001 	stcvc	0, cr0, [r2], {1}
 4bc:	000d0c0e 	andeq	r0, sp, lr, lsl #24
 4c0:	0000000c 	andeq	r0, r0, ip
 4c4:	000004b0 			; <UNDEFINED> instruction: 0x000004b0
 4c8:	0000935c 	andeq	r9, r0, ip, asr r3
 4cc:	00000040 	andeq	r0, r0, r0, asr #32
 4d0:	0000000c 	andeq	r0, r0, ip
 4d4:	000004b0 			; <UNDEFINED> instruction: 0x000004b0
 4d8:	0000939c 	muleq	r0, ip, r3
 4dc:	00000010 	andeq	r0, r0, r0, lsl r0
 4e0:	00000020 	andeq	r0, r0, r0, lsr #32
 4e4:	000004b0 			; <UNDEFINED> instruction: 0x000004b0
 4e8:	000093ac 	andeq	r9, r0, ip, lsr #7
 4ec:	0000004c 	andeq	r0, r0, ip, asr #32
 4f0:	84100e42 	ldrhi	r0, [r0], #-3650	; 0xfffff1be
 4f4:	86038504 	strhi	r8, [r3], -r4, lsl #10
 4f8:	5c018e02 	stcpl	14, cr8, [r1], {2}
 4fc:	c4c5c6ce 	strbgt	ip, [r5], #1742	; 0x6ce
 500:	0000000e 	andeq	r0, r0, lr
 504:	0000000c 	andeq	r0, r0, ip
 508:	000004b0 			; <UNDEFINED> instruction: 0x000004b0
 50c:	000093f8 	strdeq	r9, [r0], -r8
 510:	00000024 	andeq	r0, r0, r4, lsr #32
 514:	0000000c 	andeq	r0, r0, ip
 518:	000004b0 			; <UNDEFINED> instruction: 0x000004b0
 51c:	0000941c 	andeq	r9, r0, ip, lsl r4
 520:	0000001c 	andeq	r0, r0, ip, lsl r0
 524:	00000028 	andeq	r0, r0, r8, lsr #32
 528:	000004b0 			; <UNDEFINED> instruction: 0x000004b0
 52c:	00009438 	andeq	r9, r0, r8, lsr r4
 530:	00000248 	andeq	r0, r0, r8, asr #4
 534:	84240e42 	strthi	r0, [r4], #-3650	; 0xfffff1be
 538:	86088509 	strhi	r8, [r8], -r9, lsl #10
 53c:	88068707 	stmdahi	r6, {r0, r1, r2, r8, r9, sl, pc}
 540:	8a048905 	bhi	12295c <dma_src_page_1+0x95c>
 544:	8e028b03 	vmlahi.f64	d8, d2, d3
 548:	380e4801 	stmdacc	lr, {r0, fp, lr}
 54c:	240ef002 	strcs	pc, [lr], #-2
 550:	0000000c 	andeq	r0, r0, ip
 554:	ffffffff 			; <UNDEFINED> instruction: 0xffffffff
 558:	7c020001 	stcvc	0, cr0, [r2], {1}
 55c:	000d0c0e 	andeq	r0, sp, lr, lsl #24
 560:	00000018 	andeq	r0, r0, r8, lsl r0
 564:	00000550 	andeq	r0, r0, r0, asr r5
 568:	00009680 	andeq	r9, r0, r0, lsl #13
 56c:	00000048 	andeq	r0, r0, r8, asr #32
 570:	84080e42 	strhi	r0, [r8], #-3650	; 0xfffff1be
 574:	5c018e02 	stcpl	14, cr8, [r1], {2}
 578:	000ec4ce 	andeq	ip, lr, lr, asr #9
 57c:	00000018 	andeq	r0, r0, r8, lsl r0
 580:	00000550 	andeq	r0, r0, r0, asr r5
 584:	000096c8 	andeq	r9, r0, r8, asr #13
 588:	00000048 	andeq	r0, r0, r8, asr #32
 58c:	84080e42 	strhi	r0, [r8], #-3650	; 0xfffff1be
 590:	5c018e02 	stcpl	14, cr8, [r1], {2}
 594:	000ec4ce 	andeq	ip, lr, lr, asr #9
 598:	00000018 	andeq	r0, r0, r8, lsl r0
 59c:	00000550 	andeq	r0, r0, r0, asr r5
 5a0:	00009710 	andeq	r9, r0, r0, lsl r7
 5a4:	00000070 	andeq	r0, r0, r0, ror r0
 5a8:	84080e42 	strhi	r0, [r8], #-3650	; 0xfffff1be
 5ac:	6c018e02 	stcvs	14, cr8, [r1], {2}
 5b0:	000ec4ce 	andeq	ip, lr, lr, asr #9
 5b4:	00000014 	andeq	r0, r0, r4, lsl r0
 5b8:	00000550 	andeq	r0, r0, r0, asr r5
 5bc:	00009780 	andeq	r9, r0, r0, lsl #15
 5c0:	0000007c 	andeq	r0, r0, ip, ror r0
 5c4:	84080e42 	strhi	r0, [r8], #-3650	; 0xfffff1be
 5c8:	00018e02 	andeq	r8, r1, r2, lsl #28
 5cc:	0000000c 	andeq	r0, r0, ip
 5d0:	00000550 	andeq	r0, r0, r0, asr r5
 5d4:	000097fc 	strdeq	r9, [r0], -ip
 5d8:	0000000c 	andeq	r0, r0, ip
 5dc:	00000020 	andeq	r0, r0, r0, lsr #32
 5e0:	00000550 	andeq	r0, r0, r0, asr r5
 5e4:	00009808 	andeq	r9, r0, r8, lsl #16
 5e8:	0000010c 	andeq	r0, r0, ip, lsl #2
 5ec:	84200e42 	strthi	r0, [r0], #-3650	; 0xfffff1be
 5f0:	86078508 	strhi	r8, [r7], -r8, lsl #10
 5f4:	88058706 	stmdahi	r5, {r1, r2, r8, r9, sl, pc}
 5f8:	8a038904 	bhi	e2a10 <__first_lvl_tbl_end+0xc1a10>
 5fc:	00018e02 	andeq	r8, r1, r2, lsl #28
 600:	00000014 	andeq	r0, r0, r4, lsl r0
 604:	00000550 	andeq	r0, r0, r0, asr r5
 608:	00009914 	andeq	r9, r0, r4, lsl r9
 60c:	00000060 	andeq	r0, r0, r0, rrx
 610:	84080e42 	strhi	r0, [r8], #-3650	; 0xfffff1be
 614:	00018e02 	andeq	r8, r1, r2, lsl #28
 618:	00000018 	andeq	r0, r0, r8, lsl r0
 61c:	00000550 	andeq	r0, r0, r0, asr r5
 620:	00009974 	andeq	r9, r0, r4, ror r9
 624:	00000010 	andeq	r0, r0, r0, lsl r0
 628:	84080e42 	strhi	r0, [r8], #-3650	; 0xfffff1be
 62c:	44018e02 	strmi	r8, [r1], #-3586	; 0xfffff1fe
 630:	000ec4ce 	andeq	ip, lr, lr, asr #9
 634:	0000000c 	andeq	r0, r0, ip
 638:	ffffffff 			; <UNDEFINED> instruction: 0xffffffff
 63c:	7c020001 	stcvc	0, cr0, [r2], {1}
 640:	000d0c0e 	andeq	r0, sp, lr, lsl #24
 644:	00000014 	andeq	r0, r0, r4, lsl r0
 648:	00000634 	andeq	r0, r0, r4, lsr r6
 64c:	00009984 	andeq	r9, r0, r4, lsl #19
 650:	0000004c 	andeq	r0, r0, ip, asr #32
 654:	84080e44 	strhi	r0, [r8], #-3652	; 0xfffff1bc
 658:	00018e02 	andeq	r8, r1, r2, lsl #28
 65c:	0000000c 	andeq	r0, r0, ip
 660:	ffffffff 			; <UNDEFINED> instruction: 0xffffffff
 664:	7c020001 	stcvc	0, cr0, [r2], {1}
 668:	000d0c0e 	andeq	r0, sp, lr, lsl #24
 66c:	0000000c 	andeq	r0, r0, ip
 670:	0000065c 	andeq	r0, r0, ip, asr r6
 674:	000099d0 	ldrdeq	r9, [r0], -r0
 678:	00000024 	andeq	r0, r0, r4, lsr #32
 67c:	0000000c 	andeq	r0, r0, ip
 680:	ffffffff 			; <UNDEFINED> instruction: 0xffffffff
 684:	7c020001 	stcvc	0, cr0, [r2], {1}
 688:	000d0c0e 	andeq	r0, sp, lr, lsl #24
 68c:	00000018 	andeq	r0, r0, r8, lsl r0
 690:	0000067c 	andeq	r0, r0, ip, ror r6
 694:	000099f4 	strdeq	r9, [r0], -r4
 698:	00000018 	andeq	r0, r0, r8, lsl r0
 69c:	84080e42 	strhi	r0, [r8], #-3650	; 0xfffff1be
 6a0:	48018e02 	stmdami	r1, {r1, r9, sl, fp, pc}
 6a4:	000ec4ce 	andeq	ip, lr, lr, asr #9
 6a8:	00000030 	andeq	r0, r0, r0, lsr r0
 6ac:	0000067c 	andeq	r0, r0, ip, ror r6
 6b0:	00009a0c 	andeq	r9, r0, ip, lsl #20
 6b4:	0000003c 	andeq	r0, r0, ip, lsr r0
 6b8:	80100e42 	andshi	r0, r0, r2, asr #28
 6bc:	82038104 	andhi	r8, r3, #4, 2
 6c0:	42018302 	andmi	r8, r1, #134217728	; 0x8000000
 6c4:	058e140e 	streq	r1, [lr, #1038]	; 0x40e
 6c8:	50200e42 	eorpl	r0, r0, r2, asr #28
 6cc:	ce42140e 	cdpgt	4, 4, cr1, cr2, cr14, {0}
 6d0:	c342100e 	movtgt	r1, #8206	; 0x200e
 6d4:	0ec0c1c2 	acseqdm	f4, f2
 6d8:	00000000 	andeq	r0, r0, r0
 6dc:	0000000c 	andeq	r0, r0, ip
 6e0:	ffffffff 			; <UNDEFINED> instruction: 0xffffffff
 6e4:	7c020001 	stcvc	0, cr0, [r2], {1}
 6e8:	000d0c0e 	andeq	r0, sp, lr, lsl #24
 6ec:	0000003c 	andeq	r0, r0, ip, lsr r0
 6f0:	000006dc 	ldrdeq	r0, [r0], -ip
 6f4:	00009a48 	andeq	r9, r0, r8, asr #20
 6f8:	0000074c 	andeq	r0, r0, ip, asr #14
 6fc:	84240e42 	strthi	r0, [r4], #-3650	; 0xfffff1be
 700:	86088509 	strhi	r8, [r8], -r9, lsl #10
 704:	88068707 	stmdahi	r6, {r0, r1, r2, r8, r9, sl, pc}
 708:	8a048905 	bhi	122b24 <dma_src_page_1+0xb24>
 70c:	8e028b03 	vmlahi.f64	d8, d2, d3
 710:	980e4801 	stmdals	lr, {r0, fp, lr}
 714:	016c0301 	cmneq	ip, r1, lsl #6
 718:	42240e0a 	eormi	r0, r4, #10, 28	; 0xa0
 71c:	c9cacbce 	stmibgt	sl, {r1, r2, r3, r6, r7, r8, r9, fp, lr, pc}^
 720:	c5c6c7c8 	strbgt	ip, [r6, #1992]	; 0x7c8
 724:	42000ec4 	andmi	r0, r0, #196, 28	; 0xc40
 728:	0000000b 	andeq	r0, r0, fp
 72c:	0000000c 	andeq	r0, r0, ip
 730:	ffffffff 			; <UNDEFINED> instruction: 0xffffffff
 734:	7c020001 	stcvc	0, cr0, [r2], {1}
 738:	000d0c0e 	andeq	r0, sp, lr, lsl #24
 73c:	0000000c 	andeq	r0, r0, ip
 740:	0000072c 	andeq	r0, r0, ip, lsr #14
 744:	0000a194 	muleq	r0, r4, r1
 748:	00000030 	andeq	r0, r0, r0, lsr r0
 74c:	0000000c 	andeq	r0, r0, ip
 750:	ffffffff 			; <UNDEFINED> instruction: 0xffffffff
 754:	7c010001 	stcvc	0, cr0, [r1], {1}
 758:	000d0c0e 	andeq	r0, sp, lr, lsl #24
 75c:	0000000c 	andeq	r0, r0, ip
 760:	0000074c 	andeq	r0, r0, ip, asr #14
 764:	0000a1c4 	andeq	sl, r0, r4, asr #3
 768:	000000f4 	strdeq	r0, [r0], -r4

Disassembly of section .debug_ranges:

00000000 <.debug_ranges>:
   0:	00000000 	andeq	r0, r0, r0
   4:	00000008 	andeq	r0, r0, r8
   8:	00000014 	andeq	r0, r0, r4, lsl r0
   c:	00000018 	andeq	r0, r0, r8, lsl r0
  10:	0000001c 	andeq	r0, r0, ip, lsl r0
  14:	00000020 	andeq	r0, r0, r0, lsr #32
	...
  20:	00000008 	andeq	r0, r0, r8
  24:	00000010 	andeq	r0, r0, r0, lsl r0
  28:	00000020 	andeq	r0, r0, r0, lsr #32
  2c:	00000024 	andeq	r0, r0, r4, lsr #32
	...
  38:	00000010 	andeq	r0, r0, r0, lsl r0
  3c:	00000014 	andeq	r0, r0, r4, lsl r0
  40:	00000018 	andeq	r0, r0, r8, lsl r0
  44:	0000001c 	andeq	r0, r0, ip, lsl r0
  48:	00000024 	andeq	r0, r0, r4, lsr #32
  4c:	0000002c 	andeq	r0, r0, ip, lsr #32
	...
  58:	0000003c 	andeq	r0, r0, ip, lsr r0
  5c:	00000040 	andeq	r0, r0, r0, asr #32
  60:	00000050 	andeq	r0, r0, r0, asr r0
  64:	00000054 	andeq	r0, r0, r4, asr r0
	...
  70:	00000044 	andeq	r0, r0, r4, asr #32
  74:	00000048 	andeq	r0, r0, r8, asr #32
  78:	0000004c 	andeq	r0, r0, ip, asr #32
  7c:	00000050 	andeq	r0, r0, r0, asr r0
	...
  88:	00000048 	andeq	r0, r0, r8, asr #32
  8c:	0000004c 	andeq	r0, r0, ip, asr #32
  90:	00000058 	andeq	r0, r0, r8, asr r0
  94:	0000005c 	andeq	r0, r0, ip, asr r0
	...
  a0:	00000054 	andeq	r0, r0, r4, asr r0
  a4:	00000058 	andeq	r0, r0, r8, asr r0
  a8:	00000060 	andeq	r0, r0, r0, rrx
  ac:	00000064 	andeq	r0, r0, r4, rrx
	...
  b8:	0000005c 	andeq	r0, r0, ip, asr r0
  bc:	00000060 	andeq	r0, r0, r0, rrx
  c0:	00000068 	andeq	r0, r0, r8, rrx
  c4:	0000006c 	andeq	r0, r0, ip, rrx
	...
  d0:	00000064 	andeq	r0, r0, r4, rrx
  d4:	00000068 	andeq	r0, r0, r8, rrx
  d8:	0000006c 	andeq	r0, r0, ip, rrx
  dc:	00000074 	andeq	r0, r0, r4, ror r0
	...
  e8:	000001fc 	strdeq	r0, [r0], -ip
  ec:	00000270 	andeq	r0, r0, r0, ror r2
  f0:	00000274 	andeq	r0, r0, r4, ror r2
  f4:	00000294 	muleq	r0, r4, r2
	...
 100:	000001c8 	andeq	r0, r0, r8, asr #3
 104:	000001d0 	ldrdeq	r0, [r0], -r0	; <UNPREDICTABLE>
 108:	000001d4 	ldrdeq	r0, [r0], -r4
 10c:	000001dc 	ldrdeq	r0, [r0], -ip
 110:	000001e0 	andeq	r0, r0, r0, ror #3
 114:	00000260 	andeq	r0, r0, r0, ror #4
 118:	00000520 	andeq	r0, r0, r0, lsr #10
 11c:	000005c8 	andeq	r0, r0, r8, asr #11
 120:	00000718 	andeq	r0, r0, r8, lsl r7
 124:	00000728 	andeq	r0, r0, r8, lsr #14
 128:	00000730 	andeq	r0, r0, r0, lsr r7
 12c:	0000074c 	andeq	r0, r0, ip, asr #14
	...
 138:	000001f4 	strdeq	r0, [r0], -r4
 13c:	00000254 	andeq	r0, r0, r4, asr r2
 140:	00000730 	andeq	r0, r0, r0, lsr r7
 144:	0000073c 	andeq	r0, r0, ip, lsr r7
	...
