
kernel8-32.elf:     file format elf32-littlearm


Disassembly of section .text:

00008000 <__start>:
    8000:	e59ff018 	ldr	pc, [pc, #24]	; 8020 <_reset_h>
    8004:	e59ff018 	ldr	pc, [pc, #24]	; 8024 <_undefined_instruction_vector_h>
    8008:	e59ff018 	ldr	pc, [pc, #24]	; 8028 <_software_interrupt_vector_h>
    800c:	e59ff018 	ldr	pc, [pc, #24]	; 802c <_prefetch_abort_vector_h>
    8010:	e59ff018 	ldr	pc, [pc, #24]	; 8030 <_data_abort_vector_h>
    8014:	e59ff018 	ldr	pc, [pc, #24]	; 8034 <_unused_handler_h>
    8018:	e59ff018 	ldr	pc, [pc, #24]	; 8038 <_interrupt_vector_h>
    801c:	e59ff018 	ldr	pc, [pc, #24]	; 803c <_fast_interrupt_vector_h>

00008020 <_reset_h>:
    8020:	00008040 	andeq	r8, r0, r0, asr #32

00008024 <_undefined_instruction_vector_h>:
    8024:	000082c8 	andeq	r8, r0, r8, asr #5

00008028 <_software_interrupt_vector_h>:
    8028:	000082e0 	andeq	r8, r0, r0, ror #5

0000802c <_prefetch_abort_vector_h>:
    802c:	000082f8 	strdeq	r8, [r0], -r8	; <UNPREDICTABLE>

00008030 <_data_abort_vector_h>:
    8030:	0000818c 	andeq	r8, r0, ip, lsl #3

00008034 <_unused_handler_h>:
    8034:	00008040 	andeq	r8, r0, r0, asr #32

00008038 <_interrupt_vector_h>:
    8038:	0000812c 	andeq	r8, r0, ip, lsr #2

0000803c <_fast_interrupt_vector_h>:
    803c:	00008330 	andeq	r8, r0, r0, lsr r3

00008040 <_reset_>:
    8040:	ee106fb0 	mrc	15, 0, r6, cr0, cr0, {5}
    8044:	e2066003 	and	r6, r6, #3
    8048:	e3a07000 	mov	r7, #0
    804c:	e1560007 	cmp	r6, r7
    8050:	0a000001 	beq	805c <_reset_+0x1c>
    8054:	e320f002 	wfe
    8058:	eafffffd 	b	8054 <_reset_+0x14>
    805c:	e1a0c00f 	mov	ip, pc
    8060:	e10f0000 	mrs	r0, CPSR
    8064:	e38000c0 	orr	r0, r0, #192	; 0xc0
    8068:	e200b01f 	and	fp, r0, #31
    806c:	e35b001a 	cmp	fp, #26
    8070:	1a000005 	bne	808c <.NotInHypMode>
    8074:	e3c0001f 	bic	r0, r0, #31
    8078:	e3800013 	orr	r0, r0, #19
    807c:	e16ff000 	msr	SPSR_fsxc, r0
    8080:	e28fe004 	add	lr, pc, #4
    8084:	e12ef30e 	msr	ELR_hyp, lr
    8088:	e160006e 	eret

0000808c <.NotInHypMode>:
    808c:	e3a00902 	mov	r0, #32768	; 0x8000
    8090:	e3a01000 	mov	r1, #0
    8094:	e8b003fc 	ldm	r0!, {r2, r3, r4, r5, r6, r7, r8, r9}
    8098:	e8a103fc 	stmia	r1!, {r2, r3, r4, r5, r6, r7, r8, r9}
    809c:	e8b003fc 	ldm	r0!, {r2, r3, r4, r5, r6, r7, r8, r9}
    80a0:	e8a103fc 	stmia	r1!, {r2, r3, r4, r5, r6, r7, r8, r9}
    80a4:	e3a000d2 	mov	r0, #210	; 0xd2
    80a8:	e121f000 	msr	CPSR_c, r0
    80ac:	e59fd14c 	ldr	sp, [pc, #332]	; 8200 <read_cpu_id+0x8>
    80b0:	e3a000d3 	mov	r0, #211	; 0xd3
    80b4:	e121f000 	msr	CPSR_c, r0
    80b8:	e59fd144 	ldr	sp, [pc, #324]	; 8204 <read_cpu_id+0xc>
    80bc:	ee110f10 	mrc	15, 0, r0, cr1, cr0, {0}
    80c0:	e3800501 	orr	r0, r0, #4194304	; 0x400000
    80c4:	ee010f10 	mcr	15, 0, r0, cr1, cr0, {0}
    80c8:	ee111f50 	mrc	15, 0, r1, cr1, cr0, {2}
    80cc:	e381160f 	orr	r1, r1, #15728640	; 0xf00000
    80d0:	ee011f50 	mcr	15, 0, r1, cr1, cr0, {2}
    80d4:	e3a01000 	mov	r1, #0
    80d8:	ee071f95 	mcr	15, 0, r1, cr7, cr5, {4}
    80dc:	e3a00101 	mov	r0, #1073741824	; 0x40000000
    80e0:	eee80a10 	vmsr	fpexc, r0
    80e4:	eb000047 	bl	8208 <_clear_bss>

000080e8 <_inf_loop>:
    80e8:	eafffffe 	b	80e8 <_inf_loop>

000080ec <PUT32>:
    80ec:	e5801000 	str	r1, [r0]
    80f0:	e12fff1e 	bx	lr

000080f4 <GET32>:
    80f4:	e5900000 	ldr	r0, [r0]
    80f8:	e12fff1e 	bx	lr

000080fc <dummy>:
    80fc:	e1a0f00e 	mov	pc, lr

00008100 <enable_irq>:
    8100:	e10f0000 	mrs	r0, CPSR
    8104:	e3c00080 	bic	r0, r0, #128	; 0x80
    8108:	e121f000 	msr	CPSR_c, r0
    810c:	e12fff1e 	bx	lr

00008110 <_get_stack_pointer>:
    8110:	e58dd000 	str	sp, [sp]
    8114:	e59d0000 	ldr	r0, [sp]
    8118:	e1a0f00e 	mov	pc, lr

0000811c <_enable_interrupts>:
    811c:	e10f0000 	mrs	r0, CPSR
    8120:	e3c00080 	bic	r0, r0, #128	; 0x80
    8124:	e121f000 	msr	CPSR_c, r0
    8128:	e1a0f00e 	mov	pc, lr

0000812c <irq_handler_asm_wrapper>:
    812c:	e24ee004 	sub	lr, lr, #4
    8130:	f96d0513 	srsdb	sp!, #19
    8134:	f10e00d3 	cpsid	if,#19
    8138:	e92d500f 	push	{r0, r1, r2, r3, ip, lr}
    813c:	e20d1004 	and	r1, sp, #4
    8140:	e04dd001 	sub	sp, sp, r1
    8144:	e52d1004 	push	{r1}		; (str r1, [sp, #-4]!)
    8148:	eb00007f 	bl	834c <irq_handler>
    814c:	e49d1004 	pop	{r1}		; (ldr r1, [sp], #4)
    8150:	e08dd001 	add	sp, sp, r1
    8154:	e8bd500f 	pop	{r0, r1, r2, r3, ip, lr}
    8158:	f8bd0a00 	rfeia	sp!

0000815c <start_mmu>:
    815c:	e3a02000 	mov	r2, #0
    8160:	ee082f17 	mcr	15, 0, r2, cr8, cr7, {0}
    8164:	ee072f9a 	mcr	15, 0, r2, cr7, cr10, {4}
    8168:	ee132f10 	mrc	15, 0, r2, cr3, cr0, {0}
    816c:	e3822003 	orr	r2, r2, #3
    8170:	ee032f10 	mcr	15, 0, r2, cr3, cr0, {0}
    8174:	ee020f10 	mcr	15, 0, r0, cr2, cr0, {0}
    8178:	ee020f30 	mcr	15, 0, r0, cr2, cr0, {1}
    817c:	ee112f10 	mrc	15, 0, r2, cr1, cr0, {0}
    8180:	e1822001 	orr	r2, r2, r1
    8184:	ee012f10 	mcr	15, 0, r2, cr1, cr0, {0}
    8188:	e12fff1e 	bx	lr

0000818c <data_abort_vector_asm>:
    818c:	e1a0600e 	mov	r6, lr
    8190:	e5168008 	ldr	r8, [r6, #-8]
    8194:	ee154f10 	mrc	15, 0, r4, cr5, cr0, {0}
    8198:	ee155f30 	mrc	15, 0, r5, cr5, cr0, {1}
    819c:	e3a0d901 	mov	sp, #16384	; 0x4000
    81a0:	eb000160 	bl	8728 <hexstrings>
    81a4:	e1a00004 	mov	r0, r4
    81a8:	eb00015e 	bl	8728 <hexstrings>
    81ac:	e1a00005 	mov	r0, r5
    81b0:	eb00015c 	bl	8728 <hexstrings>
    81b4:	e1a00006 	mov	r0, r6
    81b8:	eb00015a 	bl	8728 <hexstrings>
    81bc:	e1a00008 	mov	r0, r8
    81c0:	eb000158 	bl	8728 <hexstrings>
    81c4:	e1a00007 	mov	r0, r7
    81c8:	eb000156 	bl	8728 <hexstrings>
    81cc:	eafffffe 	b	81cc <data_abort_vector_asm+0x40>

000081d0 <stop_mmu>:
    81d0:	ee112f10 	mrc	15, 0, r2, cr1, cr0, {0}
    81d4:	e3c22a01 	bic	r2, r2, #4096	; 0x1000
    81d8:	e3c22004 	bic	r2, r2, #4
    81dc:	e3c22001 	bic	r2, r2, #1
    81e0:	ee012f10 	mcr	15, 0, r2, cr1, cr0, {0}
    81e4:	e12fff1e 	bx	lr

000081e8 <invalidate_tlbs>:
    81e8:	e3a02000 	mov	r2, #0
    81ec:	ee082f17 	mcr	15, 0, r2, cr8, cr7, {0}
    81f0:	ee072f9a 	mcr	15, 0, r2, cr7, cr10, {4}
    81f4:	e12fff1e 	bx	lr

000081f8 <read_cpu_id>:
    81f8:	ee100fb0 	mrc	15, 0, r0, cr0, cr0, {5}
    81fc:	e12fff1e 	bx	lr
    8200:	0001d400 	andeq	sp, r1, r0, lsl #8
    8204:	0001d000 	andeq	sp, r1, r0

00008208 <_clear_bss>:
    8208:	e59fc04c 	ldr	ip, [pc, #76]	; 825c <_clear_bss+0x54>
    820c:	e92d4010 	push	{r4, lr}
    8210:	e08fc00c 	add	ip, pc, ip
    8214:	e59fe044 	ldr	lr, [pc, #68]	; 8260 <_clear_bss+0x58>
    8218:	e59f3044 	ldr	r3, [pc, #68]	; 8264 <_clear_bss+0x5c>
    821c:	e79ce00e 	ldr	lr, [ip, lr]
    8220:	e79c3003 	ldr	r3, [ip, r3]
    8224:	e15e0003 	cmp	lr, r3
    8228:	2a000009 	bcs	8254 <_clear_bss+0x4c>
    822c:	e1e0c00e 	mvn	ip, lr
    8230:	e1a0400e 	mov	r4, lr
    8234:	e08c3003 	add	r3, ip, r3
    8238:	e3a0c000 	mov	ip, #0
    823c:	e3c33003 	bic	r3, r3, #3
    8240:	e2833004 	add	r3, r3, #4
    8244:	e083300e 	add	r3, r3, lr
    8248:	e484c004 	str	ip, [r4], #4
    824c:	e1540003 	cmp	r4, r3
    8250:	1afffffc 	bne	8248 <_clear_bss+0x40>
    8254:	eb0003f1 	bl	9220 <kernel_main>
    8258:	eafffffe 	b	8258 <_clear_bss+0x50>
    825c:	00002de8 	andeq	r2, r0, r8, ror #27
    8260:	00000010 	andeq	r0, r0, r0, lsl r0
    8264:	0000000c 	andeq	r0, r0, ip

00008268 <RPI_GetArmTimer>:
    8268:	e3a00b2d 	mov	r0, #46080	; 0xb400
    826c:	e3430f00 	movt	r0, #16128	; 0x3f00
    8270:	e12fff1e 	bx	lr

00008274 <arm_timer_init>:
    8274:	e92d4010 	push	{r4, lr}
    8278:	eb000008 	bl	82a0 <RPI_GetIrqController>
    827c:	e3a03001 	mov	r3, #1
    8280:	e5803018 	str	r3, [r0, #24]
    8284:	ebfffff7 	bl	8268 <RPI_GetArmTimer>
    8288:	e3a03b01 	mov	r3, #1024	; 0x400
    828c:	e5803000 	str	r3, [r0]
    8290:	ebfffff4 	bl	8268 <RPI_GetArmTimer>
    8294:	e3a030aa 	mov	r3, #170	; 0xaa
    8298:	e5803008 	str	r3, [r0, #8]
    829c:	e8bd8010 	pop	{r4, pc}

000082a0 <RPI_GetIrqController>:
    82a0:	e3a00cb2 	mov	r0, #45568	; 0xb200
    82a4:	e3430f00 	movt	r0, #16128	; 0x3f00
    82a8:	e12fff1e 	bx	lr

000082ac <reset_vector>:
    82ac:	e24ee004 	sub	lr, lr, #4
    82b0:	e92d500f 	push	{r0, r1, r2, r3, ip, lr}
    82b4:	e59f0008 	ldr	r0, [pc, #8]	; 82c4 <reset_vector+0x18>
    82b8:	e08f0000 	add	r0, pc, r0
    82bc:	eb00010f 	bl	8700 <uart_puts>
    82c0:	eafffffe 	b	82c0 <reset_vector+0x14>
    82c4:	00001da0 	andeq	r1, r0, r0, lsr #27

000082c8 <undefined_instruction_vector>:
    82c8:	e92d500f 	push	{r0, r1, r2, r3, ip, lr}
    82cc:	e59f0008 	ldr	r0, [pc, #8]	; 82dc <undefined_instruction_vector+0x14>
    82d0:	e08f0000 	add	r0, pc, r0
    82d4:	eb000109 	bl	8700 <uart_puts>
    82d8:	eafffffe 	b	82d8 <undefined_instruction_vector+0x10>
    82dc:	00001da4 	andeq	r1, r0, r4, lsr #27

000082e0 <software_interrupt_vector>:
    82e0:	e92d500f 	push	{r0, r1, r2, r3, ip, lr}
    82e4:	e59f0008 	ldr	r0, [pc, #8]	; 82f4 <software_interrupt_vector+0x14>
    82e8:	e08f0000 	add	r0, pc, r0
    82ec:	eb000103 	bl	8700 <uart_puts>
    82f0:	e8fd900f 	ldm	sp!, {r0, r1, r2, r3, ip, pc}^
    82f4:	00001da8 	andeq	r1, r0, r8, lsr #27

000082f8 <prefetch_abort_vector>:
    82f8:	e24ee004 	sub	lr, lr, #4
    82fc:	e92d500f 	push	{r0, r1, r2, r3, ip, lr}
    8300:	e59f0008 	ldr	r0, [pc, #8]	; 8310 <prefetch_abort_vector+0x18>
    8304:	e08f0000 	add	r0, pc, r0
    8308:	eb0000fc 	bl	8700 <uart_puts>
    830c:	eafffffe 	b	830c <prefetch_abort_vector+0x14>
    8310:	00001da8 	andeq	r1, r0, r8, lsr #27

00008314 <data_abort_vector>:
    8314:	e24ee004 	sub	lr, lr, #4
    8318:	e92d500f 	push	{r0, r1, r2, r3, ip, lr}
    831c:	e59f0008 	ldr	r0, [pc, #8]	; 832c <data_abort_vector+0x18>
    8320:	e08f0000 	add	r0, pc, r0
    8324:	eb0000f5 	bl	8700 <uart_puts>
    8328:	eafffffe 	b	8328 <data_abort_vector+0x14>
    832c:	00001db8 			; <UNDEFINED> instruction: 0x00001db8

00008330 <fast_interrupt_vector>:
    8330:	e24ee004 	sub	lr, lr, #4
    8334:	e92d401f 	push	{r0, r1, r2, r3, r4, lr}
    8338:	e59f0008 	ldr	r0, [pc, #8]	; 8348 <fast_interrupt_vector+0x18>
    833c:	e08f0000 	add	r0, pc, r0
    8340:	eb0000ee 	bl	8700 <uart_puts>
    8344:	e8fd801f 	ldm	sp!, {r0, r1, r2, r3, r4, pc}^
    8348:	00001dc4 	andeq	r1, r0, r4, asr #27

0000834c <irq_handler>:
    834c:	e59fc0c8 	ldr	ip, [pc, #200]	; 841c <irq_handler+0xd0>
    8350:	e3a01cb2 	mov	r1, #45568	; 0xb200
    8354:	e3431f00 	movt	r1, #16128	; 0x3f00
    8358:	e92d4010 	push	{r4, lr}
    835c:	e08fc00c 	add	ip, pc, ip
    8360:	e3e0301f 	mvn	r3, #31
    8364:	e3a04000 	mov	r4, #0
    8368:	e3a00001 	mov	r0, #1
    836c:	ea000003 	b	8380 <irq_handler+0x34>
    8370:	e2844001 	add	r4, r4, #1
    8374:	e2833001 	add	r3, r3, #1
    8378:	e3540048 	cmp	r4, #72	; 0x48
    837c:	0a000021 	beq	8408 <irq_handler+0xbc>
    8380:	e354003f 	cmp	r4, #63	; 0x3f
    8384:	ca00001a 	bgt	83f4 <irq_handler+0xa8>
    8388:	e353001f 	cmp	r3, #31
    838c:	9a00001e 	bls	840c <irq_handler+0xc0>
    8390:	e354001f 	cmp	r4, #31
    8394:	cafffff5 	bgt	8370 <irq_handler+0x24>
    8398:	e5912004 	ldr	r2, [r1, #4]
    839c:	e0122410 	ands	r2, r2, r0, lsl r4
    83a0:	0afffff2 	beq	8370 <irq_handler+0x24>
    83a4:	e79c2104 	ldr	r2, [ip, r4, lsl #2]
    83a8:	e1a0e104 	lsl	lr, r4, #2
    83ac:	e3520000 	cmp	r2, #0
    83b0:	0affffee 	beq	8370 <irq_handler+0x24>
    83b4:	e08cc00e 	add	ip, ip, lr
    83b8:	e59c3120 	ldr	r3, [ip, #288]	; 0x120
    83bc:	e12fff33 	blx	r3
    83c0:	e10f3000 	mrs	r3, CPSR
    83c4:	e3130080 	tst	r3, #128	; 0x80
    83c8:	0a000000 	beq	83d0 <irq_handler+0x84>
    83cc:	f1080080 	cpsie	i
    83d0:	e59f3048 	ldr	r3, [pc, #72]	; 8420 <irq_handler+0xd4>
    83d4:	e08f3003 	add	r3, pc, r3
    83d8:	e7933104 	ldr	r3, [r3, r4, lsl #2]
    83dc:	e12fff33 	blx	r3
    83e0:	e10f3000 	mrs	r3, CPSR
    83e4:	e3130080 	tst	r3, #128	; 0x80
    83e8:	18bd8010 	popne	{r4, pc}
    83ec:	f10c0080 	cpsid	i
    83f0:	e8bd8010 	pop	{r4, pc}
    83f4:	e5912000 	ldr	r2, [r1]
    83f8:	e244e040 	sub	lr, r4, #64	; 0x40
    83fc:	e0122e10 	ands	r2, r2, r0, lsl lr
    8400:	1affffe7 	bne	83a4 <irq_handler+0x58>
    8404:	eaffffdf 	b	8388 <irq_handler+0x3c>
    8408:	e8bd8010 	pop	{r4, pc}
    840c:	e5912008 	ldr	r2, [r1, #8]
    8410:	e0122310 	ands	r2, r2, r0, lsl r3
    8414:	1affffe2 	bne	83a4 <irq_handler+0x58>
    8418:	eaffffd4 	b	8370 <irq_handler+0x24>
    841c:	00003c9c 	muleq	r0, ip, ip
    8420:	00003c24 	andeq	r3, r0, r4, lsr #24

00008424 <register_irq_handler>:
    8424:	e350003f 	cmp	r0, #63	; 0x3f
    8428:	e92d4070 	push	{r4, r5, r6, lr}
    842c:	8a00001b 	bhi	84a0 <register_irq_handler+0x7c>
    8430:	e2403020 	sub	r3, r0, #32
    8434:	e6efc073 	uxtb	ip, r3
    8438:	e35c001f 	cmp	ip, #31
    843c:	9a00000b 	bls	8470 <register_irq_handler+0x4c>
    8440:	e59f308c 	ldr	r3, [pc, #140]	; 84d4 <register_irq_handler+0xb0>
    8444:	e3a0ccb2 	mov	ip, #45568	; 0xb200
    8448:	e343cf00 	movt	ip, #16128	; 0x3f00
    844c:	e08f3003 	add	r3, pc, r3
    8450:	e3a05001 	mov	r5, #1
    8454:	e0834100 	add	r4, r3, r0, lsl #2
    8458:	e59ce010 	ldr	lr, [ip, #16]
    845c:	e7831100 	str	r1, [r3, r0, lsl #2]
    8460:	e5842120 	str	r2, [r4, #288]	; 0x120
    8464:	e18e0015 	orr	r0, lr, r5, lsl r0
    8468:	e58c0010 	str	r0, [ip, #16]
    846c:	e8bd8070 	pop	{r4, r5, r6, pc}
    8470:	e59fc060 	ldr	ip, [pc, #96]	; 84d8 <register_irq_handler+0xb4>
    8474:	e3a0ecb2 	mov	lr, #45568	; 0xb200
    8478:	e343ef00 	movt	lr, #16128	; 0x3f00
    847c:	e08fc00c 	add	ip, pc, ip
    8480:	e3a06001 	mov	r6, #1
    8484:	e08c5100 	add	r5, ip, r0, lsl #2
    8488:	e59e4014 	ldr	r4, [lr, #20]
    848c:	e78c1100 	str	r1, [ip, r0, lsl #2]
    8490:	e1843316 	orr	r3, r4, r6, lsl r3
    8494:	e5852120 	str	r2, [r5, #288]	; 0x120
    8498:	e58e3014 	str	r3, [lr, #20]
    849c:	e8bd8070 	pop	{r4, r5, r6, pc}
    84a0:	e59f3034 	ldr	r3, [pc, #52]	; 84dc <register_irq_handler+0xb8>
    84a4:	e3a0ccb2 	mov	ip, #45568	; 0xb200
    84a8:	e343cf00 	movt	ip, #16128	; 0x3f00
    84ac:	e08f3003 	add	r3, pc, r3
    84b0:	e2405040 	sub	r5, r0, #64	; 0x40
    84b4:	e0834100 	add	r4, r3, r0, lsl #2
    84b8:	e3a06001 	mov	r6, #1
    84bc:	e59ce018 	ldr	lr, [ip, #24]
    84c0:	e7831100 	str	r1, [r3, r0, lsl #2]
    84c4:	e5842120 	str	r2, [r4, #288]	; 0x120
    84c8:	e18e3516 	orr	r3, lr, r6, lsl r5
    84cc:	e58c3018 	str	r3, [ip, #24]
    84d0:	e8bd8070 	pop	{r4, r5, r6, pc}
    84d4:	00003bac 	andeq	r3, r0, ip, lsr #23
    84d8:	00003b7c 	andeq	r3, r0, ip, ror fp
    84dc:	00003b4c 	andeq	r3, r0, ip, asr #22

000084e0 <unregister_irq_handler>:
    84e0:	e350003f 	cmp	r0, #63	; 0x3f
    84e4:	e92d4030 	push	{r4, r5, lr}
    84e8:	8a00001d 	bhi	8564 <unregister_irq_handler+0x84>
    84ec:	e2403020 	sub	r3, r0, #32
    84f0:	e6ef2073 	uxtb	r2, r3
    84f4:	e352001f 	cmp	r2, #31
    84f8:	9a00000c 	bls	8530 <unregister_irq_handler+0x50>
    84fc:	e59f3098 	ldr	r3, [pc, #152]	; 859c <unregister_irq_handler+0xbc>
    8500:	e3a02cb2 	mov	r2, #45568	; 0xb200
    8504:	e3432f00 	movt	r2, #16128	; 0x3f00
    8508:	e08f3003 	add	r3, pc, r3
    850c:	e3a04001 	mov	r4, #1
    8510:	e083e100 	add	lr, r3, r0, lsl #2
    8514:	e3a0c000 	mov	ip, #0
    8518:	e592101c 	ldr	r1, [r2, #28]
    851c:	e783c100 	str	ip, [r3, r0, lsl #2]
    8520:	e58ec120 	str	ip, [lr, #288]	; 0x120
    8524:	e1810014 	orr	r0, r1, r4, lsl r0
    8528:	e582001c 	str	r0, [r2, #28]
    852c:	e8bd8030 	pop	{r4, r5, pc}
    8530:	e59f2068 	ldr	r2, [pc, #104]	; 85a0 <unregister_irq_handler+0xc0>
    8534:	e3a01cb2 	mov	r1, #45568	; 0xb200
    8538:	e3431f00 	movt	r1, #16128	; 0x3f00
    853c:	e08f2002 	add	r2, pc, r2
    8540:	e3a05001 	mov	r5, #1
    8544:	e0824100 	add	r4, r2, r0, lsl #2
    8548:	e3a0e000 	mov	lr, #0
    854c:	e591c020 	ldr	ip, [r1, #32]
    8550:	e782e100 	str	lr, [r2, r0, lsl #2]
    8554:	e18c3315 	orr	r3, ip, r5, lsl r3
    8558:	e584e120 	str	lr, [r4, #288]	; 0x120
    855c:	e5813020 	str	r3, [r1, #32]
    8560:	e8bd8030 	pop	{r4, r5, pc}
    8564:	e59f3038 	ldr	r3, [pc, #56]	; 85a4 <unregister_irq_handler+0xc4>
    8568:	e3a02cb2 	mov	r2, #45568	; 0xb200
    856c:	e3432f00 	movt	r2, #16128	; 0x3f00
    8570:	e08f3003 	add	r3, pc, r3
    8574:	e2404040 	sub	r4, r0, #64	; 0x40
    8578:	e083e100 	add	lr, r3, r0, lsl #2
    857c:	e3a05001 	mov	r5, #1
    8580:	e5921024 	ldr	r1, [r2, #36]	; 0x24
    8584:	e3a0c000 	mov	ip, #0
    8588:	e783c100 	str	ip, [r3, r0, lsl #2]
    858c:	e58ec120 	str	ip, [lr, #288]	; 0x120
    8590:	e1813415 	orr	r3, r1, r5, lsl r4
    8594:	e5823024 	str	r3, [r2, #36]	; 0x24
    8598:	e8bd8030 	pop	{r4, r5, pc}
    859c:	00003af0 	strdeq	r3, [r0], -r0
    85a0:	00003abc 			; <UNDEFINED> instruction: 0x00003abc
    85a4:	00003a88 	andeq	r3, r0, r8, lsl #21

000085a8 <memset>:
    85a8:	e3520000 	cmp	r2, #0
    85ac:	e6ef1071 	uxtb	r1, r1
    85b0:	012fff1e 	bxeq	lr
    85b4:	e0802002 	add	r2, r0, r2
    85b8:	e1a03000 	mov	r3, r0
    85bc:	e4c31001 	strb	r1, [r3], #1
    85c0:	e1530002 	cmp	r3, r2
    85c4:	1afffffc 	bne	85bc <memset+0x14>
    85c8:	e12fff1e 	bx	lr

000085cc <bzero>:
    85cc:	e1a02001 	mov	r2, r1
    85d0:	e3a01000 	mov	r1, #0
    85d4:	eafffff3 	b	85a8 <memset>

000085d8 <interrupts_init>:
    85d8:	e92d4010 	push	{r4, lr}
    85dc:	ebfffece 	bl	811c <_enable_interrupts>
    85e0:	e10f3000 	mrs	r3, CPSR
    85e4:	e3130080 	tst	r3, #128	; 0x80
    85e8:	1a000000 	bne	85f0 <interrupts_init+0x18>
    85ec:	f10c0080 	cpsid	i
    85f0:	e59f4044 	ldr	r4, [pc, #68]	; 863c <interrupts_init+0x64>
    85f4:	e3a01e12 	mov	r1, #288	; 0x120
    85f8:	e08f4004 	add	r4, pc, r4
    85fc:	e1a00004 	mov	r0, r4
    8600:	ebfffff1 	bl	85cc <bzero>
    8604:	e2840e12 	add	r0, r4, #288	; 0x120
    8608:	e3a01e12 	mov	r1, #288	; 0x120
    860c:	ebffffee 	bl	85cc <bzero>
    8610:	e3a03cb2 	mov	r3, #45568	; 0xb200
    8614:	e3433f00 	movt	r3, #16128	; 0x3f00
    8618:	e3e02000 	mvn	r2, #0
    861c:	e5832024 	str	r2, [r3, #36]	; 0x24
    8620:	e583201c 	str	r2, [r3, #28]
    8624:	e5832020 	str	r2, [r3, #32]
    8628:	e10f3000 	mrs	r3, CPSR
    862c:	e3130080 	tst	r3, #128	; 0x80
    8630:	08bd8010 	popeq	{r4, pc}
    8634:	f1080080 	cpsie	i
    8638:	e8bd8010 	pop	{r4, pc}
    863c:	00003a00 	andeq	r3, r0, r0, lsl #20

00008640 <uart_init>:
    8640:	e3a03a01 	mov	r3, #4096	; 0x1000
    8644:	e3433f20 	movt	r3, #16160	; 0x3f20
    8648:	e3a01000 	mov	r1, #0
    864c:	e3431f20 	movt	r1, #16160	; 0x3f20
    8650:	e3a02096 	mov	r2, #150	; 0x96
    8654:	e3a00000 	mov	r0, #0
    8658:	e1a0c002 	mov	ip, r2
    865c:	e5830030 	str	r0, [r3, #48]	; 0x30
    8660:	e5810094 	str	r0, [r1, #148]	; 0x94

00008664 <__delay_53>:
    8664:	e25cc001 	subs	ip, ip, #1
    8668:	1afffffd 	bne	8664 <__delay_53>
    866c:	e3a0c903 	mov	ip, #49152	; 0xc000
    8670:	e581c098 	str	ip, [r1, #152]	; 0x98

00008674 <__delay_70>:
    8674:	e2522001 	subs	r2, r2, #1
    8678:	1afffffd 	bne	8674 <__delay_70>
    867c:	e3a02001 	mov	r2, #1
    8680:	e5810098 	str	r0, [r1, #152]	; 0x98
    8684:	e300c7ff 	movw	ip, #2047	; 0x7ff
    8688:	e3a01028 	mov	r1, #40	; 0x28
    868c:	e583c044 	str	ip, [r3, #68]	; 0x44
    8690:	e5832024 	str	r2, [r3, #36]	; 0x24
    8694:	e3a02070 	mov	r2, #112	; 0x70
    8698:	e5831028 	str	r1, [r3, #40]	; 0x28
    869c:	e30017f2 	movw	r1, #2034	; 0x7f2
    86a0:	e583202c 	str	r2, [r3, #44]	; 0x2c
    86a4:	e3002301 	movw	r2, #769	; 0x301
    86a8:	e5831038 	str	r1, [r3, #56]	; 0x38
    86ac:	e5832030 	str	r2, [r3, #48]	; 0x30
    86b0:	e12fff1e 	bx	lr

000086b4 <uart_putc>:
    86b4:	e3a01a01 	mov	r1, #4096	; 0x1000
    86b8:	e3431f20 	movt	r1, #16160	; 0x3f20
    86bc:	e5912018 	ldr	r2, [r1, #24]
    86c0:	e3a03a01 	mov	r3, #4096	; 0x1000
    86c4:	e3433f20 	movt	r3, #16160	; 0x3f20
    86c8:	e3120020 	tst	r2, #32
    86cc:	1afffffa 	bne	86bc <uart_putc+0x8>
    86d0:	e5830000 	str	r0, [r3]
    86d4:	e12fff1e 	bx	lr

000086d8 <uart_getc>:
    86d8:	e3a01a01 	mov	r1, #4096	; 0x1000
    86dc:	e3431f20 	movt	r1, #16160	; 0x3f20
    86e0:	e5912018 	ldr	r2, [r1, #24]
    86e4:	e3a03a01 	mov	r3, #4096	; 0x1000
    86e8:	e3433f20 	movt	r3, #16160	; 0x3f20
    86ec:	e3120010 	tst	r2, #16
    86f0:	1afffffa 	bne	86e0 <uart_getc+0x8>
    86f4:	e5930000 	ldr	r0, [r3]
    86f8:	e6ef0070 	uxtb	r0, r0
    86fc:	e12fff1e 	bx	lr

00008700 <uart_puts>:
    8700:	e92d4010 	push	{r4, lr}
    8704:	e1a04000 	mov	r4, r0
    8708:	e5d00000 	ldrb	r0, [r0]
    870c:	e3500000 	cmp	r0, #0
    8710:	08bd8010 	popeq	{r4, pc}
    8714:	ebffffe6 	bl	86b4 <uart_putc>
    8718:	e5f40001 	ldrb	r0, [r4, #1]!
    871c:	e3500000 	cmp	r0, #0
    8720:	1afffffb 	bne	8714 <uart_puts+0x14>
    8724:	e8bd8010 	pop	{r4, pc}

00008728 <hexstrings>:
    8728:	e92d4070 	push	{r4, r5, r6, lr}
    872c:	e1a05000 	mov	r5, r0
    8730:	e3a04020 	mov	r4, #32
    8734:	e2444004 	sub	r4, r4, #4
    8738:	e1a03435 	lsr	r3, r5, r4
    873c:	e203300f 	and	r3, r3, #15
    8740:	e3530009 	cmp	r3, #9
    8744:	e2830030 	add	r0, r3, #48	; 0x30
    8748:	82830037 	addhi	r0, r3, #55	; 0x37
    874c:	e6ef0070 	uxtb	r0, r0
    8750:	ebffffd7 	bl	86b4 <uart_putc>
    8754:	e3540000 	cmp	r4, #0
    8758:	1afffff5 	bne	8734 <hexstrings+0xc>
    875c:	e3a00020 	mov	r0, #32
    8760:	e8bd4070 	pop	{r4, r5, r6, lr}
    8764:	eaffffd2 	b	86b4 <uart_putc>

00008768 <RPI_Mailbox0Write>:
    8768:	e3c1100f 	bic	r1, r1, #15
    876c:	e3a0cb2e 	mov	ip, #47104	; 0xb800
    8770:	e343cf00 	movt	ip, #16128	; 0x3f00
    8774:	e1800001 	orr	r0, r0, r1
    8778:	e59c2098 	ldr	r2, [ip, #152]	; 0x98
    877c:	e3a03b2e 	mov	r3, #47104	; 0xb800
    8780:	e3433f00 	movt	r3, #16128	; 0x3f00
    8784:	e3520000 	cmp	r2, #0
    8788:	bafffffa 	blt	8778 <RPI_Mailbox0Write+0x10>
    878c:	e58300a0 	str	r0, [r3, #160]	; 0xa0
    8790:	e12fff1e 	bx	lr

00008794 <RPI_Mailbox0Read>:
    8794:	e350000f 	cmp	r0, #15
    8798:	0a00000b 	beq	87cc <RPI_Mailbox0Read+0x38>
    879c:	e3a02b2e 	mov	r2, #47104	; 0xb800
    87a0:	e3432f00 	movt	r2, #16128	; 0x3f00
    87a4:	e1a0c002 	mov	ip, r2
    87a8:	e5923098 	ldr	r3, [r2, #152]	; 0x98
    87ac:	e3130101 	tst	r3, #1073741824	; 0x40000000
    87b0:	1afffffc 	bne	87a8 <RPI_Mailbox0Read+0x14>
    87b4:	e59c3080 	ldr	r3, [ip, #128]	; 0x80
    87b8:	e203100f 	and	r1, r3, #15
    87bc:	e1510000 	cmp	r1, r0
    87c0:	1afffff8 	bne	87a8 <RPI_Mailbox0Read+0x14>
    87c4:	e1a00243 	asr	r0, r3, #4
    87c8:	e12fff1e 	bx	lr
    87cc:	e3e00000 	mvn	r0, #0
    87d0:	e12fff1e 	bx	lr

000087d4 <RPI_PropertyInit>:
    87d4:	e59f3028 	ldr	r3, [pc, #40]	; 8804 <RPI_PropertyInit+0x30>
    87d8:	e3a01000 	mov	r1, #0
    87dc:	e59f2024 	ldr	r2, [pc, #36]	; 8808 <RPI_PropertyInit+0x34>
    87e0:	e3a0c00c 	mov	ip, #12
    87e4:	e08f3003 	add	r3, pc, r3
    87e8:	e3a00002 	mov	r0, #2
    87ec:	e08f2002 	add	r2, pc, r2
    87f0:	e583c000 	str	ip, [r3]
    87f4:	e5831004 	str	r1, [r3, #4]
    87f8:	e5831008 	str	r1, [r3, #8]
    87fc:	e5820020 	str	r0, [r2, #32]
    8800:	e12fff1e 	bx	lr
    8804:	00003a64 	andeq	r3, r0, r4, ror #20
    8808:	0000ba3c 	andeq	fp, r0, ip, lsr sl

0000880c <RPI_PropertyAddTag>:
    880c:	e92d000f 	push	{r0, r1, r2, r3}
    8810:	e59f13f0 	ldr	r1, [pc, #1008]	; 8c08 <RPI_PropertyAddTag+0x3fc>
    8814:	e3a00008 	mov	r0, #8
    8818:	e3400004 	movt	r0, #4
    881c:	e92d40f0 	push	{r4, r5, r6, r7, lr}
    8820:	e08f1001 	add	r1, pc, r1
    8824:	e59fc3e0 	ldr	ip, [pc, #992]	; 8c0c <RPI_PropertyAddTag+0x400>
    8828:	e24dd00c 	sub	sp, sp, #12
    882c:	e08fc00c 	add	ip, pc, ip
    8830:	e28de024 	add	lr, sp, #36	; 0x24
    8834:	e5913020 	ldr	r3, [r1, #32]
    8838:	e59d2020 	ldr	r2, [sp, #32]
    883c:	e58de004 	str	lr, [sp, #4]
    8840:	e1520000 	cmp	r2, r0
    8844:	e78c2103 	str	r2, [ip, r3, lsl #2]
    8848:	e2830001 	add	r0, r3, #1
    884c:	e5810020 	str	r0, [r1, #32]
    8850:	8a00002c 	bhi	8908 <RPI_PropertyAddTag+0xfc>
    8854:	e3a04005 	mov	r4, #5
    8858:	e3404004 	movt	r4, #4
    885c:	e1520004 	cmp	r2, r4
    8860:	2a000085 	bcs	8a7c <RPI_PropertyAddTag+0x270>
    8864:	e3a04004 	mov	r4, #4
    8868:	e3404003 	movt	r4, #3
    886c:	e1520004 	cmp	r2, r4
    8870:	0a0000ab 	beq	8b24 <RPI_PropertyAddTag+0x318>
    8874:	9a000058 	bls	89dc <RPI_PropertyAddTag+0x1d0>
    8878:	e3a04001 	mov	r4, #1
    887c:	e3404004 	movt	r4, #4
    8880:	e1520004 	cmp	r2, r4
    8884:	0a0000a6 	beq	8b24 <RPI_PropertyAddTag+0x318>
    8888:	8a0000b7 	bhi	8b6c <RPI_PropertyAddTag+0x360>
    888c:	e3a04007 	mov	r4, #7
    8890:	e3404003 	movt	r4, #3
    8894:	e1520004 	cmp	r2, r4
    8898:	0a0000a1 	beq	8b24 <RPI_PropertyAddTag+0x318>
    889c:	e3084002 	movw	r4, #32770	; 0x8002
    88a0:	e3404003 	movt	r4, #3
    88a4:	e1520004 	cmp	r2, r4
    88a8:	1a000095 	bne	8b04 <RPI_PropertyAddTag+0x2f8>
    88ac:	e2836002 	add	r6, r3, #2
    88b0:	e2835003 	add	r5, r3, #3
    88b4:	e2832005 	add	r2, r3, #5
    88b8:	e2834004 	add	r4, r3, #4
    88bc:	e3a0700c 	mov	r7, #12
    88c0:	e2833006 	add	r3, r3, #6
    88c4:	e78c7100 	str	r7, [ip, r0, lsl #2]
    88c8:	e3a00000 	mov	r0, #0
    88cc:	e5813020 	str	r3, [r1, #32]
    88d0:	e78c0106 	str	r0, [ip, r6, lsl #2]
    88d4:	e59e6000 	ldr	r6, [lr]
    88d8:	e99e0003 	ldmib	lr, {r0, r1}
    88dc:	e78c6105 	str	r6, [ip, r5, lsl #2]
    88e0:	e78c0104 	str	r0, [ip, r4, lsl #2]
    88e4:	e78c1102 	str	r1, [ip, r2, lsl #2]
    88e8:	e59f2320 	ldr	r2, [pc, #800]	; 8c10 <RPI_PropertyAddTag+0x404>
    88ec:	e3a01000 	mov	r1, #0
    88f0:	e08f2002 	add	r2, pc, r2
    88f4:	e7821103 	str	r1, [r2, r3, lsl #2]
    88f8:	e28dd00c 	add	sp, sp, #12
    88fc:	e8bd40f0 	pop	{r4, r5, r6, r7, lr}
    8900:	e28dd010 	add	sp, sp, #16
    8904:	e12fff1e 	bx	lr
    8908:	e3081004 	movw	r1, #32772	; 0x8004
    890c:	e3401004 	movt	r1, #4
    8910:	e1520001 	cmp	r2, r1
    8914:	9a00006d 	bls	8ad0 <RPI_PropertyAddTag+0x2c4>
    8918:	e3081009 	movw	r1, #32777	; 0x8009
    891c:	e3401004 	movt	r1, #4
    8920:	e1520001 	cmp	r2, r1
    8924:	0a000094 	beq	8b7c <RPI_PropertyAddTag+0x370>
    8928:	9a00004f 	bls	8a6c <RPI_PropertyAddTag+0x260>
    892c:	e3a01001 	mov	r1, #1
    8930:	e3401005 	movt	r1, #5
    8934:	e1520001 	cmp	r2, r1
    8938:	0a00002f 	beq	89fc <RPI_PropertyAddTag+0x1f0>
    893c:	e3a01001 	mov	r1, #1
    8940:	e3401006 	movt	r1, #6
    8944:	e1520001 	cmp	r2, r1
    8948:	0a00003b 	beq	8a3c <RPI_PropertyAddTag+0x230>
    894c:	e308100a 	movw	r1, #32778	; 0x800a
    8950:	e3401004 	movt	r1, #4
    8954:	e1520001 	cmp	r2, r1
    8958:	1a000069 	bne	8b04 <RPI_PropertyAddTag+0x2f8>
    895c:	e59f12b0 	ldr	r1, [pc, #688]	; 8c14 <RPI_PropertyAddTag+0x408>
    8960:	e283c002 	add	ip, r3, #2
    8964:	e59fe2ac 	ldr	lr, [pc, #684]	; 8c18 <RPI_PropertyAddTag+0x40c>
    8968:	e308400a 	movw	r4, #32778	; 0x800a
    896c:	e3404004 	movt	r4, #4
    8970:	e08f1001 	add	r1, pc, r1
    8974:	e08fe00e 	add	lr, pc, lr
    8978:	e1520004 	cmp	r2, r4
    897c:	e3a02010 	mov	r2, #16
    8980:	e3a04000 	mov	r4, #0
    8984:	e7812100 	str	r2, [r1, r0, lsl #2]
    8988:	e2830003 	add	r0, r3, #3
    898c:	e781410c 	str	r4, [r1, ip, lsl #2]
    8990:	12833007 	addne	r3, r3, #7
    8994:	e58e0020 	str	r0, [lr, #32]
    8998:	158e3020 	strne	r3, [lr, #32]
    899c:	1affffd1 	bne	88e8 <RPI_PropertyAddTag+0xdc>
    89a0:	e59d2004 	ldr	r2, [sp, #4]
    89a4:	e2835004 	add	r5, r3, #4
    89a8:	e2834005 	add	r4, r3, #5
    89ac:	e283c006 	add	ip, r3, #6
    89b0:	e2833007 	add	r3, r3, #7
    89b4:	e58e3020 	str	r3, [lr, #32]
    89b8:	e592e000 	ldr	lr, [r2]
    89bc:	e781e100 	str	lr, [r1, r0, lsl #2]
    89c0:	e592e004 	ldr	lr, [r2, #4]
    89c4:	e5920008 	ldr	r0, [r2, #8]
    89c8:	e592200c 	ldr	r2, [r2, #12]
    89cc:	e781e105 	str	lr, [r1, r5, lsl #2]
    89d0:	e7810104 	str	r0, [r1, r4, lsl #2]
    89d4:	e781210c 	str	r2, [r1, ip, lsl #2]
    89d8:	eaffffc2 	b	88e8 <RPI_PropertyAddTag+0xdc>
    89dc:	e3a01006 	mov	r1, #6
    89e0:	e3401001 	movt	r1, #1
    89e4:	e1520001 	cmp	r2, r1
    89e8:	9a00000f 	bls	8a2c <RPI_PropertyAddTag+0x220>
    89ec:	e3a01007 	mov	r1, #7
    89f0:	e3401001 	movt	r1, #1
    89f4:	e1520001 	cmp	r2, r1
    89f8:	1a000045 	bne	8b14 <RPI_PropertyAddTag+0x308>
    89fc:	e59f2218 	ldr	r2, [pc, #536]	; 8c1c <RPI_PropertyAddTag+0x410>
    8a00:	e283c002 	add	ip, r3, #2
    8a04:	e59f1214 	ldr	r1, [pc, #532]	; 8c20 <RPI_PropertyAddTag+0x414>
    8a08:	e3a04c01 	mov	r4, #256	; 0x100
    8a0c:	e08f2002 	add	r2, pc, r2
    8a10:	e2833043 	add	r3, r3, #67	; 0x43
    8a14:	e08f1001 	add	r1, pc, r1
    8a18:	e3a0e000 	mov	lr, #0
    8a1c:	e7824100 	str	r4, [r2, r0, lsl #2]
    8a20:	e5813020 	str	r3, [r1, #32]
    8a24:	e782e10c 	str	lr, [r2, ip, lsl #2]
    8a28:	eaffffae 	b	88e8 <RPI_PropertyAddTag+0xdc>
    8a2c:	e3520801 	cmp	r2, #65536	; 0x10000
    8a30:	8a000001 	bhi	8a3c <RPI_PropertyAddTag+0x230>
    8a34:	e3520001 	cmp	r2, #1
    8a38:	1a000031 	bne	8b04 <RPI_PropertyAddTag+0x2f8>
    8a3c:	e59f21e0 	ldr	r2, [pc, #480]	; 8c24 <RPI_PropertyAddTag+0x418>
    8a40:	e283c002 	add	ip, r3, #2
    8a44:	e59f11dc 	ldr	r1, [pc, #476]	; 8c28 <RPI_PropertyAddTag+0x41c>
    8a48:	e3a04008 	mov	r4, #8
    8a4c:	e08f2002 	add	r2, pc, r2
    8a50:	e2833005 	add	r3, r3, #5
    8a54:	e08f1001 	add	r1, pc, r1
    8a58:	e3a0e000 	mov	lr, #0
    8a5c:	e7824100 	str	r4, [r2, r0, lsl #2]
    8a60:	e5813020 	str	r3, [r1, #32]
    8a64:	e782e10c 	str	lr, [r2, ip, lsl #2]
    8a68:	eaffff9e 	b	88e8 <RPI_PropertyAddTag+0xdc>
    8a6c:	e3081007 	movw	r1, #32775	; 0x8007
    8a70:	e3401004 	movt	r1, #4
    8a74:	e1520001 	cmp	r2, r1
    8a78:	8a000021 	bhi	8b04 <RPI_PropertyAddTag+0x2f8>
    8a7c:	e59fc1a8 	ldr	ip, [pc, #424]	; 8c2c <RPI_PropertyAddTag+0x420>
    8a80:	e2421912 	sub	r1, r2, #294912	; 0x48000
    8a84:	e2832002 	add	r2, r3, #2
    8a88:	e2411005 	sub	r1, r1, #5
    8a8c:	e08fc00c 	add	ip, pc, ip
    8a90:	e3510002 	cmp	r1, #2
    8a94:	e3a0e004 	mov	lr, #4
    8a98:	e3a01000 	mov	r1, #0
    8a9c:	e78ce100 	str	lr, [ip, r0, lsl #2]
    8aa0:	e2830003 	add	r0, r3, #3
    8aa4:	e78c1102 	str	r1, [ip, r2, lsl #2]
    8aa8:	9083300e 	addls	r3, r3, lr
    8aac:	e59f217c 	ldr	r2, [pc, #380]	; 8c30 <RPI_PropertyAddTag+0x424>
    8ab0:	82833004 	addhi	r3, r3, #4
    8ab4:	959d1004 	ldrls	r1, [sp, #4]
    8ab8:	e08f2002 	add	r2, pc, r2
    8abc:	95823020 	strls	r3, [r2, #32]
    8ac0:	95912000 	ldrls	r2, [r1]
    8ac4:	978c2100 	strls	r2, [ip, r0, lsl #2]
    8ac8:	85823020 	strhi	r3, [r2, #32]
    8acc:	eaffff85 	b	88e8 <RPI_PropertyAddTag+0xdc>
    8ad0:	e3081003 	movw	r1, #32771	; 0x8003
    8ad4:	e3401004 	movt	r1, #4
    8ad8:	e1520001 	cmp	r2, r1
    8adc:	2a000026 	bcs	8b7c <RPI_PropertyAddTag+0x370>
    8ae0:	e3a0100a 	mov	r1, #10
    8ae4:	e3401004 	movt	r1, #4
    8ae8:	e1520001 	cmp	r2, r1
    8aec:	0affff9a 	beq	895c <RPI_PropertyAddTag+0x150>
    8af0:	3a000021 	bcc	8b7c <RPI_PropertyAddTag+0x370>
    8af4:	e2421911 	sub	r1, r2, #278528	; 0x44000
    8af8:	e2411003 	sub	r1, r1, #3
    8afc:	e3510001 	cmp	r1, #1
    8b00:	9a00001d 	bls	8b7c <RPI_PropertyAddTag+0x370>
    8b04:	e59f2128 	ldr	r2, [pc, #296]	; 8c34 <RPI_PropertyAddTag+0x428>
    8b08:	e08f2002 	add	r2, pc, r2
    8b0c:	e5823020 	str	r3, [r2, #32]
    8b10:	eaffff74 	b	88e8 <RPI_PropertyAddTag+0xdc>
    8b14:	e3a01002 	mov	r1, #2
    8b18:	e3401003 	movt	r1, #3
    8b1c:	e1520001 	cmp	r2, r1
    8b20:	1afffff7 	bne	8b04 <RPI_PropertyAddTag+0x2f8>
    8b24:	e59f210c 	ldr	r2, [pc, #268]	; 8c38 <RPI_PropertyAddTag+0x42c>
    8b28:	e2835002 	add	r5, r3, #2
    8b2c:	e59f1108 	ldr	r1, [pc, #264]	; 8c3c <RPI_PropertyAddTag+0x430>
    8b30:	e283e003 	add	lr, r3, #3
    8b34:	e59d4004 	ldr	r4, [sp, #4]
    8b38:	e08f2002 	add	r2, pc, r2
    8b3c:	e283c004 	add	ip, r3, #4
    8b40:	e08f1001 	add	r1, pc, r1
    8b44:	e3a06008 	mov	r6, #8
    8b48:	e2833005 	add	r3, r3, #5
    8b4c:	e5944000 	ldr	r4, [r4]
    8b50:	e5813020 	str	r3, [r1, #32]
    8b54:	e7826100 	str	r6, [r2, r0, lsl #2]
    8b58:	e3a00000 	mov	r0, #0
    8b5c:	e7820105 	str	r0, [r2, r5, lsl #2]
    8b60:	e782410e 	str	r4, [r2, lr, lsl #2]
    8b64:	e782010c 	str	r0, [r2, ip, lsl #2]
    8b68:	eaffff5e 	b	88e8 <RPI_PropertyAddTag+0xdc>
    8b6c:	e3a01003 	mov	r1, #3
    8b70:	e3401004 	movt	r1, #4
    8b74:	e1520001 	cmp	r2, r1
    8b78:	3affffe1 	bcc	8b04 <RPI_PropertyAddTag+0x2f8>
    8b7c:	e59f10bc 	ldr	r1, [pc, #188]	; 8c40 <RPI_PropertyAddTag+0x434>
    8b80:	e283c002 	add	ip, r3, #2
    8b84:	e59f40b8 	ldr	r4, [pc, #184]	; 8c44 <RPI_PropertyAddTag+0x438>
    8b88:	e308e009 	movw	lr, #32777	; 0x8009
    8b8c:	e340e004 	movt	lr, #4
    8b90:	e08f1001 	add	r1, pc, r1
    8b94:	e08f4004 	add	r4, pc, r4
    8b98:	e152000e 	cmp	r2, lr
    8b9c:	e3a05000 	mov	r5, #0
    8ba0:	e3a0e008 	mov	lr, #8
    8ba4:	e781e100 	str	lr, [r1, r0, lsl #2]
    8ba8:	e283e003 	add	lr, r3, #3
    8bac:	e781510c 	str	r5, [r1, ip, lsl #2]
    8bb0:	e584e020 	str	lr, [r4, #32]
    8bb4:	0a000006 	beq	8bd4 <RPI_PropertyAddTag+0x3c8>
    8bb8:	e2422911 	sub	r2, r2, #278528	; 0x44000
    8bbc:	e2422003 	sub	r2, r2, #3
    8bc0:	e3c22901 	bic	r2, r2, #16384	; 0x4000
    8bc4:	e3520001 	cmp	r2, #1
    8bc8:	82833005 	addhi	r3, r3, #5
    8bcc:	85843020 	strhi	r3, [r4, #32]
    8bd0:	8affff44 	bhi	88e8 <RPI_PropertyAddTag+0xdc>
    8bd4:	e59f106c 	ldr	r1, [pc, #108]	; 8c48 <RPI_PropertyAddTag+0x43c>
    8bd8:	e283c004 	add	ip, r3, #4
    8bdc:	e59f2068 	ldr	r2, [pc, #104]	; 8c4c <RPI_PropertyAddTag+0x440>
    8be0:	e2833005 	add	r3, r3, #5
    8be4:	e59d0004 	ldr	r0, [sp, #4]
    8be8:	e08f1001 	add	r1, pc, r1
    8bec:	e08f2002 	add	r2, pc, r2
    8bf0:	e5904000 	ldr	r4, [r0]
    8bf4:	e5900004 	ldr	r0, [r0, #4]
    8bf8:	e5823020 	str	r3, [r2, #32]
    8bfc:	e781410e 	str	r4, [r1, lr, lsl #2]
    8c00:	e781010c 	str	r0, [r1, ip, lsl #2]
    8c04:	eaffff37 	b	88e8 <RPI_PropertyAddTag+0xdc>
    8c08:	0000ba08 	andeq	fp, r0, r8, lsl #20
    8c0c:	00003a1c 	andeq	r3, r0, ip, lsl sl
    8c10:	00003958 	andeq	r3, r0, r8, asr r9
    8c14:	000038d8 	ldrdeq	r3, [r0], -r8
    8c18:	0000b8b4 			; <UNDEFINED> instruction: 0x0000b8b4
    8c1c:	0000383c 	andeq	r3, r0, ip, lsr r8
    8c20:	0000b814 	andeq	fp, r0, r4, lsl r8
    8c24:	000037fc 	strdeq	r3, [r0], -ip
    8c28:	0000b7d4 	ldrdeq	fp, [r0], -r4
    8c2c:	000037bc 			; <UNDEFINED> instruction: 0x000037bc
    8c30:	0000b770 	andeq	fp, r0, r0, ror r7
    8c34:	0000b720 	andeq	fp, r0, r0, lsr #14
    8c38:	00003710 	andeq	r3, r0, r0, lsl r7
    8c3c:	0000b6e8 	andeq	fp, r0, r8, ror #13
    8c40:	000036b8 			; <UNDEFINED> instruction: 0x000036b8
    8c44:	0000b694 	muleq	r0, r4, r6
    8c48:	00003660 	andeq	r3, r0, r0, ror #12
    8c4c:	0000b63c 	andeq	fp, r0, ip, lsr r6

00008c50 <RPI_PropertyProcess>:
    8c50:	e59f303c 	ldr	r3, [pc, #60]	; 8c94 <RPI_PropertyProcess+0x44>
    8c54:	e3a00008 	mov	r0, #8
    8c58:	e59f2038 	ldr	r2, [pc, #56]	; 8c98 <RPI_PropertyProcess+0x48>
    8c5c:	e3a0c000 	mov	ip, #0
    8c60:	e08f3003 	add	r3, pc, r3
    8c64:	e92d4010 	push	{r4, lr}
    8c68:	e5933020 	ldr	r3, [r3, #32]
    8c6c:	e08f2002 	add	r2, pc, r2
    8c70:	e1a01002 	mov	r1, r2
    8c74:	e2833001 	add	r3, r3, #1
    8c78:	e582c004 	str	ip, [r2, #4]
    8c7c:	e1a03103 	lsl	r3, r3, #2
    8c80:	e5823000 	str	r3, [r2]
    8c84:	ebfffeb7 	bl	8768 <RPI_Mailbox0Write>
    8c88:	e3a00008 	mov	r0, #8
    8c8c:	e8bd4010 	pop	{r4, lr}
    8c90:	eafffebf 	b	8794 <RPI_Mailbox0Read>
    8c94:	0000b5c8 	andeq	fp, r0, r8, asr #11
    8c98:	000035dc 	ldrdeq	r3, [r0], -ip

00008c9c <RPI_PropertyGet>:
    8c9c:	e59f2094 	ldr	r2, [pc, #148]	; 8d38 <RPI_PropertyGet+0x9c>
    8ca0:	e59f3094 	ldr	r3, [pc, #148]	; 8d3c <RPI_PropertyGet+0xa0>
    8ca4:	e08f2002 	add	r2, pc, r2
    8ca8:	e08f3003 	add	r3, pc, r3
    8cac:	e92d4010 	push	{r4, lr}
    8cb0:	e592c000 	ldr	ip, [r2]
    8cb4:	e5830024 	str	r0, [r3, #36]	; 0x24
    8cb8:	e1a0c14c 	asr	ip, ip, #2
    8cbc:	e35c0002 	cmp	ip, #2
    8cc0:	da00000d 	ble	8cfc <RPI_PropertyGet+0x60>
    8cc4:	e5923008 	ldr	r3, [r2, #8]
    8cc8:	e1530000 	cmp	r3, r0
    8ccc:	e3a03002 	mov	r3, #2
    8cd0:	1a000003 	bne	8ce4 <RPI_PropertyGet+0x48>
    8cd4:	ea00000a 	b	8d04 <RPI_PropertyGet+0x68>
    8cd8:	e7921103 	ldr	r1, [r2, r3, lsl #2]
    8cdc:	e1500001 	cmp	r0, r1
    8ce0:	0a000007 	beq	8d04 <RPI_PropertyGet+0x68>
    8ce4:	e2831001 	add	r1, r3, #1
    8ce8:	e7921101 	ldr	r1, [r2, r1, lsl #2]
    8cec:	e0833141 	add	r3, r3, r1, asr #2
    8cf0:	e2833003 	add	r3, r3, #3
    8cf4:	e153000c 	cmp	r3, ip
    8cf8:	bafffff6 	blt	8cd8 <RPI_PropertyGet+0x3c>
    8cfc:	e3a00000 	mov	r0, #0
    8d00:	e8bd8010 	pop	{r4, pc}
    8d04:	e59f2034 	ldr	r2, [pc, #52]	; 8d40 <RPI_PropertyGet+0xa4>
    8d08:	e59fc034 	ldr	ip, [pc, #52]	; 8d44 <RPI_PropertyGet+0xa8>
    8d0c:	e08f2002 	add	r2, pc, r2
    8d10:	e0823103 	add	r3, r2, r3, lsl #2
    8d14:	e08fc00c 	add	ip, pc, ip
    8d18:	e28c4024 	add	r4, ip, #36	; 0x24
    8d1c:	e283100c 	add	r1, r3, #12
    8d20:	e28c002c 	add	r0, ip, #44	; 0x2c
    8d24:	e1d320b8 	ldrh	r2, [r3, #8]
    8d28:	e58c2028 	str	r2, [ip, #40]	; 0x28
    8d2c:	eb000152 	bl	927c <memcpy>
    8d30:	e1a00004 	mov	r0, r4
    8d34:	e8bd8010 	pop	{r4, pc}
    8d38:	000035a4 	andeq	r3, r0, r4, lsr #11
    8d3c:	0000b580 	andeq	fp, r0, r0, lsl #11
    8d40:	0000353c 	andeq	r3, r0, ip, lsr r5
    8d44:	0000b514 	andeq	fp, r0, r4, lsl r5

00008d48 <timer_irq_handler>:
    8d48:	e92d4010 	push	{r4, lr}
    8d4c:	e59f0014 	ldr	r0, [pc, #20]	; 8d68 <timer_irq_handler+0x20>
    8d50:	e08f0000 	add	r0, pc, r0
    8d54:	ebfffe69 	bl	8700 <uart_puts>
    8d58:	e3060da0 	movw	r0, #28064	; 0x6da0
    8d5c:	e340020e 	movt	r0, #526	; 0x20e
    8d60:	e8bd4010 	pop	{r4, lr}
    8d64:	ea00001a 	b	8dd4 <timer_set>
    8d68:	000012a8 	andeq	r1, r0, r8, lsr #5

00008d6c <timer_irq_clearer>:
    8d6c:	e59f3020 	ldr	r3, [pc, #32]	; 8d94 <timer_irq_clearer+0x28>
    8d70:	e59f0020 	ldr	r0, [pc, #32]	; 8d98 <timer_irq_clearer+0x2c>
    8d74:	e08f3003 	add	r3, pc, r3
    8d78:	e08f0000 	add	r0, pc, r0
    8d7c:	e2800020 	add	r0, r0, #32
    8d80:	e5932000 	ldr	r2, [r3]
    8d84:	e5d23000 	ldrb	r3, [r2]
    8d88:	e3833002 	orr	r3, r3, #2
    8d8c:	e5c23000 	strb	r3, [r2]
    8d90:	eafffe5a 	b	8700 <uart_puts>
    8d94:	0000b5e0 	andeq	fp, r0, r0, ror #11
    8d98:	00001280 	andeq	r1, r0, r0, lsl #5

00008d9c <timer_init>:
    8d9c:	e59f3024 	ldr	r3, [pc, #36]	; 8dc8 <timer_init+0x2c>
    8da0:	e3a0ca03 	mov	ip, #12288	; 0x3000
    8da4:	e343cf00 	movt	ip, #16128	; 0x3f00
    8da8:	e08f3003 	add	r3, pc, r3
    8dac:	e59f2018 	ldr	r2, [pc, #24]	; 8dcc <timer_init+0x30>
    8db0:	e59f1018 	ldr	r1, [pc, #24]	; 8dd0 <timer_init+0x34>
    8db4:	e3a00001 	mov	r0, #1
    8db8:	e08f2002 	add	r2, pc, r2
    8dbc:	e08f1001 	add	r1, pc, r1
    8dc0:	e583c000 	str	ip, [r3]
    8dc4:	eafffd96 	b	8424 <register_irq_handler>
    8dc8:	0000b5ac 	andeq	fp, r0, ip, lsr #11
    8dcc:	ffffffac 			; <UNDEFINED> instruction: 0xffffffac
    8dd0:	ffffff84 			; <UNDEFINED> instruction: 0xffffff84

00008dd4 <timer_set>:
    8dd4:	e59f3010 	ldr	r3, [pc, #16]	; 8dec <timer_set+0x18>
    8dd8:	e79f2003 	ldr	r2, [pc, r3]
    8ddc:	e5923004 	ldr	r3, [r2, #4]
    8de0:	e0830000 	add	r0, r3, r0
    8de4:	e5820010 	str	r0, [r2, #16]
    8de8:	e12fff1e 	bx	lr
    8dec:	0000b57c 	andeq	fp, r0, ip, ror r5

00008df0 <udelay>:
    8df0:	e52db004 	push	{fp}		; (str fp, [sp, #-4]!)
    8df4:	e28db000 	add	fp, sp, #0
    8df8:	e24dd014 	sub	sp, sp, #20
    8dfc:	e50b0010 	str	r0, [fp, #-16]
    8e00:	e59f3068 	ldr	r3, [pc, #104]	; 8e70 <udelay+0x80>
    8e04:	e08f3003 	add	r3, pc, r3
    8e08:	e5933000 	ldr	r3, [r3]
    8e0c:	e5933004 	ldr	r3, [r3, #4]
    8e10:	e50b3008 	str	r3, [fp, #-8]
    8e14:	e59f3058 	ldr	r3, [pc, #88]	; 8e74 <udelay+0x84>
    8e18:	e08f3003 	add	r3, pc, r3
    8e1c:	e5933000 	ldr	r3, [r3]
    8e20:	e5932004 	ldr	r2, [r3, #4]
    8e24:	e51b3008 	ldr	r3, [fp, #-8]
    8e28:	e0633002 	rsb	r3, r3, r2
    8e2c:	e50b300c 	str	r3, [fp, #-12]
    8e30:	ea000006 	b	8e50 <udelay+0x60>
    8e34:	e59f303c 	ldr	r3, [pc, #60]	; 8e78 <udelay+0x88>
    8e38:	e08f3003 	add	r3, pc, r3
    8e3c:	e5933000 	ldr	r3, [r3]
    8e40:	e5932004 	ldr	r2, [r3, #4]
    8e44:	e51b3008 	ldr	r3, [fp, #-8]
    8e48:	e0633002 	rsb	r3, r3, r2
    8e4c:	e50b300c 	str	r3, [fp, #-12]
    8e50:	e51b200c 	ldr	r2, [fp, #-12]
    8e54:	e51b3010 	ldr	r3, [fp, #-16]
    8e58:	e1520003 	cmp	r2, r3
    8e5c:	3afffff4 	bcc	8e34 <udelay+0x44>
    8e60:	e1a00000 	nop			; (mov r0, r0)
    8e64:	e24bd000 	sub	sp, fp, #0
    8e68:	e49db004 	pop	{fp}		; (ldr fp, [sp], #4)
    8e6c:	e12fff1e 	bx	lr
    8e70:	0000b550 	andeq	fp, r0, r0, asr r5
    8e74:	0000b53c 	andeq	fp, r0, ip, lsr r5
    8e78:	0000b51c 	andeq	fp, r0, ip, lsl r5

00008e7c <append_page_list>:
    8e7c:	e990000c 	ldmib	r0, {r2, r3}
    8e80:	e5821008 	str	r1, [r2, #8]
    8e84:	e3a0c000 	mov	ip, #0
    8e88:	e581200c 	str	r2, [r1, #12]
    8e8c:	e2833001 	add	r3, r3, #1
    8e90:	e5801004 	str	r1, [r0, #4]
    8e94:	e581c008 	str	ip, [r1, #8]
    8e98:	e5803008 	str	r3, [r0, #8]
    8e9c:	e12fff1e 	bx	lr

00008ea0 <push_page_list>:
    8ea0:	e5903008 	ldr	r3, [r0, #8]
    8ea4:	e3a02000 	mov	r2, #0
    8ea8:	e590c000 	ldr	ip, [r0]
    8eac:	e581c008 	str	ip, [r1, #8]
    8eb0:	e2833001 	add	r3, r3, #1
    8eb4:	e581200c 	str	r2, [r1, #12]
    8eb8:	e5801000 	str	r1, [r0]
    8ebc:	e5803008 	str	r3, [r0, #8]
    8ec0:	e12fff1e 	bx	lr

00008ec4 <peek_page_list>:
    8ec4:	e5900000 	ldr	r0, [r0]
    8ec8:	e12fff1e 	bx	lr

00008ecc <pop_page_list>:
    8ecc:	e5901000 	ldr	r1, [r0]
    8ed0:	e1a03000 	mov	r3, r0
    8ed4:	e5902008 	ldr	r2, [r0, #8]
    8ed8:	e3a0c000 	mov	ip, #0
    8edc:	e1a00001 	mov	r0, r1
    8ee0:	e5911008 	ldr	r1, [r1, #8]
    8ee4:	e2422001 	sub	r2, r2, #1
    8ee8:	e5831000 	str	r1, [r3]
    8eec:	e581c00c 	str	ip, [r1, #12]
    8ef0:	e5832008 	str	r2, [r3, #8]
    8ef4:	e12fff1e 	bx	lr

00008ef8 <size_page_list>:
    8ef8:	e5900008 	ldr	r0, [r0, #8]
    8efc:	e12fff1e 	bx	lr

00008f00 <next_page_list>:
    8f00:	e5900008 	ldr	r0, [r0, #8]
    8f04:	e12fff1e 	bx	lr

00008f08 <get_num_of_free_pages>:
    8f08:	e59f300c 	ldr	r3, [pc, #12]	; 8f1c <get_num_of_free_pages+0x14>
    8f0c:	e59f200c 	ldr	r2, [pc, #12]	; 8f20 <get_num_of_free_pages+0x18>
    8f10:	e08f3003 	add	r3, pc, r3
    8f14:	e7930002 	ldr	r0, [r3, r2]
    8f18:	eafffff6 	b	8ef8 <size_page_list>
    8f1c:	000020e8 	andeq	r2, r0, r8, ror #1
    8f20:	00000000 	andeq	r0, r0, r0

00008f24 <alloc_page>:
    8f24:	e59f3058 	ldr	r3, [pc, #88]	; 8f84 <alloc_page+0x60>
    8f28:	e92d4010 	push	{r4, lr}
    8f2c:	e08f3003 	add	r3, pc, r3
    8f30:	e59f2050 	ldr	r2, [pc, #80]	; 8f88 <alloc_page+0x64>
    8f34:	e7934002 	ldr	r4, [r3, r2]
    8f38:	e1a00004 	mov	r0, r4
    8f3c:	ebffffed 	bl	8ef8 <size_page_list>
    8f40:	e3500000 	cmp	r0, #0
    8f44:	08bd8010 	popeq	{r4, pc}
    8f48:	e1a00004 	mov	r0, r4
    8f4c:	ebffffde 	bl	8ecc <pop_page_list>
    8f50:	e59f2034 	ldr	r2, [pc, #52]	; 8f8c <alloc_page+0x68>
    8f54:	e5d03004 	ldrb	r3, [r0, #4]
    8f58:	e3a01a01 	mov	r1, #4096	; 0x1000
    8f5c:	e08f2002 	add	r2, pc, r2
    8f60:	e3833003 	orr	r3, r3, #3
    8f64:	e5c03004 	strb	r3, [r0, #4]
    8f68:	e5924000 	ldr	r4, [r2]
    8f6c:	e0640000 	rsb	r0, r4, r0
    8f70:	e1a04400 	lsl	r4, r0, #8
    8f74:	e1a00004 	mov	r0, r4
    8f78:	ebfffd93 	bl	85cc <bzero>
    8f7c:	e1a00004 	mov	r0, r4
    8f80:	e8bd8010 	pop	{r4, pc}
    8f84:	000020cc 	andeq	r2, r0, ip, asr #1
    8f88:	00000000 	andeq	r0, r0, r0
    8f8c:	0000b3fc 	strdeq	fp, [r0], -ip

00008f90 <free_page>:
    8f90:	e59f3030 	ldr	r3, [pc, #48]	; 8fc8 <free_page+0x38>
    8f94:	e1a00620 	lsr	r0, r0, #12
    8f98:	e59fc02c 	ldr	ip, [pc, #44]	; 8fcc <free_page+0x3c>
    8f9c:	e08f3003 	add	r3, pc, r3
    8fa0:	e59f2028 	ldr	r2, [pc, #40]	; 8fd0 <free_page+0x40>
    8fa4:	e08fc00c 	add	ip, pc, ip
    8fa8:	e5933000 	ldr	r3, [r3]
    8fac:	e0830200 	add	r0, r3, r0, lsl #4
    8fb0:	e1a01000 	mov	r1, r0
    8fb4:	e5d03004 	ldrb	r3, [r0, #4]
    8fb8:	e7c0301f 	bfc	r3, #0, #1
    8fbc:	e5c03004 	strb	r3, [r0, #4]
    8fc0:	e79c0002 	ldr	r0, [ip, r2]
    8fc4:	eaffffac 	b	8e7c <append_page_list>
    8fc8:	0000b3bc 			; <UNDEFINED> instruction: 0x0000b3bc
    8fcc:	00002054 	andeq	r2, r0, r4, asr r0
    8fd0:	00000000 	andeq	r0, r0, r0

00008fd4 <get_mem_size>:
    8fd4:	e92d4010 	push	{r4, lr}
    8fd8:	e59f4040 	ldr	r4, [pc, #64]	; 9020 <get_mem_size+0x4c>
    8fdc:	e08f4004 	add	r4, pc, r4
    8fe0:	e5940004 	ldr	r0, [r4, #4]
    8fe4:	e3500000 	cmp	r0, #0
    8fe8:	18bd8010 	popne	{r4, pc}
    8fec:	ebfffdf8 	bl	87d4 <RPI_PropertyInit>
    8ff0:	e3a00005 	mov	r0, #5
    8ff4:	e3400001 	movt	r0, #1
    8ff8:	ebfffe03 	bl	880c <RPI_PropertyAddTag>
    8ffc:	ebffff13 	bl	8c50 <RPI_PropertyProcess>
    9000:	e3a00005 	mov	r0, #5
    9004:	e3400001 	movt	r0, #1
    9008:	ebffff23 	bl	8c9c <RPI_PropertyGet>
    900c:	e3500000 	cmp	r0, #0
    9010:	1590000c 	ldrne	r0, [r0, #12]
    9014:	03e00000 	mvneq	r0, #0
    9018:	15840004 	strne	r0, [r4, #4]
    901c:	e8bd8010 	pop	{r4, pc}
    9020:	0000b37c 	andeq	fp, r0, ip, ror r3

00009024 <mem_init>:
    9024:	e92d41f0 	push	{r4, r5, r6, r7, r8, lr}
    9028:	ebffffe9 	bl	8fd4 <get_mem_size>
    902c:	e1a01000 	mov	r1, r0
    9030:	e1a04000 	mov	r4, r0
    9034:	e59f00e4 	ldr	r0, [pc, #228]	; 9120 <mem_init+0xfc>
    9038:	e59f60e4 	ldr	r6, [pc, #228]	; 9124 <mem_init+0x100>
    903c:	e08f0000 	add	r0, pc, r0
    9040:	e1a04624 	lsr	r4, r4, #12
    9044:	eb00009b 	bl	92b8 <printf>
    9048:	e08f6006 	add	r6, pc, r6
    904c:	e59f00d4 	ldr	r0, [pc, #212]	; 9128 <mem_init+0x104>
    9050:	e1a01004 	mov	r1, r4
    9054:	e59f50d0 	ldr	r5, [pc, #208]	; 912c <mem_init+0x108>
    9058:	e08f0000 	add	r0, pc, r0
    905c:	e5864008 	str	r4, [r6, #8]
    9060:	e08f5005 	add	r5, pc, r5
    9064:	eb000093 	bl	92b8 <printf>
    9068:	e59f30c0 	ldr	r3, [pc, #192]	; 9130 <mem_init+0x10c>
    906c:	e5961008 	ldr	r1, [r6, #8]
    9070:	e7954003 	ldr	r4, [r5, r3]
    9074:	e1a01201 	lsl	r1, r1, #4
    9078:	e5864000 	str	r4, [r6]
    907c:	e1a00004 	mov	r0, r4
    9080:	ebfffd51 	bl	85cc <bzero>
    9084:	e59f20a8 	ldr	r2, [pc, #168]	; 9134 <mem_init+0x110>
    9088:	e1b04624 	lsrs	r4, r4, #12
    908c:	e3a03000 	mov	r3, #0
    9090:	e7955002 	ldr	r5, [r5, r2]
    9094:	e5853004 	str	r3, [r5, #4]
    9098:	e5853000 	str	r3, [r5]
    909c:	e5853008 	str	r3, [r5, #8]
    90a0:	0a00000a 	beq	90d0 <mem_init+0xac>
    90a4:	e5960000 	ldr	r0, [r6]
    90a8:	e1a02000 	mov	r2, r0
    90ac:	e1a01603 	lsl	r1, r3, #12
    90b0:	e7801203 	str	r1, [r0, r3, lsl #4]
    90b4:	e2833001 	add	r3, r3, #1
    90b8:	e5d21004 	ldrb	r1, [r2, #4]
    90bc:	e1540003 	cmp	r4, r3
    90c0:	e2822010 	add	r2, r2, #16
    90c4:	e3811003 	orr	r1, r1, #3
    90c8:	e542100c 	strb	r1, [r2, #-12]
    90cc:	1afffff6 	bne	90ac <mem_init+0x88>
    90d0:	e59f7060 	ldr	r7, [pc, #96]	; 9138 <mem_init+0x114>
    90d4:	e08f7007 	add	r7, pc, r7
    90d8:	e5973008 	ldr	r3, [r7, #8]
    90dc:	e1540003 	cmp	r4, r3
    90e0:	28bd81f0 	popcs	{r4, r5, r6, r7, r8, pc}
    90e4:	e1a06204 	lsl	r6, r4, #4
    90e8:	e5973000 	ldr	r3, [r7]
    90ec:	e1a00005 	mov	r0, r5
    90f0:	e2844001 	add	r4, r4, #1
    90f4:	e0833006 	add	r3, r3, r6
    90f8:	e2866010 	add	r6, r6, #16
    90fc:	e1a01003 	mov	r1, r3
    9100:	e5d32004 	ldrb	r2, [r3, #4]
    9104:	e7c0201f 	bfc	r2, #0, #1
    9108:	e5c32004 	strb	r2, [r3, #4]
    910c:	ebffff5a 	bl	8e7c <append_page_list>
    9110:	e5973008 	ldr	r3, [r7, #8]
    9114:	e1530004 	cmp	r3, r4
    9118:	8afffff2 	bhi	90e8 <mem_init+0xc4>
    911c:	e8bd81f0 	pop	{r4, r5, r6, r7, r8, pc}
    9120:	000010f0 	strdeq	r1, [r0], -r0
    9124:	0000b310 	andeq	fp, r0, r0, lsl r3
    9128:	000010f0 	strdeq	r1, [r0], -r0
    912c:	00001f98 	muleq	r0, r8, pc	; <UNPREDICTABLE>
    9130:	00000008 	andeq	r0, r0, r8
    9134:	00000000 	andeq	r0, r0, r0
    9138:	0000b284 	andeq	fp, r0, r4, lsl #5

0000913c <mmu_section>:
    913c:	e59f3030 	ldr	r3, [pc, #48]	; 9174 <mmu_section+0x38>
    9140:	e1a01a21 	lsr	r1, r1, #20
    9144:	e3822b03 	orr	r2, r2, #3072	; 0xc00
    9148:	e1a00a20 	lsr	r0, r0, #20
    914c:	e08f3003 	add	r3, pc, r3
    9150:	e3822002 	orr	r2, r2, #2
    9154:	e1a01a01 	lsl	r1, r1, #20
    9158:	e92d4010 	push	{r4, lr}
    915c:	e5933000 	ldr	r3, [r3]
    9160:	e1821001 	orr	r1, r2, r1
    9164:	e1830100 	orr	r0, r3, r0, lsl #2
    9168:	ebfffbdf 	bl	80ec <PUT32>
    916c:	e3a00000 	mov	r0, #0
    9170:	e8bd8010 	pop	{r4, pc}
    9174:	0000b218 	andeq	fp, r0, r8, lsl r2

00009178 <initialize_virtual_memory>:
    9178:	e59f3088 	ldr	r3, [pc, #136]	; 9208 <initialize_virtual_memory+0x90>
    917c:	e59f1088 	ldr	r1, [pc, #136]	; 920c <initialize_virtual_memory+0x94>
    9180:	e92d4070 	push	{r4, r5, r6, lr}
    9184:	e08f3003 	add	r3, pc, r3
    9188:	e59f0080 	ldr	r0, [pc, #128]	; 9210 <initialize_virtual_memory+0x98>
    918c:	e08f1001 	add	r1, pc, r1
    9190:	e59f207c 	ldr	r2, [pc, #124]	; 9214 <initialize_virtual_memory+0x9c>
    9194:	e3a04000 	mov	r4, #0
    9198:	e7930000 	ldr	r0, [r3, r0]
    919c:	e5810000 	str	r0, [r1]
    91a0:	e7935002 	ldr	r5, [r3, r2]
    91a4:	e1a01004 	mov	r1, r4
    91a8:	e1a00004 	mov	r0, r4
    91ac:	e3a02000 	mov	r2, #0
    91b0:	ebffffe1 	bl	913c <mmu_section>
    91b4:	e1540005 	cmp	r4, r5
    91b8:	e2844601 	add	r4, r4, #1048576	; 0x100000
    91bc:	3afffff8 	bcc	91a4 <initialize_virtual_memory+0x2c>
    91c0:	e3a0143f 	mov	r1, #1056964608	; 0x3f000000
    91c4:	e3a02000 	mov	r2, #0
    91c8:	e1a00001 	mov	r0, r1
    91cc:	ebffffda 	bl	913c <mmu_section>
    91d0:	e3a01000 	mov	r1, #0
    91d4:	e3431f20 	movt	r1, #16160	; 0x3f20
    91d8:	e1a00001 	mov	r0, r1
    91dc:	e3a02000 	mov	r2, #0
    91e0:	ebffffd5 	bl	913c <mmu_section>
    91e4:	e59f002c 	ldr	r0, [pc, #44]	; 9218 <initialize_virtual_memory+0xa0>
    91e8:	e08f0000 	add	r0, pc, r0
    91ec:	eb000031 	bl	92b8 <printf>
    91f0:	e59f3024 	ldr	r3, [pc, #36]	; 921c <initialize_virtual_memory+0xa4>
    91f4:	e3a01005 	mov	r1, #5
    91f8:	e08f3003 	add	r3, pc, r3
    91fc:	e8bd4070 	pop	{r4, r5, r6, lr}
    9200:	e5930000 	ldr	r0, [r3]
    9204:	eafffbd4 	b	815c <start_mmu>
    9208:	00001e74 	andeq	r1, r0, r4, ror lr
    920c:	0000b1d8 	ldrdeq	fp, [r0], -r8
    9210:	00000004 	andeq	r0, r0, r4
    9214:	00000008 	andeq	r0, r0, r8
    9218:	00000f88 	andeq	r0, r0, r8, lsl #31
    921c:	0000b16c 	andeq	fp, r0, ip, ror #2

00009220 <kernel_main>:
    9220:	e59f0040 	ldr	r0, [pc, #64]	; 9268 <kernel_main+0x48>
    9224:	e92d4010 	push	{r4, lr}
    9228:	e59f403c 	ldr	r4, [pc, #60]	; 926c <kernel_main+0x4c>
    922c:	e08f0000 	add	r0, pc, r0
    9230:	eb000020 	bl	92b8 <printf>
    9234:	e08f4004 	add	r4, pc, r4
    9238:	ebfffd00 	bl	8640 <uart_init>
    923c:	ebfffce5 	bl	85d8 <interrupts_init>
    9240:	ebffffcc 	bl	9178 <initialize_virtual_memory>
    9244:	e59f3024 	ldr	r3, [pc, #36]	; 9270 <kernel_main+0x50>
    9248:	e59f0024 	ldr	r0, [pc, #36]	; 9274 <kernel_main+0x54>
    924c:	e7941003 	ldr	r1, [r4, r3]
    9250:	e08f0000 	add	r0, pc, r0
    9254:	eb000017 	bl	92b8 <printf>
    9258:	e59f0018 	ldr	r0, [pc, #24]	; 9278 <kernel_main+0x58>
    925c:	e08f0000 	add	r0, pc, r0
    9260:	ebfffd26 	bl	8700 <uart_puts>
    9264:	eafffffe 	b	9264 <kernel_main+0x44>
    9268:	00000f54 	andeq	r0, r0, r4, asr pc
    926c:	00001dc4 	andeq	r1, r0, r4, asr #27
    9270:	00000008 	andeq	r0, r0, r8
    9274:	00000f70 	andeq	r0, r0, r0, ror pc
    9278:	00000f7c 	andeq	r0, r0, ip, ror pc

0000927c <memcpy>:
    927c:	e3520000 	cmp	r2, #0
    9280:	012fff1e 	bxeq	lr
    9284:	e2403001 	sub	r3, r0, #1
    9288:	e0812002 	add	r2, r1, r2
    928c:	e4d1c001 	ldrb	ip, [r1], #1
    9290:	e1510002 	cmp	r1, r2
    9294:	e5e3c001 	strb	ip, [r3, #1]!
    9298:	1afffffb 	bne	928c <memcpy+0x10>
    929c:	e12fff1e 	bx	lr

000092a0 <fputc>:
    92a0:	e92d4010 	push	{r4, lr}
    92a4:	e20000ff 	and	r0, r0, #255	; 0xff
    92a8:	ebfffd01 	bl	86b4 <uart_putc>
    92ac:	e3a00001 	mov	r0, #1
    92b0:	e8bd4010 	pop	{r4, lr}
    92b4:	e12fff1e 	bx	lr

000092b8 <printf>:
    92b8:	e92d000f 	push	{r0, r1, r2, r3}
    92bc:	e52de004 	push	{lr}		; (str lr, [sp, #-4]!)
    92c0:	e24dd00c 	sub	sp, sp, #12
    92c4:	e28dc014 	add	ip, sp, #20
    92c8:	e1a0100c 	mov	r1, ip
    92cc:	e3a03001 	mov	r3, #1
    92d0:	e59f2018 	ldr	r2, [pc, #24]	; 92f0 <printf+0x38>
    92d4:	e59d0010 	ldr	r0, [sp, #16]
    92d8:	e58dc004 	str	ip, [sp, #4]
    92dc:	eb000004 	bl	92f4 <_doprnt>
    92e0:	e28dd00c 	add	sp, sp, #12
    92e4:	e49de004 	pop	{lr}		; (ldr lr, [sp], #4)
    92e8:	e28dd010 	add	sp, sp, #16
    92ec:	e12fff1e 	bx	lr
    92f0:	000092a0 	andeq	r9, r0, r0, lsr #5

000092f4 <_doprnt>:
    92f4:	e92d4ff0 	push	{r4, r5, r6, r7, r8, r9, sl, fp, lr}
    92f8:	e3a0b000 	mov	fp, #0
    92fc:	e1a07002 	mov	r7, r2
    9300:	e1a0a003 	mov	sl, r3
    9304:	e24dd074 	sub	sp, sp, #116	; 0x74
    9308:	e58d0004 	str	r0, [sp, #4]
    930c:	e58d1010 	str	r1, [sp, #16]
    9310:	e59d3004 	ldr	r3, [sp, #4]
    9314:	e5d30000 	ldrb	r0, [r3]
    9318:	e3500000 	cmp	r0, #0
    931c:	0a0001ac 	beq	99d4 <_doprnt+0x6e0>
    9320:	e3500025 	cmp	r0, #37	; 0x25
    9324:	1a000014 	bne	937c <_doprnt+0x88>
    9328:	e59d3004 	ldr	r3, [sp, #4]
    932c:	e5d30001 	ldrb	r0, [r3, #1]
    9330:	e3500025 	cmp	r0, #37	; 0x25
    9334:	e2833001 	add	r3, r3, #1
    9338:	0a0000aa 	beq	95e8 <_doprnt+0x2f4>
    933c:	e3a02020 	mov	r2, #32
    9340:	e58d2008 	str	r2, [sp, #8]
    9344:	e3a02000 	mov	r2, #0
    9348:	e350002d 	cmp	r0, #45	; 0x2d
    934c:	e58d200c 	str	r2, [sp, #12]
    9350:	0a000005 	beq	936c <_doprnt+0x78>
    9354:	e3500030 	cmp	r0, #48	; 0x30
    9358:	1a000011 	bne	93a4 <_doprnt+0xb0>
    935c:	e58d0008 	str	r0, [sp, #8]
    9360:	e5f30001 	ldrb	r0, [r3, #1]!
    9364:	e350002d 	cmp	r0, #45	; 0x2d
    9368:	1afffff9 	bne	9354 <_doprnt+0x60>
    936c:	e3a02001 	mov	r2, #1
    9370:	e58d200c 	str	r2, [sp, #12]
    9374:	eafffff9 	b	9360 <_doprnt+0x6c>
    9378:	e3a00025 	mov	r0, #37	; 0x25
    937c:	e1a0100a 	mov	r1, sl
    9380:	e1a0e00f 	mov	lr, pc
    9384:	e12fff17 	bx	r7
    9388:	e3700001 	cmn	r0, #1
    938c:	0a000091 	beq	95d8 <_doprnt+0x2e4>
    9390:	e59d3004 	ldr	r3, [sp, #4]
    9394:	e2833001 	add	r3, r3, #1
    9398:	e28bb001 	add	fp, fp, #1
    939c:	e58d3004 	str	r3, [sp, #4]
    93a0:	eaffffda 	b	9310 <_doprnt+0x1c>
    93a4:	e350002a 	cmp	r0, #42	; 0x2a
    93a8:	0a000090 	beq	95f0 <_doprnt+0x2fc>
    93ac:	e2402030 	sub	r2, r0, #48	; 0x30
    93b0:	e20210ff 	and	r1, r2, #255	; 0xff
    93b4:	e3510009 	cmp	r1, #9
    93b8:	e3a05000 	mov	r5, #0
    93bc:	8a000006 	bhi	93dc <_doprnt+0xe8>
    93c0:	e5f30001 	ldrb	r0, [r3, #1]!
    93c4:	e0855105 	add	r5, r5, r5, lsl #2
    93c8:	e0825085 	add	r5, r2, r5, lsl #1
    93cc:	e2402030 	sub	r2, r0, #48	; 0x30
    93d0:	e20210ff 	and	r1, r2, #255	; 0xff
    93d4:	e3510009 	cmp	r1, #9
    93d8:	9afffff8 	bls	93c0 <_doprnt+0xcc>
    93dc:	e59d100c 	ldr	r1, [sp, #12]
    93e0:	e3510000 	cmp	r1, #0
    93e4:	e59d2008 	ldr	r2, [sp, #8]
    93e8:	13a02020 	movne	r2, #32
    93ec:	e350002e 	cmp	r0, #46	; 0x2e
    93f0:	e58d2008 	str	r2, [sp, #8]
    93f4:	13e08000 	mvnne	r8, #0
    93f8:	0a00008a 	beq	9628 <_doprnt+0x334>
    93fc:	e350006c 	cmp	r0, #108	; 0x6c
    9400:	0a000085 	beq	961c <_doprnt+0x328>
    9404:	e3500068 	cmp	r0, #104	; 0x68
    9408:	0a000097 	beq	966c <_doprnt+0x378>
    940c:	e2400058 	sub	r0, r0, #88	; 0x58
    9410:	e3500020 	cmp	r0, #32
    9414:	979ff100 	ldrls	pc, [pc, r0, lsl #2]
    9418:	eaffffd6 	b	9378 <_doprnt+0x84>
    941c:	0000979c 	muleq	r0, ip, r7
    9420:	00009378 	andeq	r9, r0, r8, ror r3
    9424:	00009378 	andeq	r9, r0, r8, ror r3
    9428:	00009378 	andeq	r9, r0, r8, ror r3
    942c:	00009378 	andeq	r9, r0, r8, ror r3
    9430:	00009378 	andeq	r9, r0, r8, ror r3
    9434:	00009378 	andeq	r9, r0, r8, ror r3
    9438:	00009378 	andeq	r9, r0, r8, ror r3
    943c:	00009378 	andeq	r9, r0, r8, ror r3
    9440:	00009378 	andeq	r9, r0, r8, ror r3
    9444:	000097b0 			; <UNDEFINED> instruction: 0x000097b0
    9448:	000097c4 	andeq	r9, r0, r4, asr #15
    944c:	000097e8 	andeq	r9, r0, r8, ror #15
    9450:	00009378 	andeq	r9, r0, r8, ror r3
    9454:	00009378 	andeq	r9, r0, r8, ror r3
    9458:	00009378 	andeq	r9, r0, r8, ror r3
    945c:	00009378 	andeq	r9, r0, r8, ror r3
    9460:	00009378 	andeq	r9, r0, r8, ror r3
    9464:	00009378 	andeq	r9, r0, r8, ror r3
    9468:	00009378 	andeq	r9, r0, r8, ror r3
    946c:	00009378 	andeq	r9, r0, r8, ror r3
    9470:	00009378 	andeq	r9, r0, r8, ror r3
    9474:	00009378 	andeq	r9, r0, r8, ror r3
    9478:	000094a0 	andeq	r9, r0, r0, lsr #9
    947c:	00009378 	andeq	r9, r0, r8, ror r3
    9480:	00009378 	andeq	r9, r0, r8, ror r3
    9484:	00009378 	andeq	r9, r0, r8, ror r3
    9488:	00009684 	andeq	r9, r0, r4, lsl #13
    948c:	00009378 	andeq	r9, r0, r8, ror r3
    9490:	00009774 	andeq	r9, r0, r4, ror r7
    9494:	00009378 	andeq	r9, r0, r8, ror r3
    9498:	00009378 	andeq	r9, r0, r8, ror r3
    949c:	00009788 	andeq	r9, r0, r8, lsl #15
    94a0:	e3a00008 	mov	r0, #8
    94a4:	e3a01003 	mov	r1, #3
    94a8:	e3a06000 	mov	r6, #0
    94ac:	e58d001c 	str	r0, [sp, #28]
    94b0:	e59d2010 	ldr	r2, [sp, #16]
    94b4:	e5924000 	ldr	r4, [r2]
    94b8:	e282e004 	add	lr, r2, #4
    94bc:	e59f2574 	ldr	r2, [pc, #1396]	; 9a38 <_doprnt+0x744>
    94c0:	e3560000 	cmp	r6, #0
    94c4:	e2833001 	add	r3, r3, #1
    94c8:	e2420010 	sub	r0, r2, #16
    94cc:	11a02000 	movne	r2, r0
    94d0:	e58d3004 	str	r3, [sp, #4]
    94d4:	e3a03000 	mov	r3, #0
    94d8:	e3510000 	cmp	r1, #0
    94dc:	e1a06002 	mov	r6, r2
    94e0:	e5cd304c 	strb	r3, [sp, #76]	; 0x4c
    94e4:	0a000148 	beq	9a0c <_doprnt+0x718>
    94e8:	e3a03001 	mov	r3, #1
    94ec:	e1a0c113 	lsl	ip, r3, r1
    94f0:	e24cc001 	sub	ip, ip, #1
    94f4:	e00c3004 	and	r3, ip, r4
    94f8:	e7d29003 	ldrb	r9, [r2, r3]
    94fc:	e1b02134 	lsrs	r2, r4, r1
    9500:	e5cd904d 	strb	r9, [sp, #77]	; 0x4d
    9504:	0a000146 	beq	9a24 <_doprnt+0x730>
    9508:	e3a04001 	mov	r4, #1
    950c:	e28d004d 	add	r0, sp, #77	; 0x4d
    9510:	e00c3002 	and	r3, ip, r2
    9514:	e7d69003 	ldrb	r9, [r6, r3]
    9518:	e1b02132 	lsrs	r2, r2, r1
    951c:	e2844001 	add	r4, r4, #1
    9520:	e5e09001 	strb	r9, [r0, #1]!
    9524:	1afffff9 	bne	9510 <_doprnt+0x21c>
    9528:	e58d2014 	str	r2, [sp, #20]
    952c:	e58de010 	str	lr, [sp, #16]
    9530:	e58d2018 	str	r2, [sp, #24]
    9534:	e28d104c 	add	r1, sp, #76	; 0x4c
    9538:	e0814004 	add	r4, r1, r4
    953c:	e28d2027 	add	r2, sp, #39	; 0x27
    9540:	ea000000 	b	9548 <_doprnt+0x254>
    9544:	e5749001 	ldrb	r9, [r4, #-1]!
    9548:	e1540001 	cmp	r4, r1
    954c:	e5e29001 	strb	r9, [r2, #1]!
    9550:	1afffffb 	bne	9544 <_doprnt+0x250>
    9554:	e28d0028 	add	r0, sp, #40	; 0x28
    9558:	eb000138 	bl	9a40 <strlen>
    955c:	e3580000 	cmp	r8, #0
    9560:	e1a06000 	mov	r6, r0
    9564:	ba0000ec 	blt	991c <_doprnt+0x628>
    9568:	e1580000 	cmp	r8, r0
    956c:	c0608008 	rsbgt	r8, r0, r8
    9570:	d3a08000 	movle	r8, #0
    9574:	e59d3014 	ldr	r3, [sp, #20]
    9578:	e0864008 	add	r4, r6, r8
    957c:	e0844003 	add	r4, r4, r3
    9580:	e1550004 	cmp	r5, r4
    9584:	e28d9028 	add	r9, sp, #40	; 0x28
    9588:	ca0000fe 	bgt	9988 <_doprnt+0x694>
    958c:	e3a03020 	mov	r3, #32
    9590:	e3a05000 	mov	r5, #0
    9594:	e58d3008 	str	r3, [sp, #8]
    9598:	e59d3018 	ldr	r3, [sp, #24]
    959c:	e3530000 	cmp	r3, #0
    95a0:	1a0000d5 	bne	98fc <_doprnt+0x608>
    95a4:	e3580000 	cmp	r8, #0
    95a8:	0a0000c3 	beq	98bc <_doprnt+0x5c8>
    95ac:	e088800b 	add	r8, r8, fp
    95b0:	ea000001 	b	95bc <_doprnt+0x2c8>
    95b4:	e15b0008 	cmp	fp, r8
    95b8:	0a0000c0 	beq	98c0 <_doprnt+0x5cc>
    95bc:	e1a0100a 	mov	r1, sl
    95c0:	e3a00030 	mov	r0, #48	; 0x30
    95c4:	e1a0e00f 	mov	lr, pc
    95c8:	e12fff17 	bx	r7
    95cc:	e3700001 	cmn	r0, #1
    95d0:	e28bb001 	add	fp, fp, #1
    95d4:	1afffff6 	bne	95b4 <_doprnt+0x2c0>
    95d8:	e3e00000 	mvn	r0, #0
    95dc:	e28dd074 	add	sp, sp, #116	; 0x74
    95e0:	e8bd4ff0 	pop	{r4, r5, r6, r7, r8, r9, sl, fp, lr}
    95e4:	e12fff1e 	bx	lr
    95e8:	e58d3004 	str	r3, [sp, #4]
    95ec:	eaffff62 	b	937c <_doprnt+0x88>
    95f0:	e59d2010 	ldr	r2, [sp, #16]
    95f4:	e5925000 	ldr	r5, [r2]
    95f8:	e3550000 	cmp	r5, #0
    95fc:	b3a01001 	movlt	r1, #1
    9600:	e2822004 	add	r2, r2, #4
    9604:	e5d30001 	ldrb	r0, [r3, #1]
    9608:	b58d100c 	strlt	r1, [sp, #12]
    960c:	b2655000 	rsblt	r5, r5, #0
    9610:	e58d2010 	str	r2, [sp, #16]
    9614:	e2833001 	add	r3, r3, #1
    9618:	eaffff6f 	b	93dc <_doprnt+0xe8>
    961c:	e5d30001 	ldrb	r0, [r3, #1]
    9620:	e2833001 	add	r3, r3, #1
    9624:	eaffff78 	b	940c <_doprnt+0x118>
    9628:	e5d30001 	ldrb	r0, [r3, #1]
    962c:	e350002a 	cmp	r0, #42	; 0x2a
    9630:	0a0000d8 	beq	9998 <_doprnt+0x6a4>
    9634:	e2402030 	sub	r2, r0, #48	; 0x30
    9638:	e20210ff 	and	r1, r2, #255	; 0xff
    963c:	e3510009 	cmp	r1, #9
    9640:	e3a08000 	mov	r8, #0
    9644:	e2833001 	add	r3, r3, #1
    9648:	8affff6b 	bhi	93fc <_doprnt+0x108>
    964c:	e5f30001 	ldrb	r0, [r3, #1]!
    9650:	e0888108 	add	r8, r8, r8, lsl #2
    9654:	e0828088 	add	r8, r2, r8, lsl #1
    9658:	e2402030 	sub	r2, r0, #48	; 0x30
    965c:	e20210ff 	and	r1, r2, #255	; 0xff
    9660:	e3510009 	cmp	r1, #9
    9664:	9afffff8 	bls	964c <_doprnt+0x358>
    9668:	eaffff63 	b	93fc <_doprnt+0x108>
    966c:	e5d30001 	ldrb	r0, [r3, #1]
    9670:	e3500068 	cmp	r0, #104	; 0x68
    9674:	05d30002 	ldrbeq	r0, [r3, #2]
    9678:	12833001 	addne	r3, r3, #1
    967c:	02833002 	addeq	r3, r3, #2
    9680:	eaffff61 	b	940c <_doprnt+0x118>
    9684:	e59d2010 	ldr	r2, [sp, #16]
    9688:	e5929000 	ldr	r9, [r2]
    968c:	e2822004 	add	r2, r2, #4
    9690:	e3590000 	cmp	r9, #0
    9694:	e58d2010 	str	r2, [sp, #16]
    9698:	0a0000df 	beq	9a1c <_doprnt+0x728>
    969c:	e2833001 	add	r3, r3, #1
    96a0:	e1a00009 	mov	r0, r9
    96a4:	e58d3004 	str	r3, [sp, #4]
    96a8:	eb0000e4 	bl	9a40 <strlen>
    96ac:	e3a03000 	mov	r3, #0
    96b0:	e3580000 	cmp	r8, #0
    96b4:	e1a06000 	mov	r6, r0
    96b8:	e1a02003 	mov	r2, r3
    96bc:	e58d3014 	str	r3, [sp, #20]
    96c0:	ba0000bb 	blt	99b4 <_doprnt+0x6c0>
    96c4:	e59d300c 	ldr	r3, [sp, #12]
    96c8:	e58d2018 	str	r2, [sp, #24]
    96cc:	e59d2008 	ldr	r2, [sp, #8]
    96d0:	e1560008 	cmp	r6, r8
    96d4:	e2233001 	eor	r3, r3, #1
    96d8:	a1a06008 	movge	r6, r8
    96dc:	e3520030 	cmp	r2, #48	; 0x30
    96e0:	13a03000 	movne	r3, #0
    96e4:	02033001 	andeq	r3, r3, #1
    96e8:	e3a08000 	mov	r8, #0
    96ec:	e59d2014 	ldr	r2, [sp, #20]
    96f0:	e0864002 	add	r4, r6, r2
    96f4:	e1550004 	cmp	r5, r4
    96f8:	d1a05008 	movle	r5, r8
    96fc:	da000000 	ble	9704 <_doprnt+0x410>
    9700:	e0645005 	rsb	r5, r4, r5
    9704:	e3530000 	cmp	r3, #0
    9708:	11a08005 	movne	r8, r5
    970c:	13a05000 	movne	r5, #0
    9710:	1affffa0 	bne	9598 <_doprnt+0x2a4>
    9714:	e59d300c 	ldr	r3, [sp, #12]
    9718:	e3530000 	cmp	r3, #0
    971c:	1affff9d 	bne	9598 <_doprnt+0x2a4>
    9720:	e3550000 	cmp	r5, #0
    9724:	0affff9b 	beq	9598 <_doprnt+0x2a4>
    9728:	e085400b 	add	r4, r5, fp
    972c:	e58d6014 	str	r6, [sp, #20]
    9730:	e1a0600b 	mov	r6, fp
    9734:	e1a0b009 	mov	fp, r9
    9738:	e1a09008 	mov	r9, r8
    973c:	e1a08005 	mov	r8, r5
    9740:	e1a05004 	mov	r5, r4
    9744:	e59d4008 	ldr	r4, [sp, #8]
    9748:	ea000001 	b	9754 <_doprnt+0x460>
    974c:	e1560005 	cmp	r6, r5
    9750:	0a0000a1 	beq	99dc <_doprnt+0x6e8>
    9754:	e1a0100a 	mov	r1, sl
    9758:	e1a00004 	mov	r0, r4
    975c:	e1a0e00f 	mov	lr, pc
    9760:	e12fff17 	bx	r7
    9764:	e3700001 	cmn	r0, #1
    9768:	e2866001 	add	r6, r6, #1
    976c:	1afffff6 	bne	974c <_doprnt+0x458>
    9770:	eaffff98 	b	95d8 <_doprnt+0x2e4>
    9774:	e3a01000 	mov	r1, #0
    9778:	e3a0000a 	mov	r0, #10
    977c:	e1a06001 	mov	r6, r1
    9780:	e58d001c 	str	r0, [sp, #28]
    9784:	eaffff49 	b	94b0 <_doprnt+0x1bc>
    9788:	e3a00010 	mov	r0, #16
    978c:	e3a01004 	mov	r1, #4
    9790:	e58d001c 	str	r0, [sp, #28]
    9794:	e3a06000 	mov	r6, #0
    9798:	eaffff44 	b	94b0 <_doprnt+0x1bc>
    979c:	e3a00010 	mov	r0, #16
    97a0:	e3a01004 	mov	r1, #4
    97a4:	e58d001c 	str	r0, [sp, #28]
    97a8:	e3a06001 	mov	r6, #1
    97ac:	eaffff3f 	b	94b0 <_doprnt+0x1bc>
    97b0:	e3a00002 	mov	r0, #2
    97b4:	e3a01001 	mov	r1, #1
    97b8:	e58d001c 	str	r0, [sp, #28]
    97bc:	e3a06000 	mov	r6, #0
    97c0:	eaffff3a 	b	94b0 <_doprnt+0x1bc>
    97c4:	e3a00000 	mov	r0, #0
    97c8:	e59d1010 	ldr	r1, [sp, #16]
    97cc:	e5912000 	ldr	r2, [r1]
    97d0:	e5cd2028 	strb	r2, [sp, #40]	; 0x28
    97d4:	e2812004 	add	r2, r1, #4
    97d8:	e5cd0029 	strb	r0, [sp, #41]	; 0x29
    97dc:	e58d2010 	str	r2, [sp, #16]
    97e0:	e28d9028 	add	r9, sp, #40	; 0x28
    97e4:	eaffffac 	b	969c <_doprnt+0x3a8>
    97e8:	e59d2010 	ldr	r2, [sp, #16]
    97ec:	e5924000 	ldr	r4, [r2]
    97f0:	e2822004 	add	r2, r2, #4
    97f4:	e3540000 	cmp	r4, #0
    97f8:	e58d2010 	str	r2, [sp, #16]
    97fc:	a3a02000 	movge	r2, #0
    9800:	a58d2014 	strge	r2, [sp, #20]
    9804:	a58d2018 	strge	r2, [sp, #24]
    9808:	ba000079 	blt	99f4 <_doprnt+0x700>
    980c:	e2833001 	add	r3, r3, #1
    9810:	e58d3004 	str	r3, [sp, #4]
    9814:	e3a03000 	mov	r3, #0
    9818:	e5cd304c 	strb	r3, [sp, #76]	; 0x4c
    981c:	e3a0300a 	mov	r3, #10
    9820:	e59f6210 	ldr	r6, [pc, #528]	; 9a38 <_doprnt+0x744>
    9824:	e58d301c 	str	r3, [sp, #28]
    9828:	e1a00004 	mov	r0, r4
    982c:	e59d101c 	ldr	r1, [sp, #28]
    9830:	eb0000cb 	bl	9b64 <__aeabi_uidivmod>
    9834:	e7d69001 	ldrb	r9, [r6, r1]
    9838:	e1a00004 	mov	r0, r4
    983c:	e59d101c 	ldr	r1, [sp, #28]
    9840:	e5cd904d 	strb	r9, [sp, #77]	; 0x4d
    9844:	eb000089 	bl	9a70 <__aeabi_uidiv>
    9848:	e2502000 	subs	r2, r0, #0
    984c:	e3a04001 	mov	r4, #1
    9850:	0affff37 	beq	9534 <_doprnt+0x240>
    9854:	e28d304d 	add	r3, sp, #77	; 0x4d
    9858:	e58db020 	str	fp, [sp, #32]
    985c:	e1a09003 	mov	r9, r3
    9860:	e1a0b002 	mov	fp, r2
    9864:	e58d5024 	str	r5, [sp, #36]	; 0x24
    9868:	e1a05004 	mov	r5, r4
    986c:	e1a04006 	mov	r4, r6
    9870:	e59d601c 	ldr	r6, [sp, #28]
    9874:	e58d701c 	str	r7, [sp, #28]
    9878:	e1a0000b 	mov	r0, fp
    987c:	e1a01006 	mov	r1, r6
    9880:	eb0000b7 	bl	9b64 <__aeabi_uidivmod>
    9884:	e7d47001 	ldrb	r7, [r4, r1]
    9888:	e1a0000b 	mov	r0, fp
    988c:	e1a01006 	mov	r1, r6
    9890:	e5e97001 	strb	r7, [r9, #1]!
    9894:	eb000075 	bl	9a70 <__aeabi_uidiv>
    9898:	e250b000 	subs	fp, r0, #0
    989c:	e2855001 	add	r5, r5, #1
    98a0:	1afffff4 	bne	9878 <_doprnt+0x584>
    98a4:	e1a04005 	mov	r4, r5
    98a8:	e1a09007 	mov	r9, r7
    98ac:	e59db020 	ldr	fp, [sp, #32]
    98b0:	e59d5024 	ldr	r5, [sp, #36]	; 0x24
    98b4:	e59d701c 	ldr	r7, [sp, #28]
    98b8:	eaffff1d 	b	9534 <_doprnt+0x240>
    98bc:	e1a0800b 	mov	r8, fp
    98c0:	e3560000 	cmp	r6, #0
    98c4:	da00001c 	ble	993c <_doprnt+0x648>
    98c8:	e2499001 	sub	r9, r9, #1
    98cc:	e086b008 	add	fp, r6, r8
    98d0:	ea000001 	b	98dc <_doprnt+0x5e8>
    98d4:	e158000b 	cmp	r8, fp
    98d8:	0a000018 	beq	9940 <_doprnt+0x64c>
    98dc:	e1a0100a 	mov	r1, sl
    98e0:	e5f90001 	ldrb	r0, [r9, #1]!
    98e4:	e1a0e00f 	mov	lr, pc
    98e8:	e12fff17 	bx	r7
    98ec:	e3700001 	cmn	r0, #1
    98f0:	e2888001 	add	r8, r8, #1
    98f4:	1afffff6 	bne	98d4 <_doprnt+0x5e0>
    98f8:	eaffff36 	b	95d8 <_doprnt+0x2e4>
    98fc:	e1a00003 	mov	r0, r3
    9900:	e1a0100a 	mov	r1, sl
    9904:	e1a0e00f 	mov	lr, pc
    9908:	e12fff17 	bx	r7
    990c:	e3700001 	cmn	r0, #1
    9910:	0affff30 	beq	95d8 <_doprnt+0x2e4>
    9914:	e28bb001 	add	fp, fp, #1
    9918:	eaffff21 	b	95a4 <_doprnt+0x2b0>
    991c:	e59d300c 	ldr	r3, [sp, #12]
    9920:	e59d2008 	ldr	r2, [sp, #8]
    9924:	e2233001 	eor	r3, r3, #1
    9928:	e28d9028 	add	r9, sp, #40	; 0x28
    992c:	e3520030 	cmp	r2, #48	; 0x30
    9930:	13a03000 	movne	r3, #0
    9934:	02033001 	andeq	r3, r3, #1
    9938:	eaffff6a 	b	96e8 <_doprnt+0x3f4>
    993c:	e1a0b008 	mov	fp, r8
    9940:	e59d300c 	ldr	r3, [sp, #12]
    9944:	e3530000 	cmp	r3, #0
    9948:	0afffe70 	beq	9310 <_doprnt+0x1c>
    994c:	e3550000 	cmp	r5, #0
    9950:	0afffe6e 	beq	9310 <_doprnt+0x1c>
    9954:	e085500b 	add	r5, r5, fp
    9958:	e59d4008 	ldr	r4, [sp, #8]
    995c:	ea000001 	b	9968 <_doprnt+0x674>
    9960:	e15b0005 	cmp	fp, r5
    9964:	0afffe69 	beq	9310 <_doprnt+0x1c>
    9968:	e1a0100a 	mov	r1, sl
    996c:	e1a00004 	mov	r0, r4
    9970:	e1a0e00f 	mov	lr, pc
    9974:	e12fff17 	bx	r7
    9978:	e3700001 	cmn	r0, #1
    997c:	e28bb001 	add	fp, fp, #1
    9980:	1afffff6 	bne	9960 <_doprnt+0x66c>
    9984:	eaffff13 	b	95d8 <_doprnt+0x2e4>
    9988:	e3a02020 	mov	r2, #32
    998c:	e3a03000 	mov	r3, #0
    9990:	e58d2008 	str	r2, [sp, #8]
    9994:	eaffff59 	b	9700 <_doprnt+0x40c>
    9998:	e59d2010 	ldr	r2, [sp, #16]
    999c:	e5928000 	ldr	r8, [r2]
    99a0:	e2822004 	add	r2, r2, #4
    99a4:	e5d30002 	ldrb	r0, [r3, #2]
    99a8:	e58d2010 	str	r2, [sp, #16]
    99ac:	e2833002 	add	r3, r3, #2
    99b0:	eafffe91 	b	93fc <_doprnt+0x108>
    99b4:	e59d300c 	ldr	r3, [sp, #12]
    99b8:	e58d2018 	str	r2, [sp, #24]
    99bc:	e59d2008 	ldr	r2, [sp, #8]
    99c0:	e2233001 	eor	r3, r3, #1
    99c4:	e3520030 	cmp	r2, #48	; 0x30
    99c8:	13a03000 	movne	r3, #0
    99cc:	02033001 	andeq	r3, r3, #1
    99d0:	eaffff44 	b	96e8 <_doprnt+0x3f4>
    99d4:	e1a0000b 	mov	r0, fp
    99d8:	eafffeff 	b	95dc <_doprnt+0x2e8>
    99dc:	e1a05008 	mov	r5, r8
    99e0:	e1a08009 	mov	r8, r9
    99e4:	e1a0900b 	mov	r9, fp
    99e8:	e1a0b006 	mov	fp, r6
    99ec:	e59d6014 	ldr	r6, [sp, #20]
    99f0:	eafffee8 	b	9598 <_doprnt+0x2a4>
    99f4:	e3a02001 	mov	r2, #1
    99f8:	e58d2014 	str	r2, [sp, #20]
    99fc:	e3a0202d 	mov	r2, #45	; 0x2d
    9a00:	e2644000 	rsb	r4, r4, #0
    9a04:	e58d2018 	str	r2, [sp, #24]
    9a08:	eaffff7f 	b	980c <_doprnt+0x518>
    9a0c:	e58d1014 	str	r1, [sp, #20]
    9a10:	e58de010 	str	lr, [sp, #16]
    9a14:	e58d1018 	str	r1, [sp, #24]
    9a18:	eaffff82 	b	9828 <_doprnt+0x534>
    9a1c:	e59f9018 	ldr	r9, [pc, #24]	; 9a3c <_doprnt+0x748>
    9a20:	eaffff1d 	b	969c <_doprnt+0x3a8>
    9a24:	e58d2014 	str	r2, [sp, #20]
    9a28:	e58de010 	str	lr, [sp, #16]
    9a2c:	e58d2018 	str	r2, [sp, #24]
    9a30:	e3a04001 	mov	r4, #1
    9a34:	eafffebe 	b	9534 <_doprnt+0x240>
    9a38:	0000a050 	andeq	sl, r0, r0, asr r0
    9a3c:	0000a204 	andeq	sl, r0, r4, lsl #4

00009a40 <strlen>:
    9a40:	e5d03000 	ldrb	r3, [r0]
    9a44:	e3530000 	cmp	r3, #0
    9a48:	0a000006 	beq	9a68 <strlen+0x28>
    9a4c:	e1a03000 	mov	r3, r0
    9a50:	e3a00000 	mov	r0, #0
    9a54:	e5f32001 	ldrb	r2, [r3, #1]!
    9a58:	e3520000 	cmp	r2, #0
    9a5c:	e2800001 	add	r0, r0, #1
    9a60:	1afffffb 	bne	9a54 <strlen+0x14>
    9a64:	e12fff1e 	bx	lr
    9a68:	e1a00003 	mov	r0, r3
    9a6c:	e12fff1e 	bx	lr

00009a70 <__aeabi_uidiv>:
    9a70:	e2512001 	subs	r2, r1, #1
    9a74:	012fff1e 	bxeq	lr
    9a78:	3a000036 	bcc	9b58 <__aeabi_uidiv+0xe8>
    9a7c:	e1500001 	cmp	r0, r1
    9a80:	9a000022 	bls	9b10 <__aeabi_uidiv+0xa0>
    9a84:	e1110002 	tst	r1, r2
    9a88:	0a000023 	beq	9b1c <__aeabi_uidiv+0xac>
    9a8c:	e311020e 	tst	r1, #-536870912	; 0xe0000000
    9a90:	01a01181 	lsleq	r1, r1, #3
    9a94:	03a03008 	moveq	r3, #8
    9a98:	13a03001 	movne	r3, #1
    9a9c:	e3510201 	cmp	r1, #268435456	; 0x10000000
    9aa0:	31510000 	cmpcc	r1, r0
    9aa4:	31a01201 	lslcc	r1, r1, #4
    9aa8:	31a03203 	lslcc	r3, r3, #4
    9aac:	3afffffa 	bcc	9a9c <__aeabi_uidiv+0x2c>
    9ab0:	e3510102 	cmp	r1, #-2147483648	; 0x80000000
    9ab4:	31510000 	cmpcc	r1, r0
    9ab8:	31a01081 	lslcc	r1, r1, #1
    9abc:	31a03083 	lslcc	r3, r3, #1
    9ac0:	3afffffa 	bcc	9ab0 <__aeabi_uidiv+0x40>
    9ac4:	e3a02000 	mov	r2, #0
    9ac8:	e1500001 	cmp	r0, r1
    9acc:	20400001 	subcs	r0, r0, r1
    9ad0:	21822003 	orrcs	r2, r2, r3
    9ad4:	e15000a1 	cmp	r0, r1, lsr #1
    9ad8:	204000a1 	subcs	r0, r0, r1, lsr #1
    9adc:	218220a3 	orrcs	r2, r2, r3, lsr #1
    9ae0:	e1500121 	cmp	r0, r1, lsr #2
    9ae4:	20400121 	subcs	r0, r0, r1, lsr #2
    9ae8:	21822123 	orrcs	r2, r2, r3, lsr #2
    9aec:	e15001a1 	cmp	r0, r1, lsr #3
    9af0:	204001a1 	subcs	r0, r0, r1, lsr #3
    9af4:	218221a3 	orrcs	r2, r2, r3, lsr #3
    9af8:	e3500000 	cmp	r0, #0
    9afc:	11b03223 	lsrsne	r3, r3, #4
    9b00:	11a01221 	lsrne	r1, r1, #4
    9b04:	1affffef 	bne	9ac8 <__aeabi_uidiv+0x58>
    9b08:	e1a00002 	mov	r0, r2
    9b0c:	e12fff1e 	bx	lr
    9b10:	03a00001 	moveq	r0, #1
    9b14:	13a00000 	movne	r0, #0
    9b18:	e12fff1e 	bx	lr
    9b1c:	e3510801 	cmp	r1, #65536	; 0x10000
    9b20:	21a01821 	lsrcs	r1, r1, #16
    9b24:	23a02010 	movcs	r2, #16
    9b28:	33a02000 	movcc	r2, #0
    9b2c:	e3510c01 	cmp	r1, #256	; 0x100
    9b30:	21a01421 	lsrcs	r1, r1, #8
    9b34:	22822008 	addcs	r2, r2, #8
    9b38:	e3510010 	cmp	r1, #16
    9b3c:	21a01221 	lsrcs	r1, r1, #4
    9b40:	22822004 	addcs	r2, r2, #4
    9b44:	e3510004 	cmp	r1, #4
    9b48:	82822003 	addhi	r2, r2, #3
    9b4c:	908220a1 	addls	r2, r2, r1, lsr #1
    9b50:	e1a00230 	lsr	r0, r0, r2
    9b54:	e12fff1e 	bx	lr
    9b58:	e3500000 	cmp	r0, #0
    9b5c:	13e00000 	mvnne	r0, #0
    9b60:	ea000007 	b	9b84 <__aeabi_idiv0>

00009b64 <__aeabi_uidivmod>:
    9b64:	e3510000 	cmp	r1, #0
    9b68:	0afffffa 	beq	9b58 <__aeabi_uidiv+0xe8>
    9b6c:	e92d4003 	push	{r0, r1, lr}
    9b70:	ebffffbe 	bl	9a70 <__aeabi_uidiv>
    9b74:	e8bd4006 	pop	{r1, r2, lr}
    9b78:	e0030092 	mul	r3, r2, r0
    9b7c:	e0411003 	sub	r1, r1, r3
    9b80:	e12fff1e 	bx	lr

00009b84 <__aeabi_idiv0>:
    9b84:	e12fff1e 	bx	lr

Disassembly of section .rodata:

0000a000 <__rodata_start>:
    a000:	2a2a200a 	bcs	a92030 <__kernel_end+0x971030>
    a004:	6974202a 	ldmdbvs	r4!, {r1, r3, r5, sp}^
    a008:	2072656d 	rsbscs	r6, r2, sp, ror #10
    a00c:	20717269 	rsbscs	r7, r1, r9, ror #4
    a010:	646e6168 	strbtvs	r6, [lr], #-360	; 0xfffffe98
    a014:	2072656c 	rsbscs	r6, r2, ip, ror #10
    a018:	6c6c6163 	stfvse	f6, [ip], #-396	; 0xfffffe74
    a01c:	00006465 	andeq	r6, r0, r5, ror #8
    a020:	2a2a200a 	bcs	a92050 <__kernel_end+0x971050>
    a024:	6974202a 	ldmdbvs	r4!, {r1, r3, r5, sp}^
    a028:	2072656d 	rsbscs	r6, r2, sp, ror #10
    a02c:	20717269 	rsbscs	r7, r1, r9, ror #4
    a030:	61656c63 	cmnvs	r5, r3, ror #24
    a034:	20726572 	rsbscs	r6, r2, r2, ror r5
    a038:	6c6c6163 	stfvse	f6, [ip], #-396	; 0xfffffe74
    a03c:	00006465 	andeq	r6, r0, r5, ror #8

0000a040 <digits_uc>:
    a040:	33323130 	teqcc	r2, #48, 2
    a044:	37363534 			; <UNDEFINED> instruction: 0x37363534
    a048:	42413938 	submi	r3, r1, #56, 18	; 0xe0000
    a04c:	46454443 	strbmi	r4, [r5], -r3, asr #8

0000a050 <digits_lc>:
    a050:	33323130 	teqcc	r2, #48, 2
    a054:	37363534 			; <UNDEFINED> instruction: 0x37363534
    a058:	62613938 	rsbvs	r3, r1, #56, 18	; 0xe0000
    a05c:	66656463 	strbtvs	r6, [r5], -r3, ror #8

Disassembly of section .rodata.str1.4:

0000a060 <.rodata.str1.4>:
    a060:	524f4241 	subpl	r4, pc, #268435460	; 0x10000004
    a064:	4e492054 	mcrmi	0, 2, r2, cr9, cr4, {2}
    a068:	52524554 	subspl	r4, r2, #84, 10	; 0x15000000
    a06c:	20545055 	subscs	r5, r4, r5, asr r0
    a070:	5543434f 	strbpl	r4, [r3, #-847]	; 0xfffffcb1
    a074:	44455252 	strbmi	r5, [r5], #-594	; 0xfffffdae
    a078:	00000000 	andeq	r0, r0, r0
    a07c:	65646e55 	strbvs	r6, [r4, #-3669]!	; 0xfffff1ab
    a080:	6e492066 	cdpvs	0, 4, cr2, cr9, cr6, {3}
    a084:	72726574 	rsbsvc	r6, r2, #116, 10	; 0x1d000000
    a088:	20747075 	rsbscs	r7, r4, r5, ror r0
    a08c:	7563634f 	strbvc	r6, [r3, #-847]!	; 0xfffffcb1
    a090:	64657272 	strbtvs	r7, [r5], #-626	; 0xfffffd8e
    a094:	00000000 	andeq	r0, r0, r0
    a098:	74666f53 	strbtvc	r6, [r6], #-3923	; 0xfffff0ad
    a09c:	65726177 	ldrbvs	r6, [r2, #-375]!	; 0xfffffe89
    a0a0:	746e4920 	strbtvc	r4, [lr], #-2336	; 0xfffff6e0
    a0a4:	75727265 	ldrbvc	r7, [r2, #-613]!	; 0xfffffd9b
    a0a8:	4f207470 	svcmi	0x00207470
    a0ac:	72756363 	rsbsvc	r6, r5, #-1946157055	; 0x8c000001
    a0b0:	00646572 	rsbeq	r6, r4, r2, ror r5
    a0b4:	66657270 			; <UNDEFINED> instruction: 0x66657270
    a0b8:	68637465 	stmdavs	r3!, {r0, r2, r5, r6, sl, ip, sp, lr}^
    a0bc:	6f62615f 	svcvs	0x0062615f
    a0c0:	765f7472 			; <UNDEFINED> instruction: 0x765f7472
    a0c4:	6f746365 	svcvs	0x00746365
    a0c8:	6e492072 	mcrvs	0, 2, r2, cr9, cr2, {3}
    a0cc:	72726574 	rsbsvc	r6, r2, #116, 10	; 0x1d000000
    a0d0:	20747075 	rsbscs	r7, r4, r5, ror r0
    a0d4:	7563634f 	strbvc	r6, [r3, #-847]!	; 0xfffffcb1
    a0d8:	64657272 	strbtvs	r7, [r5], #-626	; 0xfffffd8e
    a0dc:	00000000 	andeq	r0, r0, r0
    a0e0:	61746164 	cmnvs	r4, r4, ror #2
    a0e4:	6f62615f 	svcvs	0x0062615f
    a0e8:	765f7472 			; <UNDEFINED> instruction: 0x765f7472
    a0ec:	6f746365 	svcvs	0x00746365
    a0f0:	6e492072 	mcrvs	0, 2, r2, cr9, cr2, {3}
    a0f4:	72726574 	rsbsvc	r6, r2, #116, 10	; 0x1d000000
    a0f8:	20747075 	rsbscs	r7, r4, r5, ror r0
    a0fc:	7563634f 	strbvc	r6, [r3, #-847]!	; 0xfffffcb1
    a100:	64657272 	strbtvs	r7, [r5], #-626	; 0xfffffd8e
    a104:	00000000 	andeq	r0, r0, r0
    a108:	74736166 	ldrbtvc	r6, [r3], #-358	; 0xfffffe9a
    a10c:	746e695f 	strbtvc	r6, [lr], #-2399	; 0xfffff6a1
    a110:	75727265 	ldrbvc	r7, [r2, #-613]!	; 0xfffffd9b
    a114:	765f7470 			; <UNDEFINED> instruction: 0x765f7470
    a118:	6f746365 	svcvs	0x00746365
    a11c:	6e492072 	mcrvs	0, 2, r2, cr9, cr2, {3}
    a120:	72726574 	rsbsvc	r6, r2, #116, 10	; 0x1d000000
    a124:	20747075 	rsbscs	r7, r4, r5, ror r0
    a128:	7563634f 	strbvc	r6, [r3, #-847]!	; 0xfffffcb1
    a12c:	64657272 	strbtvs	r7, [r5], #-626	; 0xfffffd8e
    a130:	00000000 	andeq	r0, r0, r0
    a134:	61746f54 	cmnvs	r4, r4, asr pc
    a138:	654d206c 	strbvs	r2, [sp, #-108]	; 0xffffff94
    a13c:	6953206d 	ldmdbvs	r3, {r0, r2, r3, r5, r6, sp}^
    a140:	203a657a 	eorscs	r6, sl, sl, ror r5
    a144:	42206425 	eormi	r6, r0, #620756992	; 0x25000000
    a148:	73657479 	cmnvc	r5, #2030043136	; 0x79000000
    a14c:	00000a20 	andeq	r0, r0, r0, lsr #20
    a150:	61746f54 	cmnvs	r4, r4, asr pc
    a154:	7641206c 	strbvc	r2, [r1], -ip, rrx
    a158:	616c6961 	cmnvs	ip, r1, ror #18
    a15c:	20656c62 	rsbcs	r6, r5, r2, ror #24
    a160:	294b3428 	stmdbcs	fp, {r3, r5, sl, ip, sp}^
    a164:	67615020 	strbvs	r5, [r1, -r0, lsr #32]!
    a168:	72462065 	subvc	r2, r6, #101	; 0x65
    a16c:	73656d61 	cmnvc	r5, #6208	; 0x1840
    a170:	6425203a 	strtvs	r2, [r5], #-58	; 0xffffffc6
    a174:	00000a20 	andeq	r0, r0, r0, lsr #20
    a178:	62616e45 	rsbvs	r6, r1, #1104	; 0x450
    a17c:	676e696c 	strbvs	r6, [lr, -ip, ror #18]!
    a180:	554d4d20 	strbpl	r4, [sp, #-3360]	; 0xfffff2e0
    a184:	00200a20 	eoreq	r0, r0, r0, lsr #20
    a188:	2d2d2d0a 	stccs	13, cr2, [sp, #-40]!	; 0xffffffd8
    a18c:	2d2d2d2d 	stccs	13, cr2, [sp, #-180]!	; 0xffffff4c
    a190:	2d2d2d2d 	stccs	13, cr2, [sp, #-180]!	; 0xffffff4c
    a194:	2d2d2d2d 	stccs	13, cr2, [sp, #-180]!	; 0xffffff4c
    a198:	654b2d2d 	strbvs	r2, [fp, #-3373]	; 0xfffff2d3
    a19c:	6c656e72 	stclvs	14, cr6, [r5], #-456	; 0xfffffe38
    a1a0:	61745320 	cmnvs	r4, r0, lsr #6
    a1a4:	64657472 	strbtvs	r7, [r5], #-1138	; 0xfffffb8e
    a1a8:	64754420 	ldrbtvs	r4, [r5], #-1056	; 0xfffffbe0
    a1ac:	2e2e2e65 	cdpcs	14, 2, cr2, cr14, cr5, {3}
    a1b0:	2e2e2e2e 	cdpcs	14, 2, cr2, cr14, cr14, {1}
    a1b4:	2e2e2e2e 	cdpcs	14, 2, cr2, cr14, cr14, {1}
    a1b8:	2e2e2e2e 	cdpcs	14, 2, cr2, cr14, cr14, {1}
    a1bc:	2e2e2e2e 	cdpcs	14, 2, cr2, cr14, cr14, {1}
    a1c0:	2e2e2e2e 	cdpcs	14, 2, cr2, cr14, cr14, {1}
    a1c4:	00000a2e 	andeq	r0, r0, lr, lsr #20
    a1c8:	654b200a 	strbvs	r2, [fp, #-10]
    a1cc:	6c656e72 	stclvs	14, cr6, [r5], #-456	; 0xfffffe38
    a1d0:	646e4520 	strbtvs	r4, [lr], #-1312	; 0xfffffae0
    a1d4:	7830203a 	ldmdavc	r0!, {r1, r3, r4, r5, sp}
    a1d8:	0a207825 	beq	828274 <__kernel_end+0x707274>
    a1dc:	00000000 	andeq	r0, r0, r0
    a1e0:	6548200a 	strbvs	r2, [r8, #-10]
    a1e4:	206f6c6c 	rsbcs	r6, pc, ip, ror #24
    a1e8:	74726976 	ldrbtvc	r6, [r2], #-2422	; 0xfffff68a
    a1ec:	206c6175 	rsbcs	r6, ip, r5, ror r1
    a1f0:	6f6d656d 	svcvs	0x006d656d
    a1f4:	77207972 			; <UNDEFINED> instruction: 0x77207972
    a1f8:	646c726f 	strbtvs	r7, [ip], #-623	; 0xfffffd91
    a1fc:	33323120 	teqcc	r2, #32, 2
    a200:	00200a20 	eoreq	r0, r0, r0, lsr #20
    a204:	6c756e28 	ldclvs	14, cr6, [r5], #-160	; 0xffffff60
    a208:	0000296c 	andeq	r2, r0, ip, ror #18

Disassembly of section .got:

0000b000 <__data_start>:
    b000:	00014370 	andeq	r4, r1, r0, ror r3
    b004:	00020000 	andeq	r0, r2, r0
    b008:	00121000 	andseq	r1, r2, r0
    b00c:	00015000 	andeq	r5, r1, r0
    b010:	0000c000 	andeq	ip, r0, r0

Disassembly of section .got.plt:

0000b014 <_GLOBAL_OFFSET_TABLE_>:
	...

Disassembly of section .bss:

0000c000 <__bss_start>:
	...

0000c120 <clearers>:
	...

0000c240 <count_irqs>:
	...

0000c250 <pt>:
	...

00014250 <pt_index>:
   14250:	00000000 	andeq	r0, r0, r0

00014254 <property.4297>:
	...

0001435c <timer_regs>:
   1435c:	00000000 	andeq	r0, r0, r0

00014360 <all_pages_array>:
   14360:	00000000 	andeq	r0, r0, r0

00014364 <arm_mem_size>:
   14364:	00000000 	andeq	r0, r0, r0

00014368 <num_pages>:
   14368:	00000000 	andeq	r0, r0, r0

0001436c <MMUTABLEBASE>:
   1436c:	00000000 	andeq	r0, r0, r0

00014370 <free_pages>:
	...

Disassembly of section .ARM.attributes:

00000000 <.ARM.attributes>:
   0:	00003241 	andeq	r3, r0, r1, asr #4
   4:	61656100 	cmnvs	r5, r0, lsl #2
   8:	01006962 	tsteq	r0, r2, ror #18
   c:	00000028 	andeq	r0, r0, r8, lsr #32
  10:	412d3805 			; <UNDEFINED> instruction: 0x412d3805
  14:	070e0600 	streq	r0, [lr, -r0, lsl #12]
  18:	09010841 	stmdbeq	r1, {r0, r6, fp}
  1c:	0c070a02 	stceq	10, cr0, [r7], {2}
  20:	14041203 	strne	r1, [r4], #-515	; 0xfffffdfd
  24:	17011501 	strne	r1, [r1, -r1, lsl #10]
  28:	1a011803 	bne	4603c <__first_lvl_tbl_end+0x2503c>
  2c:	2a012201 	bcs	48838 <__first_lvl_tbl_end+0x27838>
  30:	Address 0x0000000000000030 is out of bounds.


Disassembly of section .comment:

00000000 <.comment>:
   0:	3a434347 	bcc	10d0d24 <__kernel_end+0xfafd24>
   4:	4e472820 	cdpmi	8, 4, cr2, cr7, cr0, {1}
   8:	6f542055 	svcvs	0x00542055
   c:	20736c6f 	rsbscs	r6, r3, pc, ror #24
  10:	20726f66 	rsbscs	r6, r2, r6, ror #30
  14:	204d5241 	subcs	r5, sp, r1, asr #4
  18:	65626d45 	strbvs	r6, [r2, #-3397]!	; 0xfffff2bb
  1c:	64656464 	strbtvs	r6, [r5], #-1124	; 0xfffffb9c
  20:	6f725020 	svcvs	0x00725020
  24:	73736563 	cmnvc	r3, #415236096	; 0x18c00000
  28:	2973726f 	ldmdbcs	r3!, {r0, r1, r2, r3, r5, r6, r9, ip, sp, lr}^
  2c:	342e3520 	strtcc	r3, [lr], #-1312	; 0xfffffae0
  30:	3220312e 	eorcc	r3, r0, #-2147483637	; 0x8000000b
  34:	30363130 	eorscc	r3, r6, r0, lsr r1
  38:	20393139 	eorscs	r3, r9, r9, lsr r1
  3c:	6c657228 	sfmvs	f7, 2, [r5], #-160	; 0xffffff60
  40:	65736165 	ldrbvs	r6, [r3, #-357]!	; 0xfffffe9b
  44:	415b2029 	cmpmi	fp, r9, lsr #32
  48:	652f4d52 	strvs	r4, [pc, #-3410]!	; fffff2fe <__kernel_end+0xffede2fe>
  4c:	6465626d 	strbtvs	r6, [r5], #-621	; 0xfffffd93
  50:	2d646564 	cfstr64cs	mvdx6, [r4, #-400]!	; 0xfffffe70
  54:	72622d35 	rsbvc	r2, r2, #3392	; 0xd40
  58:	68636e61 	stmdavs	r3!, {r0, r5, r6, r9, sl, fp, sp, lr}^
  5c:	76657220 	strbtvc	r7, [r5], -r0, lsr #4
  60:	6f697369 	svcvs	0x00697369
  64:	3432206e 	ldrtcc	r2, [r2], #-110	; 0xffffff92
  68:	36393430 			; <UNDEFINED> instruction: 0x36393430
  6c:	Address 0x000000000000006c is out of bounds.


Disassembly of section .debug_line:

00000000 <.debug_line>:
       0:	000000ba 	strheq	r0, [r0], -sl
       4:	00260002 	eoreq	r0, r6, r2
       8:	01020000 	mrseq	r0, (UNDEF: 2)
       c:	000d0efb 	strdeq	r0, [sp], -fp
      10:	01010101 	tsteq	r1, r1, lsl #2
      14:	01000000 	mrseq	r0, (UNDEF: 0)
      18:	61010000 	mrsvs	r0, (UNDEF: 1)
      1c:	2f686372 	svccs	0x00686372
      20:	006d7261 	rsbeq	r7, sp, r1, ror #4
      24:	6f6f6200 	svcvs	0x006f6200
      28:	00532e74 	subseq	r2, r3, r4, ror lr
      2c:	00000001 	andeq	r0, r0, r1
      30:	00020500 	andeq	r0, r2, r0, lsl #10
      34:	03000080 	movweq	r0, #128	; 0x80
      38:	2f2f012a 	svccs	0x002f012a
      3c:	2f2f2f2f 	svccs	0x002f2f2f
      40:	080d032f 	stmdaeq	sp, {r0, r1, r2, r3, r5, r8, r9}
      44:	2f2f2f20 	svccs	0x002f2f20
      48:	322f302f 	eorcc	r3, pc, #47	; 0x2f
      4c:	302f2f2f 	eorcc	r2, pc, pc, lsr #30
      50:	2f2f2f2f 	svccs	0x002f2f2f
      54:	312f302f 			; <UNDEFINED> instruction: 0x312f302f
      58:	2f2f2f2f 	svccs	0x002f2f2f
      5c:	2f2f312f 	svccs	0x002f312f
      60:	312f2f32 			; <UNDEFINED> instruction: 0x312f2f32
      64:	30332f2f 	eorscc	r2, r3, pc, lsr #30
      68:	31302f30 	teqcc	r0, r0, lsr pc
      6c:	32333230 	eorscc	r3, r3, #48, 4
      70:	322f322f 	eorcc	r3, pc, #-268435454	; 0xf0000002
      74:	2f2f2f32 	svccs	0x002f2f32
      78:	32312f32 	eorscc	r2, r1, #50, 30	; 0xc8
      7c:	312f2f2f 			; <UNDEFINED> instruction: 0x312f2f2f
      80:	2f2f2f2f 	svccs	0x002f2f2f
      84:	2f2f2f2f 	svccs	0x002f2f2f
      88:	322f2f2f 	eorcc	r2, pc, #47, 30	; 0xbc
      8c:	2f312f2f 	svccs	0x00312f2f
      90:	302f302f 	eorcc	r3, pc, pc, lsr #32
      94:	31302f2f 	teqcc	r0, pc, lsr #30
      98:	2f2f2f2f 	svccs	0x002f2f2f
      9c:	2f2f2f2f 	svccs	0x002f2f2f
      a0:	2f2f2f2f 	svccs	0x002f2f2f
      a4:	302f2f2f 	eorcc	r2, pc, pc, lsr #30
      a8:	2f2f2f32 	svccs	0x002f2f32
      ac:	2f322f2f 	svccs	0x00322f2f
      b0:	2f342f2f 	svccs	0x00342f2f
      b4:	2e7eea03 	vaddcs.f32	s29, s28, s6
      b8:	00020234 	andeq	r0, r2, r4, lsr r2
      bc:	009f0101 	addseq	r0, pc, r1, lsl #2
      c0:	00020000 	andeq	r0, r2, r0
      c4:	00000086 	andeq	r0, r0, r6, lsl #1
      c8:	0efb0102 	cdpeq	1, 15, cr0, cr11, cr2, {0}
      cc:	0101000d 	tsteq	r1, sp
      d0:	00000101 	andeq	r0, r0, r1, lsl #2
      d4:	00000100 	andeq	r0, r0, r0, lsl #2
      d8:	63726101 	cmnvs	r2, #1073741824	; 0x40000000
      dc:	72612f68 	rsbvc	r2, r1, #104, 30	; 0x1a0
      e0:	552f006d 	strpl	r0, [pc, #-109]!	; 7b <ARM_F_BIT+0x3b>
      e4:	73726573 	cmnvc	r2, #482344960	; 0x1cc00000
      e8:	6172702f 	cmnvs	r2, pc, lsr #32
      ec:	6873616b 	ldmdavs	r3!, {r0, r1, r3, r5, r6, r8, sp, lr}^
      f0:	6b726f62 	blvs	1c9be80 <__kernel_end+0x1b7ae80>
      f4:	672f7261 	strvs	r7, [pc, -r1, ror #4]!
      f8:	612d6363 			; <UNDEFINED> instruction: 0x612d6363
      fc:	6e2d6d72 	mcrvs	13, 1, r6, cr13, cr2, {3}
     100:	2d656e6f 	stclcs	14, cr6, [r5, #-444]!	; 0xfffffe44
     104:	69626165 	stmdbvs	r2!, {r0, r2, r5, r6, r8, sp, lr}^
     108:	62696c2f 	rsbvs	r6, r9, #12032	; 0x2f00
     10c:	6363672f 	cmnvs	r3, #12320768	; 0xbc0000
     110:	6d72612f 	ldfvse	f6, [r2, #-188]!	; 0xffffff44
     114:	6e6f6e2d 	cdpvs	14, 6, cr6, cr15, cr13, {1}
     118:	61652d65 	cmnvs	r5, r5, ror #26
     11c:	352f6962 	strcc	r6, [pc, #-2402]!	; fffff7c2 <__kernel_end+0xffede7c2>
     120:	312e342e 			; <UNDEFINED> instruction: 0x312e342e
     124:	636e692f 	cmnvs	lr, #770048	; 0xbc000
     128:	6564756c 	strbvs	r7, [r4, #-1388]!	; 0xfffffa94
     12c:	73620000 	cmnvc	r2, #0
     130:	6c632d73 	stclvs	13, cr2, [r3], #-460	; 0xfffffe34
     134:	2e726165 	rpwcssz	f6, f2, f5
     138:	00010063 	andeq	r0, r1, r3, rrx
     13c:	64747300 	ldrbtvs	r7, [r4], #-768	; 0xfffffd00
     140:	2d746e69 	ldclcs	14, cr6, [r4, #-420]!	; 0xfffffe5c
     144:	2e636367 	cdpcs	3, 6, cr6, cr3, cr7, {3}
     148:	00020068 	andeq	r0, r2, r8, rrx
     14c:	05000000 	streq	r0, [r0, #-0]
     150:	00820802 	addeq	r0, r2, r2, lsl #16
     154:	324a1900 	subcc	r1, sl, #0, 18
     158:	4d9d2108 	ldfmis	f2, [sp, #32]
     15c:	01000a02 	tsteq	r0, r2, lsl #20
     160:	0000d601 	andeq	sp, r0, r1, lsl #12
     164:	be000200 	cdplt	2, 0, cr0, cr0, cr0, {0}
     168:	02000000 	andeq	r0, r0, #0
     16c:	0d0efb01 	vstreq	d15, [lr, #-4]
     170:	01010100 	mrseq	r0, (UNDEF: 17)
     174:	00000001 	andeq	r0, r0, r1
     178:	01000001 	tsteq	r0, r1
     17c:	68637261 	stmdavs	r3!, {r0, r5, r6, r9, ip, sp, lr}^
     180:	6d72612f 	ldfvse	f6, [r2, #-188]!	; 0xffffff44
     184:	636e6900 	cmnvs	lr, #0, 18
     188:	6564756c 	strbvs	r7, [r4, #-1388]!	; 0xfffffa94
     18c:	72656b2f 	rsbvc	r6, r5, #48128	; 0xbc00
     190:	006c656e 	rsbeq	r6, ip, lr, ror #10
     194:	6573552f 	ldrbvs	r5, [r3, #-1327]!	; 0xfffffad1
     198:	702f7372 	eorvc	r7, pc, r2, ror r3	; <UNPREDICTABLE>
     19c:	616b6172 	smcvs	46610	; 0xb612
     1a0:	6f626873 	svcvs	0x00626873
     1a4:	72616b72 	rsbvc	r6, r1, #116736	; 0x1c800
     1a8:	6363672f 	cmnvs	r3, #12320768	; 0xbc0000
     1ac:	6d72612d 	ldfvse	f6, [r2, #-180]!	; 0xffffff4c
     1b0:	6e6f6e2d 	cdpvs	14, 6, cr6, cr15, cr13, {1}
     1b4:	61652d65 	cmnvs	r5, r5, ror #26
     1b8:	6c2f6962 	stcvs	9, cr6, [pc], #-392	; 38 <CPSR_THUMB+0x18>
     1bc:	672f6269 	strvs	r6, [pc, -r9, ror #4]!
     1c0:	612f6363 			; <UNDEFINED> instruction: 0x612f6363
     1c4:	6e2d6d72 	mcrvs	13, 1, r6, cr13, cr2, {3}
     1c8:	2d656e6f 	stclcs	14, cr6, [r5, #-444]!	; 0xfffffe44
     1cc:	69626165 	stmdbvs	r2!, {r0, r2, r5, r6, r8, sp, lr}^
     1d0:	342e352f 	strtcc	r3, [lr], #-1327	; 0xfffffad1
     1d4:	692f312e 	stmdbvs	pc!, {r1, r2, r3, r5, r8, ip, sp}	; <UNPREDICTABLE>
     1d8:	756c636e 	strbvc	r6, [ip, #-878]!	; 0xfffffc92
     1dc:	00006564 	andeq	r6, r0, r4, ror #10
     1e0:	2d697072 	stclcs	0, cr7, [r9, #-456]!	; 0xfffffe38
     1e4:	746d7261 	strbtvc	r7, [sp], #-609	; 0xfffffd9f
     1e8:	72656d69 	rsbvc	r6, r5, #6720	; 0x1a40
     1ec:	0100632e 	tsteq	r0, lr, lsr #6
     1f0:	70720000 	rsbsvc	r0, r2, r0
     1f4:	72612d69 	rsbvc	r2, r1, #6720	; 0x1a40
     1f8:	6d69746d 	cfstrdvs	mvd7, [r9, #-436]!	; 0xfffffe4c
     1fc:	682e7265 	stmdavs	lr!, {r0, r2, r5, r6, r9, ip, sp, lr}
     200:	00000200 	andeq	r0, r0, r0, lsl #4
     204:	69647473 	stmdbvs	r4!, {r0, r1, r4, r5, r6, sl, ip, sp, lr}^
     208:	672d746e 	strvs	r7, [sp, -lr, ror #8]!
     20c:	682e6363 	stmdavs	lr!, {r0, r1, r5, r6, r8, r9, sp, lr}
     210:	00000300 	andeq	r0, r0, r0, lsl #6
     214:	2d697072 	stclcs	0, cr7, [r9, #-456]!	; 0xfffffe38
     218:	65746e69 	ldrbvs	r6, [r4, #-3689]!	; 0xfffff197
     21c:	70757272 	rsbsvc	r7, r5, r2, ror r2
     220:	682e7374 	stmdavs	lr!, {r2, r4, r5, r6, r8, r9, ip, sp, lr}
     224:	00000200 	andeq	r0, r0, r0, lsl #4
     228:	02050000 	andeq	r0, r5, #0
     22c:	00008268 	andeq	r8, r0, r8, ror #4
     230:	2f691419 	svccs	0x00691419
     234:	08026767 	stmdaeq	r2, {r0, r1, r2, r5, r6, r8, r9, sl, sp, lr}
     238:	bf010100 	svclt	0x00010100
     23c:	02000001 	andeq	r0, r0, #1
     240:	0000c500 	andeq	ip, r0, r0, lsl #10
     244:	fb010200 	blx	40a4e <__first_lvl_tbl_end+0x1fa4e>
     248:	01000d0e 	tsteq	r0, lr, lsl #26
     24c:	00010101 	andeq	r0, r1, r1, lsl #2
     250:	00010000 	andeq	r0, r1, r0
     254:	72610100 	rsbvc	r0, r1, #0, 2
     258:	612f6863 			; <UNDEFINED> instruction: 0x612f6863
     25c:	69006d72 	stmdbvs	r0, {r1, r4, r5, r6, r8, sl, fp, sp, lr}
     260:	756c636e 	strbvc	r6, [ip, #-878]!	; 0xfffffc92
     264:	6b2f6564 	blvs	bd97fc <__kernel_end+0xab87fc>
     268:	656e7265 	strbvs	r7, [lr, #-613]!	; 0xfffffd9b
     26c:	552f006c 	strpl	r0, [pc, #-108]!	; 208 <ARM_I_BIT+0x188>
     270:	73726573 	cmnvc	r2, #482344960	; 0x1cc00000
     274:	6172702f 	cmnvs	r2, pc, lsr #32
     278:	6873616b 	ldmdavs	r3!, {r0, r1, r3, r5, r6, r8, sp, lr}^
     27c:	6b726f62 	blvs	1c9c00c <__kernel_end+0x1b7b00c>
     280:	672f7261 	strvs	r7, [pc, -r1, ror #4]!
     284:	612d6363 			; <UNDEFINED> instruction: 0x612d6363
     288:	6e2d6d72 	mcrvs	13, 1, r6, cr13, cr2, {3}
     28c:	2d656e6f 	stclcs	14, cr6, [r5, #-444]!	; 0xfffffe44
     290:	69626165 	stmdbvs	r2!, {r0, r2, r5, r6, r8, sp, lr}^
     294:	62696c2f 	rsbvs	r6, r9, #12032	; 0x2f00
     298:	6363672f 	cmnvs	r3, #12320768	; 0xbc0000
     29c:	6d72612f 	ldfvse	f6, [r2, #-188]!	; 0xffffff44
     2a0:	6e6f6e2d 	cdpvs	14, 6, cr6, cr15, cr13, {1}
     2a4:	61652d65 	cmnvs	r5, r5, ror #26
     2a8:	352f6962 	strcc	r6, [pc, #-2402]!	; fffff94e <__kernel_end+0xffede94e>
     2ac:	312e342e 			; <UNDEFINED> instruction: 0x312e342e
     2b0:	636e692f 	cmnvs	lr, #770048	; 0xbc000
     2b4:	6564756c 	strbvs	r7, [r4, #-1388]!	; 0xfffffa94
     2b8:	70720000 	rsbsvc	r0, r2, r0
     2bc:	6e692d69 	cdpvs	13, 6, cr2, cr9, cr9, {3}
     2c0:	72726574 	rsbsvc	r6, r2, #116, 10	; 0x1d000000
     2c4:	73747075 	cmnvc	r4, #117	; 0x75
     2c8:	0100632e 	tsteq	r0, lr, lsr #6
     2cc:	70720000 	rsbsvc	r0, r2, r0
     2d0:	6e692d69 	cdpvs	13, 6, cr2, cr9, cr9, {3}
     2d4:	72726574 	rsbsvc	r6, r2, #116, 10	; 0x1d000000
     2d8:	73747075 	cmnvc	r4, #117	; 0x75
     2dc:	0200682e 	andeq	r6, r0, #3014656	; 0x2e0000
     2e0:	74730000 	ldrbtvc	r0, [r3], #-0
     2e4:	66656464 	strbtvs	r6, [r5], -r4, ror #8
     2e8:	0300682e 	movweq	r6, #2094	; 0x82e
     2ec:	74730000 	ldrbtvc	r0, [r3], #-0
     2f0:	746e6964 	strbtvc	r6, [lr], #-2404	; 0xfffff69c
     2f4:	6363672d 	cmnvs	r3, #11796480	; 0xb40000
     2f8:	0300682e 	movweq	r6, #2094	; 0x82e
     2fc:	61750000 	cmnvs	r5, r0
     300:	2e307472 	mrccs	4, 1, r7, cr0, cr2, {3}
     304:	00020068 	andeq	r0, r2, r8, rrx
     308:	05000000 	streq	r0, [r0, #-0]
     30c:	0082a002 	addeq	sl, r2, r2
     310:	01210300 			; <UNDEFINED> instruction: 0x01210300
     314:	660a0314 			; <UNDEFINED> instruction: 0x660a0314
     318:	9e0c034b 	cdpls	3, 0, cr0, cr12, cr11, {2}
     31c:	9e0c032f 	cdpls	3, 0, cr0, cr12, cr15, {1}
     320:	a44ba22f 	strbge	sl, [fp], #-559	; 0xfffffdd1
     324:	034ba44b 	movteq	sl, #46155	; 0xb44b
     328:	61179e13 	tstvs	r7, r3, lsl lr
     32c:	31302933 	teqcc	r0, r3, lsr r9
     330:	02040200 	andeq	r0, r4, #0, 4
     334:	02008547 	andeq	r8, r0, #297795584	; 0x11c00000
     338:	4a060404 	bmi	181350 <__kernel_end+0x60350>
     33c:	08040200 	stmdaeq	r4, {r9}
     340:	0402004a 	streq	r0, [r2], #-74	; 0xffffffb6
     344:	02004a09 	andeq	r4, r0, #36864	; 0x9000
     348:	06660a04 	strbteq	r0, [r6], -r4, lsl #20
     34c:	03020484 	movweq	r0, #9348	; 0x2484
     350:	35667fbe 	strbcc	r7, [r6, #-4030]!	; 0xfffff042
     354:	0301044c 	movweq	r0, #5196	; 0x144c
     358:	02042e3b 	andeq	r2, r4, #944	; 0x3b0
     35c:	827fbc03 	rsbshi	fp, pc, #768	; 0x300
     360:	4c2e1103 	stfmis	f1, [lr], #-12
     364:	02000104 	andeq	r0, r0, #4, 2
     368:	2d030104 	stfcss	f0, [r3, #-16]
     36c:	0402004a 	streq	r0, [r2], #-74	; 0xffffffb6
     370:	06ba0605 	ldrteq	r0, [sl], r5, lsl #12
     374:	14ba0c03 	ldrtne	r0, [sl], #3075	; 0xc03
     378:	0335302c 	teqeq	r5, #44	; 0x2c
     37c:	4830820a 	ldmdami	r0!, {r1, r3, r9, pc}
     380:	2c2f2d30 	stccs	13, cr2, [pc], #-192	; 2c8 <ARM_I_BIT+0x248>
     384:	77032f2f 	strvc	r2, [r3, -pc, lsr #30]
     388:	30483066 	subcc	r3, r8, r6, rrx
     38c:	302c2f2d 	eorcc	r2, ip, sp, lsr #30
     390:	77032f2d 	strvc	r2, [r3, -sp, lsr #30]
     394:	3048304a 	subcc	r3, r8, sl, asr #32
     398:	2f482f2d 	svccs	0x00482f2d
     39c:	ba16032f 	blt	581060 <__kernel_end+0x460060>
     3a0:	36302c14 			; <UNDEFINED> instruction: 0x36302c14
     3a4:	30820a03 	addcc	r0, r2, r3, lsl #20
     3a8:	2d2d3048 	stccs	0, cr3, [sp, #-288]!	; 0xfffffee0
     3ac:	2f2f2c30 	svccs	0x002f2c30
     3b0:	30667703 	rsbcc	r7, r6, r3, lsl #14
     3b4:	2d2d3048 	stccs	0, cr3, [sp, #-288]!	; 0xfffffee0
     3b8:	2d302c30 	ldccs	12, cr2, [r0, #-192]!	; 0xffffff40
     3bc:	4a76032f 	bmi	1d81080 <__kernel_end+0x1c60080>
     3c0:	2c314731 	ldccs	7, cr4, [r1], #-196	; 0xffffff3c
     3c4:	304b4730 	subcc	r4, fp, r0, lsr r7
     3c8:	17ba1703 	ldrne	r1, [sl, r3, lsl #14]!
     3cc:	0200312b 	andeq	r3, r0, #-1073741814	; 0xc000000a
     3d0:	00680304 	rsbeq	r0, r8, r4, lsl #6
     3d4:	2c030402 	cfstrscs	mvf0, [r3], {2}
     3d8:	0313314f 	tsteq	r3, #-1073741805	; 0xc0000013
     3dc:	2f667f96 	svccs	0x00667f96
     3e0:	53030204 	movwpl	r0, #12804	; 0x3204
     3e4:	2e11032e 	cdpcs	3, 1, cr0, cr1, cr14, {1}
     3e8:	0301044c 	movweq	r0, #5196	; 0x144c
     3ec:	679f2e1c 			; <UNDEFINED> instruction: 0x679f2e1c
     3f0:	02042f83 	andeq	r2, r4, #524	; 0x20c
     3f4:	352e4d03 	strcc	r4, [lr, #-3331]!	; 0xfffff2fd
     3f8:	0006024c 	andeq	r0, r6, ip, asr #4
     3fc:	012b0101 			; <UNDEFINED> instruction: 0x012b0101
     400:	00020000 	andeq	r0, r2, r0
     404:	000000a8 	andeq	r0, r0, r8, lsr #1
     408:	0efb0102 	cdpeq	1, 15, cr0, cr11, cr2, {0}
     40c:	0101000d 	tsteq	r1, sp
     410:	00000101 	andeq	r0, r0, r1, lsl #2
     414:	00000100 	andeq	r0, r0, r0, lsl #2
     418:	63726101 	cmnvs	r2, #1073741824	; 0x40000000
     41c:	72612f68 	rsbvc	r2, r1, #104, 30	; 0x1a0
     420:	552f006d 	strpl	r0, [pc, #-109]!	; 3bb <ARM_I_BIT+0x33b>
     424:	73726573 	cmnvc	r2, #482344960	; 0x1cc00000
     428:	6172702f 	cmnvs	r2, pc, lsr #32
     42c:	6873616b 	ldmdavs	r3!, {r0, r1, r3, r5, r6, r8, sp, lr}^
     430:	6b726f62 	blvs	1c9c1c0 <__kernel_end+0x1b7b1c0>
     434:	672f7261 	strvs	r7, [pc, -r1, ror #4]!
     438:	612d6363 			; <UNDEFINED> instruction: 0x612d6363
     43c:	6e2d6d72 	mcrvs	13, 1, r6, cr13, cr2, {3}
     440:	2d656e6f 	stclcs	14, cr6, [r5, #-444]!	; 0xfffffe44
     444:	69626165 	stmdbvs	r2!, {r0, r2, r5, r6, r8, sp, lr}^
     448:	62696c2f 	rsbvs	r6, r9, #12032	; 0x2f00
     44c:	6363672f 	cmnvs	r3, #12320768	; 0xbc0000
     450:	6d72612f 	ldfvse	f6, [r2, #-188]!	; 0xffffff44
     454:	6e6f6e2d 	cdpvs	14, 6, cr6, cr15, cr13, {1}
     458:	61652d65 	cmnvs	r5, r5, ror #26
     45c:	352f6962 	strcc	r6, [pc, #-2402]!	; fffffb02 <__kernel_end+0xffedeb02>
     460:	312e342e 			; <UNDEFINED> instruction: 0x312e342e
     464:	636e692f 	cmnvs	lr, #770048	; 0xbc000
     468:	6564756c 	strbvs	r7, [r4, #-1388]!	; 0xfffffa94
     46c:	636e6900 	cmnvs	lr, #0, 18
     470:	6564756c 	strbvs	r7, [r4, #-1388]!	; 0xfffffa94
     474:	72656b2f 	rsbvc	r6, r5, #48128	; 0xbc00
     478:	006c656e 	rsbeq	r6, ip, lr, ror #10
     47c:	72617500 	rsbvc	r7, r1, #0, 10
     480:	632e3074 			; <UNDEFINED> instruction: 0x632e3074
     484:	00000100 	andeq	r0, r0, r0, lsl #2
     488:	69647473 	stmdbvs	r4!, {r0, r1, r4, r5, r6, sl, ip, sp, lr}^
     48c:	672d746e 	strvs	r7, [sp, -lr, ror #8]!
     490:	682e6363 	stmdavs	lr!, {r0, r1, r5, r6, r8, r9, sp, lr}
     494:	00000200 	andeq	r0, r0, r0, lsl #4
     498:	64647473 	strbtvs	r7, [r4], #-1139	; 0xfffffb8d
     49c:	682e6665 	stmdavs	lr!, {r0, r2, r5, r6, r9, sl, sp, lr}
     4a0:	00000200 	andeq	r0, r0, r0, lsl #4
     4a4:	74726175 	ldrbtvc	r6, [r2], #-373	; 0xfffffe8b
     4a8:	00682e30 	rsbeq	r2, r8, r0, lsr lr
     4ac:	00000003 	andeq	r0, r0, r3
     4b0:	40020500 	andmi	r0, r2, r0, lsl #10
     4b4:	03000086 	movweq	r0, #134	; 0x86
     4b8:	69030123 	stmdbvs	r3, {r0, r1, r5, r8}
     4bc:	820c0301 	andhi	r0, ip, #67108864	; 0x4000000
     4c0:	032e7403 			; <UNDEFINED> instruction: 0x032e7403
     4c4:	74032e0c 	strvc	r2, [r3], #-3596	; 0xfffff1f4
     4c8:	4a0c032e 	bmi	301188 <__kernel_end+0x1e0188>
     4cc:	034a7403 	movteq	r7, #41987	; 0xa403
     4d0:	74034a0c 	strvc	r4, [r3], #-2572	; 0xfffff5f4
     4d4:	00c0034a 	sbceq	r0, r0, sl, asr #6
     4d8:	4603ac08 	strmi	sl, [r3], -r8, lsl #24
     4dc:	04020001 	streq	r0, [r2], #-1
     4e0:	004a0601 	subeq	r0, sl, r1, lsl #12
     4e4:	06010402 	streq	r0, [r1], -r2, lsl #8
     4e8:	03663c03 	cmneq	r6, #768	; 0x300
     4ec:	034a7fbe 	movteq	r7, #44990	; 0xafbe
     4f0:	034a00c9 	movteq	r0, #41161	; 0xa0c9
     4f4:	00017fbd 			; <UNDEFINED> instruction: 0x00017fbd
     4f8:	06010402 	streq	r0, [r1], -r2, lsl #8
     4fc:	0402004a 	streq	r0, [r2], #-74	; 0xffffffb6
     500:	c5030601 	strgt	r0, [r3, #-1537]	; 0xfffff9ff
     504:	bb036600 	bllt	d9d0c <__first_lvl_tbl_end+0xb8d0c>
     508:	c9034a7f 	stmdbgt	r3, {r0, r1, r2, r3, r4, r5, r6, r9, fp, lr}
     50c:	2e4d2e00 	cdpcs	14, 4, cr2, cr13, cr0, {0}
     510:	0402002f 	streq	r0, [r2], #-47	; 0xffffffd1
     514:	02006703 	andeq	r6, r0, #786432	; 0xc0000
     518:	872d0304 	strhi	r0, [sp, -r4, lsl #6]!
     51c:	2f31332e 	svccs	0x0031332e
     520:	312c314b 			; <UNDEFINED> instruction: 0x312c314b
     524:	2d2f4d4b 	stccs	13, cr4, [pc, #-300]!	; 400 <ARM_I_BIT+0x380>
     528:	01000202 	tsteq	r0, r2, lsl #4
     52c:	0000d401 	andeq	sp, r0, r1, lsl #8
     530:	a8000200 	stmdage	r0, {r9}
     534:	02000000 	andeq	r0, r0, #0
     538:	0d0efb01 	vstreq	d15, [lr, #-4]
     53c:	01010100 	mrseq	r0, (UNDEF: 17)
     540:	00000001 	andeq	r0, r0, r1
     544:	01000001 	tsteq	r0, r1
     548:	68637261 	stmdavs	r3!, {r0, r5, r6, r9, ip, sp, lr}^
     54c:	6d72612f 	ldfvse	f6, [r2, #-188]!	; 0xffffff44
     550:	73552f00 	cmpvc	r5, #0, 30
     554:	2f737265 	svccs	0x00737265
     558:	6b617270 	blvs	185cf20 <__kernel_end+0x173bf20>
     55c:	62687361 	rsbvs	r7, r8, #-2080374783	; 0x84000001
     560:	616b726f 	cmnvs	fp, pc, ror #4
     564:	63672f72 	cmnvs	r7, #456	; 0x1c8
     568:	72612d63 	rsbvc	r2, r1, #6336	; 0x18c0
     56c:	6f6e2d6d 	svcvs	0x006e2d6d
     570:	652d656e 	strvs	r6, [sp, #-1390]!	; 0xfffffa92
     574:	2f696261 	svccs	0x00696261
     578:	2f62696c 	svccs	0x0062696c
     57c:	2f636367 	svccs	0x00636367
     580:	2d6d7261 	sfmcs	f7, 2, [sp, #-388]!	; 0xfffffe7c
     584:	656e6f6e 	strbvs	r6, [lr, #-3950]!	; 0xfffff092
     588:	6261652d 	rsbvs	r6, r1, #188743680	; 0xb400000
     58c:	2e352f69 	cdpcs	15, 3, cr2, cr5, cr9, {3}
     590:	2f312e34 	svccs	0x00312e34
     594:	6c636e69 	stclvs	14, cr6, [r3], #-420	; 0xfffffe5c
     598:	00656475 	rsbeq	r6, r5, r5, ror r4
     59c:	6c636e69 	stclvs	14, cr6, [r3], #-420	; 0xfffffe5c
     5a0:	2f656475 	svccs	0x00656475
     5a4:	6e72656b 	cdpvs	5, 7, cr6, cr2, cr11, {3}
     5a8:	00006c65 	andeq	r6, r0, r5, ror #24
     5ac:	2d697072 	stclcs	0, cr7, [r9, #-456]!	; 0xfffffe38
     5b0:	6c69616d 	stfvse	f6, [r9], #-436	; 0xfffffe4c
     5b4:	2e786f62 	cdpcs	15, 7, cr6, cr8, cr2, {3}
     5b8:	00010063 	andeq	r0, r1, r3, rrx
     5bc:	64747300 	ldrbtvs	r7, [r4], #-768	; 0xfffffd00
     5c0:	2d746e69 	ldclcs	14, cr6, [r4, #-420]!	; 0xfffffe5c
     5c4:	2e636367 	cdpcs	3, 6, cr6, cr3, cr7, {3}
     5c8:	00020068 	andeq	r0, r2, r8, rrx
     5cc:	69707200 	ldmdbvs	r0!, {r9, ip, sp, lr}^
     5d0:	69616d2d 	stmdbvs	r1!, {r0, r2, r3, r5, r8, sl, fp, sp, lr}^
     5d4:	786f626c 	stmdavc	pc!, {r2, r3, r5, r6, r9, sp, lr}^	; <UNPREDICTABLE>
     5d8:	0300682e 	movweq	r6, #2094	; 0x82e
     5dc:	00000000 	andeq	r0, r0, r0
     5e0:	87680205 	strbhi	r0, [r8, -r5, lsl #4]!
     5e4:	0a030000 	beq	c05ec <__first_lvl_tbl_end+0x9f5ec>
     5e8:	46331701 	ldrtmi	r1, [r3], -r1, lsl #14
     5ec:	01040200 	mrseq	r0, R12_usr
     5f0:	184ea332 	stmdane	lr, {r1, r4, r5, r8, r9, sp, pc}^
     5f4:	01040200 	mrseq	r0, R12_usr
     5f8:	7603c04e 	strvc	ip, [r3], -lr, asr #32
     5fc:	ba0f032e 	blt	3c12bc <__kernel_end+0x2a02bc>
     600:	01000202 	tsteq	r0, r2, lsl #4
     604:	00025901 	andeq	r5, r2, r1, lsl #18
     608:	30000200 	andcc	r0, r0, r0, lsl #4
     60c:	02000001 	andeq	r0, r0, #1
     610:	0d0efb01 	vstreq	d15, [lr, #-4]
     614:	01010100 	mrseq	r0, (UNDEF: 17)
     618:	00000001 	andeq	r0, r0, r1
     61c:	01000001 	tsteq	r0, r1
     620:	68637261 	stmdavs	r3!, {r0, r5, r6, r9, ip, sp, lr}^
     624:	6d72612f 	ldfvse	f6, [r2, #-188]!	; 0xffffff44
     628:	73552f00 	cmpvc	r5, #0, 30
     62c:	2f737265 	svccs	0x00737265
     630:	6b617270 	blvs	185cff8 <__kernel_end+0x173bff8>
     634:	62687361 	rsbvs	r7, r8, #-2080374783	; 0x84000001
     638:	616b726f 	cmnvs	fp, pc, ror #4
     63c:	63672f72 	cmnvs	r7, #456	; 0x1c8
     640:	72612d63 	rsbvc	r2, r1, #6336	; 0x18c0
     644:	6f6e2d6d 	svcvs	0x006e2d6d
     648:	652d656e 	strvs	r6, [sp, #-1390]!	; 0xfffffa92
     64c:	2f696261 	svccs	0x00696261
     650:	2f62696c 	svccs	0x0062696c
     654:	2f636367 	svccs	0x00636367
     658:	2d6d7261 	sfmcs	f7, 2, [sp, #-388]!	; 0xfffffe7c
     65c:	656e6f6e 	strbvs	r6, [lr, #-3950]!	; 0xfffff092
     660:	6261652d 	rsbvs	r6, r1, #188743680	; 0xb400000
     664:	2e352f69 	cdpcs	15, 3, cr2, cr5, cr9, {3}
     668:	2f312e34 	svccs	0x00312e34
     66c:	6c636e69 	stclvs	14, cr6, [r3], #-420	; 0xfffffe5c
     670:	00656475 	rsbeq	r6, r5, r5, ror r4
     674:	6c636e69 	stclvs	14, cr6, [r3], #-420	; 0xfffffe5c
     678:	2f656475 	svccs	0x00656475
     67c:	6e72656b 	cdpvs	5, 7, cr6, cr2, cr11, {3}
     680:	2f006c65 	svccs	0x00006c65
     684:	72657355 	rsbvc	r7, r5, #1409286145	; 0x54000001
     688:	72702f73 	rsbsvc	r2, r0, #460	; 0x1cc
     68c:	73616b61 	cmnvc	r1, #99328	; 0x18400
     690:	726f6268 	rsbvc	r6, pc, #104, 4	; 0x80000006
     694:	2f72616b 	svccs	0x0072616b
     698:	2d636367 	stclcs	3, cr6, [r3, #-412]!	; 0xfffffe64
     69c:	2d6d7261 	sfmcs	f7, 2, [sp, #-388]!	; 0xfffffe7c
     6a0:	656e6f6e 	strbvs	r6, [lr, #-3950]!	; 0xfffff092
     6a4:	6261652d 	rsbvs	r6, r1, #188743680	; 0xb400000
     6a8:	72612f69 	rsbvc	r2, r1, #420	; 0x1a4
     6ac:	6f6e2d6d 	svcvs	0x006e2d6d
     6b0:	652d656e 	strvs	r6, [sp, #-1390]!	; 0xfffffa92
     6b4:	2f696261 	svccs	0x00696261
     6b8:	6c636e69 	stclvs	14, cr6, [r3], #-420	; 0xfffffe5c
     6bc:	00656475 	rsbeq	r6, r5, r5, ror r4
     6c0:	69707200 	ldmdbvs	r0!, {r9, ip, sp, lr}^
     6c4:	69616d2d 	stmdbvs	r1!, {r0, r2, r3, r5, r8, sl, fp, sp, lr}^
     6c8:	786f626c 	stmdavc	pc!, {r2, r3, r5, r6, r9, sp, lr}^	; <UNPREDICTABLE>
     6cc:	746e692d 	strbtvc	r6, [lr], #-2349	; 0xfffff6d3
     6d0:	61667265 	cmnvs	r6, r5, ror #4
     6d4:	632e6563 			; <UNDEFINED> instruction: 0x632e6563
     6d8:	00000100 	andeq	r0, r0, r0, lsl #2
     6dc:	61647473 	smcvs	18243	; 0x4743
     6e0:	682e6772 	stmdavs	lr!, {r1, r4, r5, r6, r8, r9, sl, sp, lr}
     6e4:	00000200 	andeq	r0, r0, r0, lsl #4
     6e8:	69647473 	stmdbvs	r4!, {r0, r1, r4, r5, r6, sl, ip, sp, lr}^
     6ec:	672d746e 	strvs	r7, [sp, -lr, ror #8]!
     6f0:	682e6363 	stmdavs	lr!, {r0, r1, r5, r6, r8, r9, sp, lr}
     6f4:	00000200 	andeq	r0, r0, r0, lsl #4
     6f8:	2d697072 	stclcs	0, cr7, [r9, #-456]!	; 0xfffffe38
     6fc:	6c69616d 	stfvse	f6, [r9], #-436	; 0xfffffe4c
     700:	2e786f62 	cdpcs	15, 7, cr6, cr8, cr2, {3}
     704:	00030068 	andeq	r0, r3, r8, rrx
     708:	69707200 	ldmdbvs	r0!, {r9, ip, sp, lr}^
     70c:	69616d2d 	stmdbvs	r1!, {r0, r2, r3, r5, r8, sl, fp, sp, lr}^
     710:	786f626c 	stmdavc	pc!, {r2, r3, r5, r6, r9, sp, lr}^	; <UNPREDICTABLE>
     714:	746e692d 	strbtvc	r6, [lr], #-2349	; 0xfffff6d3
     718:	61667265 	cmnvs	r6, r5, ror #4
     71c:	682e6563 	stmdavs	lr!, {r0, r1, r5, r6, r8, sl, sp, lr}
     720:	00000300 	andeq	r0, r0, r0, lsl #6
     724:	69727473 	ldmdbvs	r2!, {r0, r1, r4, r5, r6, sl, ip, sp, lr}^
     728:	682e676e 	stmdavs	lr!, {r1, r2, r3, r5, r6, r8, r9, sl, sp, lr}
     72c:	00000400 	andeq	r0, r0, r0, lsl #8
     730:	6975623c 	ldmdbvs	r5!, {r2, r3, r4, r5, r9, sp, lr}^
     734:	692d746c 	pushvs	{r2, r3, r5, r6, sl, ip, sp, lr}
     738:	00003e6e 	andeq	r3, r0, lr, ror #28
     73c:	00000000 	andeq	r0, r0, r0
     740:	87d40205 	ldrbhi	r0, [r4, r5, lsl #4]
     744:	18030000 	stmdane	r3, {}	; <UNPREDICTABLE>
     748:	31311401 	teqcc	r1, r1, lsl #8
     74c:	502e7a03 	eorpl	r7, lr, r3, lsl #20
     750:	314a7a03 	cmpcc	sl, r3, lsl #20
     754:	0b032b34 	bleq	cb42c <__first_lvl_tbl_end+0xaa42c>
     758:	03303282 	teqeq	r0, #536870920	; 0x20000008
     75c:	46324a7a 			; <UNDEFINED> instruction: 0x46324a7a
     760:	2a302c32 	bcs	c0b830 <__kernel_end+0xaea830>
     764:	682c3230 	stmdavs	ip!, {r4, r5, r9, ip, sp}
     768:	2e022403 	cdpcs	4, 0, cr2, cr2, cr3, {0}
     76c:	472f2f01 	strmi	r2, [pc, -r1, lsl #30]!
     770:	312f2a32 			; <UNDEFINED> instruction: 0x312f2a32
     774:	2c302f2b 	ldccs	15, cr2, [r0], #-172	; 0xffffff54
     778:	cd032f2f 	stcgt	15, cr2, [r3, #-188]	; 0xffffff44
     77c:	03852e00 	orreq	r2, r5, #0, 28
     780:	03827f89 	orreq	r7, r2, #548	; 0x224
     784:	2a0200dd 	bcs	80b00 <__first_lvl_tbl_end+0x5fb00>
     788:	474c2f01 	strbmi	r2, [ip, -r1, lsl #30]
     78c:	2f2b302f 	svccs	0x002b302f
     790:	0b032f2d 	bleq	cc44c <__first_lvl_tbl_end+0xab44c>
     794:	2e75034a 	cdpcs	3, 7, cr0, cr5, cr10, {2}
     798:	032e0b03 			; <UNDEFINED> instruction: 0x032e0b03
     79c:	2f302e77 	svccs	0x00302e77
     7a0:	4b474b2f 	blmi	11d3464 <__kernel_end+0x10b2464>
     7a4:	2f2c2f2f 	svccs	0x002c2f2f
     7a8:	7f9b032f 	svcvc	0x009b032f
     7ac:	f213034a 	vcgt.s16	q0, <illegal reg q1.5>, q5
     7b0:	4c2c2f2f 	stcmi	15, cr2, [ip], #-188	; 0xffffff44
     7b4:	2d302d49 	ldccs	13, cr2, [r0, #-292]!	; 0xfffffedc
     7b8:	2e6a0330 	mcrcs	3, 3, r0, cr10, cr0, {1}
     7bc:	2f820b03 	svccs	0x00820b03
     7c0:	494c2c2f 	stmdbmi	ip, {r0, r1, r2, r3, r5, sl, fp, sp}^
     7c4:	302d302d 	eorcc	r3, sp, sp, lsr #32
     7c8:	032e7203 			; <UNDEFINED> instruction: 0x032e7203
     7cc:	318200cb 	orrcc	r0, r2, fp, asr #1
     7d0:	312b302c 			; <UNDEFINED> instruction: 0x312b302c
     7d4:	2f2d2f2b 	svccs	0x002d2f2b
     7d8:	2e790351 	mrccs	3, 3, r0, cr9, cr1, {2}
     7dc:	2a2e0b03 	bcs	b833f0 <__kernel_end+0xa623f0>
     7e0:	352e7903 	strcc	r7, [lr, #-2307]!	; 0xfffff6fd
     7e4:	7fa9036a 	svcvc	0x00a9036a
     7e8:	00ef034a 	rsceq	r0, pc, sl, asr #6
     7ec:	03679008 	cmneq	r7, #8
     7f0:	032e7f90 			; <UNDEFINED> instruction: 0x032e7f90
     7f4:	302f821c 	eorcc	r8, pc, ip, lsl r2	; <UNPREDICTABLE>
     7f8:	2f30482d 	svccs	0x0030482d
     7fc:	2f2d312b 	svccs	0x002d312b
     800:	2f4b2f2b 	svccs	0x004b2f2b
     804:	2e60032f 	cdpcs	3, 6, cr0, cr0, cr15, {1}
     808:	2f823203 	svccs	0x00823203
     80c:	302f474c 	eorcc	r4, pc, ip, asr #14
     810:	684b2d2c 	stmdavs	fp, {r2, r3, r5, r8, sl, fp, sp}^
     814:	78038a31 	stmdavc	r3, {r0, r4, r5, r9, fp, pc}
     818:	494b314a 	stmdbmi	fp, {r1, r3, r6, r8, ip, sp}^
     81c:	492f2d4b 	stmdbmi	pc!, {r0, r1, r3, r6, r8, sl, fp, sp}	; <UNPREDICTABLE>
     820:	023e032f 	eorseq	r0, lr, #-1140850688	; 0xbc000000
     824:	31160128 	tstcc	r6, r8, lsr #2
     828:	2a2d2f2b 	bcs	b4c4dc <__kernel_end+0xa2b4dc>
     82c:	2f2b4d32 	svccs	0x002b4d32
     830:	302f4d2d 	eorcc	r4, pc, sp, lsr #26
     834:	09036b2c 	stmdbeq	r3, {r2, r3, r5, r8, r9, fp, sp, lr}
     838:	29332901 	ldmdbcs	r3!, {r0, r8, fp, sp}
     83c:	2e09032a 	cdpcs	3, 0, cr0, cr9, cr10, {1}
     840:	45693329 	strbmi	r3, [r9, #-809]!	; 0xfffffcd7
     844:	7603a533 			; <UNDEFINED> instruction: 0x7603a533
     848:	4a0f0382 	bmi	3c1658 <__kernel_end+0x2a0658>
     84c:	2e6f0335 	mcrcs	3, 3, r0, cr15, cr5, {1}
     850:	032e0d03 			; <UNDEFINED> instruction: 0x032e0d03
     854:	0d032e73 	stceq	14, cr2, [r3, #-460]	; 0xfffffe34
     858:	4b652f4a 	blmi	194c588 <__kernel_end+0x182b588>
     85c:	000c0230 	andeq	r0, ip, r0, lsr r2
     860:	00ed0101 	rsceq	r0, sp, r1, lsl #2
     864:	00020000 	andeq	r0, r2, r0
     868:	000000c1 	andeq	r0, r0, r1, asr #1
     86c:	0efb0102 	cdpeq	1, 15, cr0, cr11, cr2, {0}
     870:	0101000d 	tsteq	r1, sp
     874:	00000101 	andeq	r0, r0, r1, lsl #2
     878:	00000100 	andeq	r0, r0, r0, lsl #2
     87c:	63726101 	cmnvs	r2, #1073741824	; 0x40000000
     880:	72612f68 	rsbvc	r2, r1, #104, 30	; 0x1a0
     884:	552f006d 	strpl	r0, [pc, #-109]!	; 81f <SCTLR_ENABLE_BRANCH_PREDICTION+0x1f>
     888:	73726573 	cmnvc	r2, #482344960	; 0x1cc00000
     88c:	6172702f 	cmnvs	r2, pc, lsr #32
     890:	6873616b 	ldmdavs	r3!, {r0, r1, r3, r5, r6, r8, sp, lr}^
     894:	6b726f62 	blvs	1c9c624 <__kernel_end+0x1b7b624>
     898:	672f7261 	strvs	r7, [pc, -r1, ror #4]!
     89c:	612d6363 			; <UNDEFINED> instruction: 0x612d6363
     8a0:	6e2d6d72 	mcrvs	13, 1, r6, cr13, cr2, {3}
     8a4:	2d656e6f 	stclcs	14, cr6, [r5, #-444]!	; 0xfffffe44
     8a8:	69626165 	stmdbvs	r2!, {r0, r2, r5, r6, r8, sp, lr}^
     8ac:	62696c2f 	rsbvs	r6, r9, #12032	; 0x2f00
     8b0:	6363672f 	cmnvs	r3, #12320768	; 0xbc0000
     8b4:	6d72612f 	ldfvse	f6, [r2, #-188]!	; 0xffffff44
     8b8:	6e6f6e2d 	cdpvs	14, 6, cr6, cr15, cr13, {1}
     8bc:	61652d65 	cmnvs	r5, r5, ror #26
     8c0:	352f6962 	strcc	r6, [pc, #-2402]!	; ffffff66 <__kernel_end+0xffedef66>
     8c4:	312e342e 			; <UNDEFINED> instruction: 0x312e342e
     8c8:	636e692f 	cmnvs	lr, #770048	; 0xbc000
     8cc:	6564756c 	strbvs	r7, [r4, #-1388]!	; 0xfffffa94
     8d0:	636e6900 	cmnvs	lr, #0, 18
     8d4:	6564756c 	strbvs	r7, [r4, #-1388]!	; 0xfffffa94
     8d8:	72656b2f 	rsbvc	r6, r5, #48128	; 0xbc00
     8dc:	006c656e 	rsbeq	r6, ip, lr, ror #10
     8e0:	73797300 	cmnvc	r9, #0, 6
     8e4:	656d6974 	strbvs	r6, [sp, #-2420]!	; 0xfffff68c
     8e8:	00632e72 	rsbeq	r2, r3, r2, ror lr
     8ec:	73000001 	movwvc	r0, #1
     8f0:	6e696474 	mcrvs	4, 3, r6, cr9, cr4, {3}
     8f4:	63672d74 	cmnvs	r7, #116, 26	; 0x1d00
     8f8:	00682e63 	rsbeq	r2, r8, r3, ror #28
     8fc:	73000002 	movwvc	r0, #2
     900:	69747379 	ldmdbvs	r4!, {r0, r3, r4, r5, r6, r8, r9, ip, sp, lr}^
     904:	2e72656d 	cdpcs	5, 7, cr6, cr2, cr13, {3}
     908:	00030068 	andeq	r0, r3, r8, rrx
     90c:	72617500 	rsbvc	r7, r1, #0, 10
     910:	682e3074 	stmdavs	lr!, {r2, r4, r5, r6, ip, sp}
     914:	00000300 	andeq	r0, r0, r0, lsl #6
     918:	2d697072 	stclcs	0, cr7, [r9, #-456]!	; 0xfffffe38
     91c:	65746e69 	ldrbvs	r6, [r4, #-3689]!	; 0xfffff197
     920:	70757272 	rsbsvc	r7, r5, r2, ror r2
     924:	682e7374 	stmdavs	lr!, {r2, r4, r5, r6, r8, r9, ip, sp, lr}
     928:	00000300 	andeq	r0, r0, r0, lsl #6
     92c:	02050000 	andeq	r0, r5, #0
     930:	00008d48 	andeq	r8, r0, r8, asr #26
     934:	4b672f19 	blmi	19cc5a0 <__kernel_end+0x18ab5a0>
     938:	2f134e2d 	svccs	0x00134e2d
     93c:	83492f2d 	movthi	r2, #40749	; 0x9f2d
     940:	9d83136a 	stcls	3, cr1, [r3, #424]	; 0x1a8
     944:	da13862f 	ble	4e2208 <__kernel_end+0x3c1208>
     948:	30d79f83 	sbcscc	r9, r7, r3, lsl #31
     94c:	0e0286d4 	mcreq	6, 0, r8, cr2, cr4, {6}
     950:	e4010100 	str	r0, [r1], #-256	; 0xffffff00
     954:	02000001 	andeq	r0, r0, #1
     958:	00012a00 	andeq	r2, r1, r0, lsl #20
     95c:	fb010200 	blx	41166 <__first_lvl_tbl_end+0x20166>
     960:	01000d0e 	tsteq	r0, lr, lsl #26
     964:	00010101 	andeq	r0, r1, r1, lsl #2
     968:	00010000 	andeq	r0, r1, r0
     96c:	72610100 	rsbvc	r0, r1, #0, 2
     970:	612f6863 			; <UNDEFINED> instruction: 0x612f6863
     974:	2f006d72 	svccs	0x00006d72
     978:	72657355 	rsbvc	r7, r5, #1409286145	; 0x54000001
     97c:	72702f73 	rsbsvc	r2, r0, #460	; 0x1cc
     980:	73616b61 	cmnvc	r1, #99328	; 0x18400
     984:	726f6268 	rsbvc	r6, pc, #104, 4	; 0x80000006
     988:	2f72616b 	svccs	0x0072616b
     98c:	2d636367 	stclcs	3, cr6, [r3, #-412]!	; 0xfffffe64
     990:	2d6d7261 	sfmcs	f7, 2, [sp, #-388]!	; 0xfffffe7c
     994:	656e6f6e 	strbvs	r6, [lr, #-3950]!	; 0xfffff092
     998:	6261652d 	rsbvs	r6, r1, #188743680	; 0xb400000
     99c:	696c2f69 	stmdbvs	ip!, {r0, r3, r5, r6, r8, r9, sl, fp, sp}^
     9a0:	63672f62 	cmnvs	r7, #392	; 0x188
     9a4:	72612f63 	rsbvc	r2, r1, #396	; 0x18c
     9a8:	6f6e2d6d 	svcvs	0x006e2d6d
     9ac:	652d656e 	strvs	r6, [sp, #-1390]!	; 0xfffffa92
     9b0:	2f696261 	svccs	0x00696261
     9b4:	2e342e35 	mrccs	14, 1, r2, cr4, cr5, {1}
     9b8:	6e692f31 	mcrvs	15, 3, r2, cr9, cr1, {1}
     9bc:	64756c63 	ldrbtvs	r6, [r5], #-3171	; 0xfffff39d
     9c0:	6e690065 	cdpvs	0, 6, cr0, cr9, cr5, {3}
     9c4:	64756c63 	ldrbtvs	r6, [r5], #-3171	; 0xfffff39d
     9c8:	656b2f65 	strbvs	r2, [fp, #-3941]!	; 0xfffff09b
     9cc:	6c656e72 	stclvs	14, cr6, [r5], #-456	; 0xfffffe38
     9d0:	73552f00 	cmpvc	r5, #0, 30
     9d4:	2f737265 	svccs	0x00737265
     9d8:	6b617270 	blvs	185d3a0 <__kernel_end+0x173c3a0>
     9dc:	62687361 	rsbvs	r7, r8, #-2080374783	; 0x84000001
     9e0:	616b726f 	cmnvs	fp, pc, ror #4
     9e4:	65442f72 	strbvs	r2, [r4, #-3954]	; 0xfffff08e
     9e8:	6f746b73 	svcvs	0x00746b73
     9ec:	65522f70 	ldrbvs	r2, [r2, #-3952]	; 0xfffff090
     9f0:	65746f6d 	ldrbvs	r6, [r4, #-3949]!	; 0xfffff093
     9f4:	7065525f 	rsbvc	r5, r5, pc, asr r2
     9f8:	70722f6f 	rsbsvc	r2, r2, pc, ror #30
     9fc:	736f2d69 	cmnvc	pc, #6720	; 0x1a40
     a00:	7261752d 	rsbvc	r7, r1, #188743680	; 0xb400000
     a04:	70722f74 	rsbsvc	r2, r2, r4, ror pc
     a08:	2d623369 	stclcs	3, cr3, [r2, #-420]!	; 0xfffffe5c
     a0c:	7461656d 	strbtvc	r6, [r1], #-1389	; 0xfffffa93
     a10:	6b732d79 	blvs	1ccbffc <__kernel_end+0x1baaffc>
     a14:	74656c65 	strbtvc	r6, [r5], #-3173	; 0xfffff39b
     a18:	732f6e6f 			; <UNDEFINED> instruction: 0x732f6e6f
     a1c:	6f727379 	svcvs	0x00727379
     a20:	752f746f 	strvc	r7, [pc, #-1135]!	; 5b9 <ARM_I_BIT+0x539>
     a24:	692f7273 	stmdbvs	pc!, {r0, r1, r4, r5, r6, r9, ip, sp, lr}	; <UNPREDICTABLE>
     a28:	756c636e 	strbvc	r6, [ip, #-878]!	; 0xfffffc92
     a2c:	702f6564 	eorvc	r6, pc, r4, ror #10
     a30:	6362696c 	cmnvs	r2, #108, 18	; 0x1b0000
     a34:	68700000 	ldmdavs	r0!, {}^	; <UNPREDICTABLE>
     a38:	656d7379 	strbvs	r7, [sp, #-889]!	; 0xfffffc87
     a3c:	00632e6d 	rsbeq	r2, r3, sp, ror #28
     a40:	73000001 	movwvc	r0, #1
     a44:	6e696474 	mcrvs	4, 3, r6, cr9, cr4, {3}
     a48:	63672d74 	cmnvs	r7, #116, 26	; 0x1d00
     a4c:	00682e63 	rsbeq	r2, r8, r3, ror #28
     a50:	70000002 	andvc	r0, r0, r2
     a54:	6d737968 	ldclvs	9, cr7, [r3, #-416]!	; 0xfffffe60
     a58:	682e6d65 	stmdavs	lr!, {r0, r2, r5, r6, r8, sl, fp, sp, lr}
     a5c:	00000300 	andeq	r0, r0, r0, lsl #6
     a60:	2d697072 	stclcs	0, cr7, [r9, #-456]!	; 0xfffffe38
     a64:	6c69616d 	stfvse	f6, [r9], #-436	; 0xfffffe4c
     a68:	2d786f62 	ldclcs	15, cr6, [r8, #-392]!	; 0xfffffe78
     a6c:	65746e69 	ldrbvs	r6, [r4, #-3689]!	; 0xfffff197
     a70:	63616672 	cmnvs	r1, #119537664	; 0x7200000
     a74:	00682e65 	rsbeq	r2, r8, r5, ror #28
     a78:	73000003 	movwvc	r0, #3
     a7c:	6f696474 	svcvs	0x00696474
     a80:	0400682e 	streq	r6, [r0], #-2094	; 0xfffff7d2
     a84:	00000000 	andeq	r0, r0, r0
     a88:	8e7c0205 	cdphi	2, 7, cr0, cr12, cr5, {0}
     a8c:	0e030000 	cdpeq	0, 0, cr0, cr3, cr0, {0}
     a90:	20080101 	andcs	r0, r8, r1, lsl #2
     a94:	01200801 			; <UNDEFINED> instruction: 0x01200801
     a98:	5808014a 	stmdapl	r8, {r1, r3, r6, r8}
     a9c:	50014a01 	andpl	r4, r1, r1, lsl #20
     aa0:	2f2d2f01 	svccs	0x002d2f01
     aa4:	4a822503 	bmi	fe089eb8 <__kernel_end+0xfdf68eb8>
     aa8:	2a4fbe32 	bcs	13f0378 <__kernel_end+0x12cf378>
     aac:	4d2b2b35 	fstmdbxmi	fp!, {d2-d27}	;@ Deprecated
     ab0:	852f4c69 	strhi	r4, [pc, #-3177]!	; fffffe4f <__kernel_end+0xffedee4f>
     ab4:	32324616 	eorscc	r4, r2, #23068672	; 0x1600000
     ab8:	322e7803 	eorcc	r7, lr, #196608	; 0x30000
     abc:	a2672d4e 	rsbge	r2, r7, #4992	; 0x1380
     ac0:	672fa32f 	strvs	sl, [pc, -pc, lsr #6]!
     ac4:	31306831 	teqcc	r0, r1, lsr r8
     ac8:	aa03322b 	bge	cd37c <__first_lvl_tbl_end+0xac37c>
     acc:	2f324a7f 	svccs	0x00324a7f
     ad0:	2d2f2f2d 	stccs	15, cr2, [pc, #-180]!	; a24 <SCTLR_ENABLE_BRANCH_PREDICTION+0x224>
     ad4:	2f2f2d2f 	svccs	0x002f2d2f
     ad8:	354a7903 	strbcc	r7, [sl, #-2307]	; 0xfffff6fd
     adc:	2e7a032d 	cdpcs	3, 7, cr0, cr10, cr13, {1}
     ae0:	2f2d3235 	svccs	0x002d3235
     ae4:	4b2f2d2f 	blmi	bcbfa8 <__kernel_end+0xaaafa8>
     ae8:	00a32933 	adceq	r2, r3, r3, lsr r9
     aec:	68030402 	stmdavs	r3, {r1, sl}
     af0:	03040200 	movweq	r0, #16896	; 0x4200
     af4:	04020048 	streq	r0, [r2], #-72	; 0xffffffb8
     af8:	02003103 	andeq	r3, r0, #-1073741824	; 0xc0000000
     afc:	002b0304 	eoreq	r0, fp, r4, lsl #6
     b00:	4e030402 	cdpmi	4, 0, cr0, cr3, cr2, {0}
     b04:	03040200 	movweq	r0, #16896	; 0x4200
     b08:	04020046 	streq	r0, [r2], #-70	; 0xffffffba
     b0c:	02003501 	andeq	r3, r0, #4194304	; 0x400000
     b10:	00bc0204 	adcseq	r0, ip, r4, lsl #4
     b14:	2f020402 	svccs	0x00020402
     b18:	02040200 	andeq	r0, r4, #0, 4
     b1c:	0402002b 	streq	r0, [r2], #-43	; 0xffffffd5
     b20:	02003002 	andeq	r3, r0, #2
     b24:	002f0204 	eoreq	r0, pc, r4, lsl #4
     b28:	49020402 	stmdbmi	r2, {r1, sl}
     b2c:	02040200 	andeq	r0, r4, #0, 4
     b30:	04020067 	streq	r0, [r2], #-103	; 0xffffff99
     b34:	16022b02 	strne	r2, [r2], -r2, lsl #22
     b38:	4e010100 	adfmis	f0, f1, f0
     b3c:	02000001 	andeq	r0, r0, #1
     b40:	00010f00 	andeq	r0, r1, r0, lsl #30
     b44:	fb010200 	blx	4134e <__first_lvl_tbl_end+0x2034e>
     b48:	01000d0e 	tsteq	r0, lr, lsl #26
     b4c:	00010101 	andeq	r0, r1, r1, lsl #2
     b50:	00010000 	andeq	r0, r1, r0
     b54:	72610100 	rsbvc	r0, r1, #0, 2
     b58:	612f6863 			; <UNDEFINED> instruction: 0x612f6863
     b5c:	69006d72 	stmdbvs	r0, {r1, r4, r5, r6, r8, sl, fp, sp, lr}
     b60:	756c636e 	strbvc	r6, [ip, #-878]!	; 0xfffffc92
     b64:	6b2f6564 	blvs	bda0fc <__kernel_end+0xab90fc>
     b68:	656e7265 	strbvs	r7, [lr, #-613]!	; 0xfffffd9b
     b6c:	552f006c 	strpl	r0, [pc, #-108]!	; b08 <SCTLR_ENABLE_BRANCH_PREDICTION+0x308>
     b70:	73726573 	cmnvc	r2, #482344960	; 0x1cc00000
     b74:	6172702f 	cmnvs	r2, pc, lsr #32
     b78:	6873616b 	ldmdavs	r3!, {r0, r1, r3, r5, r6, r8, sp, lr}^
     b7c:	6b726f62 	blvs	1c9c90c <__kernel_end+0x1b7b90c>
     b80:	442f7261 	strtmi	r7, [pc], #-609	; b88 <SCTLR_ENABLE_BRANCH_PREDICTION+0x388>
     b84:	746b7365 	strbtvc	r7, [fp], #-869	; 0xfffffc9b
     b88:	522f706f 	eorpl	r7, pc, #111	; 0x6f
     b8c:	746f6d65 	strbtvc	r6, [pc], #-3429	; b94 <SCTLR_ENABLE_BRANCH_PREDICTION+0x394>
     b90:	65525f65 	ldrbvs	r5, [r2, #-3941]	; 0xfffff09b
     b94:	722f6f70 	eorvc	r6, pc, #112, 30	; 0x1c0
     b98:	6f2d6970 	svcvs	0x002d6970
     b9c:	61752d73 	cmnvs	r5, r3, ror sp
     ba0:	722f7472 	eorvc	r7, pc, #1912602624	; 0x72000000
     ba4:	62336970 	eorsvs	r6, r3, #112, 18	; 0x1c0000
     ba8:	61656d2d 	cmnvs	r5, sp, lsr #26
     bac:	732d7974 			; <UNDEFINED> instruction: 0x732d7974
     bb0:	656c656b 	strbvs	r6, [ip, #-1387]!	; 0xfffffa95
     bb4:	2f6e6f74 	svccs	0x006e6f74
     bb8:	72737973 	rsbsvc	r7, r3, #1884160	; 0x1cc000
     bbc:	2f746f6f 	svccs	0x00746f6f
     bc0:	2f727375 	svccs	0x00727375
     bc4:	6c636e69 	stclvs	14, cr6, [r3], #-420	; 0xfffffe5c
     bc8:	2f656475 	svccs	0x00656475
     bcc:	62696c70 	rsbvs	r6, r9, #112, 24	; 0x7000
     bd0:	552f0063 	strpl	r0, [pc, #-99]!	; b75 <SCTLR_ENABLE_BRANCH_PREDICTION+0x375>
     bd4:	73726573 	cmnvc	r2, #482344960	; 0x1cc00000
     bd8:	6172702f 	cmnvs	r2, pc, lsr #32
     bdc:	6873616b 	ldmdavs	r3!, {r0, r1, r3, r5, r6, r8, sp, lr}^
     be0:	6b726f62 	blvs	1c9c970 <__kernel_end+0x1b7b970>
     be4:	672f7261 	strvs	r7, [pc, -r1, ror #4]!
     be8:	612d6363 			; <UNDEFINED> instruction: 0x612d6363
     bec:	6e2d6d72 	mcrvs	13, 1, r6, cr13, cr2, {3}
     bf0:	2d656e6f 	stclcs	14, cr6, [r5, #-444]!	; 0xfffffe44
     bf4:	69626165 	stmdbvs	r2!, {r0, r2, r5, r6, r8, sp, lr}^
     bf8:	62696c2f 	rsbvs	r6, r9, #12032	; 0x2f00
     bfc:	6363672f 	cmnvs	r3, #12320768	; 0xbc0000
     c00:	6d72612f 	ldfvse	f6, [r2, #-188]!	; 0xffffff44
     c04:	6e6f6e2d 	cdpvs	14, 6, cr6, cr15, cr13, {1}
     c08:	61652d65 	cmnvs	r5, r5, ror #26
     c0c:	352f6962 	strcc	r6, [pc, #-2402]!	; 2b2 <ARM_I_BIT+0x232>
     c10:	312e342e 			; <UNDEFINED> instruction: 0x312e342e
     c14:	636e692f 	cmnvs	lr, #770048	; 0xbc000
     c18:	6564756c 	strbvs	r7, [r4, #-1388]!	; 0xfffffa94
     c1c:	69760000 	ldmdbvs	r6!, {}^	; <UNPREDICTABLE>
     c20:	656d7472 	strbvs	r7, [sp, #-1138]!	; 0xfffffb8e
     c24:	00632e6d 	rsbeq	r2, r3, sp, ror #28
     c28:	76000001 	strvc	r0, [r0], -r1
     c2c:	6d747269 	lfmvs	f7, 2, [r4, #-420]!	; 0xfffffe5c
     c30:	682e6d65 	stmdavs	lr!, {r0, r2, r5, r6, r8, sl, fp, sp, lr}
     c34:	00000200 	andeq	r0, r0, r0, lsl #4
     c38:	69647473 	stmdbvs	r4!, {r0, r1, r4, r5, r6, sl, ip, sp, lr}^
     c3c:	00682e6f 	rsbeq	r2, r8, pc, ror #28
     c40:	73000003 	movwvc	r0, #3
     c44:	6e696474 	mcrvs	4, 3, r6, cr9, cr4, {3}
     c48:	63672d74 	cmnvs	r7, #116, 26	; 0x1d00
     c4c:	00682e63 	rsbeq	r2, r8, r3, ror #28
     c50:	00000004 	andeq	r0, r0, r4
     c54:	3c020500 	cfstr32cc	mvfx0, [r2], {-0}
     c58:	03000091 	movweq	r0, #145	; 0x91
     c5c:	0903011f 	stmdbeq	r3, {r0, r1, r2, r3, r4, r8}
     c60:	0d033101 	stfeqs	f3, [r3, #-4]
     c64:	4a70032e 	bmi	1c01924 <__kernel_end+0x1ae0924>
     c68:	032e1003 			; <UNDEFINED> instruction: 0x032e1003
     c6c:	74032e73 	strvc	r2, [r3], #-3699	; 0xfffff18d
     c70:	2e19032e 	cdpcs	3, 1, cr0, cr9, cr14, {1}
     c74:	664f0384 	strbvs	r0, [pc], -r4, lsl #7
     c78:	2f2e2d2f 	svccs	0x002e2d2f
     c7c:	836b2b69 	cmnhi	fp, #107520	; 0x1a400
     c80:	8335312b 	teqhi	r5, #-1073741814	; 0xc000000a
     c84:	2d6767a0 	stclcs	7, cr6, [r7, #-640]!	; 0xfffffd80
     c88:	01001002 	tsteq	r0, r2
     c8c:	00014e01 	andeq	r4, r1, r1, lsl #28
     c90:	2b000200 	blcs	1498 <SCTLR_ENABLE_INSTRUCTION_CACHE+0x498>
     c94:	02000001 	andeq	r0, r0, #1
     c98:	0d0efb01 	vstreq	d15, [lr, #-4]
     c9c:	01010100 	mrseq	r0, (UNDEF: 17)
     ca0:	00000001 	andeq	r0, r0, r1
     ca4:	01000001 	tsteq	r0, r1
     ca8:	6e72656b 	cdpvs	5, 7, cr6, cr2, cr11, {3}
     cac:	2f006c65 	svccs	0x00006c65
     cb0:	72657355 	rsbvc	r7, r5, #1409286145	; 0x54000001
     cb4:	72702f73 	rsbsvc	r2, r0, #460	; 0x1cc
     cb8:	73616b61 	cmnvc	r1, #99328	; 0x18400
     cbc:	726f6268 	rsbvc	r6, pc, #104, 4	; 0x80000006
     cc0:	2f72616b 	svccs	0x0072616b
     cc4:	6b736544 	blvs	1cda1dc <__kernel_end+0x1bb91dc>
     cc8:	2f706f74 	svccs	0x00706f74
     ccc:	6f6d6552 	svcvs	0x006d6552
     cd0:	525f6574 	subspl	r6, pc, #116, 10	; 0x1d000000
     cd4:	2f6f7065 	svccs	0x006f7065
     cd8:	2d697072 	stclcs	0, cr7, [r9, #-456]!	; 0xfffffe38
     cdc:	752d736f 	strvc	r7, [sp, #-879]!	; 0xfffffc91
     ce0:	2f747261 	svccs	0x00747261
     ce4:	33697072 	cmncc	r9, #114	; 0x72
     ce8:	656d2d62 	strbvs	r2, [sp, #-3426]!	; 0xfffff29e
     cec:	2d797461 	cfldrdcs	mvd7, [r9, #-388]!	; 0xfffffe7c
     cf0:	6c656b73 	stclvs	11, cr6, [r5], #-460	; 0xfffffe34
     cf4:	6e6f7465 	cdpvs	4, 6, cr7, cr15, cr5, {3}
     cf8:	7379732f 	cmnvc	r9, #-1140850688	; 0xbc000000
     cfc:	746f6f72 	strbtvc	r6, [pc], #-3954	; d04 <SCTLR_ENABLE_BRANCH_PREDICTION+0x504>
     d00:	7273752f 	rsbsvc	r7, r3, #197132288	; 0xbc00000
     d04:	636e692f 	cmnvs	lr, #770048	; 0xbc000
     d08:	6564756c 	strbvs	r7, [r4, #-1388]!	; 0xfffffa94
     d0c:	696c702f 	stmdbvs	ip!, {r0, r1, r2, r3, r5, ip, sp, lr}^
     d10:	69006362 	stmdbvs	r0, {r1, r5, r6, r8, r9, sp, lr}
     d14:	756c636e 	strbvc	r6, [ip, #-878]!	; 0xfffffc92
     d18:	6b2f6564 	blvs	bda2b0 <__kernel_end+0xab92b0>
     d1c:	656e7265 	strbvs	r7, [lr, #-613]!	; 0xfffffd9b
     d20:	552f006c 	strpl	r0, [pc, #-108]!	; cbc <SCTLR_ENABLE_BRANCH_PREDICTION+0x4bc>
     d24:	73726573 	cmnvc	r2, #482344960	; 0x1cc00000
     d28:	6172702f 	cmnvs	r2, pc, lsr #32
     d2c:	6873616b 	ldmdavs	r3!, {r0, r1, r3, r5, r6, r8, sp, lr}^
     d30:	6b726f62 	blvs	1c9cac0 <__kernel_end+0x1b7bac0>
     d34:	672f7261 	strvs	r7, [pc, -r1, ror #4]!
     d38:	612d6363 			; <UNDEFINED> instruction: 0x612d6363
     d3c:	6e2d6d72 	mcrvs	13, 1, r6, cr13, cr2, {3}
     d40:	2d656e6f 	stclcs	14, cr6, [r5, #-444]!	; 0xfffffe44
     d44:	69626165 	stmdbvs	r2!, {r0, r2, r5, r6, r8, sp, lr}^
     d48:	62696c2f 	rsbvs	r6, r9, #12032	; 0x2f00
     d4c:	6363672f 	cmnvs	r3, #12320768	; 0xbc0000
     d50:	6d72612f 	ldfvse	f6, [r2, #-188]!	; 0xffffff44
     d54:	6e6f6e2d 	cdpvs	14, 6, cr6, cr15, cr13, {1}
     d58:	61652d65 	cmnvs	r5, r5, ror #26
     d5c:	352f6962 	strcc	r6, [pc, #-2402]!	; 402 <ARM_I_BIT+0x382>
     d60:	312e342e 			; <UNDEFINED> instruction: 0x312e342e
     d64:	636e692f 	cmnvs	lr, #770048	; 0xbc000
     d68:	6564756c 	strbvs	r7, [r4, #-1388]!	; 0xfffffa94
     d6c:	656b0000 	strbvs	r0, [fp, #-0]!
     d70:	6c656e72 	stclvs	14, cr6, [r5], #-456	; 0xfffffe38
     d74:	0100632e 	tsteq	r0, lr, lsr #6
     d78:	74730000 	ldrbtvc	r0, [r3], #-0
     d7c:	2e6f6964 	cdpcs	9, 6, cr6, cr15, cr4, {3}
     d80:	00020068 	andeq	r0, r2, r8, rrx
     d84:	72617500 	rsbvc	r7, r1, #0, 10
     d88:	682e3074 	stmdavs	lr!, {r2, r4, r5, r6, ip, sp}
     d8c:	00000300 	andeq	r0, r0, r0, lsl #6
     d90:	2d697072 	stclcs	0, cr7, [r9, #-456]!	; 0xfffffe38
     d94:	65746e69 	ldrbvs	r6, [r4, #-3689]!	; 0xfffff197
     d98:	70757272 	rsbsvc	r7, r5, r2, ror r2
     d9c:	682e7374 	stmdavs	lr!, {r2, r4, r5, r6, r8, r9, ip, sp, lr}
     da0:	00000300 	andeq	r0, r0, r0, lsl #6
     da4:	74726976 	ldrbtvc	r6, [r2], #-2422	; 0xfffff68a
     da8:	2e6d656d 	cdpcs	5, 6, cr6, cr13, cr13, {3}
     dac:	00030068 	andeq	r0, r3, r8, rrx
     db0:	64747300 	ldrbtvs	r7, [r4], #-768	; 0xfffffd00
     db4:	2d746e69 	ldclcs	14, cr6, [r4, #-420]!	; 0xfffffe5c
     db8:	2e636367 	cdpcs	3, 6, cr6, cr3, cr7, {3}
     dbc:	00040068 	andeq	r0, r4, r8, rrx
     dc0:	05000000 	streq	r0, [r0, #-0]
     dc4:	00922002 	addseq	r2, r2, r2
     dc8:	010e0300 	mrseq	r0, ELR_hyp
     dcc:	2e7a0318 	mrccs	3, 3, r0, cr10, cr8, {0}
     dd0:	7a03342e 	bvc	cde90 <__first_lvl_tbl_end+0xace90>
     dd4:	302f354a 	eorcc	r3, pc, sl, asr #10
     dd8:	1202a02f 	andne	sl, r2, #47	; 0x2f
     ddc:	ef010100 	svc	0x00010100
     de0:	02000000 	andeq	r0, r0, #0
     de4:	0000c600 	andeq	ip, r0, r0, lsl #12
     de8:	fb010200 	blx	415f2 <__first_lvl_tbl_end+0x205f2>
     dec:	01000d0e 	tsteq	r0, lr, lsl #26
     df0:	00010101 	andeq	r0, r1, r1, lsl #2
     df4:	00010000 	andeq	r0, r1, r0
     df8:	74730100 	ldrbtvc	r0, [r3], #-256	; 0xffffff00
     dfc:	676e6972 			; <UNDEFINED> instruction: 0x676e6972
     e00:	73552f00 	cmpvc	r5, #0, 30
     e04:	2f737265 	svccs	0x00737265
     e08:	6b617270 	blvs	185d7d0 <__kernel_end+0x173c7d0>
     e0c:	62687361 	rsbvs	r7, r8, #-2080374783	; 0x84000001
     e10:	616b726f 	cmnvs	fp, pc, ror #4
     e14:	63672f72 	cmnvs	r7, #456	; 0x1c8
     e18:	72612d63 	rsbvc	r2, r1, #6336	; 0x18c0
     e1c:	6f6e2d6d 	svcvs	0x006e2d6d
     e20:	652d656e 	strvs	r6, [sp, #-1390]!	; 0xfffffa92
     e24:	2f696261 	svccs	0x00696261
     e28:	2f62696c 	svccs	0x0062696c
     e2c:	2f636367 	svccs	0x00636367
     e30:	2d6d7261 	sfmcs	f7, 2, [sp, #-388]!	; 0xfffffe7c
     e34:	656e6f6e 	strbvs	r6, [lr, #-3950]!	; 0xfffff092
     e38:	6261652d 	rsbvs	r6, r1, #188743680	; 0xb400000
     e3c:	2e352f69 	cdpcs	15, 3, cr2, cr5, cr9, {3}
     e40:	2f312e34 	svccs	0x00312e34
     e44:	6c636e69 	stclvs	14, cr6, [r3], #-420	; 0xfffffe5c
     e48:	00656475 	rsbeq	r6, r5, r5, ror r4
     e4c:	6573552f 	ldrbvs	r5, [r3, #-1327]!	; 0xfffffad1
     e50:	702f7372 	eorvc	r7, pc, r2, ror r3	; <UNPREDICTABLE>
     e54:	616b6172 	smcvs	46610	; 0xb612
     e58:	6f626873 	svcvs	0x00626873
     e5c:	72616b72 	rsbvc	r6, r1, #116736	; 0x1c800
     e60:	6363672f 	cmnvs	r3, #12320768	; 0xbc0000
     e64:	6d72612d 	ldfvse	f6, [r2, #-180]!	; 0xffffff4c
     e68:	6e6f6e2d 	cdpvs	14, 6, cr6, cr15, cr13, {1}
     e6c:	61652d65 	cmnvs	r5, r5, ror #26
     e70:	612f6962 			; <UNDEFINED> instruction: 0x612f6962
     e74:	6e2d6d72 	mcrvs	13, 1, r6, cr13, cr2, {3}
     e78:	2d656e6f 	stclcs	14, cr6, [r5, #-444]!	; 0xfffffe44
     e7c:	69626165 	stmdbvs	r2!, {r0, r2, r5, r6, r8, sp, lr}^
     e80:	636e692f 	cmnvs	lr, #770048	; 0xbc000
     e84:	6564756c 	strbvs	r7, [r4, #-1388]!	; 0xfffffa94
     e88:	656d0000 	strbvs	r0, [sp, #-0]!
     e8c:	7970636d 	ldmdbvc	r0!, {r0, r2, r3, r5, r6, r8, r9, sp, lr}^
     e90:	0100632e 	tsteq	r0, lr, lsr #6
     e94:	74730000 	ldrbtvc	r0, [r3], #-0
     e98:	66656464 	strbtvs	r6, [r5], -r4, ror #8
     e9c:	0200682e 	andeq	r6, r0, #3014656	; 0x2e0000
     ea0:	74730000 	ldrbtvc	r0, [r3], #-0
     ea4:	676e6972 			; <UNDEFINED> instruction: 0x676e6972
     ea8:	0300682e 	movweq	r6, #2094	; 0x82e
     eac:	00000000 	andeq	r0, r0, r0
     eb0:	927c0205 	rsbsls	r0, ip, #1342177280	; 0x50000000
     eb4:	15140000 	ldrne	r0, [r4, #-0]
     eb8:	03040200 	movweq	r0, #16896	; 0x4200
     ebc:	04020083 	streq	r0, [r2], #-131	; 0xffffff7d
     ec0:	02002d03 	andeq	r2, r0, #3, 26	; 0xc0
     ec4:	002f0304 	eoreq	r0, pc, r4, lsl #6
     ec8:	2d030402 	cfstrscs	mvf0, [r3, #-8]
     ecc:	00020231 	andeq	r0, r2, r1, lsr r2
     ed0:	01170101 	tsteq	r7, r1, lsl #2
     ed4:	00020000 	andeq	r0, r2, r0
     ed8:	000000fa 	strdeq	r0, [r0], -sl
     edc:	0efb0102 	cdpeq	1, 15, cr0, cr11, cr2, {0}
     ee0:	0101000d 	tsteq	r1, sp
     ee4:	00000101 	andeq	r0, r0, r1, lsl #2
     ee8:	00000100 	andeq	r0, r0, r0, lsl #2
     eec:	64747301 	ldrbtvs	r7, [r4], #-769	; 0xfffffcff
     ef0:	2f006f69 	svccs	0x00006f69
     ef4:	72657355 	rsbvc	r7, r5, #1409286145	; 0x54000001
     ef8:	72702f73 	rsbsvc	r2, r0, #460	; 0x1cc
     efc:	73616b61 	cmnvc	r1, #99328	; 0x18400
     f00:	726f6268 	rsbvc	r6, pc, #104, 4	; 0x80000006
     f04:	2f72616b 	svccs	0x0072616b
     f08:	2d636367 	stclcs	3, cr6, [r3, #-412]!	; 0xfffffe64
     f0c:	2d6d7261 	sfmcs	f7, 2, [sp, #-388]!	; 0xfffffe7c
     f10:	656e6f6e 	strbvs	r6, [lr, #-3950]!	; 0xfffff092
     f14:	6261652d 	rsbvs	r6, r1, #188743680	; 0xb400000
     f18:	696c2f69 	stmdbvs	ip!, {r0, r3, r5, r6, r8, r9, sl, fp, sp}^
     f1c:	63672f62 	cmnvs	r7, #392	; 0x188
     f20:	72612f63 	rsbvc	r2, r1, #396	; 0x18c
     f24:	6f6e2d6d 	svcvs	0x006e2d6d
     f28:	652d656e 	strvs	r6, [sp, #-1390]!	; 0xfffffa92
     f2c:	2f696261 	svccs	0x00696261
     f30:	2e342e35 	mrccs	14, 1, r2, cr4, cr5, {1}
     f34:	6e692f31 	mcrvs	15, 3, r2, cr9, cr1, {1}
     f38:	64756c63 	ldrbtvs	r6, [r5], #-3171	; 0xfffff39d
     f3c:	552f0065 	strpl	r0, [pc, #-101]!	; edf <SCTLR_ENABLE_BRANCH_PREDICTION+0x6df>
     f40:	73726573 	cmnvc	r2, #482344960	; 0x1cc00000
     f44:	6172702f 	cmnvs	r2, pc, lsr #32
     f48:	6873616b 	ldmdavs	r3!, {r0, r1, r3, r5, r6, r8, sp, lr}^
     f4c:	6b726f62 	blvs	1c9ccdc <__kernel_end+0x1b7bcdc>
     f50:	442f7261 	strtmi	r7, [pc], #-609	; f58 <SCTLR_ENABLE_BRANCH_PREDICTION+0x758>
     f54:	746b7365 	strbtvc	r7, [fp], #-869	; 0xfffffc9b
     f58:	522f706f 	eorpl	r7, pc, #111	; 0x6f
     f5c:	746f6d65 	strbtvc	r6, [pc], #-3429	; f64 <SCTLR_ENABLE_BRANCH_PREDICTION+0x764>
     f60:	65525f65 	ldrbvs	r5, [r2, #-3941]	; 0xfffff09b
     f64:	722f6f70 	eorvc	r6, pc, #112, 30	; 0x1c0
     f68:	6f2d6970 	svcvs	0x002d6970
     f6c:	61752d73 	cmnvs	r5, r3, ror sp
     f70:	722f7472 	eorvc	r7, pc, #1912602624	; 0x72000000
     f74:	62336970 	eorsvs	r6, r3, #112, 18	; 0x1c0000
     f78:	61656d2d 	cmnvs	r5, sp, lsr #26
     f7c:	732d7974 			; <UNDEFINED> instruction: 0x732d7974
     f80:	656c656b 	strbvs	r6, [ip, #-1387]!	; 0xfffffa95
     f84:	2f6e6f74 	svccs	0x006e6f74
     f88:	72737973 	rsbsvc	r7, r3, #1884160	; 0x1cc000
     f8c:	2f746f6f 	svccs	0x00746f6f
     f90:	2f727375 	svccs	0x00727375
     f94:	6c636e69 	stclvs	14, cr6, [r3], #-420	; 0xfffffe5c
     f98:	2f656475 	svccs	0x00656475
     f9c:	6e72656b 	cdpvs	5, 7, cr6, cr2, cr11, {3}
     fa0:	00006c65 	andeq	r6, r0, r5, ror #24
     fa4:	6e697270 	mcrvs	2, 3, r7, cr9, cr0, {3}
     fa8:	632e6674 			; <UNDEFINED> instruction: 0x632e6674
     fac:	00000100 	andeq	r0, r0, r0, lsl #2
     fb0:	61647473 	smcvs	18243	; 0x4743
     fb4:	682e6772 	stmdavs	lr!, {r1, r4, r5, r6, r8, r9, sl, sp, lr}
     fb8:	00000200 	andeq	r0, r0, r0, lsl #4
     fbc:	74726175 	ldrbtvc	r6, [r2], #-373	; 0xfffffe8b
     fc0:	00682e30 	rsbeq	r2, r8, r0, lsr lr
     fc4:	3c000003 	stccc	0, cr0, [r0], {3}
     fc8:	6c697562 	cfstr64vs	mvdx7, [r9], #-392	; 0xfffffe78
     fcc:	6e692d74 	mcrvs	13, 3, r2, cr9, cr4, {3}
     fd0:	0000003e 	andeq	r0, r0, lr, lsr r0
     fd4:	05000000 	streq	r0, [r0, #-0]
     fd8:	0092a002 	addseq	sl, r2, r2
     fdc:	011c0300 	tsteq	ip, r0, lsl #6
     fe0:	6a6c4c30 	bvs	1b140a8 <__kernel_end+0x19f30a8>
     fe4:	322f812f 	eorcc	r8, pc, #-1073741813	; 0xc000000b
     fe8:	01000a02 	tsteq	r0, r2, lsl #20
     fec:	00029c01 	andeq	r9, r2, r1, lsl #24
     ff0:	d3000200 	movwle	r0, #512	; 0x200
     ff4:	02000000 	andeq	r0, r0, #0
     ff8:	0d0efb01 	vstreq	d15, [lr, #-4]
     ffc:	01010100 	mrseq	r0, (UNDEF: 17)
    1000:	00000001 	andeq	r0, r0, r1
    1004:	01000001 	tsteq	r0, r1
    1008:	69647473 	stmdbvs	r4!, {r0, r1, r4, r5, r6, sl, ip, sp, lr}^
    100c:	552f006f 	strpl	r0, [pc, #-111]!	; fa5 <SCTLR_ENABLE_BRANCH_PREDICTION+0x7a5>
    1010:	73726573 	cmnvc	r2, #482344960	; 0x1cc00000
    1014:	6172702f 	cmnvs	r2, pc, lsr #32
    1018:	6873616b 	ldmdavs	r3!, {r0, r1, r3, r5, r6, r8, sp, lr}^
    101c:	6b726f62 	blvs	1c9cdac <__kernel_end+0x1b7bdac>
    1020:	672f7261 	strvs	r7, [pc, -r1, ror #4]!
    1024:	612d6363 			; <UNDEFINED> instruction: 0x612d6363
    1028:	6e2d6d72 	mcrvs	13, 1, r6, cr13, cr2, {3}
    102c:	2d656e6f 	stclcs	14, cr6, [r5, #-444]!	; 0xfffffe44
    1030:	69626165 	stmdbvs	r2!, {r0, r2, r5, r6, r8, sp, lr}^
    1034:	62696c2f 	rsbvs	r6, r9, #12032	; 0x2f00
    1038:	6363672f 	cmnvs	r3, #12320768	; 0xbc0000
    103c:	6d72612f 	ldfvse	f6, [r2, #-188]!	; 0xffffff44
    1040:	6e6f6e2d 	cdpvs	14, 6, cr6, cr15, cr13, {1}
    1044:	61652d65 	cmnvs	r5, r5, ror #26
    1048:	352f6962 	strcc	r6, [pc, #-2402]!	; 6ee <ARM_I_BIT+0x66e>
    104c:	312e342e 			; <UNDEFINED> instruction: 0x312e342e
    1050:	636e692f 	cmnvs	lr, #770048	; 0xbc000
    1054:	6564756c 	strbvs	r7, [r4, #-1388]!	; 0xfffffa94
    1058:	73552f00 	cmpvc	r5, #0, 30
    105c:	2f737265 	svccs	0x00737265
    1060:	6b617270 	blvs	185da28 <__kernel_end+0x173ca28>
    1064:	62687361 	rsbvs	r7, r8, #-2080374783	; 0x84000001
    1068:	616b726f 	cmnvs	fp, pc, ror #4
    106c:	63672f72 	cmnvs	r7, #456	; 0x1c8
    1070:	72612d63 	rsbvc	r2, r1, #6336	; 0x18c0
    1074:	6f6e2d6d 	svcvs	0x006e2d6d
    1078:	652d656e 	strvs	r6, [sp, #-1390]!	; 0xfffffa92
    107c:	2f696261 	svccs	0x00696261
    1080:	2d6d7261 	sfmcs	f7, 2, [sp, #-388]!	; 0xfffffe7c
    1084:	656e6f6e 	strbvs	r6, [lr, #-3950]!	; 0xfffff092
    1088:	6261652d 	rsbvs	r6, r1, #188743680	; 0xb400000
    108c:	6e692f69 	cdpvs	15, 6, cr2, cr9, cr9, {3}
    1090:	64756c63 	ldrbtvs	r6, [r5], #-3171	; 0xfffff39d
    1094:	64000065 	strvs	r0, [r0], #-101	; 0xffffff9b
    1098:	6e72706f 	cdpvs	0, 7, cr7, cr2, cr15, {3}
    109c:	00632e74 	rsbeq	r2, r3, r4, ror lr
    10a0:	73000001 	movwvc	r0, #1
    10a4:	72616474 	rsbvc	r6, r1, #116, 8	; 0x74000000
    10a8:	00682e67 	rsbeq	r2, r8, r7, ror #28
    10ac:	3c000002 	stccc	0, cr0, [r0], {2}
    10b0:	6c697562 	cfstr64vs	mvdx7, [r9], #-392	; 0xfffffe78
    10b4:	6e692d74 	mcrvs	13, 3, r2, cr9, cr4, {3}
    10b8:	0000003e 	andeq	r0, r0, lr, lsr r0
    10bc:	72747300 	rsbsvc	r7, r4, #0, 6
    10c0:	2e676e69 	cdpcs	14, 6, cr6, cr7, cr9, {3}
    10c4:	00030068 	andeq	r0, r3, r8, rrx
    10c8:	05000000 	streq	r0, [r0, #-0]
    10cc:	0092f402 	addseq	pc, r2, r2, lsl #8
    10d0:	00dc0300 	sbcseq	r0, ip, r0, lsl #6
    10d4:	662d2f01 	strtvs	r2, [sp], -r1, lsl #30
    10d8:	844a1d03 	strbhi	r1, [sl], #-3331	; 0xfffff2fd
    10dc:	01040200 	mrseq	r0, R12_usr
    10e0:	03064a06 	movweq	r4, #27142	; 0x6a06
    10e4:	0a03f210 	beq	fd92c <__first_lvl_tbl_end+0xdc92c>
    10e8:	4a76039e 	bmi	1d81f68 <__kernel_end+0x1c60f68>
    10ec:	00f1034e 	rscseq	r0, r1, lr, asr #6
    10f0:	01d40366 	bicseq	r0, r4, r6, ror #6
    10f4:	2f49a32e 	svccs	0x0049a32e
    10f8:	4a7dcb03 	bmi	1f73d0c <__kernel_end+0x1e52d0c>
    10fc:	bc4a0e03 	mcrrlt	14, 0, r0, sl, cr3
    1100:	0c032b2f 	stceq	11, cr2, [r3], {47}	; 0x2f
    1104:	79038982 	stmdbvc	r3, {r1, r7, r8, fp, pc}
    1108:	032f342e 			; <UNDEFINED> instruction: 0x032f342e
    110c:	034f2e1d 	movteq	r2, #65053	; 0xfe1d
    1110:	32034a19 	andcc	r4, r3, #102400	; 0x19000
    1114:	03014a02 	movweq	r4, #6658	; 0x1a02
    1118:	032b2e4e 			; <UNDEFINED> instruction: 0x032b2e4e
    111c:	16032e35 			; <UNDEFINED> instruction: 0x16032e35
    1120:	01b9032e 			; <UNDEFINED> instruction: 0x01b9032e
    1124:	7edb0366 	cdpvc	3, 13, cr0, cr11, cr6, {3}
    1128:	01a5034a 			; <UNDEFINED> instruction: 0x01a5034a
    112c:	7edb032e 	cdpvc	3, 13, cr0, cr11, cr14, {1}
    1130:	01a6034a 			; <UNDEFINED> instruction: 0x01a6034a
    1134:	7a03332e 	bvc	cddf4 <__first_lvl_tbl_end+0xacdf4>
    1138:	03332f2e 	teqeq	r3, #46, 30	; 0xb8
    113c:	4c692e13 	stclmi	14, cr2, [r9], #-76	; 0xffffffb4
    1140:	4c64302c 	stclmi	0, cr3, [r4], #-176	; 0xffffff50
    1144:	2e7a0332 	mrccs	3, 3, r0, cr10, cr2, {1}
    1148:	080c0330 	stmdaeq	ip, {r4, r5, r8, r9}
    114c:	032f2d20 			; <UNDEFINED> instruction: 0x032f2d20
    1150:	4b2e7ebd 	blmi	ba0c4c <__kernel_end+0xa7fc4c>
    1154:	10032f2d 	andne	r2, r3, sp, lsr #30
    1158:	032c302e 			; <UNDEFINED> instruction: 0x032c302e
    115c:	1d03016e 	stfnes	f0, [r3, #-440]	; 0xfffffe48
    1160:	2f816a2e 	svccs	0x00816a2e
    1164:	002e1d03 	eoreq	r1, lr, r3, lsl #26
    1168:	03010402 	movweq	r0, #5122	; 0x1402
    116c:	0200660b 	andeq	r6, r0, #11534336	; 0xb00000
    1170:	82060204 	andhi	r0, r6, #4, 4	; 0x40000000
    1174:	2aa24c06 	bcs	fe894194 <__kernel_end+0xfe773194>
    1178:	032e6c03 			; <UNDEFINED> instruction: 0x032e6c03
    117c:	9e032e3f 	mcrls	14, 0, r2, cr3, cr15, {1}
    1180:	2b03667d 	blcs	dab7c <__first_lvl_tbl_end+0xb9b7c>
    1184:	03334b4a 	teqeq	r3, #75776	; 0x12800
    1188:	2d502e7a 	ldclcs	14, cr2, [r0, #-488]	; 0xfffffe18
    118c:	37033629 	strcc	r3, [r3, -r9, lsr #12]
    1190:	4a630366 	bmi	18c1f30 <__kernel_end+0x17a0f30>
    1194:	03660a03 	cmneq	r6, #12288	; 0x3000
    1198:	0b038275 	bleq	e1b74 <__first_lvl_tbl_end+0xc0b74>
    119c:	2b2f4c2e 	blcs	bd425c <__kernel_end+0xab325c>
    11a0:	659e1803 	ldrvs	r1, [lr, #2051]	; 0x803
    11a4:	4a1f0332 	bmi	7c1e74 <__kernel_end+0x6a0e74>
    11a8:	032f2d67 			; <UNDEFINED> instruction: 0x032f2d67
    11ac:	032e00cf 			; <UNDEFINED> instruction: 0x032e00cf
    11b0:	74032e0c 	strvc	r2, [r3], #-3596	; 0xfffff1f4
    11b4:	2e0c032e 	cdpcs	3, 0, cr0, cr12, cr14, {1}
    11b8:	03672d4b 	cmneq	r7, #4800	; 0x12c0
    11bc:	4e58081b 	mrcmi	8, 2, r0, cr8, cr11, {0}
    11c0:	35302f2d 	ldrcc	r2, [r0, #-3885]!	; 0xfffff0d3
    11c4:	00352b4d 	eorseq	r2, r5, sp, asr #22
    11c8:	68010402 	stmdavs	r1, {r1, sl}
    11cc:	02040200 	andeq	r0, r4, #0, 4
    11d0:	06580806 	ldrbeq	r0, [r8], -r6, lsl #16
    11d4:	032aa24c 			; <UNDEFINED> instruction: 0x032aa24c
    11d8:	034a7ee4 	movteq	r7, #44772	; 0xaee4
    11dc:	50032e2d 	andpl	r2, r3, sp, lsr #28
    11e0:	2e30032e 	cdpcs	3, 3, cr0, cr0, cr14, {1}
    11e4:	2f4a0a03 	svccs	0x004a0a03
    11e8:	2e46032d 	cdpcs	3, 4, cr0, cr6, cr13, {1}
    11ec:	322e3b03 	eorcc	r3, lr, #3072	; 0xc00
    11f0:	2f2f2c30 	svccs	0x002f2c30
    11f4:	032d2f32 			; <UNDEFINED> instruction: 0x032d2f32
    11f8:	032e7fbb 			; <UNDEFINED> instruction: 0x032e7fbb
    11fc:	032e00c6 			; <UNDEFINED> instruction: 0x032e00c6
    1200:	832d2e44 			; <UNDEFINED> instruction: 0x832d2e44
    1204:	2e76032d 	cdpcs	3, 7, cr0, cr6, cr13, {1}
    1208:	032e0c03 			; <UNDEFINED> instruction: 0x032e0c03
    120c:	09032e10 	stmdbeq	r3, {r4, r9, sl, fp, sp}
    1210:	2e770366 	cdpcs	3, 7, cr0, cr7, cr6, {3}
    1214:	03666303 	cmneq	r6, #201326592	; 0xc000000
    1218:	3b032e26 	blcc	ccab8 <__first_lvl_tbl_end+0xabab8>
    121c:	01a6032e 			; <UNDEFINED> instruction: 0x01a6032e
    1220:	032f654a 			; <UNDEFINED> instruction: 0x032f654a
    1224:	49832e0b 	stmibmi	r3, {r0, r1, r3, r9, sl, fp, sp}
    1228:	72082f2f 	andvc	r2, r8, #47, 30	; 0xbc
    122c:	2f2f4983 	svccs	0x002f4983
    1230:	a1032a32 	tstge	r3, r2, lsr sl
    1234:	0200d67f 	andeq	sp, r0, #133169152	; 0x7f00000
    1238:	0a030104 	beq	c1650 <__first_lvl_tbl_end+0xa0650>
    123c:	0402002e 	streq	r0, [r2], #-46	; 0xffffffd2
    1240:	069e0602 	ldreq	r0, [lr], r2, lsl #12
    1244:	032aa24c 			; <UNDEFINED> instruction: 0x032aa24c
    1248:	03be4a6b 			; <UNDEFINED> instruction: 0x03be4a6b
    124c:	039e7fbe 	orrseq	r7, lr, #760	; 0x2f8
    1250:	039e00d1 	orrseq	r0, lr, #209	; 0xd1
    1254:	02002e0a 	andeq	r2, r0, #10, 28	; 0xa0
    1258:	00680104 	rsbeq	r0, r8, r4, lsl #2
    125c:	06020402 	streq	r0, [r2], -r2, lsl #8
    1260:	a24c069e 	subge	r0, ip, #165675008	; 0x9e00000
    1264:	4a40032a 	bmi	1001f14 <__kernel_end+0xee0f14>
    1268:	827ec203 	rsbshi	ip, lr, #805306368	; 0x30000000
    126c:	019e039f 			; <UNDEFINED> instruction: 0x019e039f
    1270:	7fbb0366 	svcvc	0x00bb0366
    1274:	2f49c808 	svccs	0x0049c808
    1278:	01e4032d 	mvneq	r0, sp, lsr #6
    127c:	7e88034a 	cdpvc	3, 8, cr0, cr8, cr10, {2}
    1280:	02900382 	addseq	r0, r0, #134217730	; 0x8000002
    1284:	6664034a 	strbtvs	r0, [r4], -sl, asr #6
    1288:	01000802 	tsteq	r0, r2, lsl #16
    128c:	0000de01 	andeq	sp, r0, r1, lsl #28
    1290:	c6000200 	strgt	r0, [r0], -r0, lsl #4
    1294:	02000000 	andeq	r0, r0, #0
    1298:	0d0efb01 	vstreq	d15, [lr, #-4]
    129c:	01010100 	mrseq	r0, (UNDEF: 17)
    12a0:	00000001 	andeq	r0, r0, r1
    12a4:	01000001 	tsteq	r0, r1
    12a8:	69727473 	ldmdbvs	r2!, {r0, r1, r4, r5, r6, sl, ip, sp, lr}^
    12ac:	2f00676e 	svccs	0x0000676e
    12b0:	72657355 	rsbvc	r7, r5, #1409286145	; 0x54000001
    12b4:	72702f73 	rsbsvc	r2, r0, #460	; 0x1cc
    12b8:	73616b61 	cmnvc	r1, #99328	; 0x18400
    12bc:	726f6268 	rsbvc	r6, pc, #104, 4	; 0x80000006
    12c0:	2f72616b 	svccs	0x0072616b
    12c4:	2d636367 	stclcs	3, cr6, [r3, #-412]!	; 0xfffffe64
    12c8:	2d6d7261 	sfmcs	f7, 2, [sp, #-388]!	; 0xfffffe7c
    12cc:	656e6f6e 	strbvs	r6, [lr, #-3950]!	; 0xfffff092
    12d0:	6261652d 	rsbvs	r6, r1, #188743680	; 0xb400000
    12d4:	696c2f69 	stmdbvs	ip!, {r0, r3, r5, r6, r8, r9, sl, fp, sp}^
    12d8:	63672f62 	cmnvs	r7, #392	; 0x188
    12dc:	72612f63 	rsbvc	r2, r1, #396	; 0x18c
    12e0:	6f6e2d6d 	svcvs	0x006e2d6d
    12e4:	652d656e 	strvs	r6, [sp, #-1390]!	; 0xfffffa92
    12e8:	2f696261 	svccs	0x00696261
    12ec:	2e342e35 	mrccs	14, 1, r2, cr4, cr5, {1}
    12f0:	6e692f31 	mcrvs	15, 3, r2, cr9, cr1, {1}
    12f4:	64756c63 	ldrbtvs	r6, [r5], #-3171	; 0xfffff39d
    12f8:	552f0065 	strpl	r0, [pc, #-101]!	; 129b <SCTLR_ENABLE_INSTRUCTION_CACHE+0x29b>
    12fc:	73726573 	cmnvc	r2, #482344960	; 0x1cc00000
    1300:	6172702f 	cmnvs	r2, pc, lsr #32
    1304:	6873616b 	ldmdavs	r3!, {r0, r1, r3, r5, r6, r8, sp, lr}^
    1308:	6b726f62 	blvs	1c9d098 <__kernel_end+0x1b7c098>
    130c:	672f7261 	strvs	r7, [pc, -r1, ror #4]!
    1310:	612d6363 			; <UNDEFINED> instruction: 0x612d6363
    1314:	6e2d6d72 	mcrvs	13, 1, r6, cr13, cr2, {3}
    1318:	2d656e6f 	stclcs	14, cr6, [r5, #-444]!	; 0xfffffe44
    131c:	69626165 	stmdbvs	r2!, {r0, r2, r5, r6, r8, sp, lr}^
    1320:	6d72612f 	ldfvse	f6, [r2, #-188]!	; 0xffffff44
    1324:	6e6f6e2d 	cdpvs	14, 6, cr6, cr15, cr13, {1}
    1328:	61652d65 	cmnvs	r5, r5, ror #26
    132c:	692f6962 	stmdbvs	pc!, {r1, r5, r6, r8, fp, sp, lr}	; <UNPREDICTABLE>
    1330:	756c636e 	strbvc	r6, [ip, #-878]!	; 0xfffffc92
    1334:	00006564 	andeq	r6, r0, r4, ror #10
    1338:	6c727473 	cfldrdvs	mvd7, [r2], #-460	; 0xfffffe34
    133c:	632e6e65 			; <UNDEFINED> instruction: 0x632e6e65
    1340:	00000100 	andeq	r0, r0, r0, lsl #2
    1344:	64647473 	strbtvs	r7, [r4], #-1139	; 0xfffffb8d
    1348:	682e6665 	stmdavs	lr!, {r0, r2, r5, r6, r9, sl, sp, lr}
    134c:	00000200 	andeq	r0, r0, r0, lsl #4
    1350:	69727473 	ldmdbvs	r2!, {r0, r1, r4, r5, r6, sl, ip, sp, lr}^
    1354:	682e676e 	stmdavs	lr!, {r1, r2, r3, r5, r6, r8, r9, sl, sp, lr}
    1358:	00000300 	andeq	r0, r0, r0, lsl #6
    135c:	02050000 	andeq	r0, r5, #0
    1360:	00009a40 	andeq	r9, r0, r0, asr #20
    1364:	2dd71414 	cfldrdcs	mvd1, [r7, #80]	; 0x50
    1368:	02023249 	andeq	r3, r2, #-1879048188	; 0x90000004
    136c:	Address 0x000000000000136c is out of bounds.


Disassembly of section .debug_info:

00000000 <.debug_info>:
       0:	00000085 	andeq	r0, r0, r5, lsl #1
       4:	00000002 	andeq	r0, r0, r2
       8:	01040000 	mrseq	r0, (UNDEF: 4)
       c:	00000000 	andeq	r0, r0, r0
      10:	00008000 	andeq	r8, r0, r0
      14:	00008208 	andeq	r8, r0, r8, lsl #4
      18:	68637261 	stmdavs	r3!, {r0, r5, r6, r9, ip, sp, lr}^
      1c:	6d72612f 	ldfvse	f6, [r2, #-188]!	; 0xffffff44
      20:	6f6f622f 	svcvs	0x006f622f
      24:	00532e74 	subseq	r2, r3, r4, ror lr
      28:	6573552f 	ldrbvs	r5, [r3, #-1327]!	; 0xfffffad1
      2c:	702f7372 	eorvc	r7, pc, r2, ror r3	; <UNPREDICTABLE>
      30:	616b6172 	smcvs	46610	; 0xb612
      34:	6f626873 	svcvs	0x00626873
      38:	72616b72 	rsbvc	r6, r1, #116736	; 0x1c800
      3c:	7365442f 	cmnvc	r5, #788529152	; 0x2f000000
      40:	706f746b 	rsbvc	r7, pc, fp, ror #8
      44:	6d65522f 	sfmvs	f5, 2, [r5, #-188]!	; 0xffffff44
      48:	5f65746f 	svcpl	0x0065746f
      4c:	6f706552 	svcvs	0x00706552
      50:	6970722f 	ldmdbvs	r0!, {r0, r1, r2, r3, r5, r9, ip, sp, lr}^
      54:	2d736f2d 	ldclcs	15, cr6, [r3, #-180]!	; 0xffffff4c
      58:	74726175 	ldrbtvc	r6, [r2], #-373	; 0xfffffe8b
      5c:	6970722f 	ldmdbvs	r0!, {r0, r1, r2, r3, r5, r9, ip, sp, lr}^
      60:	6d2d6233 	sfmvs	f6, 4, [sp, #-204]!	; 0xffffff34
      64:	79746165 	ldmdbvc	r4!, {r0, r2, r5, r6, r8, sp, lr}^
      68:	656b732d 	strbvs	r7, [fp, #-813]!	; 0xfffffcd3
      6c:	6f74656c 	svcvs	0x0074656c
      70:	656b2f6e 	strbvs	r2, [fp, #-3950]!	; 0xfffff092
      74:	6c656e72 	stclvs	14, cr6, [r5], #-456	; 0xfffffe38
      78:	554e4700 	strbpl	r4, [lr, #-1792]	; 0xfffff900
      7c:	20534120 	subscs	r4, r3, r0, lsr #2
      80:	36322e32 			; <UNDEFINED> instruction: 0x36322e32
      84:	0100322e 	tsteq	r0, lr, lsr #4
      88:	00010880 	andeq	r0, r1, r0, lsl #17
      8c:	14000400 	strne	r0, [r0], #-1024	; 0xfffffc00
      90:	04000000 	streq	r0, [r0], #-0
      94:	00006401 	andeq	r6, r0, r1, lsl #8
      98:	002c0c00 	eoreq	r0, ip, r0, lsl #24
      9c:	011a0000 	tsteq	sl, r0
      a0:	82080000 	andhi	r0, r8, #0
      a4:	00600000 	rsbeq	r0, r0, r0
      a8:	00be0000 	adcseq	r0, lr, r0
      ac:	01020000 	mrseq	r0, (UNDEF: 2)
      b0:	00000d06 	andeq	r0, r0, r6, lsl #26
      b4:	05020200 	streq	r0, [r2, #-512]	; 0xfffffe00
      b8:	0000016b 	andeq	r0, r0, fp, ror #2
      bc:	00017603 	andeq	r7, r1, r3, lsl #12
      c0:	3e280200 	cdpcc	2, 2, cr0, cr8, cr0, {0}
      c4:	02000000 	andeq	r0, r0, #0
      c8:	01110504 	tsteq	r1, r4, lsl #10
      cc:	08020000 	stmdaeq	r2, {}	; <UNPREDICTABLE>
      d0:	00010c05 	andeq	r0, r1, r5, lsl #24
      d4:	08010200 	stmdaeq	r1, {r9}
      d8:	0000000b 	andeq	r0, r0, fp
      dc:	19070202 	stmdbne	r7, {r1, r9}
      e0:	03000000 	movweq	r0, #0
      e4:	00000175 	andeq	r0, r0, r5, ror r1
      e8:	00653402 	rsbeq	r3, r5, r2, lsl #8
      ec:	04020000 	streq	r0, [r2], #-0
      f0:	00005207 	andeq	r5, r0, r7, lsl #4
      f4:	07080200 	streq	r0, [r8, -r0, lsl #4]
      f8:	0000004d 	andeq	r0, r0, sp, asr #32
      fc:	69050404 	stmdbvs	r5, {r2, sl}
     100:	0200746e 	andeq	r7, r0, #1845493760	; 0x6e000000
     104:	00570704 	subseq	r0, r7, r4, lsl #14
     108:	00050000 	andeq	r0, r5, r0
     10c:	01000000 	mrseq	r0, (UNDEF: 0)
     110:	00820807 	addeq	r0, r2, r7, lsl #16
     114:	00006000 	andeq	r6, r0, r0
     118:	e49c0100 	ldr	r0, [ip], #256	; 0x100
     11c:	06000000 	streq	r0, [r0], -r0
     120:	01003072 	tsteq	r0, r2, ror r0
     124:	00005a07 	andeq	r5, r0, r7, lsl #20
     128:	00000000 	andeq	r0, r0, r0
     12c:	31720600 	cmncc	r2, r0, lsl #12
     130:	5a070100 	bpl	1c0538 <__kernel_end+0x9f538>
     134:	21000000 	mrscs	r0, (UNDEF: 0)
     138:	06000000 	streq	r0, [r0], -r0
     13c:	01003272 	tsteq	r0, r2, ror r2
     140:	00005a07 	andeq	r5, r0, r7, lsl #20
     144:	00004200 	andeq	r4, r0, r0, lsl #4
     148:	73620700 	cmnvc	r2, #0, 14
     14c:	09010073 	stmdbeq	r1, {r0, r1, r4, r5, r6}
     150:	000000e4 	andeq	r0, r0, r4, ror #1
     154:	00000063 	andeq	r0, r0, r3, rrx
     158:	00010408 	andeq	r0, r1, r8, lsl #8
     15c:	e40a0100 	str	r0, [sl], #-256	; 0xffffff00
     160:	09000000 	stmdbeq	r0, {}	; <UNPREDICTABLE>
     164:	00008258 	andeq	r8, r0, r8, asr r2
     168:	00000100 	andeq	r0, r0, r0, lsl #2
     16c:	33040a00 	movwcc	r0, #18944	; 0x4a00
     170:	0b000000 	bleq	178 <ARM_I_BIT+0xf8>
     174:	00000041 	andeq	r0, r0, r1, asr #32
     178:	00330201 	eorseq	r0, r3, r1, lsl #4
     17c:	020b0000 	andeq	r0, fp, #0
     180:	01000001 	tsteq	r0, r1
     184:	00003303 	andeq	r3, r0, r3, lsl #6
     188:	017e0c00 	cmneq	lr, r0, lsl #24
     18c:	017e0000 	cmneq	lr, r0
     190:	05010000 	streq	r0, [r1, #-0]
     194:	0001a000 	andeq	sl, r1, r0
     198:	c6000400 	strgt	r0, [r0], -r0, lsl #8
     19c:	04000000 	streq	r0, [r0], #-0
     1a0:	00006401 	andeq	r6, r0, r1, lsl #8
     1a4:	027b0c00 	rsbseq	r0, fp, #0, 24
     1a8:	011a0000 	tsteq	sl, r0
     1ac:	82680000 	rsbhi	r0, r8, #0
     1b0:	00380000 	eorseq	r0, r8, r0
     1b4:	01610000 	cmneq	r1, r0
     1b8:	01020000 	mrseq	r0, (UNDEF: 2)
     1bc:	00000d06 	andeq	r0, r0, r6, lsl #26
     1c0:	05020200 	streq	r0, [r2, #-512]	; 0xfffffe00
     1c4:	0000016b 	andeq	r0, r0, fp, ror #2
     1c8:	11050402 	tstne	r5, r2, lsl #8
     1cc:	02000001 	andeq	r0, r0, #1
     1d0:	010c0508 	tsteq	ip, r8, lsl #10
     1d4:	01020000 	mrseq	r0, (UNDEF: 2)
     1d8:	00000b08 	andeq	r0, r0, r8, lsl #22
     1dc:	07020200 	streq	r0, [r2, -r0, lsl #4]
     1e0:	00000019 	andeq	r0, r0, r9, lsl r0
     1e4:	00017503 	andeq	r7, r1, r3, lsl #10
     1e8:	5a340300 	bpl	d00df0 <__kernel_end+0xbdfdf0>
     1ec:	02000000 	andeq	r0, r0, #0
     1f0:	00520704 	subseq	r0, r2, r4, lsl #14
     1f4:	08020000 	stmdaeq	r2, {}	; <UNPREDICTABLE>
     1f8:	00004d07 	andeq	r4, r0, r7, lsl #26
     1fc:	05040400 	streq	r0, [r4, #-1024]	; 0xfffffc00
     200:	00746e69 	rsbseq	r6, r4, r9, ror #28
     204:	57070402 	strpl	r0, [r7, -r2, lsl #8]
     208:	05000000 	streq	r0, [r0, #-0]
     20c:	0000004f 	andeq	r0, r0, pc, asr #32
     210:	20022406 	andcs	r2, r2, r6, lsl #8
     214:	000000f0 	strdeq	r0, [r0], -r0	; <UNPREDICTABLE>
     218:	0002bc07 	andeq	fp, r2, r7, lsl #24
     21c:	76220200 	strtvc	r0, [r2], -r0, lsl #4
     220:	00000000 	andeq	r0, r0, r0
     224:	00022f07 	andeq	r2, r2, r7, lsl #30
     228:	76230200 	strtvc	r0, [r3], -r0, lsl #4
     22c:	04000000 	streq	r0, [r0], #-0
     230:	0001e507 	andeq	lr, r1, r7, lsl #10
     234:	76240200 	strtvc	r0, [r4], -r0, lsl #4
     238:	08000000 	stmdaeq	r0, {}	; <UNPREDICTABLE>
     23c:	0002c107 	andeq	ip, r2, r7, lsl #2
     240:	76250200 	strtvc	r0, [r5], -r0, lsl #4
     244:	0c000000 	stceq	0, cr0, [r0], {-0}
     248:	0001b207 	andeq	fp, r1, r7, lsl #4
     24c:	76260200 	strtvc	r0, [r6], -r0, lsl #4
     250:	10000000 	andne	r0, r0, r0
     254:	0002fc07 	andeq	pc, r2, r7, lsl #24
     258:	76270200 	strtvc	r0, [r7], -r0, lsl #4
     25c:	14000000 	strne	r0, [r0], #-0
     260:	0001ed07 	andeq	lr, r1, r7, lsl #26
     264:	76280200 	strtvc	r0, [r8], -r0, lsl #4
     268:	18000000 	stmdane	r0, {}	; <UNPREDICTABLE>
     26c:	00022407 	andeq	r2, r2, r7, lsl #8
     270:	76290200 	strtvc	r0, [r9], -r0, lsl #4
     274:	1c000000 	stcne	0, cr0, [r0], {-0}
     278:	0001f407 	andeq	pc, r1, r7, lsl #8
     27c:	762a0200 	strtvc	r0, [sl], -r0, lsl #4
     280:	20000000 	andcs	r0, r0, r0
     284:	01a20300 			; <UNDEFINED> instruction: 0x01a20300
     288:	2b020000 	blcs	80290 <__first_lvl_tbl_end+0x5f290>
     28c:	0000007b 	andeq	r0, r0, fp, ror r0
     290:	00410108 	subeq	r0, r1, r8, lsl #2
     294:	15040000 	strne	r0, [r4, #-0]
     298:	00000138 	andeq	r0, r0, r8, lsr r1
     29c:	00018a09 	andeq	r8, r1, r9, lsl #20
     2a0:	06090100 	streq	r0, [r9], -r0, lsl #2
     2a4:	02000003 	andeq	r0, r0, #3
     2a8:	00029309 	andeq	r9, r2, r9, lsl #6
     2ac:	c8090400 	stmdagt	r9, {sl}
     2b0:	08000001 	stmdaeq	r0, {r0}
     2b4:	00023509 	andeq	r3, r2, r9, lsl #10
     2b8:	50091000 	andpl	r1, r9, r0
     2bc:	20000002 	andcs	r0, r0, r2
     2c0:	00020709 	andeq	r0, r2, r9, lsl #14
     2c4:	ca094000 	bgt	2502cc <__kernel_end+0x12f2cc>
     2c8:	80000002 	andhi	r0, r0, r2
     2cc:	026b0a00 	rsbeq	r0, fp, #0, 20
     2d0:	07010000 	streq	r0, [r1, -r0]
     2d4:	0000014d 	andeq	r0, r0, sp, asr #2
     2d8:	00008268 	andeq	r8, r0, r8, ror #4
     2dc:	0000000c 	andeq	r0, r0, ip
     2e0:	040b9c01 	streq	r9, [fp], #-3073	; 0xfffff3ff
     2e4:	000000f0 	strdeq	r0, [r0], -r0	; <UNPREDICTABLE>
     2e8:	0001b90c 	andeq	fp, r1, ip, lsl #18
     2ec:	740c0100 	strvc	r0, [ip], #-256	; 0xffffff00
     2f0:	2c000082 	stccs	0, cr0, [r0], {130}	; 0x82
     2f4:	01000000 	mrseq	r0, (UNDEF: 0)
     2f8:	0001849c 	muleq	r1, ip, r4
     2fc:	827c0d00 	rsbshi	r0, ip, #0, 26
     300:	01980000 	orrseq	r0, r8, r0
     304:	880d0000 	stmdahi	sp, {}	; <UNPREDICTABLE>
     308:	38000082 	stmdacc	r0, {r1, r7}
     30c:	0d000001 	stceq	0, cr0, [r0, #-4]
     310:	00008294 	muleq	r0, r4, r2
     314:	00000138 	andeq	r0, r0, r8, lsr r1
     318:	02b00e00 	adcseq	r0, r0, #0, 28
     31c:	05010000 	streq	r0, [r1, #-0]
     320:	00000193 	muleq	r0, r3, r1
     324:	3f00b400 	svccc	0x0000b400
     328:	00014d0f 	andeq	r4, r1, pc, lsl #26
     32c:	02e71000 	rsceq	r1, r7, #0
     330:	02e70000 	rsceq	r0, r7, #0
     334:	2e040000 	cdpcs	0, 0, cr0, cr4, cr0, {0}
     338:	00059300 	andeq	r9, r5, r0, lsl #6
     33c:	a7000400 	strge	r0, [r0, -r0, lsl #8]
     340:	04000001 	streq	r0, [r0], #-1
     344:	00006401 	andeq	r6, r0, r1, lsl #8
     348:	04a50c00 	strteq	r0, [r5], #3072	; 0xc00
     34c:	011a0000 	tsteq	sl, r0
     350:	82a00000 	adchi	r0, r0, #0
     354:	03a00000 	moveq	r0, #0
     358:	023b0000 	eorseq	r0, fp, #0
     35c:	01020000 	mrseq	r0, (UNDEF: 2)
     360:	00000d06 	andeq	r0, r0, r6, lsl #26
     364:	08010200 	stmdaeq	r1, {r9}
     368:	0000000b 	andeq	r0, r0, fp
     36c:	6b050202 	blvs	140b7c <__kernel_end+0x1fb7c>
     370:	02000001 	andeq	r0, r0, #1
     374:	00190702 	andseq	r0, r9, r2, lsl #14
     378:	04020000 	streq	r0, [r2], #-0
     37c:	00011105 	andeq	r1, r1, r5, lsl #2
     380:	07040200 	streq	r0, [r4, -r0, lsl #4]
     384:	00000052 	andeq	r0, r0, r2, asr r0
     388:	0c050802 	stceq	8, cr0, [r5], {2}
     38c:	02000001 	andeq	r0, r0, #1
     390:	004d0708 	subeq	r0, sp, r8, lsl #14
     394:	04030000 	streq	r0, [r3], #-0
     398:	746e6905 	strbtvc	r6, [lr], #-2309	; 0xfffff6fb
     39c:	07040200 	streq	r0, [r4, -r0, lsl #4]
     3a0:	00000057 	andeq	r0, r0, r7, asr r0
     3a4:	00035004 	andeq	r5, r3, r4
     3a8:	64d80300 	ldrbvs	r0, [r8], #768	; 0x300
     3ac:	02000000 	andeq	r0, r0, #0
     3b0:	042e0408 	strteq	r0, [lr], #-1032	; 0xfffffbf8
     3b4:	76040000 	strvc	r0, [r4], -r0
     3b8:	04000001 	streq	r0, [r0], #-1
     3bc:	00004128 	andeq	r4, r0, r8, lsr #2
     3c0:	03720400 	cmneq	r2, #0, 8
     3c4:	2e040000 	cdpcs	0, 0, cr0, cr4, cr0, {0}
     3c8:	0000002c 	andeq	r0, r0, ip, lsr #32
     3cc:	00017504 	andeq	r7, r1, r4, lsl #10
     3d0:	48340400 	ldmdami	r4!, {sl}
     3d4:	05000000 	streq	r0, [r0, #-0]
     3d8:	00000093 	muleq	r0, r3, r0
     3dc:	00037a04 	andeq	r7, r3, r4, lsl #20
     3e0:	ae0a0200 	cdpge	2, 0, cr0, cr10, cr0, {0}
     3e4:	06000000 	streq	r0, [r0], -r0
     3e8:	0000b404 	andeq	fp, r0, r4, lsl #8
     3ec:	70040700 	andvc	r0, r4, r0, lsl #14
     3f0:	02000004 	andeq	r0, r0, #4
     3f4:	0000ae0b 	andeq	sl, r0, fp, lsl #28
     3f8:	2c010800 	stccs	8, cr0, [r1], {-0}
     3fc:	02000000 	andeq	r0, r0, #0
     400:	0000fd15 	andeq	pc, r0, r5, lsl sp	; <UNPREDICTABLE>
     404:	018a0900 	orreq	r0, sl, r0, lsl #18
     408:	09010000 	stmdbeq	r1, {}	; <UNPREDICTABLE>
     40c:	00000306 	andeq	r0, r0, r6, lsl #6
     410:	02930902 	addseq	r0, r3, #32768	; 0x8000
     414:	09040000 	stmdbeq	r4, {}	; <UNPREDICTABLE>
     418:	000001c8 	andeq	r0, r0, r8, asr #3
     41c:	02350908 	eorseq	r0, r5, #8, 18	; 0x20000
     420:	09100000 	ldmdbeq	r0, {}	; <UNPREDICTABLE>
     424:	00000250 	andeq	r0, r0, r0, asr r2
     428:	02070920 	andeq	r0, r7, #32, 18	; 0x80000
     42c:	09400000 	stmdbeq	r0, {}^	; <UNPREDICTABLE>
     430:	000002ca 	andeq	r0, r0, sl, asr #5
     434:	3d040080 	stccc	0, cr0, [r4, #-512]	; 0xfffffe00
     438:	02000005 	andeq	r0, r0, #5
     43c:	0000c01e 	andeq	ip, r0, lr, lsl r0
     440:	02280a00 	eoreq	r0, r8, #0, 20
     444:	00018920 	andeq	r8, r1, r0, lsr #18
     448:	057d0b00 	ldrbeq	r0, [sp, #-2816]!	; 0xfffff500
     44c:	22020000 	andcs	r0, r2, #0
     450:	0000009e 	muleq	r0, lr, r0
     454:	056f0b00 	strbeq	r0, [pc, #-2816]!	; fffff95c <__kernel_end+0xffede95c>
     458:	23020000 	movwcs	r0, #8192	; 0x2000
     45c:	0000009e 	muleq	r0, lr, r0
     460:	04840b04 	streq	r0, [r4], #2820	; 0xb04
     464:	24020000 	strcs	r0, [r2], #-0
     468:	0000009e 	muleq	r0, lr, r0
     46c:	03660b08 	cmneq	r6, #8, 22	; 0x2000
     470:	25020000 	strcs	r0, [r2, #-0]
     474:	0000009e 	muleq	r0, lr, r0
     478:	04120b0c 	ldreq	r0, [r2], #-2828	; 0xfffff4f4
     47c:	26020000 	strcs	r0, [r2], -r0
     480:	0000009e 	muleq	r0, lr, r0
     484:	04200b10 	strteq	r0, [r0], #-2832	; 0xfffff4f0
     488:	27020000 	strcs	r0, [r2, -r0]
     48c:	0000009e 	muleq	r0, lr, r0
     490:	04e10b14 	strbteq	r0, [r1], #2836	; 0xb14
     494:	28020000 	stmdacs	r2, {}	; <UNPREDICTABLE>
     498:	0000009e 	muleq	r0, lr, r0
     49c:	04d20b18 	ldrbeq	r0, [r2], #2840	; 0xb18
     4a0:	29020000 	stmdbcs	r2, {}	; <UNPREDICTABLE>
     4a4:	0000009e 	muleq	r0, lr, r0
     4a8:	03410b1c 	movteq	r0, #6940	; 0x1b1c
     4ac:	2a020000 	bcs	804b4 <__first_lvl_tbl_end+0x5f4b4>
     4b0:	0000009e 	muleq	r0, lr, r0
     4b4:	043a0b20 	ldrteq	r0, [sl], #-2848	; 0xfffff4e0
     4b8:	2b020000 	blcs	804c0 <__first_lvl_tbl_end+0x5f4c0>
     4bc:	0000009e 	muleq	r0, lr, r0
     4c0:	05040024 	streq	r0, [r4, #-36]	; 0xffffffdc
     4c4:	02000005 	andeq	r0, r0, #5
     4c8:	0001082c 	andeq	r0, r1, ip, lsr #16
     4cc:	054a0c00 	strbeq	r0, [sl, #-3072]	; 0xfffff400
     4d0:	31020000 	mrscc	r0, (UNDEF: 2)
     4d4:	0000007d 	andeq	r0, r0, sp, ror r0
     4d8:	0001b003 	andeq	fp, r1, r3
     4dc:	65720d00 	ldrbvs	r0, [r2, #-3328]!	; 0xfffff300
     4e0:	33020073 	movwcc	r0, #8307	; 0x2073
     4e4:	0000007d 	andeq	r0, r0, sp, ror r0
     4e8:	04920e00 	ldreq	r0, [r2], #3584	; 0xe00
     4ec:	43020000 	movwmi	r0, #8192	; 0x2000
     4f0:	04f30e03 	ldrbteq	r0, [r3], #3587	; 0xe03
     4f4:	39020000 	stmdbcc	r2, {}	; <UNPREDICTABLE>
     4f8:	02e70f03 	rsceq	r0, r7, #3, 30
     4fc:	21010000 	mrscs	r0, (UNDEF: 1)
     500:	000001d5 	ldrdeq	r0, [r0], -r5
     504:	000082a0 	andeq	r8, r0, r0, lsr #5
     508:	0000000c 	andeq	r0, r0, ip
     50c:	04069c01 	streq	r9, [r6], #-3073	; 0xfffff3ff
     510:	00000189 	andeq	r0, r0, r9, lsl #3
     514:	00046310 	andeq	r6, r4, r0, lsl r3
     518:	ac2d0100 	stfges	f0, [sp], #-0
     51c:	1c000082 	stcne	0, cr0, [r0], {130}	; 0x82
     520:	01000000 	mrseq	r0, (UNDEF: 0)
     524:	0001fa9c 	muleq	r1, ip, sl
     528:	82c01100 	sbchi	r1, r0, #0, 2
     52c:	05800000 	streq	r0, [r0]
     530:	10000000 	andne	r0, r0, r0
     534:	000003d0 	ldrdeq	r0, [r0], -r0	; <UNPREDICTABLE>
     538:	82c83a01 	sbchi	r3, r8, #4096	; 0x1000
     53c:	00180000 	andseq	r0, r8, r0
     540:	9c010000 	stcls	0, cr0, [r1], {-0}
     544:	00000219 	andeq	r0, r0, r9, lsl r2
     548:	0082d811 	addeq	sp, r2, r1, lsl r8
     54c:	00058000 	andeq	r8, r5, r0
     550:	b6100000 	ldrlt	r0, [r0], -r0
     554:	01000003 	tsteq	r0, r3
     558:	0082e047 	addeq	lr, r2, r7, asr #32
     55c:	00001800 	andeq	r1, r0, r0, lsl #16
     560:	389c0100 	ldmcc	ip, {r8}
     564:	11000002 	tstne	r0, r2
     568:	000082f0 	strdeq	r8, [r0], -r0
     56c:	00000580 	andeq	r0, r0, r0, lsl #11
     570:	03201000 	nopeq	{0}	; <UNPREDICTABLE>
     574:	4c010000 	stcmi	0, cr0, [r1], {-0}
     578:	000082f8 	strdeq	r8, [r0], -r8	; <UNPREDICTABLE>
     57c:	0000001c 	andeq	r0, r0, ip, lsl r0
     580:	02579c01 	subseq	r9, r7, #256	; 0x100
     584:	0c110000 	ldceq	0, cr0, [r1], {-0}
     588:	80000083 	andhi	r0, r0, r3, lsl #1
     58c:	00000005 	andeq	r0, r0, r5
     590:	00055d10 	andeq	r5, r5, r0, lsl sp
     594:	14530100 	ldrbne	r0, [r3], #-256	; 0xffffff00
     598:	1c000083 	stcne	0, cr0, [r0], {131}	; 0x83
     59c:	01000000 	mrseq	r0, (UNDEF: 0)
     5a0:	0002769c 	muleq	r2, ip, r6
     5a4:	83281100 			; <UNDEFINED> instruction: 0x83281100
     5a8:	05800000 	streq	r0, [r0]
     5ac:	10000000 	andne	r0, r0, r0
     5b0:	000003f4 	strdeq	r0, [r0], -r4
     5b4:	83305a01 	teqhi	r0, #4096	; 0x1000
     5b8:	001c0000 	andseq	r0, ip, r0
     5bc:	9c010000 	stcls	0, cr0, [r1], {-0}
     5c0:	00000295 	muleq	r0, r5, r2
     5c4:	00834411 	addeq	r4, r3, r1, lsl r4
     5c8:	00058000 	andeq	r8, r5, r0
     5cc:	d5120000 	ldrle	r0, [r2, #-0]
     5d0:	0100000e 	tsteq	r0, lr
     5d4:	00834c6e 	addeq	r4, r3, lr, ror #24
     5d8:	0000d800 	andeq	sp, r0, r0, lsl #16
     5dc:	1a9c0100 	bne	fe7009e4 <__kernel_end+0xfe5df9e4>
     5e0:	13000003 	movwne	r0, #3
     5e4:	7001006a 	andvc	r0, r1, sl, rrx
     5e8:	0000007d 	andeq	r0, r0, sp, ror r0
     5ec:	00000076 	andeq	r0, r0, r6, ror r0
     5f0:	0001b814 	andeq	fp, r1, r4, lsl r8
     5f4:	0083c000 	addeq	ip, r3, r0
     5f8:	00001000 	andeq	r1, r0, r0
     5fc:	ea770100 	b	1dc0a04 <__kernel_end+0x1c9fa04>
     600:	15000002 	strne	r0, [r0, #-2]
     604:	00000194 	muleq	r0, r4, r1
     608:	000083c0 	andeq	r8, r0, r0, asr #7
     60c:	00000004 	andeq	r0, r0, r4
     610:	c0163b02 	andsgt	r3, r6, r2, lsl #22
     614:	04000083 	streq	r0, [r0], #-131	; 0xffffff7d
     618:	17000000 	strne	r0, [r0, -r0]
     61c:	000001a4 	andeq	r0, r0, r4, lsr #3
     620:	15000000 	strne	r0, [r0, #-0]
     624:	000001b0 			; <UNDEFINED> instruction: 0x000001b0
     628:	000083e0 	andeq	r8, r0, r0, ror #7
     62c:	00000014 	andeq	r0, r0, r4, lsl r0
     630:	94157901 	ldrls	r7, [r5], #-2305	; 0xfffff6ff
     634:	e0000001 	and	r0, r0, r1
     638:	04000083 	streq	r0, [r0], #-131	; 0xffffff7d
     63c:	02000000 	andeq	r0, r0, #0
     640:	83e01645 	mvnhi	r1, #72351744	; 0x4500000
     644:	00040000 	andeq	r0, r4, r0
     648:	a4170000 	ldrge	r0, [r7], #-0
     64c:	00000001 	andeq	r0, r0, r1
     650:	10000000 	andne	r0, r0, r0
     654:	000003a1 	andeq	r0, r0, r1, lsr #7
     658:	84247f01 	strthi	r7, [r4], #-3841	; 0xfffff0ff
     65c:	00bc0000 	adcseq	r0, ip, r0
     660:	9c010000 	stcls	0, cr0, [r1], {-0}
     664:	00000368 	andeq	r0, r0, r8, ror #6
     668:	00040a18 	andeq	r0, r4, r8, lsl sl
     66c:	fd7f0100 	ldc2l	1, cr0, [pc, #-0]	; 674 <ARM_I_BIT+0x5f4>
     670:	95000000 	strls	r0, [r0, #-0]
     674:	19000000 	stmdbne	r0, {}	; <UNPREDICTABLE>
     678:	00000ed9 	ldrdeq	r0, [r0], -r9
     67c:	00a37f01 	adceq	r7, r3, r1, lsl #30
     680:	51010000 	mrspl	r0, (UNDEF: 1)
     684:	000e8f19 	andeq	r8, lr, r9, lsl pc
     688:	b57f0100 	ldrblt	r0, [pc, #-256]!	; 590 <ARM_I_BIT+0x510>
     68c:	01000000 	mrseq	r0, (UNDEF: 0)
     690:	045b1a52 	ldrbeq	r1, [fp], #-2642	; 0xfffff5ae
     694:	81010000 	mrshi	r0, (UNDEF: 1)
     698:	00000093 	muleq	r0, r3, r0
     69c:	000000c1 	andeq	r0, r0, r1, asr #1
     6a0:	039f1000 	orrseq	r1, pc, #0
     6a4:	9c010000 	stcls	0, cr0, [r1], {-0}
     6a8:	000084e0 	andeq	r8, r0, r0, ror #9
     6ac:	000000c8 	andeq	r0, r0, r8, asr #1
     6b0:	039c9c01 	orrseq	r9, ip, #256	; 0x100
     6b4:	0a180000 	beq	6006bc <__kernel_end+0x4df6bc>
     6b8:	01000004 	tsteq	r0, r4
     6bc:	0000fd9c 	muleq	r0, ip, sp
     6c0:	00010f00 	andeq	r0, r1, r0, lsl #30
     6c4:	045b1a00 	ldrbeq	r1, [fp], #-2560	; 0xfffff600
     6c8:	9e010000 	cdpls	0, 0, cr0, cr1, cr0, {0}
     6cc:	00000093 	muleq	r0, r3, r0
     6d0:	0000013b 	andeq	r0, r0, fp, lsr r1
     6d4:	03ed1b00 	mvneq	r1, #0, 22
     6d8:	bb010000 	bllt	406e0 <__first_lvl_tbl_end+0x1f6e0>
     6dc:	00000400 	andeq	r0, r0, r0, lsl #8
     6e0:	000085a8 	andeq	r8, r0, r8, lsr #11
     6e4:	00000024 	andeq	r0, r0, r4, lsr #32
     6e8:	04009c01 	streq	r9, [r0], #-3073	; 0xfffff3ff
     6ec:	731c0000 	tstvc	ip, #0
     6f0:	00bb0100 	adcseq	r0, fp, r0, lsl #2
     6f4:	01000004 	tsteq	r0, r4
     6f8:	00631d50 	rsbeq	r1, r3, r0, asr sp
     6fc:	007dbb01 	rsbseq	fp, sp, r1, lsl #22
     700:	01890000 	orreq	r0, r9, r0
     704:	6e1d0000 	cdpvs	0, 1, cr0, cr13, cr0, {0}
     708:	6bbb0100 	blvs	feec0b10 <__kernel_end+0xfed9fb10>
     70c:	aa000000 	bge	714 <ARM_I_BIT+0x694>
     710:	1e000001 	cdpne	0, 0, cr0, cr0, cr1, {0}
     714:	bd010070 	stclt	0, cr0, [r1, #-448]	; 0xfffffe40
     718:	00000402 	andeq	r0, r0, r2, lsl #8
     71c:	561f5001 	ldrpl	r5, [pc], -r1
     720:	01000004 	tsteq	r0, r4
     724:	000088be 			; <UNDEFINED> instruction: 0x000088be
     728:	13510100 	cmpne	r1, #0, 2
     72c:	bf010069 	svclt	0x00010069
     730:	0000006b 	andeq	r0, r0, fp, rrx
     734:	000001cb 	andeq	r0, r0, fp, asr #3
     738:	06042000 	streq	r2, [r4], -r0
     73c:	00008804 	andeq	r8, r0, r4, lsl #16
     740:	03601000 	cmneq	r0, #0
     744:	c8010000 	stmdagt	r1, {}	; <UNPREDICTABLE>
     748:	000085cc 	andeq	r8, r0, ip, asr #11
     74c:	0000000c 	andeq	r0, r0, ip
     750:	04559c01 	ldrbeq	r9, [r5], #-3073	; 0xfffff3ff
     754:	731d0000 	tstvc	sp, #0
     758:	00c80100 	sbceq	r0, r8, r0, lsl #2
     75c:	df000004 	svcle	0x00000004
     760:	1d000001 	stcne	0, cr0, [r0, #-4]
     764:	c801006e 	stmdagt	r1, {r1, r2, r3, r5, r6}
     768:	0000006b 	andeq	r0, r0, fp, rrx
     76c:	00000200 	andeq	r0, r0, r0, lsl #4
     770:	0085d821 	addeq	sp, r5, r1, lsr #16
     774:	00039c00 	andeq	r9, r3, r0, lsl #24
     778:	50012200 	andpl	r2, r1, r0, lsl #4
     77c:	5001f303 	andpl	pc, r1, r3, lsl #6
     780:	01510122 	cmpeq	r1, r2, lsr #2
     784:	52012230 	andpl	r2, r1, #48, 4
     788:	5101f303 	tstpl	r1, r3, lsl #6	; <UNPREDICTABLE>
     78c:	24100000 	ldrcs	r0, [r0], #-0
     790:	01000005 	tsteq	r0, r5
     794:	0085d85f 	addeq	sp, r5, pc, asr r8
     798:	00006800 	andeq	r6, r0, r0, lsl #16
     79c:	0d9c0100 	ldfeqs	f0, [ip]
     7a0:	14000005 	strne	r0, [r0], #-5
     7a4:	000001b0 			; <UNDEFINED> instruction: 0x000001b0
     7a8:	000085e0 	andeq	r8, r0, r0, ror #11
     7ac:	00000010 	andeq	r0, r0, r0, lsl r0
     7b0:	049d6201 	ldreq	r6, [sp], #513	; 0x201
     7b4:	94150000 	ldrls	r0, [r5], #-0
     7b8:	e0000001 	and	r0, r0, r1
     7bc:	04000085 	streq	r0, [r0], #-133	; 0xffffff7b
     7c0:	02000000 	andeq	r0, r0, #0
     7c4:	85e01645 	strbhi	r1, [r0, #1605]!	; 0x645
     7c8:	00040000 	andeq	r0, r4, r0
     7cc:	a4170000 	ldrge	r0, [r7], #-0
     7d0:	00000001 	andeq	r0, r0, r1
     7d4:	b8140000 	ldmdalt	r4, {}	; <UNPREDICTABLE>
     7d8:	28000001 	stmdacs	r0, {r0}
     7dc:	18000086 	stmdane	r0, {r1, r2, r7}
     7e0:	01000000 	mrseq	r0, (UNDEF: 0)
     7e4:	0004d068 	andeq	sp, r4, r8, rrx
     7e8:	01941500 	orrseq	r1, r4, r0, lsl #10
     7ec:	86280000 	strthi	r0, [r8], -r0
     7f0:	00040000 	andeq	r0, r4, r0
     7f4:	3b020000 	blcc	807fc <__first_lvl_tbl_end+0x5f7fc>
     7f8:	00862816 	addeq	r2, r6, r6, lsl r8
     7fc:	00000400 	andeq	r0, r0, r0, lsl #8
     800:	01a41700 			; <UNDEFINED> instruction: 0x01a41700
     804:	00000000 	andeq	r0, r0, r0
     808:	85e01100 	strbhi	r1, [r0, #256]!	; 0x100
     80c:	058b0000 	streq	r0, [fp]
     810:	04230000 	strteq	r0, [r3], #-0
     814:	08000086 	stmdaeq	r0, {r1, r2, r7}
     818:	f4000004 	vst4.8	{d0-d3}, [r0], r4
     81c:	22000004 	andcs	r0, r0, #4
     820:	74025001 	strvc	r5, [r2], #-1
     824:	51012200 	mrspl	r2, R9_usr
     828:	01200a03 			; <UNDEFINED> instruction: 0x01200a03
     82c:	86102400 	ldrhi	r2, [r0], -r0, lsl #8
     830:	04080000 	streq	r0, [r8], #-0
     834:	01220000 			; <UNDEFINED> instruction: 0x01220000
     838:	a0740350 	rsbsge	r0, r4, r0, asr r3
     83c:	51012202 	tstpl	r1, r2, lsl #4
     840:	01200a03 			; <UNDEFINED> instruction: 0x01200a03
     844:	8e250000 	cdphi	0, 2, cr0, cr5, cr0, {0}
     848:	01000003 	tsteq	r0, r3
     84c:	00051c14 	andeq	r1, r5, r4, lsl ip
     850:	00b20000 	adcseq	r0, r2, r0
     854:	01d5263f 	bicseq	r2, r5, pc, lsr r6
     858:	a3270000 			; <UNDEFINED> instruction: 0xa3270000
     85c:	31000000 	mrscc	r0, (UNDEF: 0)
     860:	28000005 	stmdacs	r0, {r0, r2}
     864:	00000531 	andeq	r0, r0, r1, lsr r5
     868:	04020047 	streq	r0, [r2], #-71	; 0xffffffb9
     86c:	00035707 	andeq	r5, r3, r7, lsl #14
     870:	044d1f00 	strbeq	r1, [sp], #-3840	; 0xfffff100
     874:	17010000 	strne	r0, [r1, -r0]
     878:	00000521 	andeq	r0, r0, r1, lsr #10
     87c:	c0000305 	andgt	r0, r0, r5, lsl #6
     880:	b5270000 	strlt	r0, [r7, #-0]!
     884:	59000000 	stmdbpl	r0, {}	; <UNPREDICTABLE>
     888:	28000005 	stmdacs	r0, {r0, r2}
     88c:	00000531 	andeq	r0, r0, r1, lsr r5
     890:	341f0047 	ldrcc	r0, [pc], #-71	; 898 <SCTLR_ENABLE_BRANCH_PREDICTION+0x98>
     894:	01000005 	tsteq	r0, r5
     898:	00054918 	andeq	r4, r5, r8, lsl r9
     89c:	20030500 	andcs	r0, r3, r0, lsl #10
     8a0:	290000c1 	stmdbcs	r0, {r0, r6, r7}
     8a4:	00000336 	andeq	r0, r0, r6, lsr r3
     8a8:	057b1a01 	ldrbeq	r1, [fp, #-2561]!	; 0xfffff5ff
     8ac:	03050000 	movweq	r0, #20480	; 0x5000
     8b0:	0000c240 	andeq	ip, r0, r0, asr #4
     8b4:	00007d05 	andeq	r7, r0, r5, lsl #26
     8b8:	051a2a00 	ldreq	r2, [sl, #-2560]	; 0xfffff600
     8bc:	051a0000 	ldreq	r0, [sl, #-0]
     8c0:	2c050000 	stccs	0, cr0, [r5], {-0}
     8c4:	0004bf2a 	andeq	fp, r4, sl, lsr #30
     8c8:	0004bf00 	andeq	fp, r4, r0, lsl #30
     8cc:	002f0200 	eoreq	r0, pc, r0, lsl #4
     8d0:	0000050e 	andeq	r0, r0, lr, lsl #10
     8d4:	03fc0004 	mvnseq	r0, #4
     8d8:	01040000 	mrseq	r0, (UNDEF: 4)
     8dc:	00000064 	andeq	r0, r0, r4, rrx
     8e0:	0005f20c 	andeq	pc, r5, ip, lsl #4
     8e4:	00011a00 	andeq	r1, r1, r0, lsl #20
     8e8:	00864000 	addeq	r4, r6, r0
     8ec:	00012800 	andeq	r2, r1, r0, lsl #16
     8f0:	0003fe00 	andeq	pc, r3, r0, lsl #28
     8f4:	06010200 	streq	r0, [r1], -r0, lsl #4
     8f8:	0000000d 	andeq	r0, r0, sp
     8fc:	6b050202 	blvs	14110c <__kernel_end+0x2010c>
     900:	03000001 	movweq	r0, #1
     904:	00000176 	andeq	r0, r0, r6, ror r1
     908:	003e2802 	eorseq	r2, lr, r2, lsl #16
     90c:	04020000 	streq	r0, [r2], #-0
     910:	00011105 	andeq	r1, r1, r5, lsl #2
     914:	05080200 	streq	r0, [r8, #-512]	; 0xfffffe00
     918:	0000010c 	andeq	r0, r0, ip, lsl #2
     91c:	0b080102 	bleq	200d2c <__kernel_end+0xdfd2c>
     920:	02000000 	andeq	r0, r0, #0
     924:	00190702 	andseq	r0, r9, r2, lsl #14
     928:	75030000 	strvc	r0, [r3, #-0]
     92c:	02000001 	andeq	r0, r0, #1
     930:	00006534 	andeq	r6, r0, r4, lsr r5
     934:	07040200 	streq	r0, [r4, -r0, lsl #4]
     938:	00000052 	andeq	r0, r0, r2, asr r0
     93c:	4d070802 	stcmi	8, cr0, [r7, #-8]
     940:	04000000 	streq	r0, [r0], #-0
     944:	6e690504 	cdpvs	5, 6, cr0, cr9, cr4, {0}
     948:	04020074 	streq	r0, [r2], #-116	; 0xffffff8c
     94c:	00005707 	andeq	r5, r0, r7, lsl #14
     950:	7a040500 	bvc	101d58 <__first_lvl_tbl_end+0xe0d58>
     954:	04000000 	streq	r0, [r0], #-0
     958:	00015405 	andeq	r5, r1, r5, lsl #8
     95c:	067a0600 	ldrbteq	r0, [sl], -r0, lsl #12
     960:	00000000 	andeq	r0, r0, r0
     964:	ec063f20 	stc	15, cr3, [r6], {32}
     968:	94000005 	strls	r0, [r0], #-5
     96c:	063f2000 	ldrteq	r2, [pc], -r0
     970:	000005d3 	ldrdeq	r0, [r0], -r3
     974:	3f200098 	svccc	0x00200098
     978:	0005b706 	andeq	fp, r5, r6, lsl #14
     97c:	20100000 	andscs	r0, r0, r0
     980:	05ae063f 	streq	r0, [lr, #1599]!	; 0x63f
     984:	10000000 	andne	r0, r0, r0
     988:	40063f20 	andmi	r3, r6, r0, lsr #30
     98c:	04000006 	streq	r0, [r0], #-6
     990:	063f2010 			; <UNDEFINED> instruction: 0x063f2010
     994:	00000618 	andeq	r0, r0, r8, lsl r6
     998:	3f201018 	svccc	0x00201018
     99c:	0006ad06 	andeq	sl, r6, r6, lsl #26
     9a0:	20102000 	andscs	r2, r0, r0
     9a4:	060d063f 			; <UNDEFINED> instruction: 0x060d063f
     9a8:	10240000 	eorne	r0, r4, r0
     9ac:	a2063f20 	andge	r3, r6, #32, 30	; 0x80
     9b0:	28000006 	stmdacs	r0, {r1, r2}
     9b4:	063f2010 			; <UNDEFINED> instruction: 0x063f2010
     9b8:	00000621 	andeq	r0, r0, r1, lsr #12
     9bc:	3f20102c 	svccc	0x0020102c
     9c0:	00068406 	andeq	r8, r6, r6, lsl #8
     9c4:	20103000 	andscs	r3, r0, r0
     9c8:	0664063f 			; <UNDEFINED> instruction: 0x0664063f
     9cc:	10340000 	eorsne	r0, r4, r0
     9d0:	59063f20 	stmdbpl	r6, {r5, r8, r9, sl, fp, ip, sp}
     9d4:	38000006 	stmdacc	r0, {r1, r2}
     9d8:	063f2010 			; <UNDEFINED> instruction: 0x063f2010
     9dc:	0000062c 	andeq	r0, r0, ip, lsr #12
     9e0:	3f20103c 	svccc	0x0020103c
     9e4:	0005a406 	andeq	sl, r5, r6, lsl #8
     9e8:	20104000 	andscs	r4, r0, r0
     9ec:	0636063f 			; <UNDEFINED> instruction: 0x0636063f
     9f0:	10440000 	subne	r0, r4, r0
     9f4:	4d063f20 	stcmi	15, cr3, [r6, #-128]	; 0xffffff80
     9f8:	48000006 	stmdami	r0, {r1, r2}
     9fc:	063f2010 			; <UNDEFINED> instruction: 0x063f2010
     a00:	0000068d 	andeq	r0, r0, sp, lsl #13
     a04:	3f201080 	svccc	0x00201080
     a08:	0006c206 	andeq	ip, r6, r6, lsl #4
     a0c:	20108400 	andscs	r8, r0, r0, lsl #8
     a10:	05c8063f 	strbeq	r0, [r8, #1599]	; 0x63f
     a14:	10880000 	addne	r0, r8, r0
     a18:	98063f20 	stmdals	r6, {r5, r8, r9, sl, fp, ip, sp}
     a1c:	8c000006 	stchi	0, cr0, [r0], {6}
     a20:	003f2010 	eorseq	r2, pc, r0, lsl r0	; <UNPREDICTABLE>
     a24:	00035003 	andeq	r5, r3, r3
     a28:	7ad80300 	bvc	ff601630 <__kernel_end+0xff4e0630>
     a2c:	02000000 	andeq	r0, r0, #0
     a30:	042e0408 	strteq	r0, [lr], #-1032	; 0xfffffbf8
     a34:	8f070000 	svchi	0x00070000
     a38:	01000005 	tsteq	r0, r5
     a3c:	0189030b 	orreq	r0, r9, fp, lsl #6
     a40:	72080000 	andvc	r0, r8, #0
     a44:	01006765 	tsteq	r0, r5, ror #14
     a48:	00005a0b 	andeq	r5, r0, fp, lsl #20
     a4c:	05e70900 	strbeq	r0, [r7, #2304]!	; 0x900
     a50:	0b010000 	bleq	40a58 <__first_lvl_tbl_end+0x1fa58>
     a54:	0000005a 	andeq	r0, r0, sl, asr r0
     a58:	0eb10700 	cdpeq	7, 11, cr0, cr1, cr0, {0}
     a5c:	17010000 	strne	r0, [r1, -r0]
     a60:	0001a103 	andeq	sl, r1, r3, lsl #2
     a64:	05c20900 	strbeq	r0, [r2, #2304]	; 0x900
     a68:	17010000 	strne	r0, [r1, -r0]
     a6c:	00000033 	andeq	r0, r0, r3, lsr r0
     a70:	059a0a00 	ldreq	r0, [sl, #2560]	; 0xa00
     a74:	11010000 	mrsne	r0, (UNDEF: 1)
     a78:	0000005a 	andeq	r0, r0, sl, asr r0
     a7c:	0001bd03 	andeq	fp, r1, r3, lsl #26
     a80:	65720800 	ldrbvs	r0, [r2, #-2048]!	; 0xfffff800
     a84:	11010067 	tstne	r1, r7, rrx
     a88:	0000005a 	andeq	r0, r0, sl, asr r0
     a8c:	05dd0b00 	ldrbeq	r0, [sp, #2816]	; 0xb00
     a90:	23010000 	movwcs	r0, #4096	; 0x1000
     a94:	00008640 	andeq	r8, r0, r0, asr #12
     a98:	00000074 	andeq	r0, r0, r4, ror r0
     a9c:	03859c01 	orreq	r9, r5, #256	; 0x100
     aa0:	660c0000 	strvs	r0, [ip], -r0
     aa4:	40000001 	andmi	r0, r0, r1
     aa8:	00000086 	andeq	r0, r0, r6, lsl #1
     aac:	01000000 	mrseq	r0, (UNDEF: 0)
     ab0:	0001f826 	andeq	pc, r1, r6, lsr #16
     ab4:	017d0d00 	cmneq	sp, r0, lsl #26
     ab8:	022c0000 	eoreq	r0, ip, #0
     abc:	720d0000 	andvc	r0, sp, #0
     ac0:	40000001 	andmi	r0, r0, r1
     ac4:	00000002 	andeq	r0, r0, r2
     ac8:	0001660c 	andeq	r6, r1, ip, lsl #12
     acc:	00864800 	addeq	r4, r6, r0, lsl #16
     ad0:	00002000 	andeq	r2, r0, r0
     ad4:	1e2a0100 	sufnee	f0, f2, f0
     ad8:	0d000002 	stceq	0, cr0, [r0, #-8]
     adc:	0000017d 	andeq	r0, r0, sp, ror r1
     ae0:	00000258 	andeq	r0, r0, r8, asr r2
     ae4:	0001720d 	andeq	r7, r1, sp, lsl #4
     ae8:	00026c00 	andeq	r6, r2, r0, lsl #24
     aec:	890c0000 	stmdbhi	ip, {}	; <UNPREDICTABLE>
     af0:	50000001 	andpl	r0, r0, r1
     af4:	38000086 	stmdacc	r0, {r1, r2, r7}
     af8:	01000000 	mrseq	r0, (UNDEF: 0)
     afc:	00023b2b 	andeq	r3, r2, fp, lsr #22
     b00:	01950d00 	orrseq	r0, r5, r0, lsl #26
     b04:	02840000 	addeq	r0, r4, #0
     b08:	0e000000 	cdpeq	0, 0, cr0, cr0, cr0, {0}
     b0c:	00000166 	andeq	r0, r0, r6, ror #2
     b10:	0000866c 	andeq	r8, r0, ip, ror #12
     b14:	00000008 	andeq	r0, r0, r8
     b18:	02612e01 	rsbeq	r2, r1, #1, 28
     b1c:	7d0d0000 	stcvc	0, cr0, [sp, #-0]
     b20:	99000001 	stmdbls	r0, {r0}
     b24:	0d000002 	stceq	0, cr0, [r0, #-8]
     b28:	00000172 	andeq	r0, r0, r2, ror r1
     b2c:	000002af 	andeq	r0, r0, pc, lsr #5
     b30:	01890e00 	orreq	r0, r9, r0, lsl #28
     b34:	86740000 	ldrbthi	r0, [r4], -r0
     b38:	00080000 	andeq	r0, r8, r0
     b3c:	2f010000 	svccs	0x00010000
     b40:	0000027e 	andeq	r0, r0, lr, ror r2
     b44:	0001950d 	andeq	r9, r1, sp, lsl #10
     b48:	0002c700 	andeq	ip, r2, r0, lsl #14
     b4c:	660c0000 	strvs	r0, [ip], -r0
     b50:	7c000001 	stcvc	0, cr0, [r0], {1}
     b54:	58000086 	stmdapl	r0, {r1, r2, r7}
     b58:	01000000 	mrseq	r0, (UNDEF: 0)
     b5c:	0002a43d 	andeq	sl, r2, sp, lsr r4
     b60:	017d0d00 	cmneq	sp, r0, lsl #26
     b64:	02dc0000 	sbcseq	r0, ip, #0
     b68:	720d0000 	andvc	r0, sp, #0
     b6c:	f0000001 			; <UNDEFINED> instruction: 0xf0000001
     b70:	00000002 	andeq	r0, r0, r2
     b74:	0001660e 	andeq	r6, r1, lr, lsl #12
     b78:	00868000 	addeq	r8, r6, r0
     b7c:	00000400 	andeq	r0, r0, r0, lsl #8
     b80:	ca320100 	bgt	c80f88 <__kernel_end+0xb5ff88>
     b84:	0d000002 	stceq	0, cr0, [r0, #-8]
     b88:	0000017d 	andeq	r0, r0, sp, ror r1
     b8c:	00000308 	andeq	r0, r0, r8, lsl #6
     b90:	0001720d 	andeq	r7, r1, sp, lsl #4
     b94:	00031c00 	andeq	r1, r3, r0, lsl #24
     b98:	660c0000 	strvs	r0, [ip], -r0
     b9c:	84000001 	strhi	r0, [r0], #-1
     ba0:	70000086 	andvc	r0, r0, r6, lsl #1
     ba4:	01000000 	mrseq	r0, (UNDEF: 0)
     ba8:	0002f035 	andeq	pc, r2, r5, lsr r0	; <UNPREDICTABLE>
     bac:	017d0d00 	cmneq	sp, r0, lsl #26
     bb0:	03340000 	teqeq	r4, #0
     bb4:	720d0000 	andvc	r0, sp, #0
     bb8:	4a000001 	bmi	bc4 <SCTLR_ENABLE_BRANCH_PREDICTION+0x3c4>
     bbc:	00000003 	andeq	r0, r0, r3
     bc0:	0001660c 	andeq	r6, r1, ip, lsl #12
     bc4:	00868800 	addeq	r8, r6, r0, lsl #16
     bc8:	00008800 	andeq	r8, r0, r0, lsl #16
     bcc:	163f0100 	ldrtne	r0, [pc], -r0, lsl #2
     bd0:	0d000003 	stceq	0, cr0, [r0, #-12]
     bd4:	0000017d 	andeq	r0, r0, sp, ror r1
     bd8:	00000362 	andeq	r0, r0, r2, ror #6
     bdc:	0001720d 	andeq	r7, r1, sp, lsl #4
     be0:	00037700 	andeq	r7, r3, r0, lsl #14
     be4:	660c0000 	strvs	r0, [ip], -r0
     be8:	94000001 	strls	r0, [r0], #-1
     bec:	a0000086 	andge	r0, r0, r6, lsl #1
     bf0:	01000000 	mrseq	r0, (UNDEF: 0)
     bf4:	00033c42 	andeq	r3, r3, r2, asr #24
     bf8:	017d0d00 	cmneq	sp, r0, lsl #26
     bfc:	038f0000 	orreq	r0, pc, #0
     c00:	720d0000 	andvc	r0, sp, #0
     c04:	a4000001 	strge	r0, [r0], #-1
     c08:	00000003 	andeq	r0, r0, r3
     c0c:	0001660c 	andeq	r6, r1, ip, lsl #12
     c10:	00869c00 	addeq	r9, r6, r0, lsl #24
     c14:	0000b800 	andeq	fp, r0, r0, lsl #16
     c18:	62450100 	subvs	r0, r5, #0, 2
     c1c:	0d000003 	stceq	0, cr0, [r0, #-12]
     c20:	0000017d 	andeq	r0, r0, sp, ror r1
     c24:	000003bc 			; <UNDEFINED> instruction: 0x000003bc
     c28:	0001720d 	andeq	r7, r1, sp, lsl #4
     c2c:	0003d200 	andeq	sp, r3, r0, lsl #4
     c30:	660f0000 	strvs	r0, [pc], -r0
     c34:	a4000001 	strge	r0, [r0], #-1
     c38:	d0000086 	andle	r0, r0, r6, lsl #1
     c3c:	01000000 	mrseq	r0, (UNDEF: 0)
     c40:	017d0d49 	cmneq	sp, r9, asr #26
     c44:	03ea0000 	mvneq	r0, #0
     c48:	720d0000 	andvc	r0, sp, #0
     c4c:	00000001 	andeq	r0, r0, r1
     c50:	00000004 	andeq	r0, r0, r4
     c54:	06b81000 	ldrteq	r1, [r8], r0
     c58:	4c010000 	stcmi	0, cr0, [r1], {-0}
     c5c:	000086b4 			; <UNDEFINED> instruction: 0x000086b4
     c60:	00000024 	andeq	r0, r0, r4, lsr #32
     c64:	03e59c01 	mvneq	r9, #256	; 0x100
     c68:	63110000 	tstvs	r1, #0
     c6c:	4c4c0100 	stfmie	f0, [ip], {-0}
     c70:	01000000 	mrseq	r0, (UNDEF: 0)
     c74:	01a10e50 			; <UNDEFINED> instruction: 0x01a10e50
     c78:	86b40000 	ldrthi	r0, [r4], r0
     c7c:	00140000 	andseq	r0, r4, r0
     c80:	4f010000 	svcmi	0x00010000
     c84:	000003c2 	andeq	r0, r0, r2, asr #7
     c88:	0001b10d 	andeq	fp, r1, sp, lsl #2
     c8c:	00041800 	andeq	r1, r4, r0, lsl #16
     c90:	66120000 	ldrvs	r0, [r2], -r0
     c94:	d0000001 	andle	r0, r0, r1
     c98:	08000086 	stmdaeq	r0, {r1, r2, r7}
     c9c:	01000000 	mrseq	r0, (UNDEF: 0)
     ca0:	017d0d52 	cmneq	sp, r2, asr sp
     ca4:	04300000 	ldrteq	r0, [r0], #-0
     ca8:	720d0000 	andvc	r0, sp, #0
     cac:	43000001 	movwmi	r0, #1
     cb0:	00000004 	andeq	r0, r0, r4
     cb4:	06031300 	streq	r1, [r3], -r0, lsl #6
     cb8:	55010000 	strpl	r0, [r1, #-0]
     cbc:	0000004c 	andeq	r0, r0, ip, asr #32
     cc0:	000086d8 	ldrdeq	r8, [r0], -r8	; <UNPREDICTABLE>
     cc4:	00000028 	andeq	r0, r0, r8, lsr #32
     cc8:	04359c01 	ldrteq	r9, [r5], #-3073	; 0xfffff3ff
     ccc:	a10e0000 	mrsge	r0, (UNDEF: 14)
     cd0:	d8000001 	stmdale	r0, {r0}
     cd4:	14000086 	strne	r0, [r0], #-134	; 0xffffff7a
     cd8:	01000000 	mrseq	r0, (UNDEF: 0)
     cdc:	00041b58 	andeq	r1, r4, r8, asr fp
     ce0:	01b10d00 			; <UNDEFINED> instruction: 0x01b10d00
     ce4:	045b0000 	ldrbeq	r0, [fp], #-0
     ce8:	12000000 	andne	r0, r0, #0
     cec:	000001a1 	andeq	r0, r0, r1, lsr #3
     cf0:	000086f4 	strdeq	r8, [r0], -r4
     cf4:	00000004 	andeq	r0, r0, r4
     cf8:	b10d5b01 	tstlt	sp, r1, lsl #22
     cfc:	73000001 	movwvc	r0, #1
     d00:	00000004 	andeq	r0, r0, r4
     d04:	051a1000 	ldreq	r1, [sl, #-0]
     d08:	5e010000 	cdppl	0, 0, cr0, cr1, cr0, {0}
     d0c:	00008700 	andeq	r8, r0, r0, lsl #14
     d10:	00000028 	andeq	r0, r0, r8, lsr #32
     d14:	047a9c01 	ldrbteq	r9, [sl], #-3073	; 0xfffff3ff
     d18:	73140000 	tstvc	r4, #0
     d1c:	01007274 	tsteq	r0, r4, ror r2
     d20:	00047a5e 	andeq	r7, r4, lr, asr sl
     d24:	00048b00 	andeq	r8, r4, r0, lsl #22
     d28:	87081500 	strhi	r1, [r8, -r0, lsl #10]
     d2c:	00200000 	eoreq	r0, r0, r0
     d30:	69160000 	ldmdbvs	r6, {}	; <UNPREDICTABLE>
     d34:	54600100 	strbtpl	r0, [r0], #-256	; 0xffffff00
     d38:	b7000001 	strlt	r0, [r0, -r1]
     d3c:	17000004 	strne	r0, [r0, -r4]
     d40:	00008718 	andeq	r8, r0, r8, lsl r7
     d44:	00000385 	andeq	r0, r0, r5, lsl #7
     d48:	04180000 	ldreq	r0, [r8], #-0
     d4c:	00000487 	andeq	r0, r0, r7, lsl #9
     d50:	14080102 	strne	r0, [r8], #-258	; 0xfffffefe
     d54:	19000000 	stmdbne	r0, {}	; <UNPREDICTABLE>
     d58:	00000480 	andeq	r0, r0, r0, lsl #9
     d5c:	00066f1a 	andeq	r6, r6, sl, lsl pc
     d60:	28640100 	stmdacs	r4!, {r8}^
     d64:	40000087 	andmi	r0, r0, r7, lsl #1
     d68:	01000000 	mrseq	r0, (UNDEF: 0)
     d6c:	0064149c 	mlseq	r4, ip, r4, r1
     d70:	005a6401 	subseq	r6, sl, r1, lsl #8
     d74:	05000000 	streq	r0, [r0, #-0]
     d78:	72160000 	andsvc	r0, r6, #0
     d7c:	67010062 	strvs	r0, [r1, -r2, rrx]
     d80:	0000005a 	andeq	r0, r0, sl, asr r0
     d84:	0000052c 	andeq	r0, r0, ip, lsr #10
     d88:	00637216 	rsbeq	r7, r3, r6, lsl r2
     d8c:	005a6801 	subseq	r6, sl, r1, lsl #16
     d90:	054c0000 	strbeq	r0, [ip, #-0]
     d94:	541b0000 	ldrpl	r0, [fp], #-0
     d98:	85000087 	strhi	r0, [r0, #-135]	; 0xffffff79
     d9c:	00000003 	andeq	r0, r0, r3
     da0:	1c000005 	stcne	0, cr0, [r0], {5}
     da4:	75285001 	strvc	r5, [r8, #-1]!
     da8:	25007400 	strcs	r7, [r0, #-1024]	; 0xfffffc00
     dac:	37231a3f 			; <UNDEFINED> instruction: 0x37231a3f
     db0:	00740075 	rsbseq	r0, r4, r5, ror r0
     db4:	231a3f25 	tstcs	sl, #37, 30	; 0x94
     db8:	74007530 	strvc	r7, [r0], #-1328	; 0xfffffad0
     dbc:	1a3f2500 	bne	fca1c4 <__kernel_end+0xea91c4>
     dc0:	22244b40 	eorcs	r4, r4, #64, 22	; 0x10000
     dc4:	0000090c 	andeq	r0, r0, ip, lsl #18
     dc8:	01282b80 	smlawbeq	r8, r0, fp, r2
     dcc:	00131600 	andseq	r1, r3, r0, lsl #12
     dd0:	0087681d 	addeq	r6, r7, sp, lsl r8
     dd4:	00038500 	andeq	r8, r3, r0, lsl #10
     dd8:	50011c00 	andpl	r1, r1, r0, lsl #24
     ddc:	00200802 	eoreq	r0, r0, r2, lsl #16
     de0:	02120000 	andseq	r0, r2, #0
     de4:	00040000 	andeq	r0, r4, r0
     de8:	000005ae 	andeq	r0, r0, lr, lsr #11
     dec:	00640104 	rsbeq	r0, r4, r4, lsl #2
     df0:	eb0c0000 	bl	300df8 <__kernel_end+0x1dfdf8>
     df4:	1a000007 	bne	e18 <SCTLR_ENABLE_BRANCH_PREDICTION+0x618>
     df8:	68000001 	stmdavs	r0, {r0}
     dfc:	6c000087 	stcvs	0, cr0, [r0], {135}	; 0x87
     e00:	2d000000 	stccs	0, cr0, [r0, #-0]
     e04:	02000005 	andeq	r0, r0, #5
     e08:	000d0601 	andeq	r0, sp, r1, lsl #12
     e0c:	02020000 	andeq	r0, r2, #0
     e10:	00016b05 	andeq	r6, r1, r5, lsl #22
     e14:	01760300 	cmneq	r6, r0, lsl #6
     e18:	28020000 	stmdacs	r2, {}	; <UNPREDICTABLE>
     e1c:	0000003e 	andeq	r0, r0, lr, lsr r0
     e20:	11050402 	tstne	r5, r2, lsl #8
     e24:	02000001 	andeq	r0, r0, #1
     e28:	010c0508 	tsteq	ip, r8, lsl #10
     e2c:	01020000 	mrseq	r0, (UNDEF: 2)
     e30:	00000b08 	andeq	r0, r0, r8, lsl #22
     e34:	07020200 	streq	r0, [r2, -r0, lsl #4]
     e38:	00000019 	andeq	r0, r0, r9, lsl r0
     e3c:	00017503 	andeq	r7, r1, r3, lsl #10
     e40:	65340200 	ldrvs	r0, [r4, #-512]!	; 0xfffffe00
     e44:	02000000 	andeq	r0, r0, #0
     e48:	00520704 	subseq	r0, r2, r4, lsl #14
     e4c:	08020000 	stmdaeq	r2, {}	; <UNPREDICTABLE>
     e50:	00004d07 	andeq	r4, r0, r7, lsl #26
     e54:	05040400 	streq	r0, [r4, #-1024]	; 0xfffffc00
     e58:	00746e69 	rsbseq	r6, r4, r9, ror #28
     e5c:	57070402 	strpl	r0, [r7, -r2, lsl #8]
     e60:	05000000 	streq	r0, [r0, #-0]
     e64:	0000005a 	andeq	r0, r0, sl, asr r0
     e68:	004c0106 	subeq	r0, ip, r6, lsl #2
     e6c:	0d030000 	stceq	0, cr0, [r3, #-0]
     e70:	000000cf 	andeq	r0, r0, pc, asr #1
     e74:	0007b507 	andeq	fp, r7, r7, lsl #10
     e78:	41070000 	mrsmi	r0, (UNDEF: 7)
     e7c:	01000007 	tsteq	r0, r7
     e80:	0007a407 	andeq	sl, r7, r7, lsl #8
     e84:	62070200 	andvs	r0, r7, #0, 4
     e88:	03000007 	movweq	r0, #7
     e8c:	0007e207 	andeq	lr, r7, r7, lsl #4
     e90:	27070400 	strcs	r0, [r7, -r0, lsl #8]
     e94:	05000008 	streq	r0, [r0, #-8]
     e98:	00076c07 	andeq	r6, r7, r7, lsl #24
     e9c:	36070600 	strcc	r0, [r7], -r0, lsl #12
     ea0:	07000007 	streq	r0, [r0, -r7]
     ea4:	0006f907 	andeq	pc, r6, r7, lsl #18
     ea8:	02070800 	andeq	r0, r7, #0, 16
     eac:	09000008 	stmdbeq	r0, {r3}
     eb0:	07cf0300 	strbeq	r0, [pc, r0, lsl #6]
     eb4:	18030000 	stmdane	r3, {}	; <UNPREDICTABLE>
     eb8:	00000086 	andeq	r0, r0, r6, lsl #1
     ebc:	0006d908 	andeq	sp, r6, r8, lsl #18
     ec0:	007a0400 	rsbseq	r0, sl, r0, lsl #8
     ec4:	1c030000 	stcne	0, cr0, [r3], {-0}
     ec8:	00000106 	andeq	r0, r0, r6, lsl #2
     ecc:	0006cd09 	andeq	ip, r6, r9, lsl #26
     ed0:	00000000 	andeq	r0, r0, r0
     ed4:	077c0980 	ldrbeq	r0, [ip, -r0, lsl #19]!
     ed8:	00000000 	andeq	r0, r0, r0
     edc:	89094000 	stmdbhi	r9, {lr}
     ee0:	ff000007 			; <UNDEFINED> instruction: 0xff000007
     ee4:	00400000 	subeq	r0, r0, r0
     ee8:	2503240a 	strcs	r2, [r3, #-1034]	; 0xfffffbf6
     eec:	00000163 	andeq	r0, r0, r3, ror #2
     ef0:	00075d0b 	andeq	r5, r7, fp, lsl #26
     ef4:	81270300 			; <UNDEFINED> instruction: 0x81270300
     ef8:	00000000 	andeq	r0, r0, r0
     efc:	0008330b 	andeq	r3, r8, fp, lsl #6
     f00:	7a280300 	bvc	a01b08 <__kernel_end+0x8e0b08>
     f04:	04000001 	streq	r0, [r0], #-1
     f08:	0007ca0b 	andeq	ip, r7, fp, lsl #20
     f0c:	81290300 			; <UNDEFINED> instruction: 0x81290300
     f10:	10000000 	andne	r0, r0, r0
     f14:	00072f0b 	andeq	r2, r7, fp, lsl #30
     f18:	812a0300 			; <UNDEFINED> instruction: 0x812a0300
     f1c:	14000000 	strne	r0, [r0], #-0
     f20:	0007120b 	andeq	r1, r7, fp, lsl #4
     f24:	812b0300 			; <UNDEFINED> instruction: 0x812b0300
     f28:	18000000 	stmdane	r0, {}	; <UNPREDICTABLE>
     f2c:	0007960b 	andeq	r9, r7, fp, lsl #12
     f30:	812c0300 			; <UNDEFINED> instruction: 0x812c0300
     f34:	1c000000 	stcne	0, cr0, [r0], {-0}
     f38:	0008210b 	andeq	r2, r8, fp, lsl #2
     f3c:	812d0300 			; <UNDEFINED> instruction: 0x812d0300
     f40:	20000000 	andcs	r0, r0, r0
     f44:	00810c00 	addeq	r0, r1, r0, lsl #24
     f48:	01730000 	cmneq	r3, r0
     f4c:	730d0000 	movwvc	r0, #53248	; 0xd000
     f50:	02000001 	andeq	r0, r0, #1
     f54:	07040200 	streq	r0, [r4, -r0, lsl #4]
     f58:	00000357 	andeq	r0, r0, r7, asr r3
     f5c:	00016305 	andeq	r6, r1, r5, lsl #6
     f60:	07250300 	streq	r0, [r5, -r0, lsl #6]!
     f64:	2e030000 	cdpcs	0, 0, cr0, cr3, cr0, {0}
     f68:	00000106 	andeq	r0, r0, r6, lsl #2
     f6c:	0008150e 	andeq	r1, r8, lr, lsl #10
     f70:	680a0100 	stmdavs	sl, {r8}
     f74:	2c000087 	stccs	0, cr0, [r0], {135}	; 0x87
     f78:	01000000 	mrseq	r0, (UNDEF: 0)
     f7c:	0001be9c 	muleq	r1, ip, lr
     f80:	06f10f00 	ldrbteq	r0, [r1], r0, lsl #30
     f84:	0a010000 	beq	40f8c <__first_lvl_tbl_end+0x1ff8c>
     f88:	000000cf 	andeq	r0, r0, pc, asr #1
     f8c:	0000059d 	muleq	r0, sp, r5
     f90:	00070c0f 	andeq	r0, r7, pc, lsl #24
     f94:	330a0100 	movwcc	r0, #41216	; 0xa100
     f98:	be000000 	cdplt	0, 0, cr0, cr0, cr0, {0}
     f9c:	00000005 	andeq	r0, r0, r5
     fa0:	00075110 	andeq	r5, r7, r0, lsl r1
     fa4:	331d0100 	tstcc	sp, #0, 2
     fa8:	94000000 	strls	r0, [r0], #-0
     fac:	40000087 	andmi	r0, r0, r7, lsl #1
     fb0:	01000000 	mrseq	r0, (UNDEF: 0)
     fb4:	0001f69c 	muleq	r1, ip, r6
     fb8:	06f10f00 	ldrbteq	r0, [r1], r0, lsl #30
     fbc:	1d010000 	stcne	0, cr0, [r1, #-0]
     fc0:	000000cf 	andeq	r0, r0, pc, asr #1
     fc4:	000005e7 	andeq	r0, r0, r7, ror #11
     fc8:	00070c11 	andeq	r0, r7, r1, lsl ip
     fcc:	33210100 			; <UNDEFINED> instruction: 0x33210100
     fd0:	21000000 	mrscs	r0, (UNDEF: 0)
     fd4:	00000006 	andeq	r0, r0, r6
     fd8:	00071912 	andeq	r1, r7, r2, lsl r9
     fdc:	10080100 	andne	r0, r8, r0, lsl #2
     fe0:	80000002 	andhi	r0, r0, r2
     fe4:	133f00b8 	teqne	pc, #184	; 0xb8
     fe8:	00020b04 	andeq	r0, r2, r4, lsl #22
     fec:	017f0500 	cmneq	pc, r0, lsl #10
     ff0:	05140000 	ldreq	r0, [r4, #-0]
     ff4:	00000002 	andeq	r0, r0, r2
     ff8:	0000057a 	andeq	r0, r0, sl, ror r5
     ffc:	06bf0004 	ldrteq	r0, [pc], r4
    1000:	01040000 	mrseq	r0, (UNDEF: 4)
    1004:	00000064 	andeq	r0, r0, r4, rrx
    1008:	000dac0c 	andeq	sl, sp, ip, lsl #24
    100c:	00011a00 	andeq	r1, r1, r0, lsl #20
    1010:	0087d400 	addeq	sp, r7, r0, lsl #8
    1014:	00057400 	andeq	r7, r5, r0, lsl #8
    1018:	00060500 	andeq	r0, r6, r0, lsl #10
    101c:	0b500200 	bleq	1401824 <__kernel_end+0x12e0824>
    1020:	28020000 	stmdacs	r2, {}	; <UNPREDICTABLE>
    1024:	00000030 	andeq	r0, r0, r0, lsr r0
    1028:	00099c03 	andeq	r9, r9, r3, lsl #24
    102c:	00070400 	andeq	r0, r7, r0, lsl #8
    1030:	00000047 	andeq	r0, r0, r7, asr #32
    1034:	000d4404 	andeq	r4, sp, r4, lsl #8
    1038:	00004700 	andeq	r4, r0, r0, lsl #14
    103c:	05000000 	streq	r0, [r0, #-0]
    1040:	099e0204 	ldmibeq	lr, {r2, r9}
    1044:	62020000 	andvs	r0, r2, #0
    1048:	00000025 	andeq	r0, r0, r5, lsr #32
    104c:	0d060106 	stfeqs	f0, [r6, #-24]	; 0xffffffe8
    1050:	06000000 	streq	r0, [r0], -r0
    1054:	016b0502 	cmneq	fp, r2, lsl #10
    1058:	76020000 	strvc	r0, [r2], -r0
    105c:	03000001 	movweq	r0, #1
    1060:	00006d28 	andeq	r6, r0, r8, lsr #26
    1064:	05040600 	streq	r0, [r4, #-1536]	; 0xfffffa00
    1068:	00000111 	andeq	r0, r0, r1, lsl r1
    106c:	0c050806 	stceq	8, cr0, [r5], {6}
    1070:	02000001 	andeq	r0, r0, #1
    1074:	00000372 	andeq	r0, r0, r2, ror r3
    1078:	00862e03 	addeq	r2, r6, r3, lsl #28
    107c:	01060000 	mrseq	r0, (UNDEF: 6)
    1080:	00000b08 	andeq	r0, r0, r8, lsl #22
    1084:	07020600 	streq	r0, [r2, -r0, lsl #12]
    1088:	00000019 	andeq	r0, r0, r9, lsl r0
    108c:	00017502 	andeq	r7, r1, r2, lsl #10
    1090:	9f340300 	svcls	0x00340300
    1094:	06000000 	streq	r0, [r0], -r0
    1098:	00520704 	subseq	r0, r2, r4, lsl #14
    109c:	08060000 	stmdaeq	r6, {}	; <UNPREDICTABLE>
    10a0:	00004d07 	andeq	r4, r0, r7, lsl #26
    10a4:	05040700 	streq	r0, [r4, #-1792]	; 0xfffff900
    10a8:	00746e69 	rsbseq	r6, r4, r9, ror #28
    10ac:	57070406 	strpl	r0, [r7, -r6, lsl #8]
    10b0:	08000000 	stmdaeq	r0, {}	; <UNPREDICTABLE>
    10b4:	00008601 	andeq	r8, r0, r1, lsl #12
    10b8:	040d0400 	streq	r0, [sp], #-1024	; 0xfffffc00
    10bc:	09000001 	stmdbeq	r0, {r0}
    10c0:	000007b5 			; <UNDEFINED> instruction: 0x000007b5
    10c4:	07410900 	strbeq	r0, [r1, -r0, lsl #18]
    10c8:	09010000 	stmdbeq	r1, {}	; <UNPREDICTABLE>
    10cc:	000007a4 	andeq	r0, r0, r4, lsr #15
    10d0:	07620902 	strbeq	r0, [r2, -r2, lsl #18]!
    10d4:	09030000 	stmdbeq	r3, {}	; <UNPREDICTABLE>
    10d8:	000007e2 	andeq	r0, r0, r2, ror #15
    10dc:	08270904 	stmdaeq	r7!, {r2, r8, fp}
    10e0:	09050000 	stmdbeq	r5, {}	; <UNPREDICTABLE>
    10e4:	0000076c 	andeq	r0, r0, ip, ror #14
    10e8:	07360906 	ldreq	r0, [r6, -r6, lsl #18]!
    10ec:	09070000 	stmdbeq	r7, {}	; <UNPREDICTABLE>
    10f0:	000006f9 	strdeq	r0, [r0], -r9
    10f4:	08020908 	stmdaeq	r2, {r3, r8, fp}
    10f8:	00090000 	andeq	r0, r9, r0
    10fc:	57070406 	strpl	r0, [r7, -r6, lsl #8]
    1100:	08000003 	stmdaeq	r0, {r0, r1}
    1104:	0000b404 	andeq	fp, r0, r4, lsl #8
    1108:	510d0500 	tstpl	sp, r0, lsl #10
    110c:	09000003 	stmdbeq	r0, {r0, r1}
    1110:	00000c0e 	andeq	r0, r0, lr, lsl #24
    1114:	0bfa0a01 	bleq	ffe83920 <__kernel_end+0xffd62920>
    1118:	00010000 	andeq	r0, r1, r0
    111c:	740a0001 	strvc	r0, [sl], #-1
    1120:	02000008 	andeq	r0, r0, #8
    1124:	0a000100 	beq	152c <SCTLR_ENABLE_INSTRUCTION_CACHE+0x52c>
    1128:	00000ddf 	ldrdeq	r0, [r0], -pc	; <UNPREDICTABLE>
    112c:	00010003 	andeq	r0, r1, r3
    1130:	00085f0a 	andeq	r5, r8, sl, lsl #30
    1134:	01000400 	tsteq	r0, r0, lsl #8
    1138:	0aa20a00 	beq	fe883940 <__kernel_end+0xfe762940>
    113c:	00050000 	andeq	r0, r5, r0
    1140:	4f0a0001 	svcmi	0x000a0001
    1144:	06000009 	streq	r0, [r0], -r9
    1148:	0a000100 	beq	1550 <SCTLR_ENABLE_INSTRUCTION_CACHE+0x550>
    114c:	00000d1d 	andeq	r0, r0, sp, lsl sp
    1150:	00010007 	andeq	r0, r1, r7
    1154:	000be50a 	andeq	lr, fp, sl, lsl #10
    1158:	05000100 	streq	r0, [r0, #-256]	; 0xffffff00
    115c:	0e070a00 	vmlaeq.f32	s0, s14, s0
    1160:	00010000 	andeq	r0, r1, r0
    1164:	3f0a0006 	svccc	0x000a0006
    1168:	0100000e 	tsteq	r0, lr
    116c:	0a000200 	beq	1974 <SCTLR_ENABLE_INSTRUCTION_CACHE+0x974>
    1170:	00000e5a 	andeq	r0, r0, sl, asr lr
    1174:	00020002 	andeq	r0, r2, r2
    1178:	000aeb0a 	andeq	lr, sl, sl, lsl #22
    117c:	02800100 	addeq	r0, r0, #0, 2
    1180:	0ca60a00 	vstmiaeq	r6!, {s0-s-1}
    1184:	00010000 	andeq	r0, r1, r0
    1188:	730a0003 	movwvc	r0, #40963	; 0xa003
    118c:	01000009 	tsteq	r0, r9
    1190:	0a000380 	beq	1f98 <SCTLR_ENABLE_INSTRUCTION_CACHE+0xf98>
    1194:	0000091e 	andeq	r0, r0, lr, lsl r9
    1198:	00030002 	andeq	r0, r3, r2
    119c:	000c930a 	andeq	r9, ip, sl, lsl #6
    11a0:	03800200 	orreq	r0, r0, #0, 4
    11a4:	09e10a00 	stmibeq	r1!, {r9, fp}^
    11a8:	00040000 	andeq	r0, r4, r0
    11ac:	8b0a0003 	blhi	2811c0 <__kernel_end+0x1601c0>
    11b0:	07000008 	streq	r0, [r0, -r8]
    11b4:	0a000300 	beq	1dbc <SCTLR_ENABLE_INSTRUCTION_CACHE+0xdbc>
    11b8:	00000df9 	strdeq	r0, [r0], -r9
    11bc:	00030009 	andeq	r0, r3, r9
    11c0:	000cba0a 	andeq	fp, ip, sl, lsl #20
    11c4:	03800900 	orreq	r0, r0, #0, 18
    11c8:	0b750a00 	bleq	1d439d0 <__kernel_end+0x1c229d0>
    11cc:	00030000 	andeq	r0, r3, r0
    11d0:	0e0a0003 	cdpeq	0, 0, cr0, cr10, cr3, {0}
    11d4:	03000009 	movweq	r0, #9
    11d8:	0a000380 	beq	1fe0 <SCTLR_ENABLE_INSTRUCTION_CACHE+0xfe0>
    11dc:	00000c7f 	andeq	r0, r0, pc, ror ip
    11e0:	00030005 	andeq	r0, r3, r5
    11e4:	000d090a 	andeq	r0, sp, sl, lsl #18
    11e8:	03000800 	movweq	r0, #2048	; 0x800
    11ec:	08e70a00 	stmiaeq	r7!, {r9, fp}^
    11f0:	00060000 	andeq	r0, r6, r0
    11f4:	310a0003 	tstcc	sl, r3
    11f8:	0a00000c 	beq	1230 <SCTLR_ENABLE_INSTRUCTION_CACHE+0x230>
    11fc:	0a000300 	beq	1e04 <SCTLR_ENABLE_INSTRUCTION_CACHE+0xe04>
    1200:	00000c6b 	andeq	r0, r0, fp, ror #24
    1204:	0003000c 	andeq	r0, r3, ip
    1208:	000aff0a 	andeq	pc, sl, sl, lsl #30
    120c:	03000d00 	movweq	r0, #3328	; 0xd00
    1210:	0dcd0a00 	vstreq	s1, [sp]
    1214:	000e0000 	andeq	r0, lr, r0
    1218:	d80a0003 	stmdale	sl, {r0, r1}
    121c:	0f00000a 	svceq	0x0000000a
    1220:	0a000300 	beq	1e28 <SCTLR_ENABLE_INSTRUCTION_CACHE+0xe28>
    1224:	00000bae 	andeq	r0, r0, lr, lsr #23
    1228:	00030010 	andeq	r0, r3, r0, lsl r0
    122c:	000d870a 	andeq	r8, sp, sl, lsl #14
    1230:	03001400 	movweq	r1, #1024	; 0x400
    1234:	09ce0a00 	stmibeq	lr, {r9, fp}^
    1238:	00200000 	eoreq	r0, r0, r0
    123c:	3c0a0003 	stccc	0, cr0, [sl], {3}
    1240:	0100000b 	tsteq	r0, fp
    1244:	0a000400 	beq	224c <SCTLR_ENABLE_INSTRUCTION_CACHE+0x124c>
    1248:	000008fb 	strdeq	r0, [r0], -fp
    124c:	00048001 	andeq	r8, r4, r1
    1250:	00083d0a 	andeq	r3, r8, sl, lsl #26
    1254:	04000200 	streq	r0, [r0], #-512	; 0xfffffe00
    1258:	08d10a00 	ldmeq	r1, {r9, fp}^
    125c:	00030000 	andeq	r0, r3, r0
    1260:	280a0004 	stmdacs	sl, {r2}
    1264:	0300000e 	movweq	r0, #14
    1268:	0a000440 	beq	2370 <SCTLR_ENABLE_INSTRUCTION_CACHE+0x1370>
    126c:	00000b5f 	andeq	r0, r0, pc, asr fp
    1270:	00048003 	andeq	r8, r4, r3
    1274:	000ac30a 	andeq	ip, sl, sl, lsl #6
    1278:	04000400 	streq	r0, [r0], #-1024	; 0xfffffc00
    127c:	0d520a00 	vldreq	s1, [r2, #-0]
    1280:	40040000 	andmi	r0, r4, r0
    1284:	850a0004 	strhi	r0, [sl, #-4]
    1288:	0400000b 	streq	r0, [r0], #-11
    128c:	0a000480 	beq	2494 <SCTLR_ENABLE_INSTRUCTION_CACHE+0x1494>
    1290:	00000ab5 			; <UNDEFINED> instruction: 0x00000ab5
    1294:	00040005 	andeq	r0, r4, r5
    1298:	000d780a 	andeq	r7, sp, sl, lsl #16
    129c:	04400500 	strbeq	r0, [r0], #-1280	; 0xfffffb00
    12a0:	09310a00 	ldmdbeq	r1!, {r9, fp}
    12a4:	80050000 	andhi	r0, r5, r0
    12a8:	ba0a0004 	blt	2812c0 <__kernel_end+0x1602c0>
    12ac:	06000009 	streq	r0, [r0], -r9
    12b0:	0a000400 	beq	22b8 <SCTLR_ENABLE_INSTRUCTION_CACHE+0x12b8>
    12b4:	00000987 	andeq	r0, r0, r7, lsl #19
    12b8:	00044006 	andeq	r4, r4, r6
    12bc:	000c570a 	andeq	r5, ip, sl, lsl #14
    12c0:	04800600 	streq	r0, [r0], #1536	; 0x600
    12c4:	0b1b0a00 	bleq	6c3acc <__kernel_end+0x5a2acc>
    12c8:	00070000 	andeq	r0, r7, r0
    12cc:	f80a0004 			; <UNDEFINED> instruction: 0xf80a0004
    12d0:	07000009 	streq	r0, [r0, -r9]
    12d4:	0a000440 	beq	23dc <SCTLR_ENABLE_INSTRUCTION_CACHE+0x13dc>
    12d8:	00000ce1 	andeq	r0, r0, r1, ror #25
    12dc:	00048007 	andeq	r8, r4, r7
    12e0:	000b2e0a 	andeq	r2, fp, sl, lsl #28
    12e4:	04000800 	streq	r0, [r0], #-2048	; 0xfffff800
    12e8:	0a8b0a00 	beq	fe2c3af0 <__kernel_end+0xfe1a2af0>
    12ec:	00090000 	andeq	r0, r9, r0
    12f0:	a20a0004 	andge	r0, sl, #4
    12f4:	09000008 	stmdbeq	r0, {r3}
    12f8:	0a000440 	beq	2400 <SCTLR_ENABLE_INSTRUCTION_CACHE+0x1400>
    12fc:	000008ba 			; <UNDEFINED> instruction: 0x000008ba
    1300:	00048009 	andeq	r8, r4, r9
    1304:	00084e0a 	andeq	r4, r8, sl, lsl #28
    1308:	04000a00 	streq	r0, [r0], #-2560	; 0xfffff600
    130c:	0a790a00 	beq	1e43b14 <__kernel_end+0x1d22b14>
    1310:	400a0000 	andmi	r0, sl, r0
    1314:	2c0a0004 	stccs	0, cr0, [sl], {4}
    1318:	0a00000d 	beq	1354 <SCTLR_ENABLE_INSTRUCTION_CACHE+0x354>
    131c:	0a000480 	beq	2524 <SCTLR_ENABLE_INSTRUCTION_CACHE+0x1524>
    1320:	0000093f 	andeq	r0, r0, pc, lsr r9
    1324:	0004000b 	andeq	r0, r4, fp
    1328:	000a260a 	andeq	r2, sl, sl, lsl #12
    132c:	04400b00 	strbeq	r0, [r0], #-2816	; 0xfffff500
    1330:	0cd10a00 	vldmiaeq	r1, {s1-s0}
    1334:	800b0000 	andhi	r0, fp, r0
    1338:	a60b0004 	strge	r0, [fp], -r4
    133c:	11000009 	tstne	r0, r9
    1340:	0cf40b80 	vldmiaeq	r4!, {d16-d15}
    1344:	80100000 	andshi	r0, r0, r0
    1348:	0bbf0200 	bleq	fefc1b50 <__kernel_end+0xfeea0b50>
    134c:	5e050000 	cdppl	0, 0, cr0, cr5, cr0, {0}
    1350:	0000010b 	andeq	r0, r0, fp, lsl #2
    1354:	00860108 	addeq	r0, r6, r8, lsl #2
    1358:	67050000 	strvs	r0, [r5, -r0]
    135c:	00000375 	andeq	r0, r0, r5, ror r3
    1360:	000a1d09 	andeq	r1, sl, r9, lsl #26
    1364:	61090000 	mrsvs	r0, (UNDEF: 9)
    1368:	0100000a 	tsteq	r0, sl
    136c:	86010800 	strhi	r0, [r1], -r0, lsl #16
    1370:	05000000 	streq	r0, [r0, #-0]
    1374:	00039a6d 	andeq	r9, r3, sp, ror #20
    1378:	0bdc0900 	bleq	ff703780 <__kernel_end+0xff5e2780>
    137c:	09000000 	stmdbeq	r0, {}	; <UNPREDICTABLE>
    1380:	00000c49 	andeq	r0, r0, r9, asr #24
    1384:	0e1c0901 	cdpeq	9, 1, cr0, cr12, cr1, {0}
    1388:	09020000 	stmdbeq	r2, {}	; <UNPREDICTABLE>
    138c:	00000cc8 	andeq	r0, r0, r8, asr #25
    1390:	000c0003 	andeq	r0, ip, r3
    1394:	c5780501 	ldrbgt	r0, [r8, #-1281]!	; 0xfffffaff
    1398:	0d000003 	stceq	0, cr0, [r0, #-12]
    139c:	00000d49 	andeq	r0, r0, r9, asr #26
    13a0:	00627905 	rsbeq	r7, r2, r5, lsl #18
    13a4:	610d0000 	mrsvs	r0, (UNDEF: 13)
    13a8:	05000009 	streq	r0, [r0, #-9]
    13ac:	0003c57a 	andeq	ip, r3, sl, ror r5
    13b0:	0c270d00 	stceq	13, cr0, [r7], #-0
    13b4:	7b050000 	blvc	1413bc <__kernel_end+0x203bc>
    13b8:	000003d5 	ldrdeq	r0, [r0], -r5
    13bc:	007b0e00 	rsbseq	r0, fp, r0, lsl #28
    13c0:	03d50000 	bicseq	r0, r5, #0
    13c4:	040f0000 	streq	r0, [pc], #-0	; 13cc <SCTLR_ENABLE_INSTRUCTION_CACHE+0x3cc>
    13c8:	ff000001 			; <UNDEFINED> instruction: 0xff000001
    13cc:	00620e00 	rsbeq	r0, r2, r0, lsl #28
    13d0:	03e50000 	mvneq	r0, #0
    13d4:	040f0000 	streq	r0, [pc], #-0	; 13dc <SCTLR_ENABLE_INSTRUCTION_CACHE+0x3dc>
    13d8:	3f000001 	svccc	0x00000001
    13dc:	01081000 	mrseq	r1, (UNDEF: 8)
    13e0:	04137405 	ldreq	r7, [r3], #-1029	; 0xfffffbfb
    13e4:	74110000 	ldrvc	r0, [r1], #-0
    13e8:	05006761 	streq	r6, [r0, #-1889]	; 0xfffff89f
    13ec:	00006276 	andeq	r6, r0, r6, ror r2
    13f0:	0f120000 	svceq	0x00120000
    13f4:	0500000b 	streq	r0, [r0, #-11]
    13f8:	00006277 	andeq	r6, r0, r7, ror r2
    13fc:	e7120400 	ldr	r0, [r2, -r0, lsl #8]
    1400:	05000005 	streq	r0, [r0, #-5]
    1404:	00039a7c 	andeq	r9, r3, ip, ror sl
    1408:	02000800 	andeq	r0, r0, #0, 16
    140c:	00000a4a 	andeq	r0, r0, sl, asr #20
    1410:	03e57d05 	mvneq	r7, #320	; 0x140
    1414:	08060000 	stmdaeq	r6, {}	; <UNPREDICTABLE>
    1418:	00042e04 	andeq	r2, r4, r4, lsl #28
    141c:	08010600 	stmdaeq	r1, {r9, sl}
    1420:	00000014 	andeq	r0, r0, r4, lsl r0
    1424:	000a0c13 	andeq	r0, sl, r3, lsl ip
    1428:	d4180100 	ldrle	r0, [r8], #-256	; 0xffffff00
    142c:	38000087 	stmdacc	r0, {r0, r1, r2, r7}
    1430:	01000000 	mrseq	r0, (UNDEF: 0)
    1434:	0a37149c 	beq	dc66ac <__kernel_end+0xca56ac>
    1438:	2b010000 	blcs	41440 <__first_lvl_tbl_end+0x20440>
    143c:	0000880c 	andeq	r8, r0, ip, lsl #16
    1440:	00000444 	andeq	r0, r0, r4, asr #8
    1444:	046f9c01 	strbteq	r9, [pc], #-3073	; 144c <SCTLR_ENABLE_INSTRUCTION_CACHE+0x44c>
    1448:	74150000 	ldrvc	r0, [r5], #-0
    144c:	01006761 	tsteq	r0, r1, ror #14
    1450:	0003512b 	andeq	r5, r3, fp, lsr #2
    1454:	70910200 	addsvc	r0, r1, r0, lsl #4
    1458:	6c761716 	ldclvs	7, cr1, [r6], #-88	; 0xffffffa8
    145c:	492d0100 	stmfdmi	sp!, {r8}
    1460:	02000000 	andeq	r0, r0, #0
    1464:	18005491 	stmdane	r0, {r0, r4, r7, sl, ip, lr}
    1468:	00000b9a 	muleq	r0, sl, fp
    146c:	0062ab01 	rsbeq	sl, r2, r1, lsl #22
    1470:	8c500000 	mrahi	r0, r0, acc0
    1474:	004c0000 	subeq	r0, ip, r0
    1478:	9c010000 	stcls	0, cr0, [r1], {-0}
    147c:	000004b6 			; <UNDEFINED> instruction: 0x000004b6
    1480:	000e5319 	andeq	r5, lr, r9, lsl r3
    1484:	62ad0100 	adcvs	r0, sp, #0, 2
    1488:	1a000000 	bne	1490 <SCTLR_ENABLE_INSTRUCTION_CACHE+0x490>
    148c:	00008c88 	andeq	r8, r0, r8, lsl #25
    1490:	0000055c 	andeq	r0, r0, ip, asr r5
    1494:	000004a6 	andeq	r0, r0, r6, lsr #9
    1498:	0150011b 	cmpeq	r0, fp, lsl r1
    149c:	941c0038 	ldrls	r0, [ip], #-56	; 0xffffffc8
    14a0:	6700008c 	strvs	r0, [r0, -ip, lsl #1]
    14a4:	1b000005 	blne	14c0 <SCTLR_ENABLE_INSTRUCTION_CACHE+0x4c0>
    14a8:	38015001 	stmdacc	r1, {r0, ip, lr}
    14ac:	68180000 	ldmdavs	r8, {}	; <UNPREDICTABLE>
    14b0:	0100000d 	tsteq	r0, sp
    14b4:	00051eb8 			; <UNDEFINED> instruction: 0x00051eb8
    14b8:	008c9c00 	addeq	r9, ip, r0, lsl #24
    14bc:	0000ac00 	andeq	sl, r0, r0, lsl #24
    14c0:	1e9c0100 	fmlnee	f0, f4, f0
    14c4:	1d000005 	stcne	0, cr0, [r0, #-20]	; 0xffffffec
    14c8:	00676174 	rsbeq	r6, r7, r4, ror r1
    14cc:	0351b801 	cmpeq	r1, #65536	; 0x10000
    14d0:	064e0000 	strbeq	r0, [lr], -r0
    14d4:	6a1e0000 	bvs	7814dc <__kernel_end+0x6604dc>
    14d8:	01000009 	tsteq	r0, r9
    14dc:	000413ba 			; <UNDEFINED> instruction: 0x000413ba
    14e0:	54030500 	strpl	r0, [r3], #-1280	; 0xfffffb00
    14e4:	1f000142 	svcne	0x00000142
    14e8:	00000bd1 	ldrdeq	r0, [r0], -r1
    14ec:	0524bb01 	streq	fp, [r4, #-2817]!	; 0xfffff4ff
    14f0:	06980000 	ldreq	r0, [r8], r0
    14f4:	a61f0000 	ldrge	r0, [pc], -r0
    14f8:	0100000d 	tsteq	r0, sp
    14fc:	000062c0 	andeq	r6, r0, r0, asr #5
    1500:	0006b700 	andeq	fp, r6, r0, lsl #14
    1504:	8d302000 	ldchi	0, cr2, [r0, #-0]
    1508:	05720000 	ldrbeq	r0, [r2, #-0]!
    150c:	011b0000 	tsteq	fp, r0
    1510:	08740250 	ldmdaeq	r4!, {r4, r6, r9}^
    1514:	04210000 	strteq	r0, [r1], #-0
    1518:	00000413 	andeq	r0, r0, r3, lsl r4
    151c:	00620421 	rsbeq	r0, r2, r1, lsr #8
    1520:	620e0000 	andvs	r0, lr, #0
    1524:	3b000000 	blcc	152c <SCTLR_ENABLE_INSTRUCTION_CACHE+0x52c>
    1528:	22000005 	andcs	r0, r0, #5
    152c:	00000104 	andeq	r0, r0, r4, lsl #2
    1530:	17001fff 			; <UNDEFINED> instruction: 0x17001fff
    1534:	01007470 	tsteq	r0, r0, ror r4
    1538:	00052a0c 	andeq	r2, r5, ip, lsl #20
    153c:	50030500 	andpl	r0, r3, r0, lsl #10
    1540:	1e0000c2 	cdpne	0, 0, cr0, cr0, cr2, {6}
    1544:	00000da3 	andeq	r0, r0, r3, lsr #27
    1548:	00620d01 	rsbeq	r0, r2, r1, lsl #26
    154c:	03050000 	movweq	r0, #20480	; 0x5000
    1550:	00014250 	andeq	r4, r1, r0, asr r2
    1554:	00081523 	andeq	r1, r8, r3, lsr #10
    1558:	00081500 	andeq	r1, r8, r0, lsl #10
    155c:	23300400 	teqcs	r0, #0, 8
    1560:	00000751 	andeq	r0, r0, r1, asr r7
    1564:	00000751 	andeq	r0, r0, r1, asr r7
    1568:	3d233104 	stfccs	f3, [r3, #-16]!
    156c:	3d00000d 	stccc	0, cr0, [r0, #-52]	; 0xffffffcc
    1570:	0600000d 	streq	r0, [r0], -sp
    1574:	0282001b 	addeq	r0, r2, #27
    1578:	00040000 	andeq	r0, r4, r0
    157c:	0000089a 	muleq	r0, sl, r8
    1580:	00640104 	rsbeq	r0, r4, r4, lsl #2
    1584:	110c0000 	mrsne	r0, (UNDEF: 12)
    1588:	1a00000f 	bne	15cc <SCTLR_ENABLE_INSTRUCTION_CACHE+0x5cc>
    158c:	48000001 	stmdami	r0, {r0}
    1590:	3400008d 	strcc	r0, [r0], #-141	; 0xffffff73
    1594:	62000001 	andvs	r0, r0, #1
    1598:	02000008 	andeq	r0, r0, #8
    159c:	000d0601 	andeq	r0, sp, r1, lsl #12
    15a0:	02020000 	andeq	r0, r2, #0
    15a4:	00016b05 	andeq	r6, r1, r5, lsl #22
    15a8:	05040200 	streq	r0, [r4, #-512]	; 0xfffffe00
    15ac:	00000111 	andeq	r0, r0, r1, lsl r1
    15b0:	0c050802 	stceq	8, cr0, [r5], {2}
    15b4:	03000001 	movweq	r0, #1
    15b8:	00000372 	andeq	r0, r0, r2, ror r3
    15bc:	004c2e02 	subeq	r2, ip, r2, lsl #28
    15c0:	01020000 	mrseq	r0, (UNDEF: 2)
    15c4:	00000b08 	andeq	r0, r0, r8, lsl #22
    15c8:	07020200 	streq	r0, [r2, -r0, lsl #4]
    15cc:	00000019 	andeq	r0, r0, r9, lsl r0
    15d0:	00017503 	andeq	r7, r1, r3, lsl #10
    15d4:	65340200 	ldrvs	r0, [r4, #-512]!	; 0xfffffe00
    15d8:	02000000 	andeq	r0, r0, #0
    15dc:	00520704 	subseq	r0, r2, r4, lsl #14
    15e0:	08020000 	stmdaeq	r2, {}	; <UNPREDICTABLE>
    15e4:	00004d07 	andeq	r4, r0, r7, lsl #26
    15e8:	05040400 	streq	r0, [r4, #-1024]	; 0xfffffc00
    15ec:	00746e69 	rsbseq	r6, r4, r9, ror #28
    15f0:	57070402 	strpl	r0, [r7, -r2, lsl #8]
    15f4:	05000000 	streq	r0, [r0, #-0]
    15f8:	0000005a 	andeq	r0, r0, sl, asr r0
    15fc:	0f030406 	svceq	0x00030406
    1600:	000000da 	ldrdeq	r0, [r0], -sl
    1604:	000e9707 	andeq	r9, lr, r7, lsl #14
    1608:	41110300 	tstmi	r1, r0, lsl #6
    160c:	01000000 	mrseq	r0, (UNDEF: 0)
    1610:	07000701 	streq	r0, [r0, -r1, lsl #14]
    1614:	00000f59 	andeq	r0, r0, r9, asr pc
    1618:	00411203 	subeq	r1, r1, r3, lsl #4
    161c:	01010000 	mrseq	r0, (UNDEF: 1)
    1620:	e7070006 	str	r0, [r7, -r6]
    1624:	0300000e 	movweq	r0, #14
    1628:	00004113 	andeq	r4, r0, r3, lsl r1
    162c:	05010100 	streq	r0, [r1, #-256]	; 0xffffff00
    1630:	0ef60700 	cdpeq	7, 15, cr0, cr6, cr0, {0}
    1634:	14030000 	strne	r0, [r3], #-0
    1638:	00000041 	andeq	r0, r0, r1, asr #32
    163c:	00040101 	andeq	r0, r4, r1, lsl #2
    1640:	000f5007 	andeq	r5, pc, r7
    1644:	5a150300 	bpl	54224c <__kernel_end+0x42124c>
    1648:	04000000 	streq	r0, [r0], #-0
    164c:	0000001c 	andeq	r0, r0, ip, lsl r0
    1650:	000f3c03 	andeq	r3, pc, r3, lsl #24
    1654:	86160300 	ldrhi	r0, [r6], -r0, lsl #6
    1658:	06000000 	streq	r0, [r0], -r0
    165c:	4218031c 	andsmi	r0, r8, #28, 6	; 0x70000000
    1660:	08000001 	stmdaeq	r0, {r0}
    1664:	0000036a 	andeq	r0, r0, sl, ror #6
    1668:	00da1a03 	sbcseq	r1, sl, r3, lsl #20
    166c:	08000000 	stmdaeq	r0, {}	; <UNPREDICTABLE>
    1670:	00000f05 	andeq	r0, r0, r5, lsl #30
    1674:	005a1b03 	subseq	r1, sl, r3, lsl #22
    1678:	08040000 	stmdaeq	r4, {}	; <UNPREDICTABLE>
    167c:	00000ec2 	andeq	r0, r0, r2, asr #29
    1680:	005a1c03 	subseq	r1, sl, r3, lsl #24
    1684:	08080000 	stmdaeq	r8, {}	; <UNPREDICTABLE>
    1688:	00000e69 	andeq	r0, r0, r9, ror #28
    168c:	005a1d03 	subseq	r1, sl, r3, lsl #26
    1690:	080c0000 	stmdaeq	ip, {}	; <UNPREDICTABLE>
    1694:	00000e70 	andeq	r0, r0, r0, ror lr
    1698:	005a1e03 	subseq	r1, sl, r3, lsl #28
    169c:	08100000 	ldmdaeq	r0, {}	; <UNPREDICTABLE>
    16a0:	00000e77 	andeq	r0, r0, r7, ror lr
    16a4:	005a1f03 	subseq	r1, sl, r3, lsl #30
    16a8:	08140000 	ldmdaeq	r4, {}	; <UNPREDICTABLE>
    16ac:	00000e7e 	andeq	r0, r0, lr, ror lr
    16b0:	005a2003 	subseq	r2, sl, r3
    16b4:	00180000 	andseq	r0, r8, r0
    16b8:	000f2a03 	andeq	r2, pc, r3, lsl #20
    16bc:	e5210300 	str	r0, [r1, #-768]!	; 0xfffffd00
    16c0:	09000000 	stmdbeq	r0, {}	; <UNPREDICTABLE>
    16c4:	00004c01 	andeq	r4, r0, r1, lsl #24
    16c8:	8a150500 	bhi	542ad0 <__kernel_end+0x421ad0>
    16cc:	0a000001 	beq	16d8 <SCTLR_ENABLE_INSTRUCTION_CACHE+0x6d8>
    16d0:	0000018a 	andeq	r0, r0, sl, lsl #3
    16d4:	03060a01 	movweq	r0, #27137	; 0x6a01
    16d8:	0a020000 	beq	816e0 <__first_lvl_tbl_end+0x606e0>
    16dc:	00000293 	muleq	r0, r3, r2
    16e0:	01c80a04 	biceq	r0, r8, r4, lsl #20
    16e4:	0a080000 	beq	2016ec <__kernel_end+0xe06ec>
    16e8:	00000235 	andeq	r0, r0, r5, lsr r2
    16ec:	02500a10 	subseq	r0, r0, #16, 20	; 0x10000
    16f0:	0a200000 	beq	8016f8 <__kernel_end+0x6e06f8>
    16f4:	00000207 	andeq	r0, r0, r7, lsl #4
    16f8:	02ca0a40 	sbceq	r0, sl, #64, 20	; 0x40000
    16fc:	00800000 	addeq	r0, r0, r0
    1700:	000ecf0b 	andeq	ip, lr, fp, lsl #30
    1704:	48070100 	stmdami	r7, {r8}
    1708:	2400008d 	strcs	r0, [r0], #-141	; 0xffffff73
    170c:	01000000 	mrseq	r0, (UNDEF: 0)
    1710:	0001b29c 	muleq	r1, ip, r2
    1714:	8d580c00 	ldclhi	12, cr0, [r8, #-0]
    1718:	026f0000 	rsbeq	r0, pc, #0
    171c:	680d0000 	stmdavs	sp, {}	; <UNPREDICTABLE>
    1720:	f600008d 			; <UNDEFINED> instruction: 0xf600008d
    1724:	00000001 	andeq	r0, r0, r1
    1728:	000e850b 	andeq	r8, lr, fp, lsl #10
    172c:	6c0d0100 	stfvss	f0, [sp], {-0}
    1730:	3000008d 	andcc	r0, r0, sp, lsl #1
    1734:	01000000 	mrseq	r0, (UNDEF: 0)
    1738:	0001d19c 	muleq	r1, ip, r1
    173c:	8d940d00 	ldchi	13, cr0, [r4]
    1740:	026f0000 	rsbeq	r0, pc, #0
    1744:	0e000000 	cdpeq	0, 0, cr0, cr0, cr0, {0}
    1748:	000001bd 			; <UNDEFINED> instruction: 0x000001bd
    174c:	8d9c1301 	ldchi	3, cr1, [ip, #4]
    1750:	00380000 	eorseq	r0, r8, r0
    1754:	9c010000 	stcls	0, cr0, [r1], {-0}
    1758:	000001f6 	strdeq	r0, [r0], -r6
    175c:	008dc80f 	addeq	ip, sp, pc, lsl #16
    1760:	00027a00 	andeq	r7, r2, r0, lsl #20
    1764:	50011000 	andpl	r1, r1, r0
    1768:	00003101 	andeq	r3, r0, r1, lsl #2
    176c:	000ea60e 	andeq	sl, lr, lr, lsl #12
    1770:	d4190100 	ldrle	r0, [r9], #-256	; 0xffffff00
    1774:	1c00008d 	stcne	0, cr0, [r0], {141}	; 0x8d
    1778:	01000000 	mrseq	r0, (UNDEF: 0)
    177c:	00021b9c 	muleq	r2, ip, fp
    1780:	0ee11100 	cdpeq	1, 14, cr1, cr1, cr0, {0}
    1784:	19010000 	stmdbne	r1, {}	; <UNPREDICTABLE>
    1788:	0000005a 	andeq	r0, r0, sl, asr r0
    178c:	000006e1 	andeq	r0, r0, r1, ror #13
    1790:	0eb00e00 	cdpeq	14, 11, cr0, cr0, cr0, {0}
    1794:	1e010000 	cdpne	0, 0, cr0, cr1, cr0, {0}
    1798:	00008df0 	strdeq	r8, [r0], -r0
    179c:	0000008c 	andeq	r0, r0, ip, lsl #1
    17a0:	02589c01 	subseq	r9, r8, #256	; 0x100
    17a4:	e1120000 	tst	r2, r0
    17a8:	0100000e 	tsteq	r0, lr
    17ac:	00005a1e 	andeq	r5, r0, lr, lsl sl
    17b0:	13500100 	cmpne	r0, #0, 2
    17b4:	00000f25 	andeq	r0, r0, r5, lsr #30
    17b8:	00812001 	addeq	r2, r1, r1
    17bc:	91020000 	mrsls	r0, (UNDEF: 2)
    17c0:	00781474 	rsbseq	r1, r8, r4, ror r4
    17c4:	00812101 	addeq	r2, r1, r1, lsl #2
    17c8:	91020000 	mrsls	r0, (UNDEF: 2)
    17cc:	b7130070 			; <UNDEFINED> instruction: 0xb7130070
    17d0:	0100000e 	tsteq	r0, lr
    17d4:	00026905 	andeq	r6, r2, r5, lsl #18
    17d8:	5c030500 	cfstr32pl	mvfx0, [r3], {-0}
    17dc:	15000143 	strne	r0, [r0, #-323]	; 0xfffffebd
    17e0:	00014204 	andeq	r4, r1, r4, lsl #4
    17e4:	051a1600 	ldreq	r1, [sl, #-1536]	; 0xfffffa00
    17e8:	051a0000 	ldreq	r0, [sl, #-0]
    17ec:	2c040000 	stccs	0, cr0, [r4], {-0}
    17f0:	0003a116 	andeq	sl, r3, r6, lsl r1
    17f4:	0003a100 	andeq	sl, r3, r0, lsl #2
    17f8:	004c0500 	subeq	r0, ip, r0, lsl #10
    17fc:	000007be 			; <UNDEFINED> instruction: 0x000007be
    1800:	09dc0004 	ldmibeq	ip, {r2}^
    1804:	01040000 	mrseq	r0, (UNDEF: 4)
    1808:	00000064 	andeq	r0, r0, r4, rrx
    180c:	000fc20c 	andeq	ip, pc, ip, lsl #4
    1810:	00011a00 	andeq	r1, r1, r0, lsl #20
    1814:	008e7c00 	addeq	r7, lr, r0, lsl #24
    1818:	0002c000 	andeq	ip, r2, r0
    181c:	00095300 	andeq	r5, r9, r0, lsl #6
    1820:	06010200 	streq	r0, [r1], -r0, lsl #4
    1824:	0000000d 	andeq	r0, r0, sp
    1828:	0b080102 	bleq	201c38 <__kernel_end+0xe0c38>
    182c:	02000000 	andeq	r0, r0, #0
    1830:	016b0502 	cmneq	fp, r2, lsl #10
    1834:	02020000 	andeq	r0, r2, #0
    1838:	00001907 	andeq	r1, r0, r7, lsl #18
    183c:	05040200 	streq	r0, [r4, #-512]	; 0xfffffe00
    1840:	00000111 	andeq	r0, r0, r1, lsl r1
    1844:	52070402 	andpl	r0, r7, #33554432	; 0x2000000
    1848:	02000000 	andeq	r0, r0, #0
    184c:	010c0508 	tsteq	ip, r8, lsl #10
    1850:	08020000 	stmdaeq	r2, {}	; <UNPREDICTABLE>
    1854:	00004d07 	andeq	r4, r0, r7, lsl #26
    1858:	05040300 	streq	r0, [r4, #-768]	; 0xfffffd00
    185c:	00746e69 	rsbseq	r6, r4, r9, ror #28
    1860:	57070402 	strpl	r0, [r7, -r2, lsl #8]
    1864:	02000000 	andeq	r0, r0, #0
    1868:	042e0408 	strteq	r0, [lr], #-1032	; 0xfffffbf8
    186c:	76040000 	strvc	r0, [r4], -r0
    1870:	02000001 	andeq	r0, r0, #1
    1874:	00004128 	andeq	r4, r0, r8, lsr #2
    1878:	03720400 	cmneq	r2, #0, 8
    187c:	2e020000 	cdpcs	0, 0, cr0, cr2, cr0, {0}
    1880:	0000002c 	andeq	r0, r0, ip, lsr #32
    1884:	00017504 	andeq	r7, r1, r4, lsl #10
    1888:	48340200 	ldmdami	r4!, {r9}
    188c:	05000000 	streq	r0, [r0, #-0]
    1890:	c9090304 	stmdbgt	r9, {r2, r8, r9}
    1894:	06000000 	streq	r0, [r0], -r0
    1898:	00001098 	muleq	r0, r8, r0
    189c:	007d0b03 	rsbseq	r0, sp, r3, lsl #22
    18a0:	01010000 	mrseq	r0, (UNDEF: 1)
    18a4:	31060007 	tstcc	r6, r7
    18a8:	03000010 	movweq	r0, #16
    18ac:	00007d0c 	andeq	r7, r0, ip, lsl #26
    18b0:	06010100 	streq	r0, [r1], -r0, lsl #2
    18b4:	0f500600 	svceq	0x00500600
    18b8:	0d030000 	stceq	0, cr0, [r3, #-0]
    18bc:	00000088 	andeq	r0, r0, r8, lsl #1
    18c0:	00001e04 	andeq	r1, r0, r4, lsl #28
    18c4:	0ff10400 	svceq	0x00f10400
    18c8:	0e030000 	cdpeq	0, 0, cr0, cr3, cr0, {0}
    18cc:	00000093 	muleq	r0, r3, r0
    18d0:	000fa107 	andeq	sl, pc, r7, lsl #2
    18d4:	10031000 	andne	r1, r3, r0
    18d8:	00000111 	andeq	r0, r0, r1, lsl r1
    18dc:	00108b08 	andseq	r8, r0, r8, lsl #22
    18e0:	88120300 	ldmdahi	r2, {r8, r9}
    18e4:	00000000 	andeq	r0, r0, r0
    18e8:	0010cb08 	andseq	ip, r0, r8, lsl #22
    18ec:	c9130300 	ldmdbgt	r3, {r8, r9}
    18f0:	04000000 	streq	r0, [r0], #-0
    18f4:	00100508 	andseq	r0, r0, r8, lsl #10
    18f8:	11140300 	tstne	r4, r0, lsl #6
    18fc:	08000001 	stmdaeq	r0, {r0}
    1900:	0010d108 	andseq	sp, r0, r8, lsl #2
    1904:	11140300 	tstne	r4, r0, lsl #6
    1908:	0c000001 	stceq	0, cr0, [r0], {1}
    190c:	d4040900 	strle	r0, [r4], #-2304	; 0xfffff700
    1910:	04000000 	streq	r0, [r0], #-0
    1914:	00000ffe 	strdeq	r0, [r0], -lr
    1918:	00d41503 	sbcseq	r1, r4, r3, lsl #10
    191c:	040a0000 	streq	r0, [sl], #-0
    1920:	00000064 	andeq	r0, r0, r4, rrx
    1924:	03680d04 	cmneq	r8, #4, 26	; 0x100
    1928:	0e0b0000 	cdpeq	0, 0, cr0, cr11, cr0, {0}
    192c:	0100000c 	tsteq	r0, ip
    1930:	000bfa0c 	andeq	pc, fp, ip, lsl #20
    1934:	01000100 	mrseq	r0, (UNDEF: 16)
    1938:	08740c00 	ldmdaeq	r4!, {sl, fp}^
    193c:	00020000 	andeq	r0, r2, r0
    1940:	df0c0001 	svcle	0x000c0001
    1944:	0300000d 	movweq	r0, #13
    1948:	0c000100 	stfeqs	f0, [r0], {-0}
    194c:	0000085f 	andeq	r0, r0, pc, asr r8
    1950:	00010004 	andeq	r0, r1, r4
    1954:	000aa20c 	andeq	sl, sl, ip, lsl #4
    1958:	01000500 	tsteq	r0, r0, lsl #10
    195c:	094f0c00 	stmdbeq	pc, {sl, fp}^	; <UNPREDICTABLE>
    1960:	00060000 	andeq	r0, r6, r0
    1964:	1d0c0001 	stcne	0, cr0, [ip, #-4]
    1968:	0700000d 	streq	r0, [r0, -sp]
    196c:	0c000100 	stfeqs	f0, [r0], {-0}
    1970:	00000be5 	andeq	r0, r0, r5, ror #23
    1974:	00050001 	andeq	r0, r5, r1
    1978:	000e070c 	andeq	r0, lr, ip, lsl #14
    197c:	06000100 	streq	r0, [r0], -r0, lsl #2
    1980:	0e3f0c00 	cdpeq	12, 3, cr0, cr15, cr0, {0}
    1984:	00010000 	andeq	r0, r1, r0
    1988:	5a0c0002 	bpl	301998 <__kernel_end+0x1e0998>
    198c:	0200000e 	andeq	r0, r0, #14
    1990:	0c000200 	sfmeq	f0, 4, [r0], {-0}
    1994:	00000aeb 	andeq	r0, r0, fp, ror #21
    1998:	00028001 	andeq	r8, r2, r1
    199c:	000ca60c 	andeq	sl, ip, ip, lsl #12
    19a0:	03000100 	movweq	r0, #256	; 0x100
    19a4:	09730c00 	ldmdbeq	r3!, {sl, fp}^
    19a8:	80010000 	andhi	r0, r1, r0
    19ac:	1e0c0003 	cdpne	0, 0, cr0, cr12, cr3, {0}
    19b0:	02000009 	andeq	r0, r0, #9
    19b4:	0c000300 	stceq	3, cr0, [r0], {-0}
    19b8:	00000c93 	muleq	r0, r3, ip
    19bc:	00038002 	andeq	r8, r3, r2
    19c0:	0009e10c 	andeq	lr, r9, ip, lsl #2
    19c4:	03000400 	movweq	r0, #1024	; 0x400
    19c8:	088b0c00 	stmeq	fp, {sl, fp}
    19cc:	00070000 	andeq	r0, r7, r0
    19d0:	f90c0003 			; <UNDEFINED> instruction: 0xf90c0003
    19d4:	0900000d 	stmdbeq	r0, {r0, r2, r3}
    19d8:	0c000300 	stceq	3, cr0, [r0], {-0}
    19dc:	00000cba 			; <UNDEFINED> instruction: 0x00000cba
    19e0:	00038009 	andeq	r8, r3, r9
    19e4:	000b750c 	andeq	r7, fp, ip, lsl #10
    19e8:	03000300 	movweq	r0, #768	; 0x300
    19ec:	090e0c00 	stmdbeq	lr, {sl, fp}
    19f0:	80030000 	andhi	r0, r3, r0
    19f4:	7f0c0003 	svcvc	0x000c0003
    19f8:	0500000c 	streq	r0, [r0, #-12]
    19fc:	0c000300 	stceq	3, cr0, [r0], {-0}
    1a00:	00000d09 	andeq	r0, r0, r9, lsl #26
    1a04:	00030008 	andeq	r0, r3, r8
    1a08:	0008e70c 	andeq	lr, r8, ip, lsl #14
    1a0c:	03000600 	movweq	r0, #1536	; 0x600
    1a10:	0c310c00 	ldceq	12, cr0, [r1], #-0
    1a14:	000a0000 	andeq	r0, sl, r0
    1a18:	6b0c0003 	blvs	301a2c <__kernel_end+0x1e0a2c>
    1a1c:	0c00000c 	stceq	0, cr0, [r0], {12}
    1a20:	0c000300 	stceq	3, cr0, [r0], {-0}
    1a24:	00000aff 	strdeq	r0, [r0], -pc	; <UNPREDICTABLE>
    1a28:	0003000d 	andeq	r0, r3, sp
    1a2c:	000dcd0c 	andeq	ip, sp, ip, lsl #26
    1a30:	03000e00 	movweq	r0, #3584	; 0xe00
    1a34:	0ad80c00 	beq	ff604a3c <__kernel_end+0xff4e3a3c>
    1a38:	000f0000 	andeq	r0, pc, r0
    1a3c:	ae0c0003 	cdpge	0, 0, cr0, cr12, cr3, {0}
    1a40:	1000000b 	andne	r0, r0, fp
    1a44:	0c000300 	stceq	3, cr0, [r0], {-0}
    1a48:	00000d87 	andeq	r0, r0, r7, lsl #27
    1a4c:	00030014 	andeq	r0, r3, r4, lsl r0
    1a50:	0009ce0c 	andeq	ip, r9, ip, lsl #28
    1a54:	03002000 	movweq	r2, #0
    1a58:	0b3c0c00 	bleq	f04a60 <__kernel_end+0xde3a60>
    1a5c:	00010000 	andeq	r0, r1, r0
    1a60:	fb0c0004 	blx	301a7a <__kernel_end+0x1e0a7a>
    1a64:	01000008 	tsteq	r0, r8
    1a68:	0c000480 	cfstrseq	mvf0, [r0], {128}	; 0x80
    1a6c:	0000083d 	andeq	r0, r0, sp, lsr r8
    1a70:	00040002 	andeq	r0, r4, r2
    1a74:	0008d10c 	andeq	sp, r8, ip, lsl #2
    1a78:	04000300 	streq	r0, [r0], #-768	; 0xfffffd00
    1a7c:	0e280c00 	cdpeq	12, 2, cr0, cr8, cr0, {0}
    1a80:	40030000 	andmi	r0, r3, r0
    1a84:	5f0c0004 	svcpl	0x000c0004
    1a88:	0300000b 	movweq	r0, #11
    1a8c:	0c000480 	cfstrseq	mvf0, [r0], {128}	; 0x80
    1a90:	00000ac3 	andeq	r0, r0, r3, asr #21
    1a94:	00040004 	andeq	r0, r4, r4
    1a98:	000d520c 	andeq	r5, sp, ip, lsl #4
    1a9c:	04400400 	strbeq	r0, [r0], #-1024	; 0xfffffc00
    1aa0:	0b850c00 	bleq	fe144aa8 <__kernel_end+0xfe023aa8>
    1aa4:	80040000 	andhi	r0, r4, r0
    1aa8:	b50c0004 	strlt	r0, [ip, #-4]
    1aac:	0500000a 	streq	r0, [r0, #-10]
    1ab0:	0c000400 	cfstrseq	mvf0, [r0], {-0}
    1ab4:	00000d78 	andeq	r0, r0, r8, ror sp
    1ab8:	00044005 	andeq	r4, r4, r5
    1abc:	0009310c 	andeq	r3, r9, ip, lsl #2
    1ac0:	04800500 	streq	r0, [r0], #1280	; 0x500
    1ac4:	09ba0c00 	ldmibeq	sl!, {sl, fp}
    1ac8:	00060000 	andeq	r0, r6, r0
    1acc:	870c0004 	strhi	r0, [ip, -r4]
    1ad0:	06000009 	streq	r0, [r0], -r9
    1ad4:	0c000440 	cfstrseq	mvf0, [r0], {64}	; 0x40
    1ad8:	00000c57 	andeq	r0, r0, r7, asr ip
    1adc:	00048006 	andeq	r8, r4, r6
    1ae0:	000b1b0c 	andeq	r1, fp, ip, lsl #22
    1ae4:	04000700 	streq	r0, [r0], #-1792	; 0xfffff900
    1ae8:	09f80c00 	ldmibeq	r8!, {sl, fp}^
    1aec:	40070000 	andmi	r0, r7, r0
    1af0:	e10c0004 	tst	ip, r4
    1af4:	0700000c 	streq	r0, [r0, -ip]
    1af8:	0c000480 	cfstrseq	mvf0, [r0], {128}	; 0x80
    1afc:	00000b2e 	andeq	r0, r0, lr, lsr #22
    1b00:	00040008 	andeq	r0, r4, r8
    1b04:	000a8b0c 	andeq	r8, sl, ip, lsl #22
    1b08:	04000900 	streq	r0, [r0], #-2304	; 0xfffff700
    1b0c:	08a20c00 	stmiaeq	r2!, {sl, fp}
    1b10:	40090000 	andmi	r0, r9, r0
    1b14:	ba0c0004 	blt	301b2c <__kernel_end+0x1e0b2c>
    1b18:	09000008 	stmdbeq	r0, {r3}
    1b1c:	0c000480 	cfstrseq	mvf0, [r0], {128}	; 0x80
    1b20:	0000084e 	andeq	r0, r0, lr, asr #16
    1b24:	0004000a 	andeq	r0, r4, sl
    1b28:	000a790c 	andeq	r7, sl, ip, lsl #18
    1b2c:	04400a00 	strbeq	r0, [r0], #-2560	; 0xfffff600
    1b30:	0d2c0c00 	stceq	12, cr0, [ip, #-0]
    1b34:	800a0000 	andhi	r0, sl, r0
    1b38:	3f0c0004 	svccc	0x000c0004
    1b3c:	0b000009 	bleq	1b68 <SCTLR_ENABLE_INSTRUCTION_CACHE+0xb68>
    1b40:	0c000400 	cfstrseq	mvf0, [r0], {-0}
    1b44:	00000a26 	andeq	r0, r0, r6, lsr #20
    1b48:	0004400b 	andeq	r4, r4, fp
    1b4c:	000cd10c 	andeq	sp, ip, ip, lsl #2
    1b50:	04800b00 	streq	r0, [r0], #2816	; 0xb00
    1b54:	09a60d00 	stmibeq	r6!, {r8, sl, fp}
    1b58:	80110000 	andshi	r0, r1, r0
    1b5c:	000cf40d 	andeq	pc, ip, sp, lsl #8
    1b60:	00801000 	addeq	r1, r0, r0
    1b64:	0401000e 	streq	r0, [r1], #-14
    1b68:	00039378 	andeq	r9, r3, r8, ror r3
    1b6c:	0d490f00 	stcleq	15, cr0, [r9, #-0]
    1b70:	79040000 	stmdbvc	r4, {}	; <UNPREDICTABLE>
    1b74:	00000072 	andeq	r0, r0, r2, ror r0
    1b78:	0009610f 	andeq	r6, r9, pc, lsl #2
    1b7c:	937a0400 	cmnls	sl, #0, 8
    1b80:	0f000003 	svceq	0x00000003
    1b84:	00000c27 	andeq	r0, r0, r7, lsr #24
    1b88:	03aa7b04 			; <UNDEFINED> instruction: 0x03aa7b04
    1b8c:	10000000 	andne	r0, r0, r0
    1b90:	0000007d 	andeq	r0, r0, sp, ror r0
    1b94:	000003a3 	andeq	r0, r0, r3, lsr #7
    1b98:	0003a311 	andeq	sl, r3, r1, lsl r3
    1b9c:	0200ff00 	andeq	pc, r0, #0, 30
    1ba0:	03570704 	cmpeq	r7, #4, 14	; 0x100000
    1ba4:	72100000 	andsvc	r0, r0, #0
    1ba8:	ba000000 	blt	1bb0 <SCTLR_ENABLE_INSTRUCTION_CACHE+0xbb0>
    1bac:	11000003 	tstne	r0, r3
    1bb0:	000003a3 	andeq	r0, r0, r3, lsr #7
    1bb4:	0812003f 	ldmdaeq	r2, {r0, r1, r2, r3, r4, r5}
    1bb8:	e8740401 	ldmda	r4!, {r0, sl}^
    1bbc:	13000003 	movwne	r0, #3
    1bc0:	00676174 	rsbeq	r6, r7, r4, ror r1
    1bc4:	00727604 	rsbseq	r7, r2, r4, lsl #12
    1bc8:	08000000 	stmdaeq	r0, {}	; <UNPREDICTABLE>
    1bcc:	00000b0f 	andeq	r0, r0, pc, lsl #22
    1bd0:	00727704 	rsbseq	r7, r2, r4, lsl #14
    1bd4:	08040000 	stmdaeq	r4, {}	; <UNPREDICTABLE>
    1bd8:	000005e7 	andeq	r0, r0, r7, ror #11
    1bdc:	03687c04 	cmneq	r8, #4, 24	; 0x400
    1be0:	00080000 	andeq	r0, r8, r0
    1be4:	000a4a04 	andeq	r4, sl, r4, lsl #20
    1be8:	ba7d0400 	blt	1f42bf0 <__kernel_end+0x1e21bf0>
    1bec:	07000003 	streq	r0, [r0, -r3]
    1bf0:	00000f92 	muleq	r0, r2, pc	; <UNPREDICTABLE>
    1bf4:	240e010c 	strcs	r0, [lr], #-268	; 0xfffffef4
    1bf8:	08000004 	stmdaeq	r0, {r2}
    1bfc:	00001063 	andeq	r1, r0, r3, rrx
    1c00:	01110e01 	tsteq	r1, r1, lsl #28
    1c04:	08000000 	stmdaeq	r0, {}	; <UNPREDICTABLE>
    1c08:	00001018 	andeq	r1, r0, r8, lsl r0
    1c0c:	01110e01 	tsteq	r1, r1, lsl #28
    1c10:	08040000 	stmdaeq	r4, {}	; <UNPREDICTABLE>
    1c14:	00001086 	andeq	r1, r0, r6, lsl #1
    1c18:	00880e01 	addeq	r0, r8, r1, lsl #28
    1c1c:	00080000 	andeq	r0, r8, r0
    1c20:	00106804 	andseq	r6, r0, r4, lsl #16
    1c24:	f30e0100 	vrhadd.u8	d0, d14, d0
    1c28:	14000003 	strne	r0, [r0], #-3
    1c2c:	00000fe4 	andeq	r0, r0, r4, ror #31
    1c30:	00885c01 	addeq	r5, r8, r1, lsl #24
    1c34:	4a010000 	bmi	41c3c <__first_lvl_tbl_end+0x20c3c>
    1c38:	15000004 	strne	r0, [r0, #-4]
    1c3c:	0100706d 	tsteq	r0, sp, rrx
    1c40:	00044a67 	andeq	r4, r4, r7, ror #20
    1c44:	04090000 	streq	r0, [r9], #-0
    1c48:	000003e8 	andeq	r0, r0, r8, ror #7
    1c4c:	0010b116 	andseq	fp, r0, r6, lsl r1
    1c50:	7c0f0100 	stfvcs	f0, [pc], {-0}
    1c54:	2400008e 	strcs	r0, [r0], #-142	; 0xffffff72
    1c58:	01000000 	mrseq	r0, (UNDEF: 0)
    1c5c:	0004809c 	muleq	r4, ip, r0
    1c60:	09a11700 	stmibeq	r1!, {r8, r9, sl, ip}
    1c64:	0f010000 	svceq	0x00010000
    1c68:	00000480 	andeq	r0, r0, r0, lsl #9
    1c6c:	2c175001 	ldccs	0, cr5, [r7], {1}
    1c70:	01000010 	tsteq	r0, r0, lsl r0
    1c74:	0001110f 	andeq	r1, r1, pc, lsl #2
    1c78:	00510100 	subseq	r0, r1, r0, lsl #2
    1c7c:	04240409 	strteq	r0, [r4], #-1033	; 0xfffffbf7
    1c80:	3d160000 	ldccc	0, cr0, [r6, #-0]
    1c84:	01000010 	tsteq	r0, r0, lsl r0
    1c88:	008ea00f 	addeq	sl, lr, pc
    1c8c:	00002400 	andeq	r2, r0, r0, lsl #8
    1c90:	b69c0100 	ldrlt	r0, [ip], r0, lsl #2
    1c94:	17000004 	strne	r0, [r0, -r4]
    1c98:	000009a1 	andeq	r0, r0, r1, lsr #19
    1c9c:	04800f01 	streq	r0, [r0], #3841	; 0xf01
    1ca0:	50010000 	andpl	r0, r1, r0
    1ca4:	00102c17 	andseq	r2, r0, r7, lsl ip
    1ca8:	110f0100 	mrsne	r0, (UNDEF: 31)
    1cac:	01000001 	tsteq	r0, r1
    1cb0:	d5180051 	ldrle	r0, [r8, #-81]	; 0xffffffaf
    1cb4:	0100000f 	tsteq	r0, pc
    1cb8:	0001110f 	andeq	r1, r1, pc, lsl #2
    1cbc:	008ec400 	addeq	ip, lr, r0, lsl #8
    1cc0:	00000800 	andeq	r0, r0, r0, lsl #16
    1cc4:	df9c0100 	svcle	0x009c0100
    1cc8:	19000004 	stmdbne	r0, {r2}
    1ccc:	000009a1 	andeq	r0, r0, r1, lsr #19
    1cd0:	04800f01 	streq	r0, [r0], #3841	; 0xf01
    1cd4:	07020000 	streq	r0, [r2, -r0]
    1cd8:	18000000 	stmdane	r0, {}	; <UNPREDICTABLE>
    1cdc:	00001055 	andeq	r1, r0, r5, asr r0
    1ce0:	01110f01 	tsteq	r1, r1, lsl #30
    1ce4:	8ecc0000 	cdphi	0, 12, cr0, cr12, cr0, {0}
    1ce8:	002c0000 	eoreq	r0, ip, r0
    1cec:	9c010000 	stcls	0, cr0, [r1], {-0}
    1cf0:	00000517 	andeq	r0, r0, r7, lsl r5
    1cf4:	0009a119 	andeq	sl, r9, r9, lsl r1
    1cf8:	800f0100 	andhi	r0, pc, r0, lsl #2
    1cfc:	23000004 	movwcs	r0, #4
    1d00:	1a000007 	bne	1d24 <SCTLR_ENABLE_INSTRUCTION_CACHE+0xd24>
    1d04:	00736572 	rsbseq	r6, r3, r2, ror r5
    1d08:	01110f01 	tsteq	r1, r1, lsl #30
    1d0c:	07410000 	strbeq	r0, [r1, -r0]
    1d10:	18000000 	stmdane	r0, {}	; <UNPREDICTABLE>
    1d14:	000010a2 	andeq	r1, r0, r2, lsr #1
    1d18:	00880f01 	addeq	r0, r8, r1, lsl #30
    1d1c:	8ef80000 	cdphi	0, 15, cr0, cr8, cr0, {0}
    1d20:	00080000 	andeq	r0, r8, r0
    1d24:	9c010000 	stcls	0, cr0, [r1], {-0}
    1d28:	00000540 	andeq	r0, r0, r0, asr #10
    1d2c:	0009a119 	andeq	sl, r9, r9, lsl r1
    1d30:	800f0100 	andhi	r0, pc, r0, lsl #2
    1d34:	5f000004 	svcpl	0x00000004
    1d38:	00000007 	andeq	r0, r0, r7
    1d3c:	00101d18 	andseq	r1, r0, r8, lsl sp
    1d40:	110f0100 	mrsne	r0, (UNDEF: 31)
    1d44:	00000001 	andeq	r0, r0, r1
    1d48:	0800008f 	stmdaeq	r0, {r0, r1, r2, r3, r7}
    1d4c:	01000000 	mrseq	r0, (UNDEF: 0)
    1d50:	0005699c 	muleq	r5, ip, r9
    1d54:	102c1900 	eorne	r1, ip, r0, lsl #18
    1d58:	0f010000 	svceq	0x00010000
    1d5c:	00000111 	andeq	r0, r0, r1, lsl r1
    1d60:	00000780 	andeq	r0, r0, r0, lsl #15
    1d64:	0f7c1b00 	svceq	0x007c1b00
    1d68:	14010000 	strne	r0, [r1], #-0
    1d6c:	00000088 	andeq	r0, r0, r8, lsl #1
    1d70:	00008f08 	andeq	r8, r0, r8, lsl #30
    1d74:	0000001c 	andeq	r0, r0, ip, lsl r0
    1d78:	058c9c01 	streq	r9, [ip, #3073]	; 0xc01
    1d7c:	1c1c0000 	ldcne	0, cr0, [ip], {-0}
    1d80:	1700008f 	strne	r0, [r0, -pc, lsl #1]
    1d84:	00000005 	andeq	r0, r0, r5
    1d88:	000f9b18 	andeq	r9, pc, r8, lsl fp	; <UNPREDICTABLE>
    1d8c:	013a0100 	teqeq	sl, r0, lsl #2
    1d90:	24000006 	strcs	r0, [r0], #-6
    1d94:	6c00008f 	stcvs	0, cr0, [r0], {143}	; 0x8f
    1d98:	01000000 	mrseq	r0, (UNDEF: 0)
    1d9c:	0006019c 	muleq	r6, ip, r1
    1da0:	0fa11d00 	svceq	0x00a11d00
    1da4:	3c010000 	stccc	0, cr0, [r1], {-0}
    1da8:	00000603 	andeq	r0, r0, r3, lsl #12
    1dac:	000007a1 	andeq	r0, r0, r1, lsr #15
    1db0:	0010c21e 	andseq	ip, r0, lr, lsl r2
    1db4:	013d0100 	teqeq	sp, r0, lsl #2
    1db8:	01000006 	tsteq	r0, r6
    1dbc:	8f401f54 	svchi	0x00401f54
    1dc0:	05170000 	ldreq	r0, [r7, #-0]
    1dc4:	05d50000 	ldrbeq	r0, [r5]
    1dc8:	01200000 			; <UNDEFINED> instruction: 0x01200000
    1dcc:	00740250 	rsbseq	r0, r4, r0, asr r2
    1dd0:	8f501f00 	svchi	0x00501f00
    1dd4:	04df0000 	ldrbeq	r0, [pc], #0	; 1ddc <SCTLR_ENABLE_INSTRUCTION_CACHE+0xddc>
    1dd8:	05e90000 	strbeq	r0, [r9, #0]!
    1ddc:	01200000 			; <UNDEFINED> instruction: 0x01200000
    1de0:	00740250 	rsbseq	r0, r4, r0, asr r2
    1de4:	8f7c2100 	svchi	0x007c2100
    1de8:	077f0000 	ldrbeq	r0, [pc, -r0]!
    1dec:	01200000 			; <UNDEFINED> instruction: 0x01200000
    1df0:	00740250 	rsbseq	r0, r4, r0, asr r2
    1df4:	03510120 	cmpeq	r1, #32, 2
    1df8:	0010000a 	andseq	r0, r0, sl
    1dfc:	09042200 	stmdbeq	r4, {r9, sp}
    1e00:	00011704 	andeq	r1, r1, r4, lsl #14
    1e04:	100e1600 	andne	r1, lr, r0, lsl #12
    1e08:	50010000 	andpl	r0, r1, r0
    1e0c:	00008f90 	muleq	r0, r0, pc	; <UNPREDICTABLE>
    1e10:	00000044 	andeq	r0, r0, r4, asr #32
    1e14:	06469c01 	strbeq	r9, [r6], -r1, lsl #24
    1e18:	70230000 	eorvc	r0, r3, r0
    1e1c:	01007274 	tsteq	r0, r4, ror r2
    1e20:	00060150 	andeq	r0, r6, r0, asr r1
    1e24:	0007b400 	andeq	fp, r7, r0, lsl #8
    1e28:	0fa11d00 	svceq	0x00a11d00
    1e2c:	52010000 	andpl	r0, r1, #0
    1e30:	00000603 	andeq	r0, r0, r3, lsl #12
    1e34:	000007d5 	ldrdeq	r0, [r0], -r5
    1e38:	008fc81c 	addeq	ip, pc, ip, lsl r8	; <UNPREDICTABLE>
    1e3c:	00045000 	andeq	r5, r4, r0
    1e40:	2f240000 	svccs	0x00240000
    1e44:	d4000004 	strle	r0, [r0], #-4
    1e48:	5000008f 	andpl	r0, r0, pc, lsl #1
    1e4c:	01000000 	mrseq	r0, (UNDEF: 0)
    1e50:	0006969c 	muleq	r6, ip, r6
    1e54:	043f2500 	ldrteq	r2, [pc], #-1280	; 1e5c <SCTLR_ENABLE_INSTRUCTION_CACHE+0xe5c>
    1e58:	ec260000 	stc	0, cr0, [r6], #-0
    1e5c:	3000008f 	andcc	r0, r0, pc, lsl #1
    1e60:	27000000 	strcs	r0, [r0, -r0]
    1e64:	0000043f 	andeq	r0, r0, pc, lsr r4
    1e68:	000007f3 	strdeq	r0, [r0], -r3
    1e6c:	008ff028 	addeq	pc, pc, r8, lsr #32
    1e70:	00078a00 	andeq	r8, r7, r0, lsl #20
    1e74:	8ffc2800 	svchi	0x00fc2800
    1e78:	07950000 	ldreq	r0, [r5, r0]
    1e7c:	00280000 	eoreq	r0, r8, r0
    1e80:	a0000090 	mulge	r0, r0, r0
    1e84:	28000007 	stmdacs	r0, {r0, r1, r2}
    1e88:	0000900c 	andeq	r9, r0, ip
    1e8c:	000007ab 	andeq	r0, r0, fp, lsr #15
    1e90:	4c290000 	stcmi	0, cr0, [r9], #-0
    1e94:	01000010 	tsteq	r0, r0, lsl r0
    1e98:	00902419 	addseq	r2, r0, r9, lsl r4
    1e9c:	00011800 	andeq	r1, r1, r0, lsl #16
    1ea0:	309c0100 	addscc	r0, ip, r0, lsl #2
    1ea4:	1d000007 	stcne	0, cr0, [r0, #-28]	; 0xffffffe4
    1ea8:	00001082 	andeq	r1, r0, r2, lsl #1
    1eac:	00881b01 	addeq	r1, r8, r1, lsl #22
    1eb0:	08060000 	stmdaeq	r6, {}	; <UNPREDICTABLE>
    1eb4:	b31d0000 	tstlt	sp, #0
    1eb8:	0100000f 	tsteq	r0, pc
    1ebc:	0000881b 	andeq	r8, r0, fp, lsl r8
    1ec0:	00082400 	andeq	r2, r8, r0, lsl #8
    1ec4:	0fa61d00 	svceq	0x00a61d00
    1ec8:	1b010000 	blne	41ed0 <__first_lvl_tbl_end+0x20ed0>
    1ecc:	00000088 	andeq	r0, r0, r8, lsl #1
    1ed0:	00000846 	andeq	r0, r0, r6, asr #16
    1ed4:	0100691a 	tsteq	r0, sl, lsl r9
    1ed8:	0000881b 	andeq	r8, r0, fp, lsl r8
    1edc:	00086800 	andeq	r6, r8, r0, lsl #16
    1ee0:	902c2800 	eorls	r2, ip, r0, lsl #16
    1ee4:	042f0000 	strteq	r0, [pc], #-0	; 1eec <SCTLR_ENABLE_INSTRUCTION_CACHE+0xeec>
    1ee8:	48280000 	stmdami	r8!, {}	; <UNPREDICTABLE>
    1eec:	b6000090 			; <UNDEFINED> instruction: 0xb6000090
    1ef0:	1f000007 	svcne	0x00000007
    1ef4:	00009068 	andeq	r9, r0, r8, rrx
    1ef8:	000007b6 			; <UNDEFINED> instruction: 0x000007b6
    1efc:	0000070b 	andeq	r0, r0, fp, lsl #14
    1f00:	02510120 	subseq	r0, r1, #32, 2
    1f04:	1f000074 	svcne	0x00000074
    1f08:	00009084 	andeq	r9, r0, r4, lsl #1
    1f0c:	0000077f 	andeq	r0, r0, pc, ror r7
    1f10:	0000071f 	andeq	r0, r0, pc, lsl r7
    1f14:	02500120 	subseq	r0, r0, #32, 2
    1f18:	21000074 	tstcs	r0, r4, ror r0
    1f1c:	00009110 	andeq	r9, r0, r0, lsl r1
    1f20:	00000450 	andeq	r0, r0, r0, asr r4
    1f24:	02500120 	subseq	r0, r0, #32, 2
    1f28:	00000075 	andeq	r0, r0, r5, ror r0
    1f2c:	00107e1e 	andseq	r7, r0, lr, lsl lr
    1f30:	88070100 	stmdahi	r7, {r8}
    1f34:	05000000 	streq	r0, [r0, #-0]
    1f38:	01436403 	cmpeq	r3, r3, lsl #8
    1f3c:	10741e00 	rsbsne	r1, r4, r0, lsl #28
    1f40:	0c010000 	stceq	0, cr0, [r1], {-0}
    1f44:	00000088 	andeq	r0, r0, r8, lsl #1
    1f48:	43680305 	cmnmi	r8, #335544320	; 0x14000000
    1f4c:	da1e0001 	ble	781f58 <__kernel_end+0x660f58>
    1f50:	01000010 	tsteq	r0, r0, lsl r0
    1f54:	00060311 	andeq	r0, r6, r1, lsl r3
    1f58:	60030500 	andvs	r0, r3, r0, lsl #10
    1f5c:	2a000143 	bcs	2470 <SCTLR_ENABLE_INSTRUCTION_CACHE+0x1470>
    1f60:	00000f6f 	andeq	r0, r0, pc, ror #30
    1f64:	007d0901 	rsbseq	r0, sp, r1, lsl #18
    1f68:	872b0000 	strhi	r0, [fp, -r0]!
    1f6c:	0100000f 	tsteq	r0, pc
    1f70:	00042412 	andeq	r2, r4, r2, lsl r4
    1f74:	70030500 	andvc	r0, r3, r0, lsl #10
    1f78:	2c000143 	stfcss	f0, [r0], {67}	; 0x43
    1f7c:	00000360 	andeq	r0, r0, r0, ror #6
    1f80:	00000360 	andeq	r0, r0, r0, ror #6
    1f84:	0c2c0a01 	stceq	10, cr0, [ip], #-4
    1f88:	0c00000a 	stceq	0, cr0, [r0], {10}
    1f8c:	0400000a 	streq	r0, [r0], #-10
    1f90:	0a372c8e 	beq	dcd1d0 <__kernel_end+0xcac1d0>
    1f94:	0a370000 	beq	dc1f9c <__kernel_end+0xca0f9c>
    1f98:	8f040000 	svchi	0x00040000
    1f9c:	000b9a2c 	andeq	r9, fp, ip, lsr #20
    1fa0:	000b9a00 	andeq	r9, fp, r0, lsl #20
    1fa4:	2c900400 	cfldrscs	mvf0, [r0], {0}
    1fa8:	00000d68 	andeq	r0, r0, r8, ror #26
    1fac:	00000d68 	andeq	r0, r0, r8, ror #26
    1fb0:	682c9104 	stmdavs	ip!, {r2, r8, ip, pc}
    1fb4:	6800000f 	stmdavs	r0, {r0, r1, r2, r3}
    1fb8:	0500000f 	streq	r0, [r0, #-15]
    1fbc:	01e4000c 	mvneq	r0, ip
    1fc0:	00040000 	andeq	r0, r4, r0
    1fc4:	00000c52 	andeq	r0, r0, r2, asr ip
    1fc8:	00640104 	rsbeq	r0, r4, r4, lsl #2
    1fcc:	2b0c0000 	blcs	301fd4 <__kernel_end+0x1e0fd4>
    1fd0:	1a000011 	bne	201c <SCTLR_ENABLE_INSTRUCTION_CACHE+0x101c>
    1fd4:	3c000001 	stccc	0, cr0, [r0], {1}
    1fd8:	e4000091 	str	r0, [r0], #-145	; 0xffffff6f
    1fdc:	3b000000 	blcc	1fe4 <SCTLR_ENABLE_INSTRUCTION_CACHE+0xfe4>
    1fe0:	0200000b 	andeq	r0, r0, #11
    1fe4:	000d0601 	andeq	r0, sp, r1, lsl #12
    1fe8:	02020000 	andeq	r0, r2, #0
    1fec:	00016b05 	andeq	r6, r1, r5, lsl #22
    1ff0:	05040200 	streq	r0, [r4, #-512]	; 0xfffffe00
    1ff4:	00000111 	andeq	r0, r0, r1, lsl r1
    1ff8:	0c050802 	stceq	8, cr0, [r5], {2}
    1ffc:	02000001 	andeq	r0, r0, #1
    2000:	000b0801 	andeq	r0, fp, r1, lsl #16
    2004:	02020000 	andeq	r0, r2, #0
    2008:	00001907 	andeq	r1, r0, r7, lsl #18
    200c:	01750300 	cmneq	r5, r0, lsl #6
    2010:	34040000 	strcc	r0, [r4], #-0
    2014:	0000005a 	andeq	r0, r0, sl, asr r0
    2018:	52070402 	andpl	r0, r7, #33554432	; 0x2000000
    201c:	02000000 	andeq	r0, r0, #0
    2020:	004d0708 	subeq	r0, sp, r8, lsl #14
    2024:	04040000 	streq	r0, [r4], #-0
    2028:	746e6905 	strbtvc	r6, [lr], #-2309	; 0xfffff6fb
    202c:	07040200 	streq	r0, [r4, -r0, lsl #4]
    2030:	00000057 	andeq	r0, r0, r7, asr r0
    2034:	2e040802 	cdpcs	8, 0, cr0, cr4, cr2, {0}
    2038:	05000004 	streq	r0, [r0, #-4]
    203c:	00001157 	andeq	r1, r0, r7, asr r1
    2040:	004f1f01 	subeq	r1, pc, r1, lsl #30
    2044:	913c0000 	teqls	ip, r0
    2048:	003c0000 	eorseq	r0, ip, r0
    204c:	9c010000 	stcls	0, cr0, [r1], {-0}
    2050:	0000010e 	andeq	r0, r0, lr, lsl #2
    2054:	00116306 	andseq	r6, r1, r6, lsl #6
    2058:	4f1f0100 	svcmi	0x001f0100
    205c:	aa000000 	bge	2064 <SCTLR_ENABLE_INSTRUCTION_CACHE+0x1064>
    2060:	06000008 	streq	r0, [r0], -r8
    2064:	0000118a 	andeq	r1, r0, sl, lsl #3
    2068:	004f1f01 	subeq	r1, pc, r1, lsl #30
    206c:	08cb0000 	stmiaeq	fp, {}^	; <UNPREDICTABLE>
    2070:	cb060000 	blgt	182078 <__kernel_end+0x61078>
    2074:	01000010 	tsteq	r0, r0, lsl r0
    2078:	00004f1f 	andeq	r4, r0, pc, lsl pc
    207c:	0008ec00 	andeq	lr, r8, r0, lsl #24
    2080:	110e0700 	tstne	lr, r0, lsl #14
    2084:	21010000 	mrscs	r0, (UNDEF: 1)
    2088:	0000004f 	andeq	r0, r0, pc, asr #32
    208c:	0000090d 	andeq	r0, r0, sp, lsl #18
    2090:	00114407 	andseq	r4, r1, r7, lsl #8
    2094:	4f220100 	svcmi	0x00220100
    2098:	38000000 	stmdacc	r0, {}	; <UNPREDICTABLE>
    209c:	07000009 	streq	r0, [r0, -r9]
    20a0:	00001120 	andeq	r1, r0, r0, lsr #2
    20a4:	004f2301 	subeq	r2, pc, r1, lsl #6
    20a8:	097c0000 	ldmdbeq	ip!, {}^	; <UNPREDICTABLE>
    20ac:	6c080000 	stcvs	0, cr0, [r8], {-0}
    20b0:	c6000091 			; <UNDEFINED> instruction: 0xc6000091
    20b4:	09000001 	stmdbeq	r0, {r0}
    20b8:	f30f5101 	vrhadd.u8	d5, d15, d1
    20bc:	25445101 	strbcs	r5, [r4, #-257]	; 0xfffffeff
    20c0:	01f32444 	mvnseq	r2, r4, asr #8
    20c4:	020a2152 	andeq	r2, sl, #-2147483628	; 0x80000014
    20c8:	0000210c 	andeq	r2, r0, ip, lsl #2
    20cc:	0010f40a 	andseq	pc, r0, sl, lsl #8
    20d0:	78090100 	stmdavc	r9, {r8}
    20d4:	a8000091 	stmdage	r0, {r0, r4, r7}
    20d8:	01000000 	mrseq	r0, (UNDEF: 0)
    20dc:	00019f9c 	muleq	r1, ip, pc	; <UNPREDICTABLE>
    20e0:	61720b00 	cmnvs	r2, r0, lsl #22
    20e4:	4f0d0100 	svcmi	0x000d0100
    20e8:	b3000000 	movwlt	r0, #0
    20ec:	0c000009 	stceq	0, cr0, [r0], {9}
    20f0:	000091b4 			; <UNDEFINED> instruction: 0x000091b4
    20f4:	0000007d 	andeq	r0, r0, sp, ror r0
    20f8:	00000150 	andeq	r0, r0, r0, asr r1
    20fc:	02500109 	subseq	r0, r0, #1073741826	; 0x40000002
    2100:	01090074 	tsteq	r9, r4, ror r0
    2104:	00740251 	rsbseq	r0, r4, r1, asr r2
    2108:	01520109 	cmpeq	r2, r9, lsl #2
    210c:	d00c0030 	andle	r0, ip, r0, lsr r0
    2110:	7d000091 	stcvc	0, cr0, [r0, #-580]	; 0xfffffdbc
    2114:	73000000 	movwvc	r0, #0
    2118:	09000001 	stmdbeq	r0, {r0}
    211c:	08045001 	stmdaeq	r4, {r0, ip, lr}
    2120:	092446fc 	stmdbeq	r4!, {r2, r3, r4, r5, r6, r7, r9, sl, lr}
    2124:	08045101 	stmdaeq	r4, {r0, r8, ip, lr}
    2128:	092446fc 	stmdbeq	r4!, {r2, r3, r4, r5, r6, r7, r9, sl, lr}
    212c:	30015201 	andcc	r5, r1, r1, lsl #4
    2130:	91e40c00 	mvnls	r0, r0, lsl #24
    2134:	007d0000 	rsbseq	r0, sp, r0
    2138:	01860000 	orreq	r0, r6, r0
    213c:	01090000 	mrseq	r0, (UNDEF: 9)
    2140:	00300152 	eorseq	r0, r0, r2, asr r1
    2144:	0091f00d 	addseq	pc, r1, sp
    2148:	0001d100 	andeq	sp, r1, r0, lsl #2
    214c:	92080e00 	andls	r0, r8, #0, 28
    2150:	01dc0000 	bicseq	r0, ip, r0
    2154:	01090000 	mrseq	r0, (UNDEF: 9)
    2158:	00350151 	eorseq	r0, r5, r1, asr r1
    215c:	11680f00 	cmnne	r8, r0, lsl #30
    2160:	08010000 	stmdaeq	r1, {}	; <UNPREDICTABLE>
    2164:	0000004f 	andeq	r0, r0, pc, asr #32
    2168:	436c0305 	cmnmi	ip, #335544320	; 0x14000000
    216c:	6f100001 	svcvs	0x00100001
    2170:	0100000f 	tsteq	r0, pc
    2174:	00004f06 	andeq	r4, r0, r6, lsl #30
    2178:	11751000 	cmnne	r5, r0
    217c:	07010000 	streq	r0, [r1, -r0]
    2180:	0000004f 	andeq	r0, r0, pc, asr #32
    2184:	00113e11 	andseq	r3, r1, r1, lsl lr
    2188:	00113e00 	andseq	r3, r1, r0, lsl #28
    218c:	11050200 	mrsne	r0, SP_usr
    2190:	00000f68 	andeq	r0, r0, r8, ror #30
    2194:	00000f68 	andeq	r0, r0, r8, ror #30
    2198:	ea110c03 	b	4451ac <__kernel_end+0x3241ac>
    219c:	ea000010 	b	21e4 <SCTLR_ENABLE_INSTRUCTION_CACHE+0x11e4>
    21a0:	02000010 	andeq	r0, r0, #16
    21a4:	01330006 	teqeq	r3, r6
    21a8:	00040000 	andeq	r0, r4, r0
    21ac:	00000d5a 	andeq	r0, r0, sl, asr sp
    21b0:	00640104 	rsbeq	r0, r4, r4, lsl #2
    21b4:	950c0000 	strls	r0, [ip, #-0]
    21b8:	1a000011 	bne	2204 <SCTLR_ENABLE_INSTRUCTION_CACHE+0x1204>
    21bc:	20000001 	andcs	r0, r0, r1
    21c0:	5c000092 	stcpl	0, cr0, [r0], {146}	; 0x92
    21c4:	8d000000 	stchi	0, cr0, [r0, #-0]
    21c8:	0200000c 	andeq	r0, r0, #12
    21cc:	6e690504 	cdpvs	5, 6, cr0, cr9, cr4, {0}
    21d0:	04030074 	streq	r0, [r3], #-116	; 0xffffff8c
    21d4:	00005707 	andeq	r5, r0, r7, lsl #14
    21d8:	05080300 	streq	r0, [r8, #-768]	; 0xfffffd00
    21dc:	0000010c 	andeq	r0, r0, ip, lsl #2
    21e0:	2e040803 	cdpcs	8, 0, cr0, cr4, cr3, {0}
    21e4:	03000004 	movweq	r0, #4
    21e8:	000d0601 	andeq	r0, sp, r1, lsl #12
    21ec:	02030000 	andeq	r0, r3, #0
    21f0:	00016b05 	andeq	r6, r1, r5, lsl #22
    21f4:	05040300 	streq	r0, [r4, #-768]	; 0xfffffd00
    21f8:	00000111 	andeq	r0, r0, r1, lsl r1
    21fc:	0b080103 	bleq	202610 <__kernel_end+0xe1610>
    2200:	03000000 	movweq	r0, #0
    2204:	00190702 	andseq	r0, r9, r2, lsl #14
    2208:	75040000 	strvc	r0, [r4, #-0]
    220c:	06000001 	streq	r0, [r0], -r1
    2210:	00006f34 	andeq	r6, r0, r4, lsr pc
    2214:	07040300 	streq	r0, [r4, -r0, lsl #6]
    2218:	00000052 	andeq	r0, r0, r2, asr r0
    221c:	4d070803 	stcmi	8, cr0, [r7, #-12]
    2220:	05000000 	streq	r0, [r0, #-0]
    2224:	0000017e 	andeq	r0, r0, lr, ror r1
    2228:	92200e01 	eorls	r0, r0, #1, 28
    222c:	005c0000 	subseq	r0, ip, r0
    2230:	9c010000 	stcls	0, cr0, [r1], {-0}
    2234:	000000f4 	strdeq	r0, [r0], -r4
    2238:	00307206 	eorseq	r7, r0, r6, lsl #4
    223c:	00640e01 	rsbeq	r0, r4, r1, lsl #28
    2240:	09d20000 	ldmibeq	r2, {}^	; <UNPREDICTABLE>
    2244:	72060000 	andvc	r0, r6, #0
    2248:	0e010031 	mcreq	0, 0, r0, cr1, cr1, {1}
    224c:	00000064 	andeq	r0, r0, r4, rrx
    2250:	000009f3 	strdeq	r0, [r0], -r3
    2254:	00118f07 	andseq	r8, r1, r7, lsl #30
    2258:	640e0100 	strvs	r0, [lr], #-256	; 0xffffff00
    225c:	14000000 	strne	r0, [r0], #-0
    2260:	0800000a 	stmdaeq	r0, {r1, r3}
    2264:	00009234 	andeq	r9, r0, r4, lsr r2
    2268:	000000ff 	strdeq	r0, [r0], -pc	; <UNPREDICTABLE>
    226c:	00923c08 	addseq	r3, r2, r8, lsl #24
    2270:	00010a00 	andeq	r0, r1, r0, lsl #20
    2274:	92400800 	subls	r0, r0, #0, 16
    2278:	01150000 	tsteq	r5, r0
    227c:	44080000 	strmi	r0, [r8], #-0
    2280:	20000092 	mulcs	r0, r2, r0
    2284:	08000001 	stmdaeq	r0, {r0}
    2288:	00009258 	andeq	r9, r0, r8, asr r2
    228c:	000000ff 	strdeq	r0, [r0], -pc	; <UNPREDICTABLE>
    2290:	00926408 	addseq	r6, r2, r8, lsl #8
    2294:	00012b00 	andeq	r2, r1, r0, lsl #22
    2298:	6f090000 	svcvs	0x00090000
    229c:	0100000f 	tsteq	r0, pc
    22a0:	0000640c 	andeq	r6, r0, ip, lsl #8
    22a4:	0f680a00 	svceq	0x00680a00
    22a8:	0f680000 	svceq	0x00680000
    22ac:	0c020000 	stceq	0, cr0, [r2], {-0}
    22b0:	0005dd0a 	andeq	sp, r5, sl, lsl #26
    22b4:	0005dd00 	andeq	sp, r5, r0, lsl #26
    22b8:	0a290300 	beq	a42ec0 <__kernel_end+0x921ec0>
    22bc:	00000524 	andeq	r0, r0, r4, lsr #10
    22c0:	00000524 	andeq	r0, r0, r4, lsr #10
    22c4:	f40a4b04 			; <UNDEFINED> instruction: 0xf40a4b04
    22c8:	f4000010 	vst4.8	{d0-d3}, [r0 :64], r0
    22cc:	05000010 	streq	r0, [r0, #-16]
    22d0:	051a0a0b 	ldreq	r0, [sl, #-2571]	; 0xfffff5f5
    22d4:	051a0000 	ldreq	r0, [sl, #-0]
    22d8:	2c030000 	stccs	0, cr0, [r3], {-0}
    22dc:	00012400 	andeq	r2, r1, r0, lsl #8
    22e0:	f6000400 			; <UNDEFINED> instruction: 0xf6000400
    22e4:	0400000d 	streq	r0, [r0], #-13
    22e8:	0011a501 	andseq	sl, r1, r1, lsl #10
    22ec:	126c0c00 	rsbne	r0, ip, #0, 24
    22f0:	121d0000 	andsne	r0, sp, #0
    22f4:	927c0000 	rsbsls	r0, ip, #0
    22f8:	00240000 	eoreq	r0, r4, r0
    22fc:	0ddf0000 	ldcleq	0, cr0, [pc]	; 2304 <SCTLR_ENABLE_INSTRUCTION_CACHE+0x1304>
    2300:	04020000 	streq	r0, [r2], #-0
    2304:	746e6905 	strbtvc	r6, [lr], #-2309	; 0xfffff6fb
    2308:	03500300 	cmpeq	r0, #0, 6
    230c:	d8020000 	stmdale	r2, {}	; <UNPREDICTABLE>
    2310:	00000037 	andeq	r0, r0, r7, lsr r0
    2314:	57070404 	strpl	r0, [r7, -r4, lsl #8]
    2318:	04000000 	streq	r0, [r0], #-0
    231c:	010c0508 	tsteq	ip, r8, lsl #10
    2320:	08040000 	stmdaeq	r4, {}	; <UNPREDICTABLE>
    2324:	00042e04 	andeq	r2, r4, r4, lsl #28
    2328:	06010400 	streq	r0, [r1], -r0, lsl #8
    232c:	0000000d 	andeq	r0, r0, sp
    2330:	0b080104 	bleq	202748 <__kernel_end+0xe1748>
    2334:	04000000 	streq	r0, [r0], #-0
    2338:	016b0502 	cmneq	fp, r2, lsl #10
    233c:	02040000 	andeq	r0, r4, #0
    2340:	00001907 	andeq	r1, r0, r7, lsl #18
    2344:	05040400 	streq	r0, [r4, #-1024]	; 0xfffffc00
    2348:	00000111 	andeq	r0, r0, r1, lsl r1
    234c:	52070404 	andpl	r0, r7, #4, 8	; 0x4000000
    2350:	04000000 	streq	r0, [r0], #-0
    2354:	004d0708 	subeq	r0, sp, r8, lsl #14
    2358:	04040000 	streq	r0, [r4], #-0
    235c:	00035707 	andeq	r5, r3, r7, lsl #14
    2360:	04040500 	streq	r0, [r4], #-1280	; 0xfffffb00
    2364:	00140801 	andseq	r0, r4, r1, lsl #16
    2368:	04060000 	streq	r0, [r6], #-0
    236c:	00000053 	andeq	r0, r0, r3, asr r0
    2370:	000d3d07 	andeq	r3, sp, r7, lsl #26
    2374:	841b0300 	ldrhi	r0, [fp], #-768	; 0xfffffd00
    2378:	7c000000 	stcvc	0, cr0, [r0], {-0}
    237c:	24000092 	strcs	r0, [r0], #-146	; 0xffffff6e
    2380:	01000000 	mrseq	r0, (UNDEF: 0)
    2384:	00010b9c 	muleq	r1, ip, fp
    2388:	120f0800 	andne	r0, pc, #0, 16
    238c:	03010000 	movweq	r0, #4096	; 0x1000
    2390:	0000010b 	andeq	r0, r0, fp, lsl #2
    2394:	16095001 	strne	r5, [r9], -r1
    2398:	01000012 	tsteq	r0, r2, lsl r0
    239c:	00011703 	andeq	r1, r1, r3, lsl #14
    23a0:	000a3500 	andeq	r3, sl, r0, lsl #10
    23a4:	10860900 	addne	r0, r6, r0, lsl #18
    23a8:	03010000 	movweq	r0, #4096	; 0x1000
    23ac:	0000002c 	andeq	r0, r0, ip, lsr #32
    23b0:	00000a56 	andeq	r0, r0, r6, asr sl
    23b4:	7473640a 	ldrbtvc	r6, [r3], #-1034	; 0xfffffbf6
    23b8:	8d040100 	stfhis	f0, [r4, #-0]
    23bc:	01000000 	mrseq	r0, (UNDEF: 0)
    23c0:	72730b50 	rsbsvc	r0, r3, #80, 22	; 0x14000
    23c4:	05010063 	streq	r0, [r1, #-99]	; 0xffffff9d
    23c8:	0000011c 	andeq	r0, r0, ip, lsl r1
    23cc:	00000a77 	andeq	r0, r0, r7, ror sl
    23d0:	00927c0c 	addseq	r7, r2, ip, lsl #24
    23d4:	00002000 	andeq	r2, r0, r0
    23d8:	00690b00 	rsbeq	r0, r9, r0, lsl #22
    23dc:	002c0601 	eoreq	r0, ip, r1, lsl #12
    23e0:	0a980000 	beq	fe6023e8 <__kernel_end+0xfe4e13e8>
    23e4:	00000000 	andeq	r0, r0, r0
    23e8:	0000840d 	andeq	r8, r0, sp, lsl #8
    23ec:	16040600 	strne	r0, [r4], -r0, lsl #12
    23f0:	0e000001 	cdpeq	0, 0, cr0, cr0, cr1, {0}
    23f4:	0001100d 	andeq	r1, r1, sp
    23f8:	22040600 	andcs	r0, r4, #0, 12
    23fc:	0f000001 	svceq	0x00000001
    2400:	00000053 	andeq	r0, r0, r3, asr r0
    2404:	00017100 	andeq	r7, r1, r0, lsl #2
    2408:	b1000400 	tstlt	r0, r0, lsl #8
    240c:	0400000e 	streq	r0, [r0], #-14
    2410:	0011a501 	andseq	sl, r1, r1, lsl #10
    2414:	127c0c00 	rsbsne	r0, ip, #0, 24
    2418:	121d0000 	andsne	r0, sp, #0
    241c:	92a00000 	adcls	r0, r0, #0
    2420:	00540000 	subseq	r0, r4, r0
    2424:	0ed20000 	cdpeq	0, 13, cr0, cr2, cr0, {0}
    2428:	50020000 	andpl	r0, r2, r0
    242c:	0200000b 	andeq	r0, r0, #11
    2430:	00003028 	andeq	r3, r0, r8, lsr #32
    2434:	099c0300 	ldmibeq	ip, {r8, r9}
    2438:	04040000 	streq	r0, [r4], #-0
    243c:	00004700 	andeq	r4, r0, r0, lsl #14
    2440:	0d440400 	cfstrdeq	mvd0, [r4, #-0]
    2444:	00470000 	subeq	r0, r7, r0
    2448:	00000000 	andeq	r0, r0, r0
    244c:	9e020405 	cdpls	4, 0, cr0, cr2, cr5, {0}
    2450:	02000009 	andeq	r0, r0, #9
    2454:	00002562 	andeq	r2, r0, r2, ror #10
    2458:	06010600 	streq	r0, [r1], -r0, lsl #12
    245c:	0000000d 	andeq	r0, r0, sp
    2460:	6b050206 	blvs	142c80 <__kernel_end+0x21c80>
    2464:	06000001 	streq	r0, [r0], -r1
    2468:	01110504 	tsteq	r1, r4, lsl #10
    246c:	08060000 	stmdaeq	r6, {}	; <UNPREDICTABLE>
    2470:	00010c05 	andeq	r0, r1, r5, lsl #24
    2474:	08010600 	stmdaeq	r1, {r9, sl}
    2478:	0000000b 	andeq	r0, r0, fp
    247c:	19070206 	stmdbne	r7, {r1, r2, r9}
    2480:	06000000 	streq	r0, [r0], -r0
    2484:	00520704 	subseq	r0, r2, r4, lsl #14
    2488:	08060000 	stmdaeq	r6, {}	; <UNPREDICTABLE>
    248c:	00004d07 	andeq	r4, r0, r7, lsl #26
    2490:	05040700 	streq	r0, [r4, #-1792]	; 0xfffff900
    2494:	00746e69 	rsbseq	r6, r4, r9, ror #28
    2498:	57070406 	strpl	r0, [r7, -r6, lsl #8]
    249c:	08000000 	stmdaeq	r0, {}	; <UNPREDICTABLE>
    24a0:	0000128b 	andeq	r1, r0, fp, lsl #5
    24a4:	008c1c01 	addeq	r1, ip, r1, lsl #24
    24a8:	92a00000 	adcls	r0, r0, #0
    24ac:	00180000 	andseq	r0, r8, r0
    24b0:	9c010000 	stcls	0, cr0, [r1], {-0}
    24b4:	000000e4 	andeq	r0, r0, r4, ror #1
    24b8:	01006309 	tsteq	r0, r9, lsl #6
    24bc:	00008c1c 	andeq	r8, r0, ip, lsl ip
    24c0:	000ae000 	andeq	lr, sl, r0
    24c4:	65640900 	strbvs	r0, [r4, #-2304]!	; 0xfffff700
    24c8:	1c010076 	stcne	0, cr0, [r1], {118}	; 0x76
    24cc:	0000008c 	andeq	r0, r0, ip, lsl #1
    24d0:	00000b01 	andeq	r0, r0, r1, lsl #22
    24d4:	0092ac0a 	addseq	sl, r2, sl, lsl #24
    24d8:	00015e00 	andeq	r5, r1, r0, lsl #28
    24dc:	50010b00 	andpl	r0, r1, r0, lsl #22
    24e0:	5001f306 	andpl	pc, r1, r6, lsl #6
    24e4:	001aff08 	andseq	pc, sl, r8, lsl #30
    24e8:	0f680800 	svceq	0x00680800
    24ec:	26010000 	strcs	r0, [r1], -r0
    24f0:	0000008c 	andeq	r0, r0, ip, lsl #1
    24f4:	000092b8 			; <UNDEFINED> instruction: 0x000092b8
    24f8:	0000003c 	andeq	r0, r0, ip, lsr r0
    24fc:	014c9c01 	cmpeq	ip, r1, lsl #24
    2500:	910c0000 	mrsls	r0, (UNDEF: 12)
    2504:	01000012 	tsteq	r0, r2, lsl r0
    2508:	00014c26 	andeq	r4, r1, r6, lsr #24
    250c:	70910200 	addsvc	r0, r1, r0, lsl #4
    2510:	70610e0d 	rsbvc	r0, r1, sp, lsl #28
    2514:	49280100 	stmdbmi	r8!, {r8}
    2518:	02000000 	andeq	r0, r0, #0
    251c:	720e6491 	andvc	r6, lr, #-1862270976	; 0x91000000
    2520:	01007465 	tsteq	r0, r5, ror #8
    2524:	00008c29 	andeq	r8, r0, r9, lsr #24
    2528:	0a500100 	beq	1402930 <__kernel_end+0x12e1930>
    252c:	000092e0 	andeq	r9, r0, r0, ror #5
    2530:	00000169 	andeq	r0, r0, r9, ror #2
    2534:	0350010b 	cmpeq	r0, #-1073741822	; 0xc0000002
    2538:	0b064891 	bleq	194784 <__kernel_end+0x73784>
    253c:	91025101 	tstls	r2, r1, lsl #2
    2540:	52010b4c 	andpl	r0, r1, #76, 22	; 0x13000
    2544:	92a00305 	adcls	r0, r0, #335544320	; 0x14000000
    2548:	010b0000 	mrseq	r0, (UNDEF: 11)
    254c:	00310153 	eorseq	r0, r1, r3, asr r1
    2550:	59040f00 	stmdbpl	r4, {r8, r9, sl, fp}
    2554:	06000001 	streq	r0, [r0], -r1
    2558:	00140801 	andseq	r0, r4, r1, lsl #16
    255c:	52100000 	andspl	r0, r0, #0
    2560:	11000001 	tstne	r0, r1
    2564:	000006b8 			; <UNDEFINED> instruction: 0x000006b8
    2568:	000006b8 			; <UNDEFINED> instruction: 0x000006b8
    256c:	98112a03 	ldmdals	r1, {r0, r1, r9, fp, sp}
    2570:	98000012 	stmdals	r0, {r1, r4}
    2574:	01000012 	tsteq	r0, r2, lsl r0
    2578:	04bc0023 	ldrteq	r0, [ip], #35	; 0x23
    257c:	00040000 	andeq	r0, r4, r0
    2580:	00000f91 	muleq	r0, r1, pc	; <UNPREDICTABLE>
    2584:	11a50104 			; <UNDEFINED> instruction: 0x11a50104
    2588:	8c0c0000 	stchi	0, cr0, [ip], {-0}
    258c:	1d000013 	stcne	0, cr0, [r0, #-76]	; 0xffffffb4
    2590:	f4000012 	vst4.8	{d0-d3}, [r0 :64], r2
    2594:	4c000092 	stcmi	0, cr0, [r0], {146}	; 0x92
    2598:	ed000007 	stc	0, cr0, [r0, #-28]	; 0xffffffe4
    259c:	0200000f 	andeq	r0, r0, #15
    25a0:	6e690504 	cdpvs	5, 6, cr0, cr9, cr4, {0}
    25a4:	04030074 	streq	r0, [r3], #-116	; 0xffffff8c
    25a8:	00005707 	andeq	r5, r0, r7, lsl #14
    25ac:	05080300 	streq	r0, [r8, #-768]	; 0xfffffd00
    25b0:	0000010c 	andeq	r0, r0, ip, lsl #2
    25b4:	2e040803 	cdpcs	8, 0, cr0, cr4, cr3, {0}
    25b8:	03000004 	movweq	r0, #4
    25bc:	000d0601 	andeq	r0, sp, r1, lsl #12
    25c0:	01030000 	mrseq	r0, (UNDEF: 3)
    25c4:	00000b08 	andeq	r0, r0, r8, lsl #22
    25c8:	05020300 	streq	r0, [r2, #-768]	; 0xfffffd00
    25cc:	0000016b 	andeq	r0, r0, fp, ror #2
    25d0:	19070203 	stmdbne	r7, {r0, r1, r9}
    25d4:	03000000 	movweq	r0, #0
    25d8:	01110504 	tsteq	r1, r4, lsl #10
    25dc:	04030000 	streq	r0, [r3], #-0
    25e0:	00005207 	andeq	r5, r0, r7, lsl #4
    25e4:	07080300 	streq	r0, [r8, -r0, lsl #6]
    25e8:	0000004d 	andeq	r0, r0, sp, asr #32
    25ec:	57070403 	strpl	r0, [r7, -r3, lsl #8]
    25f0:	04000003 	streq	r0, [r0], #-3
    25f4:	81040504 	tsthi	r4, r4, lsl #10
    25f8:	03000000 	movweq	r0, #0
    25fc:	00140801 	andseq	r0, r4, r1, lsl #16
    2600:	04050000 	streq	r0, [r5], #-0
    2604:	0000008e 	andeq	r0, r0, lr, lsl #1
    2608:	00008106 	andeq	r8, r0, r6, lsl #2
    260c:	0b500700 	bleq	1404214 <__kernel_end+0x12e3214>
    2610:	28020000 	stmdacs	r2, {}	; <UNPREDICTABLE>
    2614:	0000009e 	muleq	r0, lr, r0
    2618:	00099c08 	andeq	r9, r9, r8, lsl #24
    261c:	00030400 	andeq	r0, r3, r0, lsl #8
    2620:	000000b5 	strheq	r0, [r0], -r5
    2624:	000d4409 	andeq	r4, sp, r9, lsl #8
    2628:	00007900 	andeq	r7, r0, r0, lsl #18
    262c:	07000000 	streq	r0, [r0, -r0]
    2630:	0000099e 	muleq	r0, lr, r9
    2634:	00936202 	addseq	r6, r3, r2, lsl #4
    2638:	2e0a0000 	cdpcs	0, 0, cr0, cr10, cr0, {0}
    263c:	01000013 	tsteq	r0, r3, lsl r0
    2640:	00000048 	andeq	r0, r0, r8, asr #32
    2644:	00e91301 	rsceq	r1, r9, r1, lsl #6
    2648:	f00b0000 			; <UNDEFINED> instruction: 0xf00b0000
    264c:	00000012 	andeq	r0, r0, r2, lsl r0
    2650:	0012f60b 	andseq	pc, r2, fp, lsl #12
    2654:	7f0b0100 	svcvc	0x000b0100
    2658:	02000013 	andeq	r0, r0, #19
    265c:	0013a00b 	andseq	sl, r3, fp
    2660:	0c000300 	stceq	3, cr0, [r0], {-0}
    2664:	0000131e 	andeq	r1, r0, lr, lsl r3
    2668:	0101f901 	tsteq	r1, r1, lsl #18	; <UNPREDICTABLE>
    266c:	00000163 	andeq	r0, r0, r3, ror #2
    2670:	6d756e0d 	ldclvs	14, cr6, [r5, #-52]!	; 0xffffffcc
    2674:	01f90100 	mvnseq	r0, r0, lsl #2
    2678:	00000064 	andeq	r0, r0, r4, rrx
    267c:	7274730d 	rsbsvc	r7, r4, #872415232	; 0x34000000
    2680:	01f90100 	mvnseq	r0, r0, lsl #2
    2684:	0000007b 	andeq	r0, r0, fp, ror r0
    2688:	0011850e 	andseq	r8, r1, lr, lsl #10
    268c:	01fa0100 	mvnseq	r0, r0, lsl #2
    2690:	0000002c 	andeq	r0, r0, ip, lsr #32
    2694:	0013b80e 	andseq	fp, r3, lr, lsl #16
    2698:	01fa0100 	mvnseq	r0, r0, lsl #2
    269c:	00000025 	andeq	r0, r0, r5, lsr #32
    26a0:	0013bc0f 	andseq	fp, r3, pc, lsl #24
    26a4:	01fc0100 	mvnseq	r0, r0, lsl #2
    26a8:	00000088 	andeq	r0, r0, r8, lsl #1
    26ac:	00130f0f 	andseq	r0, r3, pc, lsl #30
    26b0:	01fd0100 	mvnseq	r0, r0, lsl #2
    26b4:	00000163 	andeq	r0, r0, r3, ror #2
    26b8:	01006910 	tsteq	r0, r0, lsl r9
    26bc:	002501fe 	strdeq	r0, [r5], -lr	; <UNPREDICTABLE>
    26c0:	0f110000 	svceq	0x00110000
    26c4:	000012a9 	andeq	r1, r0, r9, lsr #5
    26c8:	48021a01 	stmdami	r2, {r0, r9, fp, ip}
    26cc:	0f000000 	svceq	0x00000000
    26d0:	0000137a 	andeq	r1, r0, sl, ror r3
    26d4:	64021b01 	strvs	r1, [r2], #-2817	; 0xfffff4ff
    26d8:	00000000 	andeq	r0, r0, r0
    26dc:	00811200 	addeq	r1, r1, r0, lsl #4
    26e0:	01730000 	cmneq	r3, r0
    26e4:	72130000 	andsvc	r0, r3, #0
    26e8:	20000000 	andcs	r0, r0, r0
    26ec:	12981400 	addsne	r1, r8, #0, 8
    26f0:	5b010000 	blpl	426f8 <__first_lvl_tbl_end+0x216f8>
    26f4:	00000025 	andeq	r0, r0, r5, lsr #32
    26f8:	000092f4 	strdeq	r9, [r0], -r4
    26fc:	0000074c 	andeq	r0, r0, ip, asr #14
    2700:	040f9c01 	streq	r9, [pc], #-3073	; 2708 <SCTLR_ENABLE_INSTRUCTION_CACHE+0x1708>
    2704:	66150000 	ldrvs	r0, [r5], -r0
    2708:	0100746d 	tsteq	r0, sp, ror #8
    270c:	0000885b 	andeq	r8, r0, fp, asr r8
    2710:	000b2200 	andeq	r2, fp, r0, lsl #4
    2714:	70611500 	rsbvc	r1, r1, r0, lsl #10
    2718:	b55b0100 	ldrblt	r0, [fp, #-256]	; 0xffffff00
    271c:	f6000000 			; <UNDEFINED> instruction: 0xf6000000
    2720:	1600000c 	strne	r0, [r0], -ip
    2724:	00001360 	andeq	r1, r0, r0, ror #6
    2728:	04235c01 	strteq	r5, [r3], #-3073	; 0xfffff3ff
    272c:	0d350000 	ldceq	0, cr0, [r5, #-0]
    2730:	c7160000 	ldrgt	r0, [r6, -r0]
    2734:	01000012 	tsteq	r0, r2, lsl r0
    2738:	0000255c 	andeq	r2, r0, ip, asr r5
    273c:	000d5600 	andeq	r5, sp, r0, lsl #12
    2740:	13aa1700 			; <UNDEFINED> instruction: 0x13aa1700
    2744:	5e010000 	cdppl	0, 0, cr0, cr1, cr0, {0}
    2748:	00000025 	andeq	r0, r0, r5, lsr #32
    274c:	00000d8d 	andeq	r0, r0, sp, lsl #27
    2750:	01006918 	tsteq	r0, r8, lsl r9
    2754:	00002560 	andeq	r2, r0, r0, ror #10
    2758:	000e3c00 	andeq	r3, lr, r0, lsl #24
    275c:	74731800 	ldrbtvc	r1, [r3], #-2048	; 0xfffff800
    2760:	61010072 	tstvs	r1, r2, ror r0
    2764:	0000007b 	andeq	r0, r0, fp, ror r0
    2768:	00000e8c 	andeq	r0, r0, ip, lsl #29
    276c:	00132719 	andseq	r2, r3, r9, lsl r7
    2770:	63620100 	cmnvs	r2, #0, 2
    2774:	03000001 	movweq	r0, #1
    2778:	177f9091 			; <UNDEFINED> instruction: 0x177f9091
    277c:	000012d5 	ldrdeq	r1, [r0], -r5
    2780:	00256401 	eoreq	r6, r5, r1, lsl #8
    2784:	0f590000 	svceq	0x00590000
    2788:	a0170000 	andsge	r0, r7, r0
    278c:	01000012 	tsteq	r0, r2, lsl r0
    2790:	00008166 	andeq	r8, r0, r6, ror #2
    2794:	000fc500 	andeq	ip, pc, r0, lsl #10
    2798:	12d01700 	sbcsne	r1, r0, #0, 14
    279c:	67010000 	strvs	r0, [r1, -r0]
    27a0:	00000025 	andeq	r0, r0, r5, lsr #32
    27a4:	00001042 	andeq	r1, r0, r2, asr #32
    27a8:	00139b17 	andseq	r9, r3, r7, lsl fp
    27ac:	25680100 	strbcs	r0, [r8, #-256]!	; 0xffffff00
    27b0:	cb000000 	blgt	27b8 <SCTLR_ENABLE_INSTRUCTION_CACHE+0x17b8>
    27b4:	17000010 	smladne	r0, r0, r0, r0
    27b8:	00001086 	andeq	r1, r0, r6, lsl #1
    27bc:	00c06901 	sbceq	r6, r0, r1, lsl #18
    27c0:	11780000 	cmnne	r8, r0
    27c4:	c3170000 	tstgt	r7, #0
    27c8:	01000013 	tsteq	r0, r3, lsl r0
    27cc:	0000816a 	andeq	r8, r0, sl, ror #2
    27d0:	0011a400 	andseq	sl, r1, r0, lsl #8
    27d4:	12b01700 	adcsne	r1, r0, #0, 14
    27d8:	6c010000 	stcvs	0, cr0, [r1], {-0}
    27dc:	0000005d 	andeq	r0, r0, sp, asr r0
    27e0:	0000120e 	andeq	r1, r0, lr, lsl #4
    27e4:	0012af17 	andseq	sl, r2, r7, lsl pc
    27e8:	646d0100 	strbtvs	r0, [sp], #-256	; 0xffffff00
    27ec:	3a000000 	bcc	27f4 <SCTLR_ENABLE_INSTRUCTION_CACHE+0x17f4>
    27f0:	17000012 	smladne	r0, r2, r0, r0
    27f4:	000013b8 			; <UNDEFINED> instruction: 0x000013b8
    27f8:	00256e01 	eoreq	r6, r5, r1, lsl #28
    27fc:	126e0000 	rsbne	r0, lr, #0
    2800:	85170000 	ldrhi	r0, [r7, #-0]
    2804:	01000011 	tsteq	r0, r1, lsl r0
    2808:	00002c6f 	andeq	r2, r0, pc, ror #24
    280c:	0012ed00 	andseq	lr, r2, r0, lsl #26
    2810:	13491700 	movtne	r1, #38656	; 0x9700
    2814:	71010000 	mrsvc	r0, (UNDEF: 1)
    2818:	00000025 	andeq	r0, r0, r5, lsr #32
    281c:	000013a0 	andeq	r1, r0, r0, lsr #7
    2820:	0012e517 	andseq	lr, r2, r7, lsl r5
    2824:	25720100 	ldrbcs	r0, [r2, #-256]!	; 0xffffff00
    2828:	04000000 	streq	r0, [r0], #-0
    282c:	17000014 	smladne	r0, r4, r0, r0
    2830:	00001351 	andeq	r1, r0, r1, asr r3
    2834:	00257401 	eoreq	r7, r5, r1, lsl #8
    2838:	147e0000 	ldrbtne	r0, [lr], #-0
    283c:	d3170000 	tstle	r7, #0
    2840:	01000013 	tsteq	r0, r3, lsl r0
    2844:	00002576 	andeq	r2, r0, r6, ror r5
    2848:	0014a700 	andseq	sl, r4, r0, lsl #14
    284c:	13c81a00 	bicne	r1, r8, #0, 20
    2850:	78010000 	stmdavc	r1, {}	; <UNPREDICTABLE>
    2854:	00000088 	andeq	r0, r0, r8, lsl #1
    2858:	00133b1b 	andseq	r3, r3, fp, lsl fp
    285c:	a49f0100 	ldrge	r0, [pc], #256	; 2864 <SCTLR_ENABLE_INSTRUCTION_CACHE+0x1864>
    2860:	1c000093 	stcne	0, cr0, [r0], {147}	; 0x93
    2864:	0000136a 	andeq	r1, r0, sl, ror #6
    2868:	b0014601 	andlt	r4, r1, r1, lsl #12
    286c:	1c000094 	stcne	0, cr0, [r0], {148}	; 0x94
    2870:	000012b5 			; <UNDEFINED> instruction: 0x000012b5
    2874:	7c01d301 	stcvc	3, cr13, [r1], {1}
    2878:	1d000093 	stcne	0, cr0, [r0, #-588]	; 0xfffffdb4
    287c:	000000e9 	andeq	r0, r0, r9, ror #1
    2880:	000094bc 			; <UNDEFINED> instruction: 0x000094bc
    2884:	000000e8 	andeq	r0, r0, r8, ror #1
    2888:	6f016301 	svcvs	0x00016301
    288c:	1e000003 	cdpne	0, 0, cr0, cr0, cr3, {0}
    2890:	0000011a 	andeq	r0, r0, sl, lsl r1
    2894:	0000150a 	andeq	r1, r0, sl, lsl #10
    2898:	00010e1e 	andeq	r0, r1, lr, lsl lr
    289c:	00152900 	andseq	r2, r5, r0, lsl #18
    28a0:	01021e00 	tsteq	r2, r0, lsl #28
    28a4:	15640000 	strbne	r0, [r4, #-0]!
    28a8:	f61e0000 			; <UNDEFINED> instruction: 0xf61e0000
    28ac:	cb000000 	blgt	28b4 <SCTLR_ENABLE_INSTRUCTION_CACHE+0x18b4>
    28b0:	1f000015 	svcne	0x00000015
    28b4:	000000e8 	andeq	r0, r0, r8, ror #1
    28b8:	00012620 	andeq	r2, r1, r0, lsr #12
    28bc:	00163b00 	andseq	r3, r6, r0, lsl #22
    28c0:	01322100 	teqeq	r2, r0, lsl #2
    28c4:	91030000 	mrsls	r0, (UNDEF: 3)
    28c8:	3e207fb4 	mcrcc	15, 1, r7, cr0, cr4, {5}
    28cc:	95000001 	strls	r0, [r0, #-1]
    28d0:	1f000016 	svcne	0x00000016
    28d4:	00000120 	andeq	r0, r0, r0, lsr #2
    28d8:	00014922 	andeq	r4, r1, r2, lsr #18
    28dc:	01552000 	cmpeq	r5, r0
    28e0:	17080000 	strne	r0, [r8, -r0]
    28e4:	00000000 	andeq	r0, r0, r0
    28e8:	93882300 	orrls	r2, r8, #0, 6
    28ec:	037f0000 	cmneq	pc, #0
    28f0:	01240000 			; <UNDEFINED> instruction: 0x01240000
    28f4:	007a0251 	rsbseq	r0, sl, r1, asr r2
    28f8:	955c2500 	ldrbls	r2, [ip, #-1280]	; 0xfffffb00
    28fc:	04b40000 	ldrteq	r0, [r4], #0
    2900:	03940000 	orrseq	r0, r4, #0
    2904:	01240000 			; <UNDEFINED> instruction: 0x01240000
    2908:	88910350 	ldmhi	r1, {r4, r6, r8, r9}
    290c:	cc23007f 	stcgt	0, cr0, [r3], #-508	; 0xfffffe04
    2910:	aa000095 	bge	2b6c <SCTLR_ENABLE_INSTRUCTION_CACHE+0x1b6c>
    2914:	24000003 	strcs	r0, [r0], #-3
    2918:	08025001 	stmdaeq	r2, {r0, ip, lr}
    291c:	51012430 	tstpl	r1, r0, lsr r4
    2920:	00007a02 	andeq	r7, r0, r2, lsl #20
    2924:	0096ac25 	addseq	sl, r6, r5, lsr #24
    2928:	0004b400 	andeq	fp, r4, r0, lsl #8
    292c:	0003be00 	andeq	fp, r3, r0, lsl #28
    2930:	50012400 	andpl	r2, r1, r0, lsl #8
    2934:	00007902 	andeq	r7, r0, r2, lsl #18
    2938:	00976423 	addseq	r6, r7, r3, lsr #8
    293c:	0003d400 	andeq	sp, r3, r0, lsl #8
    2940:	50012400 	andpl	r2, r1, r0, lsl #8
    2944:	24007402 	strcs	r7, [r0], #-1026	; 0xfffffbfe
    2948:	7a025101 	bvc	96d54 <__first_lvl_tbl_end+0x75d54>
    294c:	ec230000 	stc	0, cr0, [r3], #-0
    2950:	e4000098 	str	r0, [r0], #-152	; 0xffffff68
    2954:	24000003 	strcs	r0, [r0], #-3
    2958:	7a025101 	bvc	96d64 <__first_lvl_tbl_end+0x75d64>
    295c:	0c230000 	stceq	0, cr0, [r3], #-0
    2960:	fc000099 	stc2	0, cr0, [r0], {153}	; 0x99
    2964:	24000003 	strcs	r0, [r0], #-3
    2968:	91045001 	tstls	r4, r1
    296c:	24067ef8 	strcs	r7, [r6], #-3832	; 0xfffff108
    2970:	7a025101 	bvc	96d7c <__first_lvl_tbl_end+0x75d7c>
    2974:	78260000 	stmdavc	r6!, {}	; <UNPREDICTABLE>
    2978:	24000099 	strcs	r0, [r0], #-153	; 0xffffff67
    297c:	74025001 	strvc	r5, [r2], #-1
    2980:	51012400 	tstpl	r1, r0, lsl #8
    2984:	00007a02 	andeq	r7, r0, r2, lsl #20
    2988:	00252700 	eoreq	r2, r5, r0, lsl #14
    298c:	04230000 	strteq	r0, [r3], #-0
    2990:	25280000 	strcs	r0, [r8, #-0]!
    2994:	28000000 	stmdacs	r0, {}	; <UNPREDICTABLE>
    2998:	00000025 	andeq	r0, r0, r5, lsr #32
    299c:	0f040500 	svceq	0x00040500
    29a0:	12000004 	andne	r0, r0, #4
    29a4:	0000008e 	andeq	r0, r0, lr, lsl #1
    29a8:	00000439 	andeq	r0, r0, r9, lsr r4
    29ac:	00007213 	andeq	r7, r0, r3, lsl r2
    29b0:	29000f00 	stmdbcs	r0, {r8, r9, sl, fp}
    29b4:	00001314 	andeq	r1, r0, r4, lsl r3
    29b8:	4b01e001 	blmi	7a9c4 <__first_lvl_tbl_end+0x599c4>
    29bc:	05000004 	streq	r0, [r0, #-4]
    29c0:	00a05003 	adceq	r5, r0, r3
    29c4:	04290600 	strteq	r0, [r9], #-1536	; 0xfffffa00
    29c8:	bd290000 	stclt	0, cr0, [r9, #-0]
    29cc:	01000012 	tsteq	r0, r2, lsl r0
    29d0:	046201e1 	strbteq	r0, [r2], #-481	; 0xfffffe1f
    29d4:	03050000 	movweq	r0, #20480	; 0x5000
    29d8:	0000a040 	andeq	sl, r0, r0, asr #32
    29dc:	00042906 	andeq	r2, r4, r6, lsl #18
    29e0:	04771200 	ldrbteq	r1, [r7], #-512	; 0xfffffe00
    29e4:	04770000 	ldrbteq	r0, [r7], #-0
    29e8:	72130000 	andsvc	r0, r3, #0
    29ec:	10000000 	andne	r0, r0, r0
    29f0:	00480600 	subeq	r0, r8, r0, lsl #12
    29f4:	012a0000 			; <UNDEFINED> instruction: 0x012a0000
    29f8:	01000013 	tsteq	r0, r3, lsl r0
    29fc:	049a01e2 	ldreq	r0, [sl], #482	; 0x1e2
    2a00:	00110000 	andseq	r0, r1, r0
    2a04:	02000100 	andeq	r0, r0, #0, 2
    2a08:	03000000 	movweq	r0, #0
    2a0c:	00000000 	andeq	r0, r0, r0
    2a10:	04000000 	streq	r0, [r0], #-0
    2a14:	00046706 	andeq	r6, r4, r6, lsl #14
    2a18:	9e132b00 	vnmlsls.f64	d2, d3, d0
    2a1c:	32313011 	eorscc	r3, r1, #17
    2a20:	36353433 			; <UNDEFINED> instruction: 0x36353433
    2a24:	61393837 	teqvs	r9, r7, lsr r8
    2a28:	65646362 	strbvs	r6, [r4, #-866]!	; 0xfffffc9e
    2a2c:	de2c0066 	cdple	0, 2, cr0, cr12, cr6, {3}
    2a30:	de000012 	mcrle	0, 0, r0, cr0, cr2, {0}
    2a34:	04000012 	streq	r0, [r0], #-18	; 0xffffffee
    2a38:	00c70025 	sbceq	r0, r7, r5, lsr #32
    2a3c:	00040000 	andeq	r0, r4, r0
    2a40:	000011ae 	andeq	r1, r0, lr, lsr #3
    2a44:	11a50104 			; <UNDEFINED> instruction: 0x11a50104
    2a48:	df0c0000 	svcle	0x000c0000
    2a4c:	1d000013 	stcne	0, cr0, [r0, #-76]	; 0xffffffb4
    2a50:	40000012 	andmi	r0, r0, r2, lsl r0
    2a54:	3000009a 	mulcc	r0, sl, r0
    2a58:	8d000000 	stchi	0, cr0, [r0, #-0]
    2a5c:	02000012 	andeq	r0, r0, #18
    2a60:	6e690504 	cdpvs	5, 6, cr0, cr9, cr4, {0}
    2a64:	50030074 	andpl	r0, r3, r4, ror r0
    2a68:	02000003 	andeq	r0, r0, #3
    2a6c:	000037d8 	ldrdeq	r3, [r0], -r8
    2a70:	07040400 	streq	r0, [r4, -r0, lsl #8]
    2a74:	00000057 	andeq	r0, r0, r7, asr r0
    2a78:	0c050804 	stceq	8, cr0, [r5], {4}
    2a7c:	04000001 	streq	r0, [r0], #-1
    2a80:	042e0408 	strteq	r0, [lr], #-1032	; 0xfffffbf8
    2a84:	01040000 	mrseq	r0, (UNDEF: 4)
    2a88:	00000d06 	andeq	r0, r0, r6, lsl #26
    2a8c:	08010400 	stmdaeq	r1, {sl}
    2a90:	0000000b 	andeq	r0, r0, fp
    2a94:	6b050204 	blvs	1432ac <__kernel_end+0x222ac>
    2a98:	04000001 	streq	r0, [r0], #-1
    2a9c:	00190702 	andseq	r0, r9, r2, lsl #14
    2aa0:	04040000 	streq	r0, [r4], #-0
    2aa4:	00011105 	andeq	r1, r1, r5, lsl #2
    2aa8:	07040400 	streq	r0, [r4, -r0, lsl #8]
    2aac:	00000052 	andeq	r0, r0, r2, asr r0
    2ab0:	4d070804 	stcmi	8, cr0, [r7, #-16]
    2ab4:	04000000 	streq	r0, [r0], #-0
    2ab8:	03570704 	cmpeq	r7, #4, 14	; 0x100000
    2abc:	01040000 	mrseq	r0, (UNDEF: 4)
    2ac0:	00001408 	andeq	r1, r0, r8, lsl #8
    2ac4:	91040500 	tstls	r4, r0, lsl #10
    2ac8:	06000000 	streq	r0, [r0], -r0
    2acc:	00000084 	andeq	r0, r0, r4, lsl #1
    2ad0:	0012de07 	andseq	sp, r2, r7, lsl #28
    2ad4:	2c250300 	stccs	3, cr0, [r5], #-0
    2ad8:	40000000 	andmi	r0, r0, r0
    2adc:	3000009a 	mulcc	r0, sl, r0
    2ae0:	01000000 	mrseq	r0, (UNDEF: 0)
    2ae4:	7473089c 	ldrbtvc	r0, [r3], #-2204	; 0xfffff764
    2ae8:	03010072 	movweq	r0, #4210	; 0x1072
    2aec:	0000008b 	andeq	r0, r0, fp, lsl #1
    2af0:	00001726 	andeq	r1, r0, r6, lsr #14
    2af4:	6e656c09 	cdpvs	12, 6, cr6, cr5, cr9, {0}
    2af8:	2c040100 	stfcss	f0, [r4], {-0}
    2afc:	60000000 	andvs	r0, r0, r0
    2b00:	00000017 	andeq	r0, r0, r7, lsl r0
	...

Disassembly of section .debug_abbrev:

00000000 <.debug_abbrev>:
       0:	10001101 	andne	r1, r0, r1, lsl #2
       4:	12011106 	andne	r1, r1, #-2147483647	; 0x80000001
       8:	1b080301 	blne	200c14 <__kernel_end+0xdfc14>
       c:	13082508 	movwne	r2, #34056	; 0x8508
      10:	00000005 	andeq	r0, r0, r5
      14:	25011101 	strcs	r1, [r1, #-257]	; 0xfffffeff
      18:	030b130e 	movweq	r1, #45838	; 0xb30e
      1c:	110e1b0e 	tstne	lr, lr, lsl #22
      20:	10061201 	andne	r1, r6, r1, lsl #4
      24:	02000017 	andeq	r0, r0, #23
      28:	0b0b0024 	bleq	2c00c0 <__kernel_end+0x19f0c0>
      2c:	0e030b3e 	vmoveq.16	d3[0], r0
      30:	16030000 	strne	r0, [r3], -r0
      34:	3a0e0300 	bcc	380c3c <__kernel_end+0x25fc3c>
      38:	490b3b0b 	stmdbmi	fp, {r0, r1, r3, r8, r9, fp, ip, sp}
      3c:	04000013 	streq	r0, [r0], #-19	; 0xffffffed
      40:	0b0b0024 	bleq	2c00d8 <__kernel_end+0x19f0d8>
      44:	08030b3e 	stmdaeq	r3, {r1, r2, r3, r4, r5, r8, r9, fp}
      48:	2e050000 	cdpcs	0, 0, cr0, cr5, cr0, {0}
      4c:	03193f01 	tsteq	r9, #1, 30
      50:	3b0b3a0e 	blcc	2ce890 <__kernel_end+0x1ad890>
      54:	1119270b 	tstne	r9, fp, lsl #14
      58:	40061201 	andmi	r1, r6, r1, lsl #4
      5c:	19429718 	stmdbne	r2, {r3, r4, r8, r9, sl, ip, pc}^
      60:	00001301 	andeq	r1, r0, r1, lsl #6
      64:	03000506 	movweq	r0, #1286	; 0x506
      68:	3b0b3a08 	blcc	2ce890 <__kernel_end+0x1ad890>
      6c:	0213490b 	andseq	r4, r3, #180224	; 0x2c000
      70:	07000017 	smladeq	r0, r7, r0, r0
      74:	08030034 	stmdaeq	r3, {r2, r4, r5}
      78:	0b3b0b3a 	bleq	ec2d68 <__kernel_end+0xda1d68>
      7c:	17021349 	strne	r1, [r2, -r9, asr #6]
      80:	34080000 	strcc	r0, [r8], #-0
      84:	3a0e0300 	bcc	380c8c <__kernel_end+0x25fc8c>
      88:	490b3b0b 	stmdbmi	fp, {r0, r1, r3, r8, r9, fp, ip, sp}
      8c:	09000013 	stmdbeq	r0, {r0, r1, r4}
      90:	00018289 	andeq	r8, r1, r9, lsl #5
      94:	13310111 	teqne	r1, #1073741828	; 0x40000004
      98:	0f0a0000 	svceq	0x000a0000
      9c:	490b0b00 	stmdbmi	fp, {r8, r9, fp}
      a0:	0b000013 	bleq	f4 <ARM_I_BIT+0x74>
      a4:	0e030034 	mcreq	0, 0, r0, cr3, cr4, {1}
      a8:	0b3b0b3a 	bleq	ec2d98 <__kernel_end+0xda1d98>
      ac:	193f1349 	ldmdbne	pc!, {r0, r3, r6, r8, r9, ip}	; <UNPREDICTABLE>
      b0:	0000193c 	andeq	r1, r0, ip, lsr r9
      b4:	3f002e0c 	svccc	0x00002e0c
      b8:	6e193c19 	mrcvs	12, 0, r3, cr9, cr9, {0}
      bc:	3a0e030e 	bcc	380cfc <__kernel_end+0x25fcfc>
      c0:	000b3b0b 	andeq	r3, fp, fp, lsl #22
      c4:	11010000 	mrsne	r0, (UNDEF: 1)
      c8:	130e2501 	movwne	r2, #58625	; 0xe501
      cc:	1b0e030b 	blne	380d00 <__kernel_end+0x25fd00>
      d0:	1201110e 	andne	r1, r1, #-2147483645	; 0x80000003
      d4:	00171006 	andseq	r1, r7, r6
      d8:	00240200 	eoreq	r0, r4, r0, lsl #4
      dc:	0b3e0b0b 	bleq	f82d10 <__kernel_end+0xe61d10>
      e0:	00000e03 	andeq	r0, r0, r3, lsl #28
      e4:	03001603 	movweq	r1, #1539	; 0x603
      e8:	3b0b3a0e 	blcc	2ce928 <__kernel_end+0x1ad928>
      ec:	0013490b 	andseq	r4, r3, fp, lsl #18
      f0:	00240400 	eoreq	r0, r4, r0, lsl #8
      f4:	0b3e0b0b 	bleq	f82d28 <__kernel_end+0xe61d28>
      f8:	00000803 	andeq	r0, r0, r3, lsl #16
      fc:	49003505 	stmdbmi	r0, {r0, r2, r8, sl, ip, sp}
     100:	06000013 			; <UNDEFINED> instruction: 0x06000013
     104:	0b0b0113 	bleq	2c0558 <__kernel_end+0x19f558>
     108:	0b3b0b3a 	bleq	ec2df8 <__kernel_end+0xda1df8>
     10c:	00001301 	andeq	r1, r0, r1, lsl #6
     110:	03000d07 	movweq	r0, #3335	; 0xd07
     114:	3b0b3a0e 	blcc	2ce954 <__kernel_end+0x1ad954>
     118:	3813490b 	ldmdacc	r3, {r0, r1, r3, r8, fp, lr}
     11c:	0800000b 	stmdaeq	r0, {r0, r1, r3}
     120:	0b0b0104 	bleq	2c0538 <__kernel_end+0x19f538>
     124:	0b3a1349 	bleq	e84e50 <__kernel_end+0xd63e50>
     128:	13010b3b 	movwne	r0, #6971	; 0x1b3b
     12c:	28090000 	stmdacs	r9, {}	; <UNPREDICTABLE>
     130:	1c0e0300 	stcne	3, cr0, [lr], {-0}
     134:	0a00000b 	beq	168 <ARM_I_BIT+0xe8>
     138:	193f002e 	ldmdbne	pc!, {r1, r2, r3, r5}	; <UNPREDICTABLE>
     13c:	0b3a0e03 	bleq	e83950 <__kernel_end+0xd62950>
     140:	19270b3b 	stmdbne	r7!, {r0, r1, r3, r4, r5, r8, r9, fp}
     144:	01111349 	tsteq	r1, r9, asr #6
     148:	18400612 	stmdane	r0, {r1, r4, r9, sl}^
     14c:	00194297 	mulseq	r9, r7, r2
     150:	000f0b00 	andeq	r0, pc, r0, lsl #22
     154:	13490b0b 	movtne	r0, #39691	; 0x9b0b
     158:	2e0c0000 	cdpcs	0, 0, cr0, cr12, cr0, {0}
     15c:	03193f01 	tsteq	r9, #1, 30
     160:	3b0b3a0e 	blcc	2ce9a0 <__kernel_end+0x1ad9a0>
     164:	1119270b 	tstne	r9, fp, lsl #14
     168:	40061201 	andmi	r1, r6, r1, lsl #4
     16c:	19429718 	stmdbne	r2, {r3, r4, r8, r9, sl, ip, pc}^
     170:	00001301 	andeq	r1, r0, r1, lsl #6
     174:	0182890d 	orreq	r8, r2, sp, lsl #18
     178:	31011100 	mrscc	r1, (UNDEF: 17)
     17c:	0e000013 	mcreq	0, 0, r0, cr0, cr3, {0}
     180:	0e030034 	mcreq	0, 0, r0, cr3, cr4, {1}
     184:	0b3b0b3a 	bleq	ec2e74 <__kernel_end+0xda1e74>
     188:	061c1349 	ldreq	r1, [ip], -r9, asr #6
     18c:	260f0000 	strcs	r0, [pc], -r0
     190:	00134900 	andseq	r4, r3, r0, lsl #18
     194:	002e1000 	eoreq	r1, lr, r0
     198:	193c193f 	ldmdbne	ip!, {r0, r1, r2, r3, r4, r5, r8, fp, ip}
     19c:	0e030e6e 	cdpeq	14, 0, cr0, cr3, cr14, {3}
     1a0:	0b3b0b3a 	bleq	ec2e90 <__kernel_end+0xda1e90>
     1a4:	01000000 	mrseq	r0, (UNDEF: 0)
     1a8:	0e250111 	mcreq	1, 1, r0, cr5, cr1, {0}
     1ac:	0e030b13 	vmoveq.32	d3[0], r0
     1b0:	01110e1b 	tsteq	r1, fp, lsl lr
     1b4:	17100612 			; <UNDEFINED> instruction: 0x17100612
     1b8:	24020000 	strcs	r0, [r2], #-0
     1bc:	3e0b0b00 	vmlacc.f64	d0, d11, d0
     1c0:	000e030b 	andeq	r0, lr, fp, lsl #6
     1c4:	00240300 	eoreq	r0, r4, r0, lsl #6
     1c8:	0b3e0b0b 	bleq	f82dfc <__kernel_end+0xe61dfc>
     1cc:	00000803 	andeq	r0, r0, r3, lsl #16
     1d0:	03001604 	movweq	r1, #1540	; 0x604
     1d4:	3b0b3a0e 	blcc	2cea14 <__kernel_end+0x1ada14>
     1d8:	0013490b 	andseq	r4, r3, fp, lsl #18
     1dc:	00350500 	eorseq	r0, r5, r0, lsl #10
     1e0:	00001349 	andeq	r1, r0, r9, asr #6
     1e4:	0b000f06 	bleq	3e04 <SCTLR_ENABLE_INSTRUCTION_CACHE+0x2e04>
     1e8:	0013490b 	andseq	r4, r3, fp, lsl #18
     1ec:	00150700 	andseq	r0, r5, r0, lsl #14
     1f0:	00001927 	andeq	r1, r0, r7, lsr #18
     1f4:	0b010408 	bleq	4121c <__first_lvl_tbl_end+0x2021c>
     1f8:	3a13490b 	bcc	4d262c <__kernel_end+0x3b162c>
     1fc:	010b3b0b 	tsteq	fp, fp, lsl #22
     200:	09000013 	stmdbeq	r0, {r0, r1, r4}
     204:	0e030028 	cdpeq	0, 0, cr0, cr3, cr8, {1}
     208:	00000b1c 	andeq	r0, r0, ip, lsl fp
     20c:	0b01130a 	bleq	44e3c <__first_lvl_tbl_end+0x23e3c>
     210:	3b0b3a0b 	blcc	2cea44 <__kernel_end+0x1ada44>
     214:	0013010b 	andseq	r0, r3, fp, lsl #2
     218:	000d0b00 	andeq	r0, sp, r0, lsl #22
     21c:	0b3a0e03 	bleq	e83a30 <__kernel_end+0xd62a30>
     220:	13490b3b 	movtne	r0, #39739	; 0x9b3b
     224:	00000b38 	andeq	r0, r0, r8, lsr fp
     228:	3f012e0c 	svccc	0x00012e0c
     22c:	3a0e0319 	bcc	380e98 <__kernel_end+0x25fe98>
     230:	270b3b0b 	strcs	r3, [fp, -fp, lsl #22]
     234:	20134919 	andscs	r4, r3, r9, lsl r9
     238:	0013010b 	andseq	r0, r3, fp, lsl #2
     23c:	00340d00 	eorseq	r0, r4, r0, lsl #26
     240:	0b3a0803 	bleq	e82254 <__kernel_end+0xd61254>
     244:	13490b3b 	movtne	r0, #39739	; 0x9b3b
     248:	2e0e0000 	cdpcs	0, 0, cr0, cr14, cr0, {0}
     24c:	03193f00 	tsteq	r9, #0, 30
     250:	3b0b3a0e 	blcc	2cea90 <__kernel_end+0x1ada90>
     254:	2019270b 	andscs	r2, r9, fp, lsl #14
     258:	0f00000b 	svceq	0x0000000b
     25c:	193f002e 	ldmdbne	pc!, {r1, r2, r3, r5}	; <UNPREDICTABLE>
     260:	0b3a0e03 	bleq	e83a74 <__kernel_end+0xd62a74>
     264:	19270b3b 	stmdbne	r7!, {r0, r1, r3, r4, r5, r8, r9, fp}
     268:	01111349 	tsteq	r1, r9, asr #6
     26c:	18400612 	stmdane	r0, {r1, r4, r9, sl}^
     270:	00194297 	mulseq	r9, r7, r2
     274:	012e1000 			; <UNDEFINED> instruction: 0x012e1000
     278:	0e03193f 	mcreq	9, 0, r1, cr3, cr15, {1}
     27c:	0b3b0b3a 	bleq	ec2f6c <__kernel_end+0xda1f6c>
     280:	01111927 	tsteq	r1, r7, lsr #18
     284:	18400612 	stmdane	r0, {r1, r4, r9, sl}^
     288:	01194297 			; <UNDEFINED> instruction: 0x01194297
     28c:	11000013 	tstne	r0, r3, lsl r0
     290:	00018289 	andeq	r8, r1, r9, lsl #5
     294:	13310111 	teqne	r1, #1073741828	; 0x40000004
     298:	2e120000 	cdpcs	0, 1, cr0, cr2, cr0, {0}
     29c:	03193f01 	tsteq	r9, #1, 30
     2a0:	3b0b3a0e 	blcc	2ceae0 <__kernel_end+0x1adae0>
     2a4:	1119270b 	tstne	r9, fp, lsl #14
     2a8:	40061201 	andmi	r1, r6, r1, lsl #4
     2ac:	19429618 	stmdbne	r2, {r3, r4, r9, sl, ip, pc}^
     2b0:	00001301 	andeq	r1, r0, r1, lsl #6
     2b4:	03003413 	movweq	r3, #1043	; 0x413
     2b8:	3b0b3a08 	blcc	2ceae0 <__kernel_end+0x1adae0>
     2bc:	0213490b 	andseq	r4, r3, #180224	; 0x2c000
     2c0:	14000017 	strne	r0, [r0], #-23	; 0xffffffe9
     2c4:	1331011d 	teqne	r1, #1073741831	; 0x40000007
     2c8:	06120111 			; <UNDEFINED> instruction: 0x06120111
     2cc:	0b590b58 	bleq	1643034 <__kernel_end+0x1522034>
     2d0:	00001301 	andeq	r1, r0, r1, lsl #6
     2d4:	31011d15 	tstcc	r1, r5, lsl sp
     2d8:	12011113 	andne	r1, r1, #-1073741820	; 0xc0000004
     2dc:	590b5806 	stmdbpl	fp, {r1, r2, fp, ip, lr}
     2e0:	1600000b 	strne	r0, [r0], -fp
     2e4:	0111010b 	tsteq	r1, fp, lsl #2
     2e8:	00000612 	andeq	r0, r0, r2, lsl r6
     2ec:	31003417 	tstcc	r0, r7, lsl r4
     2f0:	18000013 	stmdane	r0, {r0, r1, r4}
     2f4:	0e030005 	cdpeq	0, 0, cr0, cr3, cr5, {0}
     2f8:	0b3b0b3a 	bleq	ec2fe8 <__kernel_end+0xda1fe8>
     2fc:	17021349 	strne	r1, [r2, -r9, asr #6]
     300:	05190000 	ldreq	r0, [r9, #-0]
     304:	3a0e0300 	bcc	380f0c <__kernel_end+0x25ff0c>
     308:	490b3b0b 	stmdbmi	fp, {r0, r1, r3, r8, r9, fp, ip, sp}
     30c:	00180213 	andseq	r0, r8, r3, lsl r2
     310:	00341a00 	eorseq	r1, r4, r0, lsl #20
     314:	0b3a0e03 	bleq	e83b28 <__kernel_end+0xd62b28>
     318:	13490b3b 	movtne	r0, #39739	; 0x9b3b
     31c:	00001702 	andeq	r1, r0, r2, lsl #14
     320:	3f012e1b 	svccc	0x00012e1b
     324:	3a0e0319 	bcc	380f90 <__kernel_end+0x25ff90>
     328:	270b3b0b 	strcs	r3, [fp, -fp, lsl #22]
     32c:	11134919 	tstne	r3, r9, lsl r9
     330:	40061201 	andmi	r1, r6, r1, lsl #4
     334:	19429718 	stmdbne	r2, {r3, r4, r8, r9, sl, ip, pc}^
     338:	00001301 	andeq	r1, r0, r1, lsl #6
     33c:	0300051c 	movweq	r0, #1308	; 0x51c
     340:	3b0b3a08 	blcc	2ceb68 <__kernel_end+0x1adb68>
     344:	0213490b 	andseq	r4, r3, #180224	; 0x2c000
     348:	1d000018 	stcne	0, cr0, [r0, #-96]	; 0xffffffa0
     34c:	08030005 	stmdaeq	r3, {r0, r2}
     350:	0b3b0b3a 	bleq	ec3040 <__kernel_end+0xda2040>
     354:	17021349 	strne	r1, [r2, -r9, asr #6]
     358:	341e0000 	ldrcc	r0, [lr], #-0
     35c:	3a080300 	bcc	200f64 <__kernel_end+0xdff64>
     360:	490b3b0b 	stmdbmi	fp, {r0, r1, r3, r8, r9, fp, ip, sp}
     364:	00180213 	andseq	r0, r8, r3, lsl r2
     368:	00341f00 	eorseq	r1, r4, r0, lsl #30
     36c:	0b3a0e03 	bleq	e83b80 <__kernel_end+0xd62b80>
     370:	13490b3b 	movtne	r0, #39739	; 0x9b3b
     374:	00001802 	andeq	r1, r0, r2, lsl #16
     378:	0b000f20 	bleq	4000 <SCTLR_ENABLE_INSTRUCTION_CACHE+0x3000>
     37c:	2100000b 	tstcs	r0, fp
     380:	01018289 	smlabbeq	r1, r9, r2, r8
     384:	42950111 	addsmi	r0, r5, #1073741828	; 0x40000004
     388:	00133119 	andseq	r3, r3, r9, lsl r1
     38c:	828a2200 	addhi	r2, sl, #0, 4
     390:	18020001 	stmdane	r2, {r0}
     394:	00184291 	mulseq	r8, r1, r2
     398:	82892300 	addhi	r2, r9, #0, 6
     39c:	01110101 	tsteq	r1, r1, lsl #2
     3a0:	13011331 	movwne	r1, #4913	; 0x1331
     3a4:	89240000 	stmdbhi	r4!, {}	; <UNPREDICTABLE>
     3a8:	11010182 	smlabbne	r1, r2, r1, r0
     3ac:	00133101 	andseq	r3, r3, r1, lsl #2
     3b0:	00342500 	eorseq	r2, r4, r0, lsl #10
     3b4:	0b3a0e03 	bleq	e83bc8 <__kernel_end+0xd62bc8>
     3b8:	13490b3b 	movtne	r0, #39739	; 0x9b3b
     3bc:	0000061c 	andeq	r0, r0, ip, lsl r6
     3c0:	49002626 	stmdbmi	r0, {r1, r2, r5, r9, sl, sp}
     3c4:	27000013 	smladcs	r0, r3, r0, r0
     3c8:	13490101 	movtne	r0, #37121	; 0x9101
     3cc:	00001301 	andeq	r1, r0, r1, lsl #6
     3d0:	49002128 	stmdbmi	r0, {r3, r5, r8, sp}
     3d4:	000b2f13 	andeq	r2, fp, r3, lsl pc
     3d8:	00342900 	eorseq	r2, r4, r0, lsl #18
     3dc:	0b3a0e03 	bleq	e83bf0 <__kernel_end+0xd62bf0>
     3e0:	13490b3b 	movtne	r0, #39739	; 0x9b3b
     3e4:	1802193f 	stmdane	r2, {r0, r1, r2, r3, r4, r5, r8, fp, ip}
     3e8:	2e2a0000 	cdpcs	0, 2, cr0, cr10, cr0, {0}
     3ec:	3c193f00 	ldccc	15, cr3, [r9], {-0}
     3f0:	030e6e19 	movweq	r6, #60953	; 0xee19
     3f4:	3b0b3a0e 	blcc	2cec34 <__kernel_end+0x1adc34>
     3f8:	0000000b 	andeq	r0, r0, fp
     3fc:	25011101 	strcs	r1, [r1, #-257]	; 0xfffffeff
     400:	030b130e 	movweq	r1, #45838	; 0xb30e
     404:	110e1b0e 	tstne	lr, lr, lsl #22
     408:	10061201 	andne	r1, r6, r1, lsl #4
     40c:	02000017 	andeq	r0, r0, #23
     410:	0b0b0024 	bleq	2c04a8 <__kernel_end+0x19f4a8>
     414:	0e030b3e 	vmoveq.16	d3[0], r0
     418:	16030000 	strne	r0, [r3], -r0
     41c:	3a0e0300 	bcc	381024 <__kernel_end+0x260024>
     420:	490b3b0b 	stmdbmi	fp, {r0, r1, r3, r8, r9, fp, ip, sp}
     424:	04000013 	streq	r0, [r0], #-19	; 0xffffffed
     428:	0b0b0024 	bleq	2c04c0 <__kernel_end+0x19f4c0>
     42c:	08030b3e 	stmdaeq	r3, {r1, r2, r3, r4, r5, r8, r9, fp}
     430:	04050000 	streq	r0, [r5], #-0
     434:	490b0b01 	stmdbmi	fp, {r0, r8, r9, fp}
     438:	3b0b3a13 	blcc	2cec8c <__kernel_end+0x1adc8c>
     43c:	0013010b 	andseq	r0, r3, fp, lsl #2
     440:	00280600 	eoreq	r0, r8, r0, lsl #12
     444:	061c0e03 	ldreq	r0, [ip], -r3, lsl #28
     448:	2e070000 	cdpcs	0, 0, cr0, cr7, cr0, {0}
     44c:	3a0e0301 	bcc	381058 <__kernel_end+0x260058>
     450:	270b3b0b 	strcs	r3, [fp, -fp, lsl #22]
     454:	010b2019 	tsteq	fp, r9, lsl r0
     458:	08000013 	stmdaeq	r0, {r0, r1, r4}
     45c:	08030005 	stmdaeq	r3, {r0, r2}
     460:	0b3b0b3a 	bleq	ec3150 <__kernel_end+0xda2150>
     464:	00001349 	andeq	r1, r0, r9, asr #6
     468:	03000509 	movweq	r0, #1289	; 0x509
     46c:	3b0b3a0e 	blcc	2cecac <__kernel_end+0x1adcac>
     470:	0013490b 	andseq	r4, r3, fp, lsl #18
     474:	012e0a00 			; <UNDEFINED> instruction: 0x012e0a00
     478:	0b3a0e03 	bleq	e83c8c <__kernel_end+0xd62c8c>
     47c:	19270b3b 	stmdbne	r7!, {r0, r1, r3, r4, r5, r8, r9, fp}
     480:	0b201349 	bleq	8051ac <__kernel_end+0x6e41ac>
     484:	00001301 	andeq	r1, r0, r1, lsl #6
     488:	3f012e0b 	svccc	0x00012e0b
     48c:	3a0e0319 	bcc	3810f8 <__kernel_end+0x2600f8>
     490:	110b3b0b 	tstne	fp, fp, lsl #22
     494:	40061201 	andmi	r1, r6, r1, lsl #4
     498:	19429718 	stmdbne	r2, {r3, r4, r8, r9, sl, ip, pc}^
     49c:	00001301 	andeq	r1, r0, r1, lsl #6
     4a0:	31011d0c 	tstcc	r1, ip, lsl #26
     4a4:	55015213 	strpl	r5, [r1, #-531]	; 0xfffffded
     4a8:	590b5817 	stmdbpl	fp, {r0, r1, r2, r4, fp, ip, lr}
     4ac:	0013010b 	andseq	r0, r3, fp, lsl #2
     4b0:	00050d00 	andeq	r0, r5, r0, lsl #26
     4b4:	17021331 	smladxne	r2, r1, r3, r1
     4b8:	1d0e0000 	stcne	0, cr0, [lr, #-0]
     4bc:	11133101 	tstne	r3, r1, lsl #2
     4c0:	58061201 	stmdapl	r6, {r0, r9, ip}
     4c4:	010b590b 	tsteq	fp, fp, lsl #18
     4c8:	0f000013 	svceq	0x00000013
     4cc:	1331011d 	teqne	r1, #1073741831	; 0x40000007
     4d0:	17550152 			; <UNDEFINED> instruction: 0x17550152
     4d4:	0b590b58 	bleq	164323c <__kernel_end+0x152223c>
     4d8:	2e100000 	cdpcs	0, 1, cr0, cr0, cr0, {0}
     4dc:	03193f01 	tsteq	r9, #1, 30
     4e0:	3b0b3a0e 	blcc	2ced20 <__kernel_end+0x1add20>
     4e4:	1119270b 	tstne	r9, fp, lsl #14
     4e8:	40061201 	andmi	r1, r6, r1, lsl #4
     4ec:	19429718 	stmdbne	r2, {r3, r4, r8, r9, sl, ip, pc}^
     4f0:	00001301 	andeq	r1, r0, r1, lsl #6
     4f4:	03000511 	movweq	r0, #1297	; 0x511
     4f8:	3b0b3a08 	blcc	2ced20 <__kernel_end+0x1add20>
     4fc:	0213490b 	andseq	r4, r3, #180224	; 0x2c000
     500:	12000018 	andne	r0, r0, #24
     504:	1331011d 	teqne	r1, #1073741831	; 0x40000007
     508:	06120111 			; <UNDEFINED> instruction: 0x06120111
     50c:	0b590b58 	bleq	1643274 <__kernel_end+0x1522274>
     510:	2e130000 	cdpcs	0, 1, cr0, cr3, cr0, {0}
     514:	03193f01 	tsteq	r9, #1, 30
     518:	3b0b3a0e 	blcc	2ced58 <__kernel_end+0x1add58>
     51c:	1113490b 	tstne	r3, fp, lsl #18
     520:	40061201 	andmi	r1, r6, r1, lsl #4
     524:	19429718 	stmdbne	r2, {r3, r4, r8, r9, sl, ip, pc}^
     528:	00001301 	andeq	r1, r0, r1, lsl #6
     52c:	03000514 	movweq	r0, #1300	; 0x514
     530:	3b0b3a08 	blcc	2ced58 <__kernel_end+0x1add58>
     534:	0213490b 	andseq	r4, r3, #180224	; 0x2c000
     538:	15000017 	strne	r0, [r0, #-23]	; 0xffffffe9
     53c:	0111010b 	tsteq	r1, fp, lsl #2
     540:	00000612 	andeq	r0, r0, r2, lsl r6
     544:	03003416 	movweq	r3, #1046	; 0x416
     548:	3b0b3a08 	blcc	2ced70 <__kernel_end+0x1add70>
     54c:	0213490b 	andseq	r4, r3, #180224	; 0x2c000
     550:	17000017 	smladne	r0, r7, r0, r0
     554:	00018289 	andeq	r8, r1, r9, lsl #5
     558:	13310111 	teqne	r1, #1073741828	; 0x40000004
     55c:	0f180000 	svceq	0x00180000
     560:	490b0b00 	stmdbmi	fp, {r8, r9, fp}
     564:	19000013 	stmdbne	r0, {r0, r1, r4}
     568:	13490026 	movtne	r0, #36902	; 0x9026
     56c:	2e1a0000 	cdpcs	0, 1, cr0, cr10, cr0, {0}
     570:	03193f01 	tsteq	r9, #1, 30
     574:	3b0b3a0e 	blcc	2cedb4 <__kernel_end+0x1addb4>
     578:	1119270b 	tstne	r9, fp, lsl #14
     57c:	40061201 	andmi	r1, r6, r1, lsl #4
     580:	19429718 	stmdbne	r2, {r3, r4, r8, r9, sl, ip, pc}^
     584:	891b0000 	ldmdbhi	fp, {}	; <UNPREDICTABLE>
     588:	11010182 	smlabbne	r1, r2, r1, r0
     58c:	01133101 	tsteq	r3, r1, lsl #2
     590:	1c000013 	stcne	0, cr0, [r0], {19}
     594:	0001828a 	andeq	r8, r1, sl, lsl #5
     598:	42911802 	addsmi	r1, r1, #131072	; 0x20000
     59c:	1d000018 	stcne	0, cr0, [r0, #-96]	; 0xffffffa0
     5a0:	01018289 	smlabbeq	r1, r9, r2, r8
     5a4:	42950111 	addsmi	r0, r5, #1073741828	; 0x40000004
     5a8:	00133119 	andseq	r3, r3, r9, lsl r1
     5ac:	11010000 	mrsne	r0, (UNDEF: 1)
     5b0:	130e2501 	movwne	r2, #58625	; 0xe501
     5b4:	1b0e030b 	blne	3811e8 <__kernel_end+0x2601e8>
     5b8:	1201110e 	andne	r1, r1, #-2147483645	; 0x80000003
     5bc:	00171006 	andseq	r1, r7, r6
     5c0:	00240200 	eoreq	r0, r4, r0, lsl #4
     5c4:	0b3e0b0b 	bleq	f831f8 <__kernel_end+0xe621f8>
     5c8:	00000e03 	andeq	r0, r0, r3, lsl #28
     5cc:	03001603 	movweq	r1, #1539	; 0x603
     5d0:	3b0b3a0e 	blcc	2cee10 <__kernel_end+0x1ade10>
     5d4:	0013490b 	andseq	r4, r3, fp, lsl #18
     5d8:	00240400 	eoreq	r0, r4, r0, lsl #8
     5dc:	0b3e0b0b 	bleq	f83210 <__kernel_end+0xe62210>
     5e0:	00000803 	andeq	r0, r0, r3, lsl #16
     5e4:	49003505 	stmdbmi	r0, {r0, r2, r8, sl, ip, sp}
     5e8:	06000013 			; <UNDEFINED> instruction: 0x06000013
     5ec:	0b0b0104 	bleq	2c0a04 <__kernel_end+0x19fa04>
     5f0:	0b3a1349 	bleq	e8531c <__kernel_end+0xd6431c>
     5f4:	13010b3b 	movwne	r0, #6971	; 0x1b3b
     5f8:	28070000 	stmdacs	r7, {}	; <UNPREDICTABLE>
     5fc:	1c0e0300 	stcne	3, cr0, [lr], {-0}
     600:	0800000b 	stmdaeq	r0, {r0, r1, r3}
     604:	0e030104 	adfeqs	f0, f3, f4
     608:	13490b0b 	movtne	r0, #39691	; 0x9b0b
     60c:	0b3b0b3a 	bleq	ec32fc <__kernel_end+0xda22fc>
     610:	00001301 	andeq	r1, r0, r1, lsl #6
     614:	03002809 	movweq	r2, #2057	; 0x809
     618:	00061c0e 	andeq	r1, r6, lr, lsl #24
     61c:	01130a00 	tsteq	r3, r0, lsl #20
     620:	0b3a0b0b 	bleq	e83254 <__kernel_end+0xd62254>
     624:	13010b3b 	movwne	r0, #6971	; 0x1b3b
     628:	0d0b0000 	stceq	0, cr0, [fp, #-0]
     62c:	3a0e0300 	bcc	381234 <__kernel_end+0x260234>
     630:	490b3b0b 	stmdbmi	fp, {r0, r1, r3, r8, r9, fp, ip, sp}
     634:	000b3813 	andeq	r3, fp, r3, lsl r8
     638:	01010c00 	tsteq	r1, r0, lsl #24
     63c:	13011349 	movwne	r1, #4937	; 0x1349
     640:	210d0000 	mrscs	r0, (UNDEF: 13)
     644:	2f134900 	svccs	0x00134900
     648:	0e00000b 	cdpeq	0, 0, cr0, cr0, cr11, {0}
     64c:	193f012e 	ldmdbne	pc!, {r1, r2, r3, r5, r8}	; <UNPREDICTABLE>
     650:	0b3a0e03 	bleq	e83e64 <__kernel_end+0xd62e64>
     654:	19270b3b 	stmdbne	r7!, {r0, r1, r3, r4, r5, r8, r9, fp}
     658:	06120111 			; <UNDEFINED> instruction: 0x06120111
     65c:	42971840 	addsmi	r1, r7, #64, 16	; 0x400000
     660:	00130119 	andseq	r0, r3, r9, lsl r1
     664:	00050f00 	andeq	r0, r5, r0, lsl #30
     668:	0b3a0e03 	bleq	e83e7c <__kernel_end+0xd62e7c>
     66c:	13490b3b 	movtne	r0, #39739	; 0x9b3b
     670:	00001702 	andeq	r1, r0, r2, lsl #14
     674:	3f012e10 	svccc	0x00012e10
     678:	3a0e0319 	bcc	3812e4 <__kernel_end+0x2602e4>
     67c:	270b3b0b 	strcs	r3, [fp, -fp, lsl #22]
     680:	11134919 	tstne	r3, r9, lsl r9
     684:	40061201 	andmi	r1, r6, r1, lsl #4
     688:	19429718 	stmdbne	r2, {r3, r4, r8, r9, sl, ip, pc}^
     68c:	00001301 	andeq	r1, r0, r1, lsl #6
     690:	03003411 	movweq	r3, #1041	; 0x411
     694:	3b0b3a0e 	blcc	2ceed4 <__kernel_end+0x1aded4>
     698:	0213490b 	andseq	r4, r3, #180224	; 0x2c000
     69c:	12000017 	andne	r0, r0, #23
     6a0:	0e030034 	mcreq	0, 0, r0, cr3, cr4, {1}
     6a4:	0b3b0b3a 	bleq	ec3394 <__kernel_end+0xda2394>
     6a8:	061c1349 	ldreq	r1, [ip], -r9, asr #6
     6ac:	0f130000 	svceq	0x00130000
     6b0:	490b0b00 	stmdbmi	fp, {r8, r9, fp}
     6b4:	14000013 	strne	r0, [r0], #-19	; 0xffffffed
     6b8:	13490026 	movtne	r0, #36902	; 0x9026
     6bc:	01000000 	mrseq	r0, (UNDEF: 0)
     6c0:	0e250111 	mcreq	1, 1, r0, cr5, cr1, {0}
     6c4:	0e030b13 	vmoveq.32	d3[0], r0
     6c8:	01110e1b 	tsteq	r1, fp, lsl lr
     6cc:	17100612 			; <UNDEFINED> instruction: 0x17100612
     6d0:	16020000 	strne	r0, [r2], -r0
     6d4:	3a0e0300 	bcc	3812dc <__kernel_end+0x2602dc>
     6d8:	490b3b0b 	stmdbmi	fp, {r0, r1, r3, r8, r9, fp, ip, sp}
     6dc:	03000013 	movweq	r0, #19
     6e0:	0e030113 	mcreq	1, 0, r0, cr3, cr3, {0}
     6e4:	0b3a0b0b 	bleq	e83318 <__kernel_end+0xd62318>
     6e8:	13010b3b 	movwne	r0, #6971	; 0x1b3b
     6ec:	0d040000 	stceq	0, cr0, [r4, #-0]
     6f0:	490e0300 	stmdbmi	lr, {r8, r9}
     6f4:	340b3813 	strcc	r3, [fp], #-2067	; 0xfffff7ed
     6f8:	05000019 	streq	r0, [r0, #-25]	; 0xffffffe7
     6fc:	0b0b000f 	bleq	2c0740 <__kernel_end+0x19f740>
     700:	24060000 	strcs	r0, [r6], #-0
     704:	3e0b0b00 	vmlacc.f64	d0, d11, d0
     708:	000e030b 	andeq	r0, lr, fp, lsl #6
     70c:	00240700 	eoreq	r0, r4, r0, lsl #14
     710:	0b3e0b0b 	bleq	f83344 <__kernel_end+0xe62344>
     714:	00000803 	andeq	r0, r0, r3, lsl #16
     718:	0b010408 	bleq	41740 <__first_lvl_tbl_end+0x20740>
     71c:	3a13490b 	bcc	4d2b50 <__kernel_end+0x3b1b50>
     720:	010b3b0b 	tsteq	fp, fp, lsl #22
     724:	09000013 	stmdbeq	r0, {r0, r1, r4}
     728:	0e030028 	cdpeq	0, 0, cr0, cr3, cr8, {1}
     72c:	00000b1c 	andeq	r0, r0, ip, lsl fp
     730:	0300280a 	movweq	r2, #2058	; 0x80a
     734:	00061c0e 	andeq	r1, r6, lr, lsl #24
     738:	00280b00 	eoreq	r0, r8, r0, lsl #22
     73c:	051c0e03 	ldreq	r0, [ip, #-3587]	; 0xfffff1fd
     740:	170c0000 	strne	r0, [ip, -r0]
     744:	3a050b01 	bcc	143350 <__kernel_end+0x22350>
     748:	010b3b0b 	tsteq	fp, fp, lsl #22
     74c:	0d000013 	stceq	0, cr0, [r0, #-76]	; 0xffffffb4
     750:	0e03000d 	cdpeq	0, 0, cr0, cr3, cr13, {0}
     754:	0b3b0b3a 	bleq	ec3444 <__kernel_end+0xda2444>
     758:	00001349 	andeq	r1, r0, r9, asr #6
     75c:	4901010e 	stmdbmi	r1, {r1, r2, r3, r8}
     760:	00130113 	andseq	r0, r3, r3, lsl r1
     764:	00210f00 	eoreq	r0, r1, r0, lsl #30
     768:	0b2f1349 	bleq	bc5494 <__kernel_end+0xaa4494>
     76c:	13100000 	tstne	r0, #0
     770:	3a050b01 	bcc	14337c <__kernel_end+0x2237c>
     774:	010b3b0b 	tsteq	fp, fp, lsl #22
     778:	11000013 	tstne	r0, r3, lsl r0
     77c:	0803000d 	stmdaeq	r3, {r0, r2, r3}
     780:	0b3b0b3a 	bleq	ec3470 <__kernel_end+0xda2470>
     784:	0b381349 	bleq	e054b0 <__kernel_end+0xce44b0>
     788:	0d120000 	ldceq	0, cr0, [r2, #-0]
     78c:	3a0e0300 	bcc	381394 <__kernel_end+0x260394>
     790:	490b3b0b 	stmdbmi	fp, {r0, r1, r3, r8, r9, fp, ip, sp}
     794:	000b3813 	andeq	r3, fp, r3, lsl r8
     798:	002e1300 	eoreq	r1, lr, r0, lsl #6
     79c:	0e03193f 	mcreq	9, 0, r1, cr3, cr15, {1}
     7a0:	0b3b0b3a 	bleq	ec3490 <__kernel_end+0xda2490>
     7a4:	01111927 	tsteq	r1, r7, lsr #18
     7a8:	18400612 	stmdane	r0, {r1, r4, r9, sl}^
     7ac:	00194297 	mulseq	r9, r7, r2
     7b0:	012e1400 			; <UNDEFINED> instruction: 0x012e1400
     7b4:	0e03193f 	mcreq	9, 0, r1, cr3, cr15, {1}
     7b8:	0b3b0b3a 	bleq	ec34a8 <__kernel_end+0xda24a8>
     7bc:	01111927 	tsteq	r1, r7, lsr #18
     7c0:	18400612 	stmdane	r0, {r1, r4, r9, sl}^
     7c4:	01194297 			; <UNDEFINED> instruction: 0x01194297
     7c8:	15000013 	strne	r0, [r0, #-19]	; 0xffffffed
     7cc:	08030005 	stmdaeq	r3, {r0, r2}
     7d0:	0b3b0b3a 	bleq	ec34c0 <__kernel_end+0xda24c0>
     7d4:	18021349 	stmdane	r2, {r0, r3, r6, r8, r9, ip}
     7d8:	18160000 	ldmdane	r6, {}	; <UNPREDICTABLE>
     7dc:	17000000 	strne	r0, [r0, -r0]
     7e0:	08030034 	stmdaeq	r3, {r2, r4, r5}
     7e4:	0b3b0b3a 	bleq	ec34d4 <__kernel_end+0xda24d4>
     7e8:	18021349 	stmdane	r2, {r0, r3, r6, r8, r9, ip}
     7ec:	2e180000 	cdpcs	0, 1, cr0, cr8, cr0, {0}
     7f0:	03193f01 	tsteq	r9, #1, 30
     7f4:	3b0b3a0e 	blcc	2cf034 <__kernel_end+0x1ae034>
     7f8:	4919270b 	ldmdbmi	r9, {r0, r1, r3, r8, r9, sl, sp}
     7fc:	12011113 	andne	r1, r1, #-1073741820	; 0xc0000004
     800:	97184006 	ldrls	r4, [r8, -r6]
     804:	13011942 	movwne	r1, #6466	; 0x1942
     808:	34190000 	ldrcc	r0, [r9], #-0
     80c:	3a0e0300 	bcc	381414 <__kernel_end+0x260414>
     810:	490b3b0b 	stmdbmi	fp, {r0, r1, r3, r8, r9, fp, ip, sp}
     814:	1a000013 	bne	868 <SCTLR_ENABLE_BRANCH_PREDICTION+0x68>
     818:	01018289 	smlabbeq	r1, r9, r2, r8
     81c:	13310111 	teqne	r1, #1073741828	; 0x40000004
     820:	00001301 	andeq	r1, r0, r1, lsl #6
     824:	01828a1b 	orreq	r8, r2, fp, lsl sl
     828:	91180200 	tstls	r8, r0, lsl #4
     82c:	00001842 	andeq	r1, r0, r2, asr #16
     830:	0182891c 	orreq	r8, r2, ip, lsl r9
     834:	95011101 	strls	r1, [r1, #-257]	; 0xfffffeff
     838:	13311942 	teqne	r1, #1081344	; 0x108000
     83c:	051d0000 	ldreq	r0, [sp, #-0]
     840:	3a080300 	bcc	201448 <__kernel_end+0xe0448>
     844:	490b3b0b 	stmdbmi	fp, {r0, r1, r3, r8, r9, fp, ip, sp}
     848:	00170213 	andseq	r0, r7, r3, lsl r2
     84c:	00341e00 	eorseq	r1, r4, r0, lsl #28
     850:	0b3a0e03 	bleq	e84064 <__kernel_end+0xd63064>
     854:	13490b3b 	movtne	r0, #39739	; 0x9b3b
     858:	00001802 	andeq	r1, r0, r2, lsl #16
     85c:	0300341f 	movweq	r3, #1055	; 0x41f
     860:	3b0b3a0e 	blcc	2cf0a0 <__kernel_end+0x1ae0a0>
     864:	0213490b 	andseq	r4, r3, #180224	; 0x2c000
     868:	20000017 	andcs	r0, r0, r7, lsl r0
     86c:	01018289 	smlabbeq	r1, r9, r2, r8
     870:	13310111 	teqne	r1, #1073741828	; 0x40000004
     874:	0f210000 	svceq	0x00210000
     878:	490b0b00 	stmdbmi	fp, {r8, r9, fp}
     87c:	22000013 	andcs	r0, r0, #19
     880:	13490021 	movtne	r0, #36897	; 0x9021
     884:	0000052f 	andeq	r0, r0, pc, lsr #10
     888:	3f002e23 	svccc	0x00002e23
     88c:	6e193c19 	mrcvs	12, 0, r3, cr9, cr9, {0}
     890:	3a0e030e 	bcc	3814d0 <__kernel_end+0x2604d0>
     894:	000b3b0b 	andeq	r3, fp, fp, lsl #22
     898:	11010000 	mrsne	r0, (UNDEF: 1)
     89c:	130e2501 	movwne	r2, #58625	; 0xe501
     8a0:	1b0e030b 	blne	3814d4 <__kernel_end+0x2604d4>
     8a4:	1201110e 	andne	r1, r1, #-2147483645	; 0x80000003
     8a8:	00171006 	andseq	r1, r7, r6
     8ac:	00240200 	eoreq	r0, r4, r0, lsl #4
     8b0:	0b3e0b0b 	bleq	f834e4 <__kernel_end+0xe624e4>
     8b4:	00000e03 	andeq	r0, r0, r3, lsl #28
     8b8:	03001603 	movweq	r1, #1539	; 0x603
     8bc:	3b0b3a0e 	blcc	2cf0fc <__kernel_end+0x1ae0fc>
     8c0:	0013490b 	andseq	r4, r3, fp, lsl #18
     8c4:	00240400 	eoreq	r0, r4, r0, lsl #8
     8c8:	0b3e0b0b 	bleq	f834fc <__kernel_end+0xe624fc>
     8cc:	00000803 	andeq	r0, r0, r3, lsl #16
     8d0:	49003505 	stmdbmi	r0, {r0, r2, r8, sl, ip, sp}
     8d4:	06000013 			; <UNDEFINED> instruction: 0x06000013
     8d8:	0b0b0113 	bleq	2c0d2c <__kernel_end+0x19fd2c>
     8dc:	0b3b0b3a 	bleq	ec35cc <__kernel_end+0xda25cc>
     8e0:	00001301 	andeq	r1, r0, r1, lsl #6
     8e4:	03000d07 	movweq	r0, #3335	; 0xd07
     8e8:	3b0b3a0e 	blcc	2cf128 <__kernel_end+0x1ae128>
     8ec:	0b13490b 	bleq	4d2d20 <__kernel_end+0x3b1d20>
     8f0:	0c0b0d0b 	stceq	13, cr0, [fp], {11}
     8f4:	000b380b 	andeq	r3, fp, fp, lsl #16
     8f8:	000d0800 	andeq	r0, sp, r0, lsl #16
     8fc:	0b3a0e03 	bleq	e84110 <__kernel_end+0xd63110>
     900:	13490b3b 	movtne	r0, #39739	; 0x9b3b
     904:	00000b38 	andeq	r0, r0, r8, lsr fp
     908:	0b010409 	bleq	41934 <__first_lvl_tbl_end+0x20934>
     90c:	3a13490b 	bcc	4d2d40 <__kernel_end+0x3b1d40>
     910:	010b3b0b 	tsteq	fp, fp, lsl #22
     914:	0a000013 	beq	968 <SCTLR_ENABLE_BRANCH_PREDICTION+0x168>
     918:	0e030028 	cdpeq	0, 0, cr0, cr3, cr8, {1}
     91c:	00000b1c 	andeq	r0, r0, ip, lsl fp
     920:	03012e0b 	movweq	r2, #7691	; 0x1e0b
     924:	3b0b3a0e 	blcc	2cf164 <__kernel_end+0x1ae164>
     928:	1119270b 	tstne	r9, fp, lsl #14
     92c:	40061201 	andmi	r1, r6, r1, lsl #4
     930:	19429718 	stmdbne	r2, {r3, r4, r8, r9, sl, ip, pc}^
     934:	00001301 	andeq	r1, r0, r1, lsl #6
     938:	0182890c 	orreq	r8, r2, ip, lsl #18
     93c:	31011100 	mrscc	r1, (UNDEF: 17)
     940:	0d000013 	stceq	0, cr0, [r0, #-76]	; 0xffffffb4
     944:	00018289 	andeq	r8, r1, r9, lsl #5
     948:	42950111 	addsmi	r0, r5, #1073741828	; 0x40000004
     94c:	00133119 	andseq	r3, r3, r9, lsl r1
     950:	012e0e00 			; <UNDEFINED> instruction: 0x012e0e00
     954:	0e03193f 	mcreq	9, 0, r1, cr3, cr15, {1}
     958:	0b3b0b3a 	bleq	ec3648 <__kernel_end+0xda2648>
     95c:	01111927 	tsteq	r1, r7, lsr #18
     960:	18400612 	stmdane	r0, {r1, r4, r9, sl}^
     964:	01194297 			; <UNDEFINED> instruction: 0x01194297
     968:	0f000013 	svceq	0x00000013
     96c:	01018289 	smlabbeq	r1, r9, r2, r8
     970:	42950111 	addsmi	r0, r5, #1073741828	; 0x40000004
     974:	00133119 	andseq	r3, r3, r9, lsl r1
     978:	828a1000 	addhi	r1, sl, #0
     97c:	18020001 	stmdane	r2, {r0}
     980:	00184291 	mulseq	r8, r1, r2
     984:	00051100 	andeq	r1, r5, r0, lsl #2
     988:	0b3a0e03 	bleq	e8419c <__kernel_end+0xd6319c>
     98c:	13490b3b 	movtne	r0, #39739	; 0x9b3b
     990:	00001702 	andeq	r1, r0, r2, lsl #14
     994:	03000512 	movweq	r0, #1298	; 0x512
     998:	3b0b3a0e 	blcc	2cf1d8 <__kernel_end+0x1ae1d8>
     99c:	0213490b 	andseq	r4, r3, #180224	; 0x2c000
     9a0:	13000018 	movwne	r0, #24
     9a4:	0e030034 	mcreq	0, 0, r0, cr3, cr4, {1}
     9a8:	0b3b0b3a 	bleq	ec3698 <__kernel_end+0xda2698>
     9ac:	18021349 	stmdane	r2, {r0, r3, r6, r8, r9, ip}
     9b0:	34140000 	ldrcc	r0, [r4], #-0
     9b4:	3a080300 	bcc	2015bc <__kernel_end+0xe05bc>
     9b8:	490b3b0b 	stmdbmi	fp, {r0, r1, r3, r8, r9, fp, ip, sp}
     9bc:	00180213 	andseq	r0, r8, r3, lsl r2
     9c0:	000f1500 	andeq	r1, pc, r0, lsl #10
     9c4:	13490b0b 	movtne	r0, #39691	; 0x9b0b
     9c8:	2e160000 	cdpcs	0, 1, cr0, cr6, cr0, {0}
     9cc:	3c193f00 	ldccc	15, cr3, [r9], {-0}
     9d0:	030e6e19 	movweq	r6, #60953	; 0xee19
     9d4:	3b0b3a0e 	blcc	2cf214 <__kernel_end+0x1ae214>
     9d8:	0000000b 	andeq	r0, r0, fp
     9dc:	25011101 	strcs	r1, [r1, #-257]	; 0xfffffeff
     9e0:	030b130e 	movweq	r1, #45838	; 0xb30e
     9e4:	110e1b0e 	tstne	lr, lr, lsl #22
     9e8:	10061201 	andne	r1, r6, r1, lsl #4
     9ec:	02000017 	andeq	r0, r0, #23
     9f0:	0b0b0024 	bleq	2c0a88 <__kernel_end+0x19fa88>
     9f4:	0e030b3e 	vmoveq.16	d3[0], r0
     9f8:	24030000 	strcs	r0, [r3], #-0
     9fc:	3e0b0b00 	vmlacc.f64	d0, d11, d0
     a00:	0008030b 	andeq	r0, r8, fp, lsl #6
     a04:	00160400 	andseq	r0, r6, r0, lsl #8
     a08:	0b3a0e03 	bleq	e8421c <__kernel_end+0xd6321c>
     a0c:	13490b3b 	movtne	r0, #39739	; 0x9b3b
     a10:	13050000 	movwne	r0, #20480	; 0x5000
     a14:	3a0b0b01 	bcc	2c3620 <__kernel_end+0x1a2620>
     a18:	010b3b0b 	tsteq	fp, fp, lsl #22
     a1c:	06000013 			; <UNDEFINED> instruction: 0x06000013
     a20:	0e03000d 	cdpeq	0, 0, cr0, cr3, cr13, {0}
     a24:	0b3b0b3a 	bleq	ec3714 <__kernel_end+0xda2714>
     a28:	0b0b1349 	bleq	2c5754 <__kernel_end+0x1a4754>
     a2c:	0b0c0b0d 	bleq	303668 <__kernel_end+0x1e2668>
     a30:	00000b38 	andeq	r0, r0, r8, lsr fp
     a34:	03011307 	movweq	r1, #4871	; 0x1307
     a38:	3a0b0b0e 	bcc	2c3678 <__kernel_end+0x1a2678>
     a3c:	010b3b0b 	tsteq	fp, fp, lsl #22
     a40:	08000013 	stmdaeq	r0, {r0, r1, r4}
     a44:	0e03000d 	cdpeq	0, 0, cr0, cr3, cr13, {0}
     a48:	0b3b0b3a 	bleq	ec3738 <__kernel_end+0xda2738>
     a4c:	0b381349 	bleq	e05778 <__kernel_end+0xce4778>
     a50:	0f090000 	svceq	0x00090000
     a54:	490b0b00 	stmdbmi	fp, {r8, r9, fp}
     a58:	0a000013 	beq	aac <SCTLR_ENABLE_BRANCH_PREDICTION+0x2ac>
     a5c:	0b0b0104 	bleq	2c0e74 <__kernel_end+0x19fe74>
     a60:	0b3a1349 	bleq	e8578c <__kernel_end+0xd6478c>
     a64:	13010b3b 	movwne	r0, #6971	; 0x1b3b
     a68:	280b0000 	stmdacs	fp, {}	; <UNPREDICTABLE>
     a6c:	1c0e0300 	stcne	3, cr0, [lr], {-0}
     a70:	0c00000b 	stceq	0, cr0, [r0], {11}
     a74:	0e030028 	cdpeq	0, 0, cr0, cr3, cr8, {1}
     a78:	0000061c 	andeq	r0, r0, ip, lsl r6
     a7c:	0300280d 	movweq	r2, #2061	; 0x80d
     a80:	00051c0e 	andeq	r1, r5, lr, lsl #24
     a84:	01170e00 	tsteq	r7, r0, lsl #28
     a88:	0b3a050b 	bleq	e81ebc <__kernel_end+0xd60ebc>
     a8c:	13010b3b 	movwne	r0, #6971	; 0x1b3b
     a90:	0d0f0000 	stceq	0, cr0, [pc, #-0]	; a98 <SCTLR_ENABLE_BRANCH_PREDICTION+0x298>
     a94:	3a0e0300 	bcc	38169c <__kernel_end+0x26069c>
     a98:	490b3b0b 	stmdbmi	fp, {r0, r1, r3, r8, r9, fp, ip, sp}
     a9c:	10000013 	andne	r0, r0, r3, lsl r0
     aa0:	13490101 	movtne	r0, #37121	; 0x9101
     aa4:	00001301 	andeq	r1, r0, r1, lsl #6
     aa8:	49002111 	stmdbmi	r0, {r0, r4, r8, sp}
     aac:	000b2f13 	andeq	r2, fp, r3, lsl pc
     ab0:	01131200 	tsteq	r3, r0, lsl #4
     ab4:	0b3a050b 	bleq	e81ee8 <__kernel_end+0xd60ee8>
     ab8:	13010b3b 	movwne	r0, #6971	; 0x1b3b
     abc:	0d130000 	ldceq	0, cr0, [r3, #-0]
     ac0:	3a080300 	bcc	2016c8 <__kernel_end+0xe06c8>
     ac4:	490b3b0b 	stmdbmi	fp, {r0, r1, r3, r8, r9, fp, ip, sp}
     ac8:	000b3813 	andeq	r3, fp, r3, lsl r8
     acc:	012e1400 			; <UNDEFINED> instruction: 0x012e1400
     ad0:	0e03193f 	mcreq	9, 0, r1, cr3, cr15, {1}
     ad4:	0b3b0b3a 	bleq	ec37c4 <__kernel_end+0xda27c4>
     ad8:	0b201349 	bleq	805804 <__kernel_end+0x6e4804>
     adc:	00001301 	andeq	r1, r0, r1, lsl #6
     ae0:	03003415 	movweq	r3, #1045	; 0x415
     ae4:	3b0b3a08 	blcc	2cf30c <__kernel_end+0x1ae30c>
     ae8:	0013490b 	andseq	r4, r3, fp, lsl #18
     aec:	012e1600 			; <UNDEFINED> instruction: 0x012e1600
     af0:	0e03193f 	mcreq	9, 0, r1, cr3, cr15, {1}
     af4:	0b3b0b3a 	bleq	ec37e4 <__kernel_end+0xda27e4>
     af8:	01111927 	tsteq	r1, r7, lsr #18
     afc:	18400612 	stmdane	r0, {r1, r4, r9, sl}^
     b00:	01194297 			; <UNDEFINED> instruction: 0x01194297
     b04:	17000013 	smladne	r0, r3, r0, r0
     b08:	0e030005 	cdpeq	0, 0, cr0, cr3, cr5, {0}
     b0c:	0b3b0b3a 	bleq	ec37fc <__kernel_end+0xda27fc>
     b10:	18021349 	stmdane	r2, {r0, r3, r6, r8, r9, ip}
     b14:	2e180000 	cdpcs	0, 1, cr0, cr8, cr0, {0}
     b18:	03193f01 	tsteq	r9, #1, 30
     b1c:	3b0b3a0e 	blcc	2cf35c <__kernel_end+0x1ae35c>
     b20:	4919270b 	ldmdbmi	r9, {r0, r1, r3, r8, r9, sl, sp}
     b24:	12011113 	andne	r1, r1, #-1073741820	; 0xc0000004
     b28:	97184006 	ldrls	r4, [r8, -r6]
     b2c:	13011942 	movwne	r1, #6466	; 0x1942
     b30:	05190000 	ldreq	r0, [r9, #-0]
     b34:	3a0e0300 	bcc	38173c <__kernel_end+0x26073c>
     b38:	490b3b0b 	stmdbmi	fp, {r0, r1, r3, r8, r9, fp, ip, sp}
     b3c:	00170213 	andseq	r0, r7, r3, lsl r2
     b40:	00341a00 	eorseq	r1, r4, r0, lsl #20
     b44:	0b3a0803 	bleq	e82b58 <__kernel_end+0xd61b58>
     b48:	13490b3b 	movtne	r0, #39739	; 0x9b3b
     b4c:	00001702 	andeq	r1, r0, r2, lsl #14
     b50:	3f012e1b 	svccc	0x00012e1b
     b54:	3a0e0319 	bcc	3817c0 <__kernel_end+0x2607c0>
     b58:	490b3b0b 	stmdbmi	fp, {r0, r1, r3, r8, r9, fp, ip, sp}
     b5c:	12011113 	andne	r1, r1, #-1073741820	; 0xc0000004
     b60:	97184006 	ldrls	r4, [r8, -r6]
     b64:	13011942 	movwne	r1, #6466	; 0x1942
     b68:	891c0000 	ldmdbhi	ip, {}	; <UNPREDICTABLE>
     b6c:	11000182 	smlabbne	r0, r2, r1, r0
     b70:	19429501 	stmdbne	r2, {r0, r8, sl, ip, pc}^
     b74:	00001331 	andeq	r1, r0, r1, lsr r3
     b78:	0300341d 	movweq	r3, #1053	; 0x41d
     b7c:	3b0b3a0e 	blcc	2cf3bc <__kernel_end+0x1ae3bc>
     b80:	0213490b 	andseq	r4, r3, #180224	; 0x2c000
     b84:	1e000017 	mcrne	0, 0, r0, cr0, cr7, {0}
     b88:	0e030034 	mcreq	0, 0, r0, cr3, cr4, {1}
     b8c:	0b3b0b3a 	bleq	ec387c <__kernel_end+0xda287c>
     b90:	18021349 	stmdane	r2, {r0, r3, r6, r8, r9, ip}
     b94:	891f0000 	ldmdbhi	pc, {}	; <UNPREDICTABLE>
     b98:	11010182 	smlabbne	r1, r2, r1, r0
     b9c:	01133101 	tsteq	r3, r1, lsl #2
     ba0:	20000013 	andcs	r0, r0, r3, lsl r0
     ba4:	0001828a 	andeq	r8, r1, sl, lsl #5
     ba8:	42911802 	addsmi	r1, r1, #131072	; 0x20000
     bac:	21000018 	tstcs	r0, r8, lsl r0
     bb0:	01018289 	smlabbeq	r1, r9, r2, r8
     bb4:	13310111 	teqne	r1, #1073741828	; 0x40000004
     bb8:	0f220000 	svceq	0x00220000
     bbc:	000b0b00 	andeq	r0, fp, r0, lsl #22
     bc0:	00052300 	andeq	r2, r5, r0, lsl #6
     bc4:	0b3a0803 	bleq	e82bd8 <__kernel_end+0xd61bd8>
     bc8:	13490b3b 	movtne	r0, #39739	; 0x9b3b
     bcc:	00001702 	andeq	r1, r0, r2, lsl #14
     bd0:	31012e24 	tstcc	r1, r4, lsr #28
     bd4:	12011113 	andne	r1, r1, #-1073741820	; 0xc0000004
     bd8:	97184006 	ldrls	r4, [r8, -r6]
     bdc:	13011942 	movwne	r1, #6466	; 0x1942
     be0:	34250000 	strtcc	r0, [r5], #-0
     be4:	00133100 	andseq	r3, r3, r0, lsl #2
     be8:	010b2600 	tsteq	fp, r0, lsl #12
     bec:	06120111 			; <UNDEFINED> instruction: 0x06120111
     bf0:	34270000 	strtcc	r0, [r7], #-0
     bf4:	02133100 	andseq	r3, r3, #0, 2
     bf8:	28000017 	stmdacs	r0, {r0, r1, r2, r4}
     bfc:	00018289 	andeq	r8, r1, r9, lsl #5
     c00:	13310111 	teqne	r1, #1073741828	; 0x40000004
     c04:	2e290000 	cdpcs	0, 2, cr0, cr9, cr0, {0}
     c08:	03193f01 	tsteq	r9, #1, 30
     c0c:	3b0b3a0e 	blcc	2cf44c <__kernel_end+0x1ae44c>
     c10:	1201110b 	andne	r1, r1, #-1073741822	; 0xc0000002
     c14:	97184006 	ldrls	r4, [r8, -r6]
     c18:	13011942 	movwne	r1, #6466	; 0x1942
     c1c:	342a0000 	strtcc	r0, [sl], #-0
     c20:	3a0e0300 	bcc	381828 <__kernel_end+0x260828>
     c24:	490b3b0b 	stmdbmi	fp, {r0, r1, r3, r8, r9, fp, ip, sp}
     c28:	3c193f13 	ldccc	15, cr3, [r9], {19}
     c2c:	2b000019 	blcs	c98 <SCTLR_ENABLE_BRANCH_PREDICTION+0x498>
     c30:	0e030034 	mcreq	0, 0, r0, cr3, cr4, {1}
     c34:	0b3b0b3a 	bleq	ec3924 <__kernel_end+0xda2924>
     c38:	193f1349 	ldmdbne	pc!, {r0, r3, r6, r8, r9, ip}	; <UNPREDICTABLE>
     c3c:	00001802 	andeq	r1, r0, r2, lsl #16
     c40:	3f002e2c 	svccc	0x00002e2c
     c44:	6e193c19 	mrcvs	12, 0, r3, cr9, cr9, {0}
     c48:	3a0e030e 	bcc	381888 <__kernel_end+0x260888>
     c4c:	000b3b0b 	andeq	r3, fp, fp, lsl #22
     c50:	11010000 	mrsne	r0, (UNDEF: 1)
     c54:	130e2501 	movwne	r2, #58625	; 0xe501
     c58:	1b0e030b 	blne	38188c <__kernel_end+0x26088c>
     c5c:	1201110e 	andne	r1, r1, #-2147483645	; 0x80000003
     c60:	00171006 	andseq	r1, r7, r6
     c64:	00240200 	eoreq	r0, r4, r0, lsl #4
     c68:	0b3e0b0b 	bleq	f8389c <__kernel_end+0xe6289c>
     c6c:	00000e03 	andeq	r0, r0, r3, lsl #28
     c70:	03001603 	movweq	r1, #1539	; 0x603
     c74:	3b0b3a0e 	blcc	2cf4b4 <__kernel_end+0x1ae4b4>
     c78:	0013490b 	andseq	r4, r3, fp, lsl #18
     c7c:	00240400 	eoreq	r0, r4, r0, lsl #8
     c80:	0b3e0b0b 	bleq	f838b4 <__kernel_end+0xe628b4>
     c84:	00000803 	andeq	r0, r0, r3, lsl #16
     c88:	3f012e05 	svccc	0x00012e05
     c8c:	3a0e0319 	bcc	3818f8 <__kernel_end+0x2608f8>
     c90:	270b3b0b 	strcs	r3, [fp, -fp, lsl #22]
     c94:	11134919 	tstne	r3, r9, lsl r9
     c98:	40061201 	andmi	r1, r6, r1, lsl #4
     c9c:	19429718 	stmdbne	r2, {r3, r4, r8, r9, sl, ip, pc}^
     ca0:	00001301 	andeq	r1, r0, r1, lsl #6
     ca4:	03000506 	movweq	r0, #1286	; 0x506
     ca8:	3b0b3a0e 	blcc	2cf4e8 <__kernel_end+0x1ae4e8>
     cac:	0213490b 	andseq	r4, r3, #180224	; 0x2c000
     cb0:	07000017 	smladeq	r0, r7, r0, r0
     cb4:	0e030034 	mcreq	0, 0, r0, cr3, cr4, {1}
     cb8:	0b3b0b3a 	bleq	ec39a8 <__kernel_end+0xda29a8>
     cbc:	17021349 	strne	r1, [r2, -r9, asr #6]
     cc0:	89080000 	stmdbhi	r8, {}	; <UNPREDICTABLE>
     cc4:	11010182 	smlabbne	r1, r2, r1, r0
     cc8:	00133101 	andseq	r3, r3, r1, lsl #2
     ccc:	828a0900 	addhi	r0, sl, #0, 18
     cd0:	18020001 	stmdane	r2, {r0}
     cd4:	00184291 	mulseq	r8, r1, r2
     cd8:	012e0a00 			; <UNDEFINED> instruction: 0x012e0a00
     cdc:	0e03193f 	mcreq	9, 0, r1, cr3, cr15, {1}
     ce0:	0b3b0b3a 	bleq	ec39d0 <__kernel_end+0xda29d0>
     ce4:	01111927 	tsteq	r1, r7, lsr #18
     ce8:	18400612 	stmdane	r0, {r1, r4, r9, sl}^
     cec:	01194297 			; <UNDEFINED> instruction: 0x01194297
     cf0:	0b000013 	bleq	d44 <SCTLR_ENABLE_BRANCH_PREDICTION+0x544>
     cf4:	08030034 	stmdaeq	r3, {r2, r4, r5}
     cf8:	0b3b0b3a 	bleq	ec39e8 <__kernel_end+0xda29e8>
     cfc:	17021349 	strne	r1, [r2, -r9, asr #6]
     d00:	890c0000 	stmdbhi	ip, {}	; <UNPREDICTABLE>
     d04:	11010182 	smlabbne	r1, r2, r1, r0
     d08:	01133101 	tsteq	r3, r1, lsl #2
     d0c:	0d000013 	stceq	0, cr0, [r0, #-76]	; 0xffffffb4
     d10:	00018289 	andeq	r8, r1, r9, lsl #5
     d14:	13310111 	teqne	r1, #1073741828	; 0x40000004
     d18:	890e0000 	stmdbhi	lr, {}	; <UNPREDICTABLE>
     d1c:	11010182 	smlabbne	r1, r2, r1, r0
     d20:	19429501 	stmdbne	r2, {r0, r8, sl, ip, pc}^
     d24:	00001331 	andeq	r1, r0, r1, lsr r3
     d28:	0300340f 	movweq	r3, #1039	; 0x40f
     d2c:	3b0b3a0e 	blcc	2cf56c <__kernel_end+0x1ae56c>
     d30:	0213490b 	andseq	r4, r3, #180224	; 0x2c000
     d34:	10000018 	andne	r0, r0, r8, lsl r0
     d38:	0e030034 	mcreq	0, 0, r0, cr3, cr4, {1}
     d3c:	0b3b0b3a 	bleq	ec3a2c <__kernel_end+0xda2a2c>
     d40:	193f1349 	ldmdbne	pc!, {r0, r3, r6, r8, r9, ip}	; <UNPREDICTABLE>
     d44:	0000193c 	andeq	r1, r0, ip, lsr r9
     d48:	3f002e11 	svccc	0x00002e11
     d4c:	6e193c19 	mrcvs	12, 0, r3, cr9, cr9, {0}
     d50:	3a0e030e 	bcc	381990 <__kernel_end+0x260990>
     d54:	000b3b0b 	andeq	r3, fp, fp, lsl #22
     d58:	11010000 	mrsne	r0, (UNDEF: 1)
     d5c:	130e2501 	movwne	r2, #58625	; 0xe501
     d60:	1b0e030b 	blne	381994 <__kernel_end+0x260994>
     d64:	1201110e 	andne	r1, r1, #-2147483645	; 0x80000003
     d68:	00171006 	andseq	r1, r7, r6
     d6c:	00240200 	eoreq	r0, r4, r0, lsl #4
     d70:	0b3e0b0b 	bleq	f839a4 <__kernel_end+0xe629a4>
     d74:	00000803 	andeq	r0, r0, r3, lsl #16
     d78:	0b002403 	bleq	9d8c <__aeabi_idiv0+0x208>
     d7c:	030b3e0b 	movweq	r3, #48651	; 0xbe0b
     d80:	0400000e 	streq	r0, [r0], #-14
     d84:	0e030016 	mcreq	0, 0, r0, cr3, cr6, {0}
     d88:	0b3b0b3a 	bleq	ec3a78 <__kernel_end+0xda2a78>
     d8c:	00001349 	andeq	r1, r0, r9, asr #6
     d90:	3f012e05 	svccc	0x00012e05
     d94:	3a0e0319 	bcc	381a00 <__kernel_end+0x260a00>
     d98:	270b3b0b 	strcs	r3, [fp, -fp, lsl #22]
     d9c:	12011119 	andne	r1, r1, #1073741830	; 0x40000006
     da0:	97184006 	ldrls	r4, [r8, -r6]
     da4:	13011942 	movwne	r1, #6466	; 0x1942
     da8:	05060000 	streq	r0, [r6, #-0]
     dac:	3a080300 	bcc	2019b4 <__kernel_end+0xe09b4>
     db0:	490b3b0b 	stmdbmi	fp, {r0, r1, r3, r8, r9, fp, ip, sp}
     db4:	00170213 	andseq	r0, r7, r3, lsl r2
     db8:	00050700 	andeq	r0, r5, r0, lsl #14
     dbc:	0b3a0e03 	bleq	e845d0 <__kernel_end+0xd635d0>
     dc0:	13490b3b 	movtne	r0, #39739	; 0x9b3b
     dc4:	00001702 	andeq	r1, r0, r2, lsl #14
     dc8:	01828908 	orreq	r8, r2, r8, lsl #18
     dcc:	31011100 	mrscc	r1, (UNDEF: 17)
     dd0:	09000013 	stmdbeq	r0, {r0, r1, r4}
     dd4:	0e030034 	mcreq	0, 0, r0, cr3, cr4, {1}
     dd8:	0b3b0b3a 	bleq	ec3ac8 <__kernel_end+0xda2ac8>
     ddc:	193f1349 	ldmdbne	pc!, {r0, r3, r6, r8, r9, ip}	; <UNPREDICTABLE>
     de0:	0000193c 	andeq	r1, r0, ip, lsr r9
     de4:	3f002e0a 	svccc	0x00002e0a
     de8:	6e193c19 	mrcvs	12, 0, r3, cr9, cr9, {0}
     dec:	3a0e030e 	bcc	381a2c <__kernel_end+0x260a2c>
     df0:	000b3b0b 	andeq	r3, fp, fp, lsl #22
     df4:	11010000 	mrsne	r0, (UNDEF: 1)
     df8:	130e2501 	movwne	r2, #58625	; 0xe501
     dfc:	1b0e030b 	blne	381a30 <__kernel_end+0x260a30>
     e00:	1201110e 	andne	r1, r1, #-2147483645	; 0x80000003
     e04:	00171006 	andseq	r1, r7, r6
     e08:	00240200 	eoreq	r0, r4, r0, lsl #4
     e0c:	0b3e0b0b 	bleq	f83a40 <__kernel_end+0xe62a40>
     e10:	00000803 	andeq	r0, r0, r3, lsl #16
     e14:	03001603 	movweq	r1, #1539	; 0x603
     e18:	3b0b3a0e 	blcc	2cf658 <__kernel_end+0x1ae658>
     e1c:	0013490b 	andseq	r4, r3, fp, lsl #18
     e20:	00240400 	eoreq	r0, r4, r0, lsl #8
     e24:	0b3e0b0b 	bleq	f83a58 <__kernel_end+0xe62a58>
     e28:	00000e03 	andeq	r0, r0, r3, lsl #28
     e2c:	0b000f05 	bleq	4a48 <SCTLR_ENABLE_INSTRUCTION_CACHE+0x3a48>
     e30:	0600000b 	streq	r0, [r0], -fp
     e34:	0b0b000f 	bleq	2c0e78 <__kernel_end+0x19fe78>
     e38:	00001349 	andeq	r1, r0, r9, asr #6
     e3c:	3f012e07 	svccc	0x00012e07
     e40:	3a0e0319 	bcc	381aac <__kernel_end+0x260aac>
     e44:	270b3b0b 	strcs	r3, [fp, -fp, lsl #22]
     e48:	11134919 	tstne	r3, r9, lsl r9
     e4c:	40061201 	andmi	r1, r6, r1, lsl #4
     e50:	19429718 	stmdbne	r2, {r3, r4, r8, r9, sl, ip, pc}^
     e54:	00001301 	andeq	r1, r0, r1, lsl #6
     e58:	03000508 	movweq	r0, #1288	; 0x508
     e5c:	3b0b3a0e 	blcc	2cf69c <__kernel_end+0x1ae69c>
     e60:	0213490b 	andseq	r4, r3, #180224	; 0x2c000
     e64:	09000018 	stmdbeq	r0, {r3, r4}
     e68:	0e030005 	cdpeq	0, 0, cr0, cr3, cr5, {0}
     e6c:	0b3b0b3a 	bleq	ec3b5c <__kernel_end+0xda2b5c>
     e70:	17021349 	strne	r1, [r2, -r9, asr #6]
     e74:	340a0000 	strcc	r0, [sl], #-0
     e78:	3a080300 	bcc	201a80 <__kernel_end+0xe0a80>
     e7c:	490b3b0b 	stmdbmi	fp, {r0, r1, r3, r8, r9, fp, ip, sp}
     e80:	00180213 	andseq	r0, r8, r3, lsl r2
     e84:	00340b00 	eorseq	r0, r4, r0, lsl #22
     e88:	0b3a0803 	bleq	e82e9c <__kernel_end+0xd61e9c>
     e8c:	13490b3b 	movtne	r0, #39739	; 0x9b3b
     e90:	00001702 	andeq	r1, r0, r2, lsl #14
     e94:	11010b0c 	tstne	r1, ip, lsl #22
     e98:	00061201 	andeq	r1, r6, r1, lsl #4
     e9c:	00370d00 	eorseq	r0, r7, r0, lsl #26
     ea0:	00001349 	andeq	r1, r0, r9, asr #6
     ea4:	0000260e 	andeq	r2, r0, lr, lsl #12
     ea8:	00260f00 	eoreq	r0, r6, r0, lsl #30
     eac:	00001349 	andeq	r1, r0, r9, asr #6
     eb0:	01110100 	tsteq	r1, r0, lsl #2
     eb4:	0b130e25 	bleq	4c4750 <__kernel_end+0x3a3750>
     eb8:	0e1b0e03 	cdpeq	14, 1, cr0, cr11, cr3, {0}
     ebc:	06120111 			; <UNDEFINED> instruction: 0x06120111
     ec0:	00001710 	andeq	r1, r0, r0, lsl r7
     ec4:	03001602 	movweq	r1, #1538	; 0x602
     ec8:	3b0b3a0e 	blcc	2cf708 <__kernel_end+0x1ae708>
     ecc:	0013490b 	andseq	r4, r3, fp, lsl #18
     ed0:	01130300 	tsteq	r3, r0, lsl #6
     ed4:	0b0b0e03 	bleq	2c46e8 <__kernel_end+0x1a36e8>
     ed8:	0b3b0b3a 	bleq	ec3bc8 <__kernel_end+0xda2bc8>
     edc:	00001301 	andeq	r1, r0, r1, lsl #6
     ee0:	03000d04 	movweq	r0, #3332	; 0xd04
     ee4:	3813490e 	ldmdacc	r3, {r1, r2, r3, r8, fp, lr}
     ee8:	0019340b 	andseq	r3, r9, fp, lsl #8
     eec:	000f0500 	andeq	r0, pc, r0, lsl #10
     ef0:	00000b0b 	andeq	r0, r0, fp, lsl #22
     ef4:	0b002406 	bleq	9f14 <__aeabi_idiv0+0x390>
     ef8:	030b3e0b 	movweq	r3, #48651	; 0xbe0b
     efc:	0700000e 	streq	r0, [r0, -lr]
     f00:	0b0b0024 	bleq	2c0f98 <__kernel_end+0x19ff98>
     f04:	08030b3e 	stmdaeq	r3, {r1, r2, r3, r4, r5, r8, r9, fp}
     f08:	2e080000 	cdpcs	0, 0, cr0, cr8, cr0, {0}
     f0c:	03193f01 	tsteq	r9, #1, 30
     f10:	3b0b3a0e 	blcc	2cf750 <__kernel_end+0x1ae750>
     f14:	4919270b 	ldmdbmi	r9, {r0, r1, r3, r8, r9, sl, sp}
     f18:	12011113 	andne	r1, r1, #-1073741820	; 0xc0000004
     f1c:	97184006 	ldrls	r4, [r8, -r6]
     f20:	13011942 	movwne	r1, #6466	; 0x1942
     f24:	05090000 	streq	r0, [r9, #-0]
     f28:	3a080300 	bcc	201b30 <__kernel_end+0xe0b30>
     f2c:	490b3b0b 	stmdbmi	fp, {r0, r1, r3, r8, r9, fp, ip, sp}
     f30:	00170213 	andseq	r0, r7, r3, lsl r2
     f34:	82890a00 	addhi	r0, r9, #0, 20
     f38:	01110101 	tsteq	r1, r1, lsl #2
     f3c:	00001331 	andeq	r1, r0, r1, lsr r3
     f40:	01828a0b 	orreq	r8, r2, fp, lsl #20
     f44:	91180200 	tstls	r8, r0, lsl #4
     f48:	00001842 	andeq	r1, r0, r2, asr #16
     f4c:	0300050c 	movweq	r0, #1292	; 0x50c
     f50:	3b0b3a0e 	blcc	2cf790 <__kernel_end+0x1ae790>
     f54:	0213490b 	andseq	r4, r3, #180224	; 0x2c000
     f58:	0d000018 	stceq	0, cr0, [r0, #-96]	; 0xffffffa0
     f5c:	00000018 	andeq	r0, r0, r8, lsl r0
     f60:	0300340e 	movweq	r3, #1038	; 0x40e
     f64:	3b0b3a08 	blcc	2cf78c <__kernel_end+0x1ae78c>
     f68:	0213490b 	andseq	r4, r3, #180224	; 0x2c000
     f6c:	0f000018 	svceq	0x00000018
     f70:	0b0b000f 	bleq	2c0fb4 <__kernel_end+0x19ffb4>
     f74:	00001349 	andeq	r1, r0, r9, asr #6
     f78:	49002610 	stmdbmi	r0, {r4, r9, sl, sp}
     f7c:	11000013 	tstne	r0, r3, lsl r0
     f80:	193f002e 	ldmdbne	pc!, {r1, r2, r3, r5}	; <UNPREDICTABLE>
     f84:	0e6e193c 	mcreq	9, 3, r1, cr14, cr12, {1}
     f88:	0b3a0e03 	bleq	e8479c <__kernel_end+0xd6379c>
     f8c:	00000b3b 	andeq	r0, r0, fp, lsr fp
     f90:	01110100 	tsteq	r1, r0, lsl #2
     f94:	0b130e25 	bleq	4c4830 <__kernel_end+0x3a3830>
     f98:	0e1b0e03 	cdpeq	14, 1, cr0, cr11, cr3, {0}
     f9c:	06120111 			; <UNDEFINED> instruction: 0x06120111
     fa0:	00001710 	andeq	r1, r0, r0, lsl r7
     fa4:	0b002402 	bleq	9fb4 <__aeabi_idiv0+0x430>
     fa8:	030b3e0b 	movweq	r3, #48651	; 0xbe0b
     fac:	03000008 	movweq	r0, #8
     fb0:	0b0b0024 	bleq	2c1048 <__kernel_end+0x1a0048>
     fb4:	0e030b3e 	vmoveq.16	d3[0], r0
     fb8:	0f040000 	svceq	0x00040000
     fbc:	000b0b00 	andeq	r0, fp, r0, lsl #22
     fc0:	000f0500 	andeq	r0, pc, r0, lsl #10
     fc4:	13490b0b 	movtne	r0, #39691	; 0x9b0b
     fc8:	26060000 	strcs	r0, [r6], -r0
     fcc:	00134900 	andseq	r4, r3, r0, lsl #18
     fd0:	00160700 	andseq	r0, r6, r0, lsl #14
     fd4:	0b3a0e03 	bleq	e847e8 <__kernel_end+0xd637e8>
     fd8:	13490b3b 	movtne	r0, #39739	; 0x9b3b
     fdc:	13080000 	movwne	r0, #32768	; 0x8000
     fe0:	0b0e0301 	bleq	381bec <__kernel_end+0x260bec>
     fe4:	3b0b3a0b 	blcc	2cf818 <__kernel_end+0x1ae818>
     fe8:	0013010b 	andseq	r0, r3, fp, lsl #2
     fec:	000d0900 	andeq	r0, sp, r0, lsl #18
     ff0:	13490e03 	movtne	r0, #40451	; 0x9e03
     ff4:	19340b38 	ldmdbne	r4!, {r3, r4, r5, r8, r9, fp}
     ff8:	040a0000 	streq	r0, [sl], #-0
     ffc:	0b0e0301 	bleq	381c08 <__kernel_end+0x260c08>
    1000:	3a13490b 	bcc	4d3434 <__kernel_end+0x3b2434>
    1004:	010b3b0b 	tsteq	fp, fp, lsl #22
    1008:	0b000013 	bleq	105c <SCTLR_ENABLE_INSTRUCTION_CACHE+0x5c>
    100c:	0e030028 	cdpeq	0, 0, cr0, cr3, cr8, {1}
    1010:	00000b1c 	andeq	r0, r0, ip, lsl fp
    1014:	03012e0c 	movweq	r2, #7692	; 0x1e0c
    1018:	3b0b3a0e 	blcc	2cf858 <__kernel_end+0x1ae858>
    101c:	20192705 	andscs	r2, r9, r5, lsl #14
    1020:	0013010b 	andseq	r0, r3, fp, lsl #2
    1024:	00050d00 	andeq	r0, r5, r0, lsl #26
    1028:	0b3a0803 	bleq	e8303c <__kernel_end+0xd6203c>
    102c:	1349053b 	movtne	r0, #38203	; 0x953b
    1030:	050e0000 	streq	r0, [lr, #-0]
    1034:	3a0e0300 	bcc	381c3c <__kernel_end+0x260c3c>
    1038:	49053b0b 	stmdbmi	r5, {r0, r1, r3, r8, r9, fp, ip, sp}
    103c:	0f000013 	svceq	0x00000013
    1040:	0e030034 	mcreq	0, 0, r0, cr3, cr4, {1}
    1044:	053b0b3a 	ldreq	r0, [fp, #-2874]!	; 0xfffff4c6
    1048:	00001349 	andeq	r1, r0, r9, asr #6
    104c:	03003410 	movweq	r3, #1040	; 0x410
    1050:	3b0b3a08 	blcc	2cf878 <__kernel_end+0x1ae878>
    1054:	00134905 	andseq	r4, r3, r5, lsl #18
    1058:	010b1100 	mrseq	r1, (UNDEF: 27)
    105c:	01120000 	tsteq	r2, r0
    1060:	01134901 	tsteq	r3, r1, lsl #18
    1064:	13000013 	movwne	r0, #19
    1068:	13490021 	movtne	r0, #36897	; 0x9021
    106c:	00000b2f 	andeq	r0, r0, pc, lsr #22
    1070:	3f012e14 	svccc	0x00012e14
    1074:	3a0e0319 	bcc	381ce0 <__kernel_end+0x260ce0>
    1078:	270b3b0b 	strcs	r3, [fp, -fp, lsl #22]
    107c:	11134919 	tstne	r3, r9, lsl r9
    1080:	40061201 	andmi	r1, r6, r1, lsl #4
    1084:	19429618 	stmdbne	r2, {r3, r4, r9, sl, ip, pc}^
    1088:	00001301 	andeq	r1, r0, r1, lsl #6
    108c:	03000515 	movweq	r0, #1301	; 0x515
    1090:	3b0b3a08 	blcc	2cf8b8 <__kernel_end+0x1ae8b8>
    1094:	0213490b 	andseq	r4, r3, #180224	; 0x2c000
    1098:	16000017 			; <UNDEFINED> instruction: 0x16000017
    109c:	0e030005 	cdpeq	0, 0, cr0, cr3, cr5, {0}
    10a0:	0b3b0b3a 	bleq	ec3d90 <__kernel_end+0xda2d90>
    10a4:	17021349 	strne	r1, [r2, -r9, asr #6]
    10a8:	34170000 	ldrcc	r0, [r7], #-0
    10ac:	3a0e0300 	bcc	381cb4 <__kernel_end+0x260cb4>
    10b0:	490b3b0b 	stmdbmi	fp, {r0, r1, r3, r8, r9, fp, ip, sp}
    10b4:	00170213 	andseq	r0, r7, r3, lsl r2
    10b8:	00341800 	eorseq	r1, r4, r0, lsl #16
    10bc:	0b3a0803 	bleq	e830d0 <__kernel_end+0xd620d0>
    10c0:	13490b3b 	movtne	r0, #39739	; 0x9b3b
    10c4:	00001702 	andeq	r1, r0, r2, lsl #14
    10c8:	03003419 	movweq	r3, #1049	; 0x419
    10cc:	3b0b3a0e 	blcc	2cf90c <__kernel_end+0x1ae90c>
    10d0:	0213490b 	andseq	r4, r3, #180224	; 0x2c000
    10d4:	1a000018 	bne	113c <SCTLR_ENABLE_INSTRUCTION_CACHE+0x13c>
    10d8:	0e030034 	mcreq	0, 0, r0, cr3, cr4, {1}
    10dc:	0b3b0b3a 	bleq	ec3dcc <__kernel_end+0xda2dcc>
    10e0:	00001349 	andeq	r1, r0, r9, asr #6
    10e4:	03000a1b 	movweq	r0, #2587	; 0xa1b
    10e8:	3b0b3a0e 	blcc	2cf928 <__kernel_end+0x1ae928>
    10ec:	0001110b 	andeq	r1, r1, fp, lsl #2
    10f0:	000a1c00 	andeq	r1, sl, r0, lsl #24
    10f4:	0b3a0e03 	bleq	e84908 <__kernel_end+0xd63908>
    10f8:	0111053b 	tsteq	r1, fp, lsr r5
    10fc:	1d1d0000 	ldcne	0, cr0, [sp, #-0]
    1100:	52133101 	andspl	r3, r3, #1073741824	; 0x40000000
    1104:	58175501 	ldmdapl	r7, {r0, r8, sl, ip, lr}
    1108:	0105590b 	tsteq	r5, fp, lsl #18
    110c:	1e000013 	mcrne	0, 0, r0, cr0, cr3, {0}
    1110:	13310005 	teqne	r1, #5
    1114:	00001702 	andeq	r1, r0, r2, lsl #14
    1118:	55010b1f 	strpl	r0, [r1, #-2847]	; 0xfffff4e1
    111c:	20000017 	andcs	r0, r0, r7, lsl r0
    1120:	13310034 	teqne	r1, #52	; 0x34
    1124:	00001702 	andeq	r1, r0, r2, lsl #14
    1128:	31003421 	tstcc	r0, r1, lsr #8
    112c:	00180213 	andseq	r0, r8, r3, lsl r2
    1130:	00342200 	eorseq	r2, r4, r0, lsl #4
    1134:	00001331 	andeq	r1, r0, r1, lsr r3
    1138:	01828923 	orreq	r8, r2, r3, lsr #18
    113c:	01011101 	tsteq	r1, r1, lsl #2
    1140:	24000013 	strcs	r0, [r0], #-19	; 0xffffffed
    1144:	0001828a 	andeq	r8, r1, sl, lsl #5
    1148:	42911802 	addsmi	r1, r1, #131072	; 0x20000
    114c:	25000018 	strcs	r0, [r0, #-24]	; 0xffffffe8
    1150:	01018289 	smlabbeq	r1, r9, r2, r8
    1154:	13310111 	teqne	r1, #1073741828	; 0x40000004
    1158:	00001301 	andeq	r1, r0, r1, lsl #6
    115c:	01828926 	orreq	r8, r2, r6, lsr #18
    1160:	00011101 	andeq	r1, r1, r1, lsl #2
    1164:	01152700 	tsteq	r5, r0, lsl #14
    1168:	13491927 	movtne	r1, #39207	; 0x9927
    116c:	00001301 	andeq	r1, r0, r1, lsl #6
    1170:	49000528 	stmdbmi	r0, {r3, r5, r8, sl}
    1174:	29000013 	stmdbcs	r0, {r0, r1, r4}
    1178:	0e030034 	mcreq	0, 0, r0, cr3, cr4, {1}
    117c:	053b0b3a 	ldreq	r0, [fp, #-2874]!	; 0xfffff4c6
    1180:	18021349 	stmdane	r2, {r0, r3, r6, r8, r9, ip}
    1184:	342a0000 	strtcc	r0, [sl], #-0
    1188:	3a0e0300 	bcc	381d90 <__kernel_end+0x260d90>
    118c:	49053b0b 	stmdbmi	r5, {r0, r1, r3, r8, r9, fp, ip, sp}
    1190:	000a1c13 	andeq	r1, sl, r3, lsl ip
    1194:	00362b00 	eorseq	r2, r6, r0, lsl #22
    1198:	00001802 	andeq	r1, r0, r2, lsl #16
    119c:	3f002e2c 	svccc	0x00002e2c
    11a0:	6e193c19 	mrcvs	12, 0, r3, cr9, cr9, {0}
    11a4:	3a0e030e 	bcc	381de4 <__kernel_end+0x260de4>
    11a8:	000b3b0b 	andeq	r3, fp, fp, lsl #22
    11ac:	11010000 	mrsne	r0, (UNDEF: 1)
    11b0:	130e2501 	movwne	r2, #58625	; 0xe501
    11b4:	1b0e030b 	blne	381de8 <__kernel_end+0x260de8>
    11b8:	1201110e 	andne	r1, r1, #-2147483645	; 0x80000003
    11bc:	00171006 	andseq	r1, r7, r6
    11c0:	00240200 	eoreq	r0, r4, r0, lsl #4
    11c4:	0b3e0b0b 	bleq	f83df8 <__kernel_end+0xe62df8>
    11c8:	00000803 	andeq	r0, r0, r3, lsl #16
    11cc:	03001603 	movweq	r1, #1539	; 0x603
    11d0:	3b0b3a0e 	blcc	2cfa10 <__kernel_end+0x1aea10>
    11d4:	0013490b 	andseq	r4, r3, fp, lsl #18
    11d8:	00240400 	eoreq	r0, r4, r0, lsl #8
    11dc:	0b3e0b0b 	bleq	f83e10 <__kernel_end+0xe62e10>
    11e0:	00000e03 	andeq	r0, r0, r3, lsl #28
    11e4:	0b000f05 	bleq	4e00 <SCTLR_ENABLE_INSTRUCTION_CACHE+0x3e00>
    11e8:	0013490b 	andseq	r4, r3, fp, lsl #18
    11ec:	00260600 	eoreq	r0, r6, r0, lsl #12
    11f0:	00001349 	andeq	r1, r0, r9, asr #6
    11f4:	3f012e07 	svccc	0x00012e07
    11f8:	3a0e0319 	bcc	381e64 <__kernel_end+0x260e64>
    11fc:	270b3b0b 	strcs	r3, [fp, -fp, lsl #22]
    1200:	11134919 	tstne	r3, r9, lsl r9
    1204:	40061201 	andmi	r1, r6, r1, lsl #4
    1208:	19429718 	stmdbne	r2, {r3, r4, r8, r9, sl, ip, pc}^
    120c:	05080000 	streq	r0, [r8, #-0]
    1210:	3a080300 	bcc	201e18 <__kernel_end+0xe0e18>
    1214:	490b3b0b 	stmdbmi	fp, {r0, r1, r3, r8, r9, fp, ip, sp}
    1218:	00170213 	andseq	r0, r7, r3, lsl r2
    121c:	00340900 	eorseq	r0, r4, r0, lsl #18
    1220:	0b3a0803 	bleq	e83234 <__kernel_end+0xd62234>
    1224:	13490b3b 	movtne	r0, #39739	; 0x9b3b
    1228:	00001702 	andeq	r1, r0, r2, lsl #14
	...

Disassembly of section .debug_aranges:

00000000 <.debug_aranges>:
   0:	0000001c 	andeq	r0, r0, ip, lsl r0
   4:	00000002 	andeq	r0, r0, r2
   8:	00040000 	andeq	r0, r4, r0
   c:	00000000 	andeq	r0, r0, r0
  10:	00008000 	andeq	r8, r0, r0
  14:	00000208 	andeq	r0, r0, r8, lsl #4
	...
  20:	0000001c 	andeq	r0, r0, ip, lsl r0
  24:	00890002 	addeq	r0, r9, r2
  28:	00040000 	andeq	r0, r4, r0
  2c:	00000000 	andeq	r0, r0, r0
  30:	00008208 	andeq	r8, r0, r8, lsl #4
  34:	00000060 	andeq	r0, r0, r0, rrx
	...
  40:	0000001c 	andeq	r0, r0, ip, lsl r0
  44:	01950002 	orrseq	r0, r5, r2
  48:	00040000 	andeq	r0, r4, r0
  4c:	00000000 	andeq	r0, r0, r0
  50:	00008268 	andeq	r8, r0, r8, ror #4
  54:	00000038 	andeq	r0, r0, r8, lsr r0
	...
  60:	0000001c 	andeq	r0, r0, ip, lsl r0
  64:	03390002 	teqeq	r9, #2
  68:	00040000 	andeq	r0, r4, r0
  6c:	00000000 	andeq	r0, r0, r0
  70:	000082a0 	andeq	r8, r0, r0, lsr #5
  74:	000003a0 	andeq	r0, r0, r0, lsr #7
	...
  80:	0000001c 	andeq	r0, r0, ip, lsl r0
  84:	08d00002 	ldmeq	r0, {r1}^
  88:	00040000 	andeq	r0, r4, r0
  8c:	00000000 	andeq	r0, r0, r0
  90:	00008640 	andeq	r8, r0, r0, asr #12
  94:	00000128 	andeq	r0, r0, r8, lsr #2
	...
  a0:	0000001c 	andeq	r0, r0, ip, lsl r0
  a4:	0de20002 	stcleq	0, cr0, [r2, #8]!
  a8:	00040000 	andeq	r0, r4, r0
  ac:	00000000 	andeq	r0, r0, r0
  b0:	00008768 	andeq	r8, r0, r8, ror #14
  b4:	0000006c 	andeq	r0, r0, ip, rrx
	...
  c0:	0000001c 	andeq	r0, r0, ip, lsl r0
  c4:	0ff80002 	svceq	0x00f80002
  c8:	00040000 	andeq	r0, r4, r0
  cc:	00000000 	andeq	r0, r0, r0
  d0:	000087d4 	ldrdeq	r8, [r0], -r4
  d4:	00000574 	andeq	r0, r0, r4, ror r5
	...
  e0:	0000001c 	andeq	r0, r0, ip, lsl r0
  e4:	15760002 	ldrbne	r0, [r6, #-2]!
  e8:	00040000 	andeq	r0, r4, r0
  ec:	00000000 	andeq	r0, r0, r0
  f0:	00008d48 	andeq	r8, r0, r8, asr #26
  f4:	00000134 	andeq	r0, r0, r4, lsr r1
	...
 100:	0000001c 	andeq	r0, r0, ip, lsl r0
 104:	17fc0002 	ldrbne	r0, [ip, r2]!
 108:	00040000 	andeq	r0, r4, r0
 10c:	00000000 	andeq	r0, r0, r0
 110:	00008e7c 	andeq	r8, r0, ip, ror lr
 114:	000002c0 	andeq	r0, r0, r0, asr #5
	...
 120:	0000001c 	andeq	r0, r0, ip, lsl r0
 124:	1fbe0002 	svcne	0x00be0002
 128:	00040000 	andeq	r0, r4, r0
 12c:	00000000 	andeq	r0, r0, r0
 130:	0000913c 	andeq	r9, r0, ip, lsr r1
 134:	000000e4 	andeq	r0, r0, r4, ror #1
	...
 140:	0000001c 	andeq	r0, r0, ip, lsl r0
 144:	21a60002 			; <UNDEFINED> instruction: 0x21a60002
 148:	00040000 	andeq	r0, r4, r0
 14c:	00000000 	andeq	r0, r0, r0
 150:	00009220 	andeq	r9, r0, r0, lsr #4
 154:	0000005c 	andeq	r0, r0, ip, asr r0
	...
 160:	0000001c 	andeq	r0, r0, ip, lsl r0
 164:	22dd0002 	sbcscs	r0, sp, #2
 168:	00040000 	andeq	r0, r4, r0
 16c:	00000000 	andeq	r0, r0, r0
 170:	0000927c 	andeq	r9, r0, ip, ror r2
 174:	00000024 	andeq	r0, r0, r4, lsr #32
	...
 180:	0000001c 	andeq	r0, r0, ip, lsl r0
 184:	24050002 	strcs	r0, [r5], #-2
 188:	00040000 	andeq	r0, r4, r0
 18c:	00000000 	andeq	r0, r0, r0
 190:	000092a0 	andeq	r9, r0, r0, lsr #5
 194:	00000054 	andeq	r0, r0, r4, asr r0
	...
 1a0:	0000001c 	andeq	r0, r0, ip, lsl r0
 1a4:	257a0002 	ldrbcs	r0, [sl, #-2]!
 1a8:	00040000 	andeq	r0, r4, r0
 1ac:	00000000 	andeq	r0, r0, r0
 1b0:	000092f4 	strdeq	r9, [r0], -r4
 1b4:	0000074c 	andeq	r0, r0, ip, asr #14
	...
 1c0:	0000001c 	andeq	r0, r0, ip, lsl r0
 1c4:	2a3a0002 	bcs	e801d4 <__kernel_end+0xd5f1d4>
 1c8:	00040000 	andeq	r0, r4, r0
 1cc:	00000000 	andeq	r0, r0, r0
 1d0:	00009a40 	andeq	r9, r0, r0, asr #20
 1d4:	00000030 	andeq	r0, r0, r0, lsr r0
	...

Disassembly of section .debug_loc:

00000000 <.debug_loc>:
       0:	00000000 	andeq	r0, r0, r0
       4:	0000004f 	andeq	r0, r0, pc, asr #32
       8:	4f500001 	svcmi	0x00500001
       c:	60000000 	andvs	r0, r0, r0
      10:	04000000 	streq	r0, [r0], #-0
      14:	5001f300 	andpl	pc, r1, r0, lsl #6
      18:	0000009f 	muleq	r0, pc, r0	; <UNPREDICTABLE>
	...
      24:	00004f00 	andeq	r4, r0, r0, lsl #30
      28:	51000100 	mrspl	r0, (UNDEF: 16)
      2c:	0000004f 	andeq	r0, r0, pc, asr #32
      30:	00000060 	andeq	r0, r0, r0, rrx
      34:	01f30004 	mvnseq	r0, r4
      38:	00009f51 	andeq	r9, r0, r1, asr pc
	...
      44:	004f0000 	subeq	r0, pc, r0
      48:	00010000 	andeq	r0, r1, r0
      4c:	00004f52 	andeq	r4, r0, r2, asr pc
      50:	00006000 	andeq	r6, r0, r0
      54:	f3000400 	vshl.u8	d0, d0, d0
      58:	009f5201 	addseq	r5, pc, r1, lsl #4
      5c:	00000000 	andeq	r0, r0, r0
      60:	40000000 	andmi	r0, r0, r0
      64:	4c000000 	stcmi	0, cr0, [r0], {-0}
      68:	01000000 	mrseq	r0, (UNDEF: 0)
      6c:	00005400 	andeq	r5, r0, r0, lsl #8
      70:	00000000 	andeq	r0, r0, r0
      74:	00ac0000 	adceq	r0, ip, r0
      78:	00d00000 	sbcseq	r0, r0, r0
      7c:	00020000 	andeq	r0, r2, r0
      80:	00d09f30 	sbcseq	r9, r0, r0, lsr pc
      84:	01840000 	orreq	r0, r4, r0
      88:	00010000 	andeq	r0, r1, r0
      8c:	00000054 	andeq	r0, r0, r4, asr r0
      90:	00000000 	andeq	r0, r0, r0
      94:	00018400 	andeq	r8, r1, r0, lsl #8
      98:	0001c800 	andeq	ip, r1, r0, lsl #16
      9c:	50000100 	andpl	r0, r0, r0, lsl #2
      a0:	000001c8 	andeq	r0, r0, r8, asr #3
      a4:	000001d0 	ldrdeq	r0, [r0], -r0	; <UNPREDICTABLE>
      a8:	01f30004 	mvnseq	r0, r4
      ac:	01d09f50 	bicseq	r9, r0, r0, asr pc
      b0:	02400000 	subeq	r0, r0, #0
      b4:	00010000 	andeq	r0, r1, r0
      b8:	00000050 	andeq	r0, r0, r0, asr r0
      bc:	00000000 	andeq	r0, r0, r0
      c0:	0001a000 	andeq	sl, r1, r0
      c4:	0001c800 	andeq	ip, r1, r0, lsl #16
      c8:	70000600 	andvc	r0, r0, r0, lsl #12
      cc:	1aff0800 	bne	fffc20d4 <__kernel_end+0xffea10d4>
      d0:	0001c89f 	muleq	r1, pc, r8	; <UNPREDICTABLE>
      d4:	0001d000 	andeq	sp, r1, r0
      d8:	f3000700 	vabd.u8	d0, d0, d0
      dc:	ff085001 			; <UNDEFINED> instruction: 0xff085001
      e0:	01d09f1a 	bicseq	r9, r0, sl, lsl pc
      e4:	02000000 	andeq	r0, r0, #0
      e8:	00030000 	andeq	r0, r3, r0
      ec:	009f6070 	addseq	r6, pc, r0, ror r0	; <UNPREDICTABLE>
      f0:	14000002 	strne	r0, [r0], #-2
      f4:	03000002 	movweq	r0, #2
      f8:	9f407000 	svcls	0x00407000
      fc:	00000214 	andeq	r0, r0, r4, lsl r2
     100:	00000240 	andeq	r0, r0, r0, asr #4
     104:	00550001 	subseq	r0, r5, r1
     108:	00000000 	andeq	r0, r0, r0
     10c:	40000000 	andmi	r0, r0, r0
     110:	88000002 	stmdahi	r0, {r1}
     114:	01000002 	tsteq	r0, r2
     118:	02885000 	addeq	r5, r8, #0
     11c:	02900000 	addseq	r0, r0, #0
     120:	00040000 	andeq	r0, r4, r0
     124:	9f5001f3 	svcls	0x005001f3
     128:	00000290 	muleq	r0, r0, r2
     12c:	00000308 	andeq	r0, r0, r8, lsl #6
     130:	00500001 	subseq	r0, r0, r1
     134:	00000000 	andeq	r0, r0, r0
     138:	5c000000 	stcpl	0, cr0, [r0], {-0}
     13c:	88000002 	stmdahi	r0, {r1}
     140:	06000002 	streq	r0, [r0], -r2
     144:	08007000 	stmdaeq	r0, {ip, sp, lr}
     148:	889f1aff 	ldmhi	pc, {r0, r1, r2, r3, r4, r5, r6, r7, r9, fp, ip}	; <UNPREDICTABLE>
     14c:	90000002 	andls	r0, r0, r2
     150:	07000002 	streq	r0, [r0, -r2]
     154:	5001f300 	andpl	pc, r1, r0, lsl #6
     158:	9f1aff08 	svcls	0x001aff08
     15c:	00000290 	muleq	r0, r0, r2
     160:	000002c4 	andeq	r0, r0, r4, asr #5
     164:	60700003 	rsbsvs	r0, r0, r3
     168:	0002c49f 	muleq	r2, pc, r4	; <UNPREDICTABLE>
     16c:	0002d800 	andeq	sp, r2, r0, lsl #16
     170:	70000300 	andvc	r0, r0, r0, lsl #6
     174:	02d89f40 	sbcseq	r9, r8, #64, 30	; 0x100
     178:	03080000 	movweq	r0, #32768	; 0x8000
     17c:	00010000 	andeq	r0, r1, r0
     180:	00000054 	andeq	r0, r0, r4, asr r0
     184:	00000000 	andeq	r0, r0, r0
     188:	00030800 	andeq	r0, r3, r0, lsl #16
     18c:	00031000 	andeq	r1, r3, r0
     190:	51000100 	mrspl	r0, (UNDEF: 16)
     194:	00000310 	andeq	r0, r0, r0, lsl r3
     198:	0000032c 	andeq	r0, r0, ip, lsr #6
     19c:	01f30004 	mvnseq	r0, r4
     1a0:	00009f51 	andeq	r9, r0, r1, asr pc
     1a4:	00000000 	andeq	r0, r0, r0
     1a8:	03080000 	movweq	r0, #32768	; 0x8000
     1ac:	03180000 	tsteq	r8, #0
     1b0:	00010000 	andeq	r0, r1, r0
     1b4:	00031852 	andeq	r1, r3, r2, asr r8
     1b8:	00032c00 	andeq	r2, r3, r0, lsl #24
     1bc:	f3000400 	vshl.u8	d0, d0, d0
     1c0:	009f5201 	addseq	r5, pc, r1, lsl #4
     1c4:	00000000 	andeq	r0, r0, r0
     1c8:	10000000 	andne	r0, r0, r0
     1cc:	1c000003 	stcne	0, cr0, [r0], {3}
     1d0:	02000003 	andeq	r0, r0, #3
     1d4:	009f3000 	addseq	r3, pc, r0
     1d8:	00000000 	andeq	r0, r0, r0
     1dc:	2c000000 	stccs	0, cr0, [r0], {-0}
     1e0:	37000003 	strcc	r0, [r0, -r3]
     1e4:	01000003 	tsteq	r0, r3
     1e8:	03375000 	teqeq	r7, #0
     1ec:	03380000 	teqeq	r8, #0
     1f0:	00040000 	andeq	r0, r4, r0
     1f4:	9f5001f3 	svcls	0x005001f3
	...
     200:	0000032c 	andeq	r0, r0, ip, lsr #6
     204:	00000334 	andeq	r0, r0, r4, lsr r3
     208:	34510001 	ldrbcc	r0, [r1], #-1
     20c:	37000003 	strcc	r0, [r0, -r3]
     210:	01000003 	tsteq	r0, r3
     214:	03375200 	teqeq	r7, #0, 4
     218:	03380000 	teqeq	r8, #0
     21c:	00040000 	andeq	r0, r4, r0
     220:	9f5101f3 	svcls	0x005101f3
	...
     230:	00000020 	andeq	r0, r0, r0, lsr #32
     234:	9f300002 	svcls	0x00300002
	...
     244:	00000020 	andeq	r0, r0, r0, lsr #32
     248:	300c0006 	andcc	r0, ip, r6
     24c:	9f3f2010 	svcls	0x003f2010
	...
     258:	00000020 	andeq	r0, r0, r0, lsr #32
     25c:	00000024 	andeq	r0, r0, r4, lsr #32
     260:	9f300002 	svcls	0x00300002
	...
     26c:	00000020 	andeq	r0, r0, r0, lsr #32
     270:	00000024 	andeq	r0, r0, r4, lsr #32
     274:	940c0006 	strls	r0, [ip], #-6
     278:	9f3f2000 	svcls	0x003f2000
	...
     284:	00000024 	andeq	r0, r0, r4, lsr #32
     288:	0000002c 	andeq	r0, r0, ip, lsr #32
     28c:	96080003 	strls	r0, [r8], -r3
     290:	0000009f 	muleq	r0, pc, r0	; <UNPREDICTABLE>
     294:	00000000 	andeq	r0, r0, r0
     298:	00002c00 	andeq	r2, r0, r0, lsl #24
     29c:	00003400 	andeq	r3, r0, r0, lsl #8
     2a0:	0a000400 	beq	12a8 <SCTLR_ENABLE_INSTRUCTION_CACHE+0x2a8>
     2a4:	009fc000 	addseq	ip, pc, r0
     2a8:	00000000 	andeq	r0, r0, r0
     2ac:	2c000000 	stccs	0, cr0, [r0], {-0}
     2b0:	34000000 	strcc	r0, [r0], #-0
     2b4:	06000000 	streq	r0, [r0], -r0
     2b8:	00980c00 	addseq	r0, r8, r0, lsl #24
     2bc:	009f3f20 	addseq	r3, pc, r0, lsr #30
     2c0:	00000000 	andeq	r0, r0, r0
     2c4:	34000000 	strcc	r0, [r0], #-0
     2c8:	3c000000 	stccc	0, cr0, [r0], {-0}
     2cc:	03000000 	movweq	r0, #0
     2d0:	9f960800 	svcls	0x00960800
	...
     2dc:	00000050 	andeq	r0, r0, r0, asr r0
     2e0:	00000054 	andeq	r0, r0, r4, asr r0
     2e4:	9f310002 	svcls	0x00310002
	...
     2f0:	00000050 	andeq	r0, r0, r0, asr r0
     2f4:	00000054 	andeq	r0, r0, r4, asr r0
     2f8:	240c0006 	strcs	r0, [ip], #-6
     2fc:	9f3f2010 	svcls	0x003f2010
	...
     308:	0000003c 	andeq	r0, r0, ip, lsr r0
     30c:	00000044 	andeq	r0, r0, r4, asr #32
     310:	9f300002 	svcls	0x00300002
	...
     31c:	0000003c 	andeq	r0, r0, ip, lsr r0
     320:	00000044 	andeq	r0, r0, r4, asr #32
     324:	980c0006 	stmdals	ip, {r1, r2}
     328:	9f3f2000 	svcls	0x003f2000
	...
     334:	00000044 	andeq	r0, r0, r4, asr #32
     338:	00000050 	andeq	r0, r0, r0, asr r0
     33c:	ff0a0004 			; <UNDEFINED> instruction: 0xff0a0004
     340:	00009f07 	andeq	r9, r0, r7, lsl #30
     344:	00000000 	andeq	r0, r0, r0
     348:	00440000 	subeq	r0, r4, r0
     34c:	00500000 	subseq	r0, r0, r0
     350:	00060000 	andeq	r0, r6, r0
     354:	2010440c 	andscs	r4, r0, ip, lsl #8
     358:	00009f3f 	andeq	r9, r0, pc, lsr pc
     35c:	00000000 	andeq	r0, r0, r0
     360:	00540000 	subseq	r0, r4, r0
     364:	005c0000 	subseq	r0, ip, r0
     368:	00030000 	andeq	r0, r3, r0
     36c:	009f2808 	addseq	r2, pc, r8, lsl #16
     370:	00000000 	andeq	r0, r0, r0
     374:	54000000 	strpl	r0, [r0], #-0
     378:	5c000000 	stcpl	0, cr0, [r0], {-0}
     37c:	06000000 	streq	r0, [r0], -r0
     380:	10280c00 	eorne	r0, r8, r0, lsl #24
     384:	009f3f20 	addseq	r3, pc, r0, lsr #30
     388:	00000000 	andeq	r0, r0, r0
     38c:	5c000000 	stcpl	0, cr0, [r0], {-0}
     390:	64000000 	strvs	r0, [r0], #-0
     394:	03000000 	movweq	r0, #0
     398:	9f700800 	svcls	0x00700800
	...
     3a4:	0000005c 	andeq	r0, r0, ip, asr r0
     3a8:	00000064 	andeq	r0, r0, r4, rrx
     3ac:	2c0c0006 	stccs	0, cr0, [ip], {6}
     3b0:	9f3f2010 	svcls	0x003f2010
	...
     3bc:	00000064 	andeq	r0, r0, r4, rrx
     3c0:	0000006c 	andeq	r0, r0, ip, rrx
     3c4:	f20a0004 	vhadd.s8	d0, d10, d4
     3c8:	00009f07 	andeq	r9, r0, r7, lsl #30
     3cc:	00000000 	andeq	r0, r0, r0
     3d0:	00640000 	rsbeq	r0, r4, r0
     3d4:	006c0000 	rsbeq	r0, ip, r0
     3d8:	00060000 	andeq	r0, r6, r0
     3dc:	2010380c 	andscs	r3, r0, ip, lsl #16
     3e0:	00009f3f 	andeq	r9, r0, pc, lsr pc
     3e4:	00000000 	andeq	r0, r0, r0
     3e8:	006c0000 	rsbeq	r0, ip, r0
     3ec:	00700000 	rsbseq	r0, r0, r0
     3f0:	00040000 	andeq	r0, r4, r0
     3f4:	9f03010a 	svcls	0x0003010a
	...
     400:	0000006c 	andeq	r0, r0, ip, rrx
     404:	00000070 	andeq	r0, r0, r0, ror r0
     408:	300c0006 	andcc	r0, ip, r6
     40c:	9f3f2010 	svcls	0x003f2010
	...
     418:	0000007c 	andeq	r0, r0, ip, ror r0
     41c:	00000080 	andeq	r0, r0, r0, lsl #1
     420:	180c0006 	stmdane	ip, {r1, r2}
     424:	9f3f2010 	svcls	0x003f2010
	...
     430:	00000090 	muleq	r0, r0, r0
     434:	00000094 	muleq	r0, r4, r0
     438:	00500001 	subseq	r0, r0, r1
     43c:	00000000 	andeq	r0, r0, r0
     440:	90000000 	andls	r0, r0, r0
     444:	94000000 	strls	r0, [r0], #-0
     448:	06000000 	streq	r0, [r0], -r0
     44c:	10000c00 	andne	r0, r0, r0, lsl #24
     450:	009f3f20 	addseq	r3, pc, r0, lsr #30
     454:	00000000 	andeq	r0, r0, r0
     458:	a0000000 	andge	r0, r0, r0
     45c:	a4000000 	strge	r0, [r0], #-0
     460:	06000000 	streq	r0, [r0], -r0
     464:	10180c00 	andsne	r0, r8, r0, lsl #24
     468:	009f3f20 	addseq	r3, pc, r0, lsr #30
     46c:	00000000 	andeq	r0, r0, r0
     470:	b4000000 	strlt	r0, [r0], #-0
     474:	b8000000 	stmdalt	r0, {}	; <UNPREDICTABLE>
     478:	06000000 	streq	r0, [r0], -r0
     47c:	10000c00 	andne	r0, r0, r0, lsl #24
     480:	009f3f20 	addseq	r3, pc, r0, lsr #30
     484:	00000000 	andeq	r0, r0, r0
     488:	c0000000 	andgt	r0, r0, r0
     48c:	cc000000 	stcgt	0, cr0, [r0], {-0}
     490:	01000000 	mrseq	r0, (UNDEF: 0)
     494:	00cc5000 	sbceq	r5, ip, r0
     498:	00d40000 	sbcseq	r0, r4, r0
     49c:	00010000 	andeq	r0, r1, r0
     4a0:	0000d454 	andeq	sp, r0, r4, asr r4
     4a4:	0000e800 	andeq	lr, r0, r0, lsl #16
     4a8:	f3000400 	vshl.u8	d0, d0, d0
     4ac:	009f5001 	addseq	r5, pc, r1
     4b0:	00000000 	andeq	r0, r0, r0
     4b4:	c0000000 	andgt	r0, r0, r0
     4b8:	d4000000 	strle	r0, [r0], #-0
     4bc:	02000000 	andeq	r0, r0, #0
     4c0:	d49f3000 	ldrle	r3, [pc], #0	; 4c8 <ARM_I_BIT+0x448>
     4c4:	d8000000 	stmdale	r0, {}	; <UNPREDICTABLE>
     4c8:	07000000 	streq	r0, [r0, -r0]
     4cc:	f3007400 	vshl.u8	d7, d0, d0
     4d0:	9f1c5001 	svcls	0x001c5001
     4d4:	000000d8 	ldrdeq	r0, [r0], -r8
     4d8:	000000dc 	ldrdeq	r0, [r0], -ip
     4dc:	00740009 	rsbseq	r0, r4, r9
     4e0:	1c5001f3 	ldfnee	f0, [r0], {243}	; 0xf3
     4e4:	dc9f0123 	ldfles	f0, [pc], {35}	; 0x23
     4e8:	e8000000 	stmda	r0, {}	; <UNPREDICTABLE>
     4ec:	07000000 	streq	r0, [r0, -r0]
     4f0:	f3007400 	vshl.u8	d7, d0, d0
     4f4:	9f1c5001 	svcls	0x001c5001
	...
     500:	000000e8 	andeq	r0, r0, r8, ror #1
     504:	000000f4 	strdeq	r0, [r0], -r4
     508:	f4500001 			; <UNDEFINED> instruction: 0xf4500001
     50c:	24000000 	strcs	r0, [r0], #-0
     510:	01000001 	tsteq	r0, r1
     514:	01245500 			; <UNDEFINED> instruction: 0x01245500
     518:	01280000 			; <UNDEFINED> instruction: 0x01280000
     51c:	00040000 	andeq	r0, r4, r0
     520:	9f5001f3 	svcls	0x005001f3
	...
     52c:	000000e8 	andeq	r0, r0, r8, ror #1
     530:	000000f4 	strdeq	r0, [r0], -r4
     534:	20080003 	andcs	r0, r8, r3
     538:	0000f49f 	muleq	r0, pc, r4	; <UNPREDICTABLE>
     53c:	00012400 	andeq	r2, r1, r0, lsl #8
     540:	54000100 	strpl	r0, [r0], #-256	; 0xffffff00
	...
     54c:	00000100 	andeq	r0, r0, r0, lsl #2
     550:	00000108 	andeq	r0, r0, r8, lsl #2
     554:	08530001 	ldmdaeq	r3, {r0}^
     558:	10000001 	andne	r0, r0, r1
     55c:	01000001 	tsteq	r0, r1
     560:	01135000 	tsteq	r3, r0
     564:	01240000 			; <UNDEFINED> instruction: 0x01240000
     568:	00290000 	eoreq	r0, r9, r0
     56c:	00740075 	rsbseq	r0, r4, r5, ror r0
     570:	231a3f25 	tstcs	sl, #37, 30	; 0x94
     574:	74007537 	strvc	r7, [r0], #-1335	; 0xfffffac9
     578:	1a3f2500 	bne	fc9980 <__kernel_end+0xea8980>
     57c:	00753023 	rsbseq	r3, r5, r3, lsr #32
     580:	3f250074 	svccc	0x00250074
     584:	244b401a 	strbcs	r4, [fp], #-26	; 0xffffffe6
     588:	00090c22 	andeq	r0, r9, r2, lsr #24
     58c:	282b8000 	stmdacs	fp!, {pc}
     590:	13160001 	tstne	r6, #1
     594:	0000009f 	muleq	r0, pc, r0	; <UNPREDICTABLE>
	...
     5a0:	00001000 	andeq	r1, r0, r0
     5a4:	50000100 	andpl	r0, r0, r0, lsl #2
     5a8:	00000010 	andeq	r0, r0, r0, lsl r0
     5ac:	0000002c 	andeq	r0, r0, ip, lsr #32
     5b0:	01f30004 	mvnseq	r0, r4
     5b4:	00009f50 	andeq	r9, r0, r0, asr pc
	...
     5c0:	00040000 	andeq	r0, r4, r0
     5c4:	00010000 	andeq	r0, r1, r0
     5c8:	00000451 	andeq	r0, r0, r1, asr r4
     5cc:	00001000 	andeq	r1, r0, r0
     5d0:	51000100 	mrspl	r0, (UNDEF: 16)
     5d4:	00000010 	andeq	r0, r0, r0, lsl r0
     5d8:	0000002c 	andeq	r0, r0, ip, lsr #32
     5dc:	00500001 	subseq	r0, r0, r1
     5e0:	00000000 	andeq	r0, r0, r0
     5e4:	2c000000 	stccs	0, cr0, [r0], {-0}
     5e8:	60000000 	andvs	r0, r0, r0
     5ec:	01000000 	mrseq	r0, (UNDEF: 0)
     5f0:	00605000 	rsbeq	r5, r0, r0
     5f4:	00640000 	rsbeq	r0, r4, r0
     5f8:	00040000 	andeq	r0, r4, r0
     5fc:	9f5001f3 	svcls	0x005001f3
     600:	00000064 	andeq	r0, r0, r4, rrx
     604:	00000068 	andeq	r0, r0, r8, rrx
     608:	68500001 	ldmdavs	r0, {r0}^
     60c:	6c000000 	stcvs	0, cr0, [r0], {-0}
     610:	04000000 	streq	r0, [r0], #-0
     614:	5001f300 	andpl	pc, r1, r0, lsl #6
     618:	0000009f 	muleq	r0, pc, r0	; <UNPREDICTABLE>
     61c:	00000000 	andeq	r0, r0, r0
     620:	00002c00 	andeq	r2, r0, r0, lsl #24
     624:	00004000 	andeq	r4, r0, r0
     628:	09000300 	stmdbeq	r0, {r8, r9}
     62c:	00509fff 	ldrsheq	r9, [r0], #-255	; 0xffffff01
     630:	00640000 	rsbeq	r0, r4, r0
     634:	00010000 	andeq	r0, r1, r0
     638:	00006453 	andeq	r6, r0, r3, asr r4
     63c:	00006c00 	andeq	r6, r0, r0, lsl #24
     640:	09000300 	stmdbeq	r0, {r8, r9}
     644:	00009fff 	strdeq	r9, [r0], -pc	; <UNPREDICTABLE>
     648:	00000000 	andeq	r0, r0, r0
     64c:	04c80000 	strbeq	r0, [r8], #0
     650:	052c0000 	streq	r0, [ip, #-0]!
     654:	00010000 	andeq	r0, r1, r0
     658:	00052c50 	andeq	r2, r5, r0, asr ip
     65c:	00053000 	andeq	r3, r5, r0
     660:	03000500 	movweq	r0, #1280	; 0x500
     664:	00014254 	andeq	r4, r1, r4, asr r2
     668:	00000530 	andeq	r0, r0, r0, lsr r5
     66c:	00000550 	andeq	r0, r0, r0, asr r5
     670:	50500001 	subspl	r0, r0, r1
     674:	5b000005 	blpl	690 <ARM_I_BIT+0x610>
     678:	05000005 	streq	r0, [r0, #-5]
     67c:	42540300 	subsmi	r0, r4, #0, 6
     680:	055b0001 	ldrbeq	r0, [fp, #-1]
     684:	05740000 	ldrbeq	r0, [r4, #-0]!
     688:	00040000 	andeq	r0, r4, r0
     68c:	9f5001f3 	svcls	0x005001f3
	...
     698:	000004c8 	andeq	r0, r0, r8, asr #9
     69c:	00000540 	andeq	r0, r0, r0, asr #10
     6a0:	9f300002 	svcls	0x00300002
     6a4:	00000540 	andeq	r0, r0, r0, asr #10
     6a8:	0000055b 	andeq	r0, r0, fp, asr r5
     6ac:	00530001 	subseq	r0, r3, r1
     6b0:	00000000 	andeq	r0, r0, r0
     6b4:	e4000000 	str	r0, [r0], #-0
     6b8:	04000004 	streq	r0, [r0], #-4
     6bc:	02000005 	andeq	r0, r0, #5
     6c0:	049f3200 	ldreq	r3, [pc], #512	; 6c8 <ARM_I_BIT+0x648>
     6c4:	1c000005 	stcne	0, cr0, [r0], {5}
     6c8:	01000005 	tsteq	r0, r5
     6cc:	05205300 	streq	r5, [r0, #-768]!	; 0xfffffd00
     6d0:	05280000 	streq	r0, [r8, #-0]!
     6d4:	00010000 	andeq	r0, r1, r0
     6d8:	00000053 	andeq	r0, r0, r3, asr r0
     6dc:	00000000 	andeq	r0, r0, r0
     6e0:	00008c00 	andeq	r8, r0, r0, lsl #24
     6e4:	00009c00 	andeq	r9, r0, r0, lsl #24
     6e8:	50000100 	andpl	r0, r0, r0, lsl #2
     6ec:	0000009c 	muleq	r0, ip, r0
     6f0:	000000a8 	andeq	r0, r0, r8, lsr #1
     6f4:	01f30004 	mvnseq	r0, r4
     6f8:	00009f50 	andeq	r9, r0, r0, asr pc
     6fc:	00000000 	andeq	r0, r0, r0
     700:	00480000 	subeq	r0, r8, r0
     704:	004c0000 	subeq	r0, ip, r0
     708:	00010000 	andeq	r0, r1, r0
     70c:	00004c50 	andeq	r4, r0, r0, asr ip
     710:	00005000 	andeq	r5, r0, r0
     714:	f3000400 	vshl.u8	d0, d0, d0
     718:	009f5001 	addseq	r5, pc, r1
     71c:	00000000 	andeq	r0, r0, r0
     720:	50000000 	andpl	r0, r0, r0
     724:	64000000 	strvs	r0, [r0], #-0
     728:	01000000 	mrseq	r0, (UNDEF: 0)
     72c:	00645000 	rsbeq	r5, r4, r0
     730:	007c0000 	rsbseq	r0, ip, r0
     734:	00010000 	andeq	r0, r1, r0
     738:	00000053 	andeq	r0, r0, r3, asr r0
     73c:	00000000 	andeq	r0, r0, r0
     740:	00005400 	andeq	r5, r0, r0, lsl #8
     744:	00006800 	andeq	r6, r0, r0, lsl #16
     748:	51000100 	mrspl	r0, (UNDEF: 16)
     74c:	00000068 	andeq	r0, r0, r8, rrx
     750:	0000007c 	andeq	r0, r0, ip, ror r0
     754:	00500001 	subseq	r0, r0, r1
     758:	00000000 	andeq	r0, r0, r0
     75c:	7c000000 	stcvc	0, cr0, [r0], {-0}
     760:	80000000 	andhi	r0, r0, r0
     764:	01000000 	mrseq	r0, (UNDEF: 0)
     768:	00805000 	addeq	r5, r0, r0
     76c:	00840000 	addeq	r0, r4, r0
     770:	00040000 	andeq	r0, r4, r0
     774:	9f5001f3 	svcls	0x005001f3
	...
     780:	00000084 	andeq	r0, r0, r4, lsl #1
     784:	00000088 	andeq	r0, r0, r8, lsl #1
     788:	88500001 	ldmdahi	r0, {r0}^
     78c:	8c000000 	stchi	0, cr0, [r0], {-0}
     790:	04000000 	streq	r0, [r0], #-0
     794:	5001f300 	andpl	pc, r1, r0, lsl #6
     798:	0000009f 	muleq	r0, pc, r0	; <UNPREDICTABLE>
     79c:	00000000 	andeq	r0, r0, r0
     7a0:	0000d400 	andeq	sp, r0, r0, lsl #8
     7a4:	0000f400 	andeq	pc, r0, r0, lsl #8
     7a8:	50000100 	andpl	r0, r0, r0, lsl #2
	...
     7b4:	00000114 	andeq	r0, r0, r4, lsl r1
     7b8:	0000011c 	andeq	r0, r0, ip, lsl r1
     7bc:	1c500001 	mrrcne	0, 0, r0, r0, cr1	; <UNPREDICTABLE>
     7c0:	58000001 	stmdapl	r0, {r0}
     7c4:	04000001 	streq	r0, [r0], #-1
     7c8:	5001f300 	andpl	pc, r1, r0, lsl #6
     7cc:	0000009f 	muleq	r0, pc, r0	; <UNPREDICTABLE>
     7d0:	00000000 	andeq	r0, r0, r0
     7d4:	00013400 	andeq	r3, r1, r0, lsl #8
     7d8:	00014800 	andeq	r4, r1, r0, lsl #16
     7dc:	50000100 	andpl	r0, r0, r0, lsl #2
     7e0:	00000148 	andeq	r0, r0, r8, asr #2
     7e4:	0000014b 	andeq	r0, r0, fp, asr #2
     7e8:	00510001 	subseq	r0, r1, r1
     7ec:	00000000 	andeq	r0, r0, r0
     7f0:	90000000 	andls	r0, r0, r0
     7f4:	98000001 	stmdals	r0, {r0}
     7f8:	01000001 	tsteq	r0, r1
     7fc:	00005000 	andeq	r5, r0, r0
     800:	00000000 	andeq	r0, r0, r0
     804:	01b80000 			; <UNDEFINED> instruction: 0x01b80000
     808:	01bc0000 			; <UNDEFINED> instruction: 0x01bc0000
     80c:	00010000 	andeq	r0, r1, r0
     810:	0001bc50 	andeq	fp, r1, r0, asr ip
     814:	0001cb00 	andeq	ip, r1, r0, lsl #22
     818:	51000100 	mrspl	r0, (UNDEF: 16)
	...
     824:	000001f4 	strdeq	r0, [r0], -r4
     828:	000001fc 	strdeq	r0, [r0], -ip
     82c:	00710005 	rsbseq	r0, r1, r5
     830:	fc9f2434 	ldc2	4, cr2, [pc], {52}	; 0x34
     834:	07000001 	streq	r0, [r0, -r1]
     838:	01000002 	tsteq	r0, r2
     83c:	00005100 	andeq	r5, r0, r0, lsl #2
     840:	00000000 	andeq	r0, r0, r0
     844:	02080000 	andeq	r0, r8, #0
     848:	02100000 	andseq	r0, r0, #0
     84c:	00050000 	andeq	r0, r5, r0
     850:	253c0074 	ldrcs	r0, [ip, #-116]!	; 0xffffff8c
     854:	0002109f 	muleq	r2, pc, r0	; <UNPREDICTABLE>
     858:	00026c00 	andeq	r6, r2, r0, lsl #24
     85c:	54000100 	strpl	r0, [r0], #-256	; 0xffffff00
	...
     868:	00000208 	andeq	r0, r0, r8, lsl #4
     86c:	00000230 	andeq	r0, r0, r0, lsr r2
     870:	9f300002 	svcls	0x00300002
     874:	00000230 	andeq	r0, r0, r0, lsr r2
     878:	00000254 	andeq	r0, r0, r4, asr r2
     87c:	54530001 	ldrbpl	r0, [r3], #-1
     880:	78000002 	stmdavc	r0, {r1}
     884:	01000002 	tsteq	r0, r2
     888:	02785400 	rsbseq	r5, r8, #0, 8
     88c:	02940000 	addseq	r0, r4, #0
     890:	00030000 	andeq	r0, r3, r0
     894:	949f7f74 	ldrls	r7, [pc], #3956	; 89c <SCTLR_ENABLE_BRANCH_PREDICTION+0x9c>
     898:	c0000002 	andgt	r0, r0, r2
     89c:	01000002 	tsteq	r0, r2
     8a0:	00005400 	andeq	r5, r0, r0, lsl #8
	...
     8ac:	00100000 	andseq	r0, r0, r0
     8b0:	00010000 	andeq	r0, r1, r0
     8b4:	00001050 	andeq	r1, r0, r0, asr r0
     8b8:	00003c00 	andeq	r3, r0, r0, lsl #24
     8bc:	f3000400 	vshl.u8	d0, d0, d0
     8c0:	009f5001 	addseq	r5, pc, r1
	...
     8cc:	08000000 	stmdaeq	r0, {}	; <UNPREDICTABLE>
     8d0:	01000000 	mrseq	r0, (UNDEF: 0)
     8d4:	00085100 	andeq	r5, r8, r0, lsl #2
     8d8:	003c0000 	eorseq	r0, ip, r0
     8dc:	00040000 	andeq	r0, r4, r0
     8e0:	9f5101f3 	svcls	0x005101f3
	...
     8f0:	0000000c 	andeq	r0, r0, ip
     8f4:	0c520001 	mrrceq	0, 0, r0, r2, cr1
     8f8:	3c000000 	stccc	0, cr0, [r0], {-0}
     8fc:	04000000 	streq	r0, [r0], #-0
     900:	5201f300 	andpl	pc, r1, #0, 6
     904:	0000009f 	muleq	r0, pc, r0	; <UNPREDICTABLE>
	...
     910:	00001000 	andeq	r1, r0, r0
     914:	70000700 	andvc	r0, r0, r0, lsl #14
     918:	32254400 	eorcc	r4, r5, #0, 8
     91c:	00109f24 	andseq	r9, r0, r4, lsr #30
     920:	003c0000 	eorseq	r0, ip, r0
     924:	00080000 	andeq	r0, r8, r0
     928:	445001f3 	ldrbmi	r0, [r0], #-499	; 0xfffffe0d
     92c:	9f243225 	svcls	0x00243225
	...
     93c:	00000010 	andeq	r0, r0, r0, lsl r0
     940:	0070000e 	rsbseq	r0, r0, lr
     944:	24322544 	ldrtcs	r2, [r2], #-1348	; 0xfffffabc
     948:	01436c03 	cmpeq	r3, r3, lsl #24
     94c:	9f210600 	svcls	0x00210600
     950:	00000010 	andeq	r0, r0, r0, lsl r0
     954:	0000002c 	andeq	r0, r0, ip, lsr #32
     958:	01f3000f 	mvnseq	r0, pc
     95c:	32254450 	eorcc	r4, r5, #80, 8	; 0x50000000
     960:	436c0324 	cmnmi	ip, #36, 6	; 0x90000000
     964:	21060001 	tstcs	r6, r1
     968:	00002c9f 	muleq	r0, pc, ip	; <UNPREDICTABLE>
     96c:	00002f00 	andeq	r2, r0, r0, lsl #30
     970:	50000100 	andpl	r0, r0, r0, lsl #2
	...
     97c:	0000001c 	andeq	r0, r0, ip, lsl r0
     980:	00000028 	andeq	r0, r0, r8, lsr #32
     984:	01f3000b 	mvnseq	r0, fp
     988:	21007152 	tstcs	r0, r2, asr r1
     98c:	210c020a 	tstcs	ip, sl, lsl #4
     990:	0000289f 	muleq	r0, pc, r8	; <UNPREDICTABLE>
     994:	00003c00 	andeq	r3, r0, r0, lsl #24
     998:	f3001000 	vhadd.u8	d1, d0, d0
     99c:	25445101 	strbcs	r5, [r4, #-257]	; 0xfffffeff
     9a0:	01f32444 	mvnseq	r2, r4, asr #8
     9a4:	020a2152 	andeq	r2, sl, #-2147483628	; 0x80000014
     9a8:	009f210c 	addseq	r2, pc, ip, lsl #2
     9ac:	00000000 	andeq	r0, r0, r0
     9b0:	64000000 	strvs	r0, [r0], #-0
     9b4:	68000000 	stmdavs	r0, {}	; <UNPREDICTABLE>
     9b8:	02000000 	andeq	r0, r0, #0
     9bc:	689f3000 	ldmvs	pc, {ip, sp}	; <UNPREDICTABLE>
     9c0:	c4000000 	strgt	r0, [r0], #-0
     9c4:	01000000 	mrseq	r0, (UNDEF: 0)
     9c8:	00005400 	andeq	r5, r0, r0, lsl #8
	...
     9d4:	00040000 	andeq	r0, r4, r0
     9d8:	00010000 	andeq	r0, r1, r0
     9dc:	00000450 	andeq	r0, r0, r0, asr r4
     9e0:	00005c00 	andeq	r5, r0, r0, lsl #24
     9e4:	f3000400 	vshl.u8	d0, d0, d0
     9e8:	009f5001 	addseq	r5, pc, r1
	...
     9f4:	13000000 	movwne	r0, #0
     9f8:	01000000 	mrseq	r0, (UNDEF: 0)
     9fc:	00135100 	andseq	r5, r3, r0, lsl #2
     a00:	005c0000 	subseq	r0, ip, r0
     a04:	00040000 	andeq	r0, r4, r0
     a08:	9f5101f3 	svcls	0x005101f3
	...
     a18:	00000013 	andeq	r0, r0, r3, lsl r0
     a1c:	13520001 	cmpne	r2, #1
     a20:	5c000000 	stcpl	0, cr0, [r0], {-0}
     a24:	04000000 	streq	r0, [r0], #-0
     a28:	5201f300 	andpl	pc, r1, #0, 6
     a2c:	0000009f 	muleq	r0, pc, r0	; <UNPREDICTABLE>
	...
     a38:	00001000 	andeq	r1, r0, r0
     a3c:	51000100 	mrspl	r0, (UNDEF: 16)
     a40:	00000010 	andeq	r0, r0, r0, lsl r0
     a44:	00000024 	andeq	r0, r0, r4, lsr #32
     a48:	01f30004 	mvnseq	r0, r4
     a4c:	00009f51 	andeq	r9, r0, r1, asr pc
	...
     a58:	00100000 	andseq	r0, r0, r0
     a5c:	00010000 	andeq	r0, r1, r0
     a60:	00001052 	andeq	r1, r0, r2, asr r0
     a64:	00002400 	andeq	r2, r0, r0, lsl #8
     a68:	f3000400 	vshl.u8	d0, d0, d0
     a6c:	009f5201 	addseq	r5, pc, r1, lsl #4
     a70:	00000000 	andeq	r0, r0, r0
     a74:	04000000 	streq	r0, [r0], #-0
     a78:	10000000 	andne	r0, r0, r0
     a7c:	01000000 	mrseq	r0, (UNDEF: 0)
     a80:	00105100 	andseq	r5, r0, r0, lsl #2
     a84:	00240000 	eoreq	r0, r4, r0
     a88:	00040000 	andeq	r0, r4, r0
     a8c:	9f5101f3 	svcls	0x005101f3
	...
     a98:	00000004 	andeq	r0, r0, r4
     a9c:	00000010 	andeq	r0, r0, r0, lsl r0
     aa0:	9f300002 	svcls	0x00300002
     aa4:	00000010 	andeq	r0, r0, r0, lsl r0
     aa8:	00000014 	andeq	r0, r0, r4, lsl r0
     aac:	00710007 	rsbseq	r0, r1, r7
     ab0:	1c5101f3 	ldfnee	f0, [r1], {243}	; 0xf3
     ab4:	0000149f 	muleq	r0, pc, r4	; <UNPREDICTABLE>
     ab8:	00001c00 	andeq	r1, r0, r0, lsl #24
     abc:	f3000800 	vsub.i8	d0, d0, d0
     ac0:	71205101 			; <UNDEFINED> instruction: 0x71205101
     ac4:	1c9f2200 	lfmne	f2, 4, [pc], {0}
     ac8:	24000000 	strcs	r0, [r0], #-0
     acc:	07000000 	streq	r0, [r0, -r0]
     ad0:	f3007100 	vrhadd.u8	d7, d0, d0
     ad4:	9f1c5101 	svcls	0x001c5101
	...
     ae4:	00000008 	andeq	r0, r0, r8
     ae8:	08500001 	ldmdaeq	r0, {r0}^
     aec:	18000000 	stmdane	r0, {}	; <UNPREDICTABLE>
     af0:	04000000 	streq	r0, [r0], #-0
     af4:	5001f300 	andpl	pc, r1, r0, lsl #6
     af8:	0000009f 	muleq	r0, pc, r0	; <UNPREDICTABLE>
	...
     b04:	00000b00 	andeq	r0, r0, r0, lsl #22
     b08:	51000100 	mrspl	r0, (UNDEF: 16)
     b0c:	0000000b 	andeq	r0, r0, fp
     b10:	00000018 	andeq	r0, r0, r8, lsl r0
     b14:	01f30004 	mvnseq	r0, r4
     b18:	00009f51 	andeq	r9, r0, r1, asr pc
	...
     b24:	001c0000 	andseq	r0, ip, r0
     b28:	00010000 	andeq	r0, r1, r0
     b2c:	00001c50 	andeq	r1, r0, r0, asr ip
     b30:	00004400 	andeq	r4, r0, r0, lsl #8
     b34:	91000300 	mrsls	r0, LR_irq
     b38:	00447ee4 	subeq	r7, r4, r4, ror #29
     b3c:	00880000 	addeq	r0, r8, r0
     b40:	00010000 	andeq	r0, r1, r0
     b44:	00008853 	andeq	r8, r0, r3, asr r8
     b48:	0000ac00 	andeq	sl, r0, r0, lsl #24
     b4c:	91000300 	mrsls	r0, LR_irq
     b50:	00ac7ee4 	adceq	r7, ip, r4, ror #29
     b54:	00d00000 	sbcseq	r0, r0, r0
     b58:	00010000 	andeq	r0, r1, r0
     b5c:	0000d053 	andeq	sp, r0, r3, asr r0
     b60:	0000d800 	andeq	sp, r0, r0, lsl #16
     b64:	73000300 	movwvc	r0, #768	; 0x300
     b68:	00e89f7f 	rsceq	r9, r8, pc, ror pc
     b6c:	01d40000 	bicseq	r0, r4, r0
     b70:	00010000 	andeq	r0, r1, r0
     b74:	0001d453 	andeq	sp, r1, r3, asr r4
     b78:	0001e000 	andeq	lr, r1, r0
     b7c:	73000300 	movwvc	r0, #768	; 0x300
     b80:	01e09f7f 	mvneq	r9, pc, ror pc
     b84:	01e40000 	mvneq	r0, r0
     b88:	00010000 	andeq	r0, r1, r0
     b8c:	0001e453 	andeq	lr, r1, r3, asr r4
     b90:	0002f400 	andeq	pc, r2, r0, lsl #8
     b94:	91000300 	mrsls	r0, LR_irq
     b98:	02f47ee4 	rscseq	r7, r4, #228, 28	; 0xe40
     b9c:	031c0000 	tsteq	ip, #0
     ba0:	00010000 	andeq	r0, r1, r0
     ba4:	00031c53 	andeq	r1, r3, r3, asr ip
     ba8:	00032400 	andeq	r2, r3, r0, lsl #8
     bac:	73000300 	movwvc	r0, #768	; 0x300
     bb0:	03249f01 			; <UNDEFINED> instruction: 0x03249f01
     bb4:	03280000 			; <UNDEFINED> instruction: 0x03280000
     bb8:	00010000 	andeq	r0, r1, r0
     bbc:	00032853 	andeq	r2, r3, r3, asr r8
     bc0:	00033000 	andeq	r3, r3, r0
     bc4:	73000300 	movwvc	r0, #768	; 0x300
     bc8:	03309f01 	teqeq	r0, #1, 30
     bcc:	03340000 	teqeq	r4, #0
     bd0:	00010000 	andeq	r0, r1, r0
     bd4:	00033453 	andeq	r3, r3, r3, asr r4
     bd8:	00035400 	andeq	r5, r3, r0, lsl #8
     bdc:	73000300 	movwvc	r0, #768	; 0x300
     be0:	03549f01 	cmpeq	r4, #1, 30
     be4:	035c0000 	cmpeq	ip, #0
     be8:	00010000 	andeq	r0, r1, r0
     bec:	00035c53 	andeq	r5, r3, r3, asr ip
     bf0:	00036400 	andeq	r6, r3, r0, lsl #8
     bf4:	73000300 	movwvc	r0, #768	; 0x300
     bf8:	03789f7f 	cmneq	r8, #508	; 0x1fc
     bfc:	03880000 	orreq	r0, r8, #0
     c00:	00030000 	andeq	r0, r3, r0
     c04:	889f0173 	ldmhi	pc, {r0, r1, r4, r5, r6, r8}	; <UNPREDICTABLE>
     c08:	8c000003 	stchi	0, cr0, [r0], {3}
     c0c:	03000003 	movweq	r0, #3
     c10:	9f027300 	svcls	0x00027300
     c14:	00000390 	muleq	r0, r0, r3
     c18:	000003ac 	andeq	r0, r0, ip, lsr #7
     c1c:	ac530001 	mrrcge	0, 0, r0, r3, cr1
     c20:	b4000003 	strlt	r0, [r0], #-3
     c24:	03000003 	movweq	r0, #3
     c28:	9f7f7300 	svcls	0x007f7300
     c2c:	000003b4 			; <UNDEFINED> instruction: 0x000003b4
     c30:	000003b7 			; <UNDEFINED> instruction: 0x000003b7
     c34:	b7530001 	ldrblt	r0, [r3, -r1]
     c38:	80000003 	andhi	r0, r0, r3
     c3c:	03000004 	movweq	r0, #4
     c40:	7ee49100 	urdvcs	f1, f0
     c44:	00000480 	andeq	r0, r0, r0, lsl #9
     c48:	0000051c 	andeq	r0, r0, ip, lsl r5
     c4c:	1c530001 	mrrcne	0, 0, r0, r3, cr1
     c50:	20000005 	andcs	r0, r0, r5
     c54:	03000005 	movweq	r0, #5
     c58:	9f7f7300 	svcls	0x007f7300
     c5c:	00000520 	andeq	r0, r0, r0, lsr #10
     c60:	00000524 	andeq	r0, r0, r4, lsr #10
     c64:	24530001 	ldrbcs	r0, [r3], #-1
     c68:	a4000005 	strge	r0, [r0], #-5
     c6c:	03000006 	movweq	r0, #6
     c70:	7ee49100 	urdvcs	f1, f0
     c74:	000006a4 	andeq	r0, r0, r4, lsr #13
     c78:	000006ac 	andeq	r0, r0, ip, lsr #13
     c7c:	01730003 	cmneq	r3, r3
     c80:	0006ac9f 	muleq	r6, pc, ip	; <UNPREDICTABLE>
     c84:	0006bc00 	andeq	fp, r6, r0, lsl #24
     c88:	73000300 	movwvc	r0, #768	; 0x300
     c8c:	06bc9f02 	ldrteq	r9, [ip], r2, lsl #30
     c90:	06c00000 	strbeq	r0, [r0], r0
     c94:	00010000 	andeq	r0, r1, r0
     c98:	0006c053 	andeq	ip, r6, r3, asr r0
     c9c:	0006e000 	andeq	lr, r6, r0
     ca0:	91000300 	mrsls	r0, LR_irq
     ca4:	06e07ee4 	strbteq	r7, [r0], r4, ror #29
     ca8:	06e80000 	strbteq	r0, [r8], r0
     cac:	00010000 	andeq	r0, r1, r0
     cb0:	0006e853 	andeq	lr, r6, r3, asr r8
     cb4:	00070000 	andeq	r0, r7, r0
     cb8:	91000300 	mrsls	r0, LR_irq
     cbc:	07007ee4 	streq	r7, [r0, -r4, ror #29]
     cc0:	07180000 	ldreq	r0, [r8, -r0]
     cc4:	00010000 	andeq	r0, r1, r0
     cc8:	00071853 	andeq	r1, r7, r3, asr r8
     ccc:	00072800 	andeq	r2, r7, r0, lsl #16
     cd0:	91000300 	mrsls	r0, LR_irq
     cd4:	07287ee4 	streq	r7, [r8, -r4, ror #29]!
     cd8:	07300000 	ldreq	r0, [r0, -r0]!
     cdc:	00010000 	andeq	r0, r1, r0
     ce0:	00073053 	andeq	r3, r7, r3, asr r0
     ce4:	00074c00 	andeq	r4, r7, r0, lsl #24
     ce8:	91000300 	mrsls	r0, LR_irq
     cec:	00007ee4 	andeq	r7, r0, r4, ror #29
	...
     cf8:	00840000 	addeq	r0, r4, r0
     cfc:	00010000 	andeq	r0, r1, r0
     d00:	00008851 	andeq	r8, r0, r1, asr r8
     d04:	00008c00 	andeq	r8, r0, r0, lsl #24
     d08:	51000100 	mrspl	r0, (UNDEF: 16)
     d0c:	000000b0 	strheq	r0, [r0], -r0	; <UNPREDICTABLE>
     d10:	000000c0 	andeq	r0, r0, r0, asr #1
     d14:	e8510001 	ldmda	r1, {r0}^
     d18:	0c000002 	stceq	0, cr0, [r0], {2}
     d1c:	01000003 	tsteq	r0, r3
     d20:	06e05100 	strbteq	r5, [r0], r0, lsl #2
     d24:	06e80000 	strbteq	r0, [r8], r0
     d28:	00010000 	andeq	r0, r1, r0
     d2c:	00000051 	andeq	r0, r0, r1, asr r0
	...
     d38:	00001c00 	andeq	r1, r0, r0, lsl #24
     d3c:	52000100 	andpl	r0, r0, #0, 2
     d40:	0000001c 	andeq	r0, r0, ip, lsl r0
     d44:	0000074c 	andeq	r0, r0, ip, asr #14
     d48:	01f30004 	mvnseq	r0, r4
     d4c:	00009f52 	andeq	r9, r0, r2, asr pc
	...
     d58:	001c0000 	andseq	r0, ip, r0
     d5c:	00010000 	andeq	r0, r1, r0
     d60:	00001c53 	andeq	r1, r0, r3, asr ip
     d64:	0002f000 	andeq	pc, r2, r0
     d68:	5a000100 	bpl	1170 <SCTLR_ENABLE_INSTRUCTION_CACHE+0x170>
     d6c:	000002f0 	strdeq	r0, [r0], -r0	; <UNPREDICTABLE>
     d70:	000002f4 	strdeq	r0, [r0], -r4
     d74:	01f30004 	mvnseq	r0, r4
     d78:	02f49f53 	rscseq	r9, r4, #332	; 0x14c
     d7c:	074c0000 	strbeq	r0, [ip, -r0]
     d80:	00010000 	andeq	r0, r1, r0
     d84:	0000005a 	andeq	r0, r0, sl, asr r0
     d88:	00000000 	andeq	r0, r0, r0
     d8c:	00001c00 	andeq	r1, r0, r0, lsl #24
     d90:	00024000 	andeq	r4, r2, r0
     d94:	5b000100 	blpl	119c <SCTLR_ENABLE_INSTRUCTION_CACHE+0x19c>
     d98:	000002a4 	andeq	r0, r0, r4, lsr #5
     d9c:	000002e4 	andeq	r0, r0, r4, ror #5
     da0:	f45b0001 			; <UNDEFINED> instruction: 0xf45b0001
     da4:	f4000002 	vst4.8	{d0-d3}, [r0], r2
     da8:	01000003 	tsteq	r0, r3
     dac:	042c5b00 	strteq	r5, [ip], #-2816	; 0xfffff500
     db0:	04440000 	strbeq	r0, [r4], #-0
     db4:	00010000 	andeq	r0, r1, r0
     db8:	0004445b 	andeq	r4, r4, fp, asr r4
     dbc:	00048000 	andeq	r8, r4, r0
     dc0:	56000100 	strpl	r0, [r0], -r0, lsl #2
     dc4:	00000480 	andeq	r0, r0, r0, lsl #9
     dc8:	00000570 	andeq	r0, r0, r0, ror r5
     dcc:	705b0001 	subsvc	r0, fp, r1
     dd0:	c8000005 	stmdagt	r0, {r0, r2}
     dd4:	03000005 	movweq	r0, #5
     dd8:	7f809100 	svcvc	0x00809100
     ddc:	000005c8 	andeq	r0, r0, r8, asr #11
     de0:	000005cc 	andeq	r0, r0, ip, asr #11
     de4:	cc5b0001 	mrrcgt	0, 0, r0, fp, cr1
     de8:	08000005 	stmdaeq	r0, {r0, r2}
     dec:	01000006 	tsteq	r0, r6
     df0:	06085800 	streq	r5, [r8], -r0, lsl #16
     df4:	06280000 	strteq	r0, [r8], -r0
     df8:	00010000 	andeq	r0, r1, r0
     dfc:	0006485b 	andeq	r4, r6, fp, asr r8
     e00:	00065800 	andeq	r5, r6, r0, lsl #16
     e04:	58000100 	stmdapl	r0, {r8}
     e08:	00000658 	andeq	r0, r0, r8, asr r6
     e0c:	00000694 	muleq	r0, r4, r6
     e10:	a45b0001 	ldrbge	r0, [fp], #-1
     e14:	e8000006 	stmda	r0, {r1, r2}
     e18:	01000006 	tsteq	r0, r6
     e1c:	06e85b00 	strbteq	r5, [r8], r0, lsl #22
     e20:	06fc0000 	ldrbteq	r0, [ip], r0
     e24:	00010000 	andeq	r0, r1, r0
     e28:	0006fc56 	andeq	pc, r6, r6, asr ip	; <UNPREDICTABLE>
     e2c:	00074c00 	andeq	r4, r7, r0, lsl #24
     e30:	5b000100 	blpl	1238 <SCTLR_ENABLE_INSTRUCTION_CACHE+0x238>
	...
     e3c:	000002b0 			; <UNDEFINED> instruction: 0x000002b0
     e40:	000002e4 	andeq	r0, r0, r4, ror #5
     e44:	9f300002 	svcls	0x00300002
     e48:	0000042c 	andeq	r0, r0, ip, lsr #8
     e4c:	00000480 	andeq	r0, r0, r0, lsl #9
     e50:	9f300002 	svcls	0x00300002
     e54:	000005c8 	andeq	r0, r0, r8, asr #11
     e58:	000005e0 	andeq	r0, r0, r0, ror #11
     e5c:	9f300002 	svcls	0x00300002
     e60:	00000648 	andeq	r0, r0, r8, asr #12
     e64:	0000064c 	andeq	r0, r0, ip, asr #12
     e68:	9f300002 	svcls	0x00300002
     e6c:	00000658 	andeq	r0, r0, r8, asr r6
     e70:	00000694 	muleq	r0, r4, r6
     e74:	9f300002 	svcls	0x00300002
     e78:	000006e8 	andeq	r0, r0, r8, ror #13
     e7c:	00000700 	andeq	r0, r0, r0, lsl #14
     e80:	9f300002 	svcls	0x00300002
	...
     e8c:	00000084 	andeq	r0, r0, r4, lsl #1
     e90:	00000088 	andeq	r0, r0, r8, lsl #1
     e94:	88910004 	ldmhi	r1, {r2}
     e98:	01189f7f 	tsteq	r8, pc, ror pc
     e9c:	02640000 	rsbeq	r0, r4, #0
     ea0:	00040000 	andeq	r0, r4, r0
     ea4:	9f7f8891 	svcls	0x007f8891
     ea8:	00000264 	andeq	r0, r0, r4, ror #4
     eac:	00000267 	andeq	r0, r0, r7, ror #4
     eb0:	67500001 	ldrbvs	r0, [r0, -r1]
     eb4:	94000002 	strls	r0, [r0], #-2
     eb8:	04000002 	streq	r0, [r0], #-2
     ebc:	7f889100 	svcvc	0x00889100
     ec0:	0002949f 	muleq	r2, pc, r4	; <UNPREDICTABLE>
     ec4:	0002a400 	andeq	sl, r2, r0, lsl #8
     ec8:	59000100 	stmdbpl	r0, {r8}
     ecc:	00000390 	muleq	r0, r0, r3
     ed0:	000003a0 	andeq	r0, r0, r0, lsr #7
     ed4:	88910004 	ldmhi	r1, {r2}
     ed8:	04809f7f 	streq	r9, [r0], #3967	; 0xf7f
     edc:	04f00000 	ldrbteq	r0, [r0], #0
     ee0:	00040000 	andeq	r0, r4, r0
     ee4:	9f7f8891 	svcls	0x007f8891
     ee8:	000004f0 	strdeq	r0, [r0], -r0	; <UNPREDICTABLE>
     eec:	000004f4 	strdeq	r0, [r0], -r4
     ef0:	f4590001 			; <UNDEFINED> instruction: 0xf4590001
     ef4:	c8000004 	stmdagt	r0, {r2}
     ef8:	04000005 	streq	r0, [r0], #-5
     efc:	7f889100 	svcvc	0x00889100
     f00:	0006289f 	muleq	r6, pc, r8	; <UNPREDICTABLE>
     f04:	00063800 	andeq	r3, r6, r0, lsl #16
     f08:	91000400 	tstls	r0, r0, lsl #8
     f0c:	389f7f88 	ldmcc	pc, {r3, r7, r8, r9, sl, fp, ip, sp, lr}	; <UNPREDICTABLE>
     f10:	48000006 	stmdami	r0, {r1, r2}
     f14:	01000006 	tsteq	r0, r6
     f18:	06945900 	ldreq	r5, [r4], r0, lsl #18
     f1c:	06a40000 	strteq	r0, [r4], r0
     f20:	00010000 	andeq	r0, r1, r0
     f24:	00070059 	andeq	r0, r7, r9, asr r0
     f28:	00072800 	andeq	r2, r7, r0, lsl #16
     f2c:	91000400 	tstls	r0, r0, lsl #8
     f30:	289f7f88 	ldmcs	pc, {r3, r7, r8, r9, sl, fp, ip, sp, lr}	; <UNPREDICTABLE>
     f34:	30000007 	andcc	r0, r0, r7
     f38:	06000007 	streq	r0, [r0], -r7
     f3c:	a2040300 	andge	r0, r4, #0, 6
     f40:	309f0000 	addscc	r0, pc, r0
     f44:	4c000007 	stcmi	0, cr0, [r0], {7}
     f48:	04000007 	streq	r0, [r0], #-7
     f4c:	7f889100 	svcvc	0x00889100
     f50:	0000009f 	muleq	r0, pc, r0	; <UNPREDICTABLE>
     f54:	00000000 	andeq	r0, r0, r0
     f58:	00008400 	andeq	r8, r0, r0, lsl #8
     f5c:	00008800 	andeq	r8, r0, r0, lsl #16
     f60:	91000300 	mrsls	r0, LR_irq
     f64:	00e87eec 	rsceq	r7, r8, ip, ror #29
     f68:	02e40000 	rsceq	r0, r4, #0
     f6c:	00030000 	andeq	r0, r3, r0
     f70:	1c7eec91 	ldclne	12, cr14, [lr], #-580	; 0xfffffdbc
     f74:	34000003 	strcc	r0, [r0], #-3
     f78:	03000003 	movweq	r0, #3
     f7c:	7eec9100 	urdvce	f1, f0
     f80:	00000334 	andeq	r0, r0, r4, lsr r3
     f84:	00000348 	andeq	r0, r0, r8, asr #6
     f88:	48510001 	ldmdami	r1, {r0}^
     f8c:	a4000003 	strge	r0, [r0], #-3
     f90:	03000006 	movweq	r0, #6
     f94:	7eec9100 	urdvce	f1, f0
     f98:	000006a4 	andeq	r0, r0, r4, lsr #13
     f9c:	000006c0 	andeq	r0, r0, r0, asr #13
     fa0:	c0510001 	subsgt	r0, r1, r1
     fa4:	e0000006 	and	r0, r0, r6
     fa8:	03000006 	movweq	r0, #6
     fac:	7eec9100 	urdvce	f1, f0
     fb0:	000006e8 	andeq	r0, r0, r8, ror #13
     fb4:	0000074c 	andeq	r0, r0, ip, asr #14
     fb8:	ec910003 	ldc	0, cr0, [r1], {3}
     fbc:	0000007e 	andeq	r0, r0, lr, ror r0
     fc0:	00000000 	andeq	r0, r0, r0
     fc4:	00008400 	andeq	r8, r0, r0, lsl #8
     fc8:	00008800 	andeq	r8, r0, r0, lsl #16
     fcc:	91000300 	mrsls	r0, LR_irq
     fd0:	01007ee8 	smlatteq	r0, r8, lr, r7
     fd4:	02800000 	addeq	r0, r0, #0
     fd8:	00030000 	andeq	r0, r3, r0
     fdc:	807ee891 			; <UNDEFINED> instruction: 0x807ee891
     fe0:	a4000002 	strge	r0, [r0], #-2
     fe4:	03000002 	movweq	r0, #2
     fe8:	9f200800 	svcls	0x00200800
     fec:	00000328 	andeq	r0, r0, r8, lsr #6
     ff0:	0000040c 	andeq	r0, r0, ip, lsl #8
     ff4:	e8910003 	ldm	r1, {r0, r1}
     ff8:	0004807e 	andeq	r8, r4, lr, ror r0
     ffc:	0005c800 	andeq	ip, r5, r0, lsl #16
    1000:	91000300 	mrsls	r0, LR_irq
    1004:	06287ee8 	strteq	r7, [r8], -r8, ror #29
    1008:	06480000 	strbeq	r0, [r8], -r0
    100c:	00030000 	andeq	r0, r3, r0
    1010:	947ee891 	ldrbtls	lr, [lr], #-2193	; 0xfffff76f
    1014:	a4000006 	strge	r0, [r0], #-6
    1018:	03000006 	movweq	r0, #6
    101c:	9f200800 	svcls	0x00200800
    1020:	000006a4 	andeq	r0, r0, r4, lsr #13
    1024:	000006e0 	andeq	r0, r0, r0, ror #13
    1028:	e8910003 	ldm	r1, {r0, r1}
    102c:	0007007e 	andeq	r0, r7, lr, ror r0
    1030:	00074c00 	andeq	r4, r7, r0, lsl #24
    1034:	91000300 	mrsls	r0, LR_irq
    1038:	00007ee8 	andeq	r7, r0, r8, ror #29
    103c:	00000000 	andeq	r0, r0, r0
    1040:	00840000 	addeq	r0, r4, r0
    1044:	00880000 	addeq	r0, r8, r0
    1048:	00010000 	andeq	r0, r1, r0
    104c:	0000b055 	andeq	fp, r0, r5, asr r0
    1050:	0000cc00 	andeq	ip, r0, r0, lsl #24
    1054:	30000200 	andcc	r0, r0, r0, lsl #4
    1058:	0000cc9f 	muleq	r0, pc, ip	; <UNPREDICTABLE>
    105c:	0000d400 	andeq	sp, r0, r0, lsl #8
    1060:	55000100 	strpl	r0, [r0, #-256]	; 0xffffff00
    1064:	000000d4 	ldrdeq	r0, [r0], -r4
    1068:	000000d8 	ldrdeq	r0, [r0], -r8
    106c:	00750005 	rsbseq	r0, r5, r5
    1070:	d89f2431 	ldmle	pc, {r0, r4, r5, sl, sp}	; <UNPREDICTABLE>
    1074:	40000000 	andmi	r0, r0, r0
    1078:	01000002 	tsteq	r0, r2
    107c:	02fc5500 	rscseq	r5, ip, #0, 10
    1080:	03100000 	tsteq	r0, #0
    1084:	00020000 	andeq	r0, r2, r0
    1088:	03109f30 	tsteq	r0, #48, 30	; 0xc0
    108c:	03f40000 	mvnseq	r0, #0
    1090:	00010000 	andeq	r0, r1, r0
    1094:	00048055 	andeq	r8, r4, r5, asr r0
    1098:	00057800 	andeq	r7, r5, r0, lsl #16
    109c:	55000100 	strpl	r0, [r0, #-256]	; 0xffffff00
    10a0:	00000578 	andeq	r0, r0, r8, ror r5
    10a4:	000005c8 	andeq	r0, r0, r8, asr #11
    10a8:	84910003 	ldrhi	r0, [r1], #3
    10ac:	0006a47f 	andeq	sl, r6, pc, ror r4
    10b0:	0006e000 	andeq	lr, r6, r0
    10b4:	55000100 	strpl	r0, [r0, #-256]	; 0xffffff00
    10b8:	00000700 	andeq	r0, r0, r0, lsl #14
    10bc:	0000074c 	andeq	r0, r0, ip, asr #14
    10c0:	00550001 	subseq	r0, r5, r1
    10c4:	00000000 	andeq	r0, r0, r0
    10c8:	84000000 	strhi	r0, [r0], #-0
    10cc:	88000000 	stmdahi	r0, {}	; <UNPREDICTABLE>
    10d0:	01000000 	mrseq	r0, (UNDEF: 0)
    10d4:	01005800 	tsteq	r0, r0, lsl #16
    10d8:	01080000 	mrseq	r0, (UNDEF: 8)
    10dc:	00030000 	andeq	r0, r3, r0
    10e0:	089fff09 	ldmeq	pc, {r0, r3, r8, r9, sl, fp, ip, sp, lr, pc}	; <UNPREDICTABLE>
    10e4:	7c000001 	stcvc	0, cr0, [r0], {1}
    10e8:	01000002 	tsteq	r0, r2
    10ec:	03285800 			; <UNDEFINED> instruction: 0x03285800
    10f0:	03340000 	teqeq	r4, #0
    10f4:	00010000 	andeq	r0, r1, r0
    10f8:	00033458 	andeq	r3, r3, r8, asr r4
    10fc:	00035400 	andeq	r5, r3, r0, lsl #8
    1100:	09000300 	stmdbeq	r0, {r8, r9}
    1104:	03549fff 	cmpeq	r4, #1020	; 0x3fc
    1108:	03580000 	cmpeq	r8, #0
    110c:	00020000 	andeq	r0, r2, r0
    1110:	03589f30 	cmpeq	r8, #48, 30	; 0xc0
    1114:	03600000 	cmneq	r0, #0
    1118:	00010000 	andeq	r0, r1, r0
    111c:	00036058 	andeq	r6, r3, r8, asr r0
    1120:	00036400 	andeq	r6, r3, r0, lsl #8
    1124:	78000500 	stmdavc	r0, {r8, sl}
    1128:	9f243100 	svcls	0x00243100
    112c:	00000364 	andeq	r0, r0, r4, ror #6
    1130:	000003f8 	strdeq	r0, [r0], -r8
    1134:	80580001 	subshi	r0, r8, r1
    1138:	c8000004 	stmdagt	r0, {r2}
    113c:	01000005 	tsteq	r0, r5
    1140:	06285800 	strteq	r5, [r8], -r0, lsl #16
    1144:	06480000 	strbeq	r0, [r8], -r0
    1148:	00010000 	andeq	r0, r1, r0
    114c:	0006a458 	andeq	sl, r6, r8, asr r4
    1150:	0006ac00 	andeq	sl, r6, r0, lsl #24
    1154:	09000300 	stmdbeq	r0, {r8, r9}
    1158:	06ac9fff 			; <UNDEFINED> instruction: 0x06ac9fff
    115c:	06e00000 	strbteq	r0, [r0], r0
    1160:	00010000 	andeq	r0, r1, r0
    1164:	00070058 	andeq	r0, r7, r8, asr r0
    1168:	00074c00 	andeq	r4, r7, r0, lsl #24
    116c:	58000100 	stmdapl	r0, {r8}
	...
    1178:	00000108 	andeq	r0, r0, r8, lsl #2
    117c:	00000118 	andeq	r0, r0, r8, lsl r1
    1180:	9f320002 	svcls	0x00320002
    1184:	00000328 	andeq	r0, r0, r8, lsr #6
    1188:	00000334 	andeq	r0, r0, r4, lsr r3
    118c:	9f330002 	svcls	0x00330002
    1190:	00000378 	andeq	r0, r0, r8, ror r3
    1194:	00000390 	muleq	r0, r0, r3
    1198:	9f300002 	svcls	0x00300002
	...
    11a4:	00000084 	andeq	r0, r0, r4, lsl #1
    11a8:	00000088 	andeq	r0, r0, r8, lsl #1
    11ac:	9f300002 	svcls	0x00300002
    11b0:	00000118 	andeq	r0, r0, r8, lsl r1
    11b4:	00000240 	andeq	r0, r0, r0, asr #4
    11b8:	9f300002 	svcls	0x00300002
    11bc:	00000390 	muleq	r0, r0, r3
    11c0:	000003f4 	strdeq	r0, [r0], -r4
    11c4:	9f300002 	svcls	0x00300002
    11c8:	00000480 	andeq	r0, r0, r0, lsl #9
    11cc:	00000518 	andeq	r0, r0, r8, lsl r5
    11d0:	9f300002 	svcls	0x00300002
    11d4:	00000518 	andeq	r0, r0, r8, lsl r5
    11d8:	00000534 	andeq	r0, r0, r4, lsr r5
    11dc:	f8910003 			; <UNDEFINED> instruction: 0xf8910003
    11e0:	0006c07e 	andeq	ip, r6, lr, ror r0
    11e4:	0006e000 	andeq	lr, r6, r0
    11e8:	30000200 	andcc	r0, r0, r0, lsl #4
    11ec:	0007009f 	muleq	r7, pc, r0	; <UNPREDICTABLE>
    11f0:	00071800 	andeq	r1, r7, r0, lsl #16
    11f4:	08000300 	stmdaeq	r0, {r8, r9}
    11f8:	07189f2d 	ldreq	r9, [r8, -sp, lsr #30]
    11fc:	074c0000 	strbeq	r0, [ip, -r0]
    1200:	00020000 	andeq	r0, r2, r0
    1204:	00009f30 	andeq	r9, r0, r0, lsr pc
    1208:	00000000 	andeq	r0, r0, r0
    120c:	04fc0000 	ldrbteq	r0, [ip], #0
    1210:	05180000 	ldreq	r0, [r8, #-0]
    1214:	00010000 	andeq	r0, r1, r0
    1218:	00070054 	andeq	r0, r7, r4, asr r0
    121c:	00071000 	andeq	r1, r7, r0
    1220:	54000100 	strpl	r0, [r0], #-256	; 0xffffff00
    1224:	00000710 	andeq	r0, r0, r0, lsl r7
    1228:	00000718 	andeq	r0, r0, r8, lsl r7
    122c:	00740004 	rsbseq	r0, r4, r4
    1230:	00009f1f 	andeq	r9, r0, pc, lsl pc
    1234:	00000000 	andeq	r0, r0, r0
    1238:	01c80000 	biceq	r0, r8, r0
    123c:	02180000 	andseq	r0, r8, #0
    1240:	00010000 	andeq	r0, r1, r0
    1244:	0004fc54 	andeq	pc, r4, r4, asr ip	; <UNPREDICTABLE>
    1248:	00055c00 	andeq	r5, r5, r0, lsl #24
    124c:	54000100 	strpl	r0, [r0], #-256	; 0xffffff00
    1250:	00000700 	andeq	r0, r0, r0, lsl #14
    1254:	00000728 	andeq	r0, r0, r8, lsr #14
    1258:	30540001 	subscc	r0, r4, r1
    125c:	40000007 	andmi	r0, r0, r7
    1260:	01000007 	tsteq	r0, r7
    1264:	00005400 	andeq	r5, r0, r0, lsl #8
    1268:	00000000 	andeq	r0, r0, r0
    126c:	00840000 	addeq	r0, r4, r0
    1270:	00880000 	addeq	r0, r8, r0
    1274:	00020000 	andeq	r0, r2, r0
    1278:	01189f30 	tsteq	r8, r0, lsr pc
    127c:	01bc0000 			; <UNDEFINED> instruction: 0x01bc0000
    1280:	00020000 	andeq	r0, r2, r0
    1284:	01bc9f30 			; <UNDEFINED> instruction: 0x01bc9f30
    1288:	01ec0000 	mvneq	r0, r0
    128c:	00010000 	andeq	r0, r1, r0
    1290:	00039056 	andeq	r9, r3, r6, asr r0
    1294:	0003f400 	andeq	pc, r3, r0, lsl #8
    1298:	30000200 	andcc	r0, r0, r0, lsl #4
    129c:	0004809f 	muleq	r4, pc, r0	; <UNPREDICTABLE>
    12a0:	0004a800 	andeq	sl, r4, r0, lsl #16
    12a4:	30000200 	andcc	r0, r0, r0, lsl #4
    12a8:	0004a89f 	muleq	r4, pc, r8	; <UNPREDICTABLE>
    12ac:	0004bc00 	andeq	fp, r4, r0, lsl #24
    12b0:	31000200 	mrscc	r0, R8_usr
    12b4:	0004bc9f 	muleq	r4, pc, ip	; <UNPREDICTABLE>
    12b8:	00053400 	andeq	r3, r5, r0, lsl #8
    12bc:	30000200 	andcc	r0, r0, r0, lsl #4
    12c0:	0006c09f 	muleq	r6, pc, r0	; <UNPREDICTABLE>
    12c4:	0006e000 	andeq	lr, r6, r0
    12c8:	30000200 	andcc	r0, r0, r0, lsl #4
    12cc:	0007009f 	muleq	r7, pc, r0	; <UNPREDICTABLE>
    12d0:	00071800 	andeq	r1, r7, r0, lsl #16
    12d4:	30000200 	andcc	r0, r0, r0, lsl #4
    12d8:	0007289f 	muleq	r7, pc, r8	; <UNPREDICTABLE>
    12dc:	00073000 	andeq	r3, r7, r0
    12e0:	30000200 	andcc	r0, r0, r0, lsl #4
    12e4:	0000009f 	muleq	r0, pc, r0	; <UNPREDICTABLE>
    12e8:	00000000 	andeq	r0, r0, r0
    12ec:	00008400 	andeq	r8, r0, r0, lsl #8
    12f0:	00008800 	andeq	r8, r0, r0, lsl #16
    12f4:	30000200 	andcc	r0, r0, r0, lsl #4
    12f8:	0001189f 	muleq	r1, pc, r8	; <UNPREDICTABLE>
    12fc:	0001bc00 	andeq	fp, r1, r0, lsl #24
    1300:	30000200 	andcc	r0, r0, r0, lsl #4
    1304:	0001bc9f 	muleq	r1, pc, ip	; <UNPREDICTABLE>
    1308:	00024000 	andeq	r4, r2, r0
    130c:	91000300 	mrsls	r0, LR_irq
    1310:	03907efc 	orrseq	r7, r0, #252, 28	; 0xfc0
    1314:	03f40000 	mvnseq	r0, #0
    1318:	00020000 	andeq	r0, r2, r0
    131c:	04809f30 	streq	r9, [r0], #3888	; 0xf30
    1320:	04940000 	ldreq	r0, [r4], #0
    1324:	00020000 	andeq	r0, r2, r0
    1328:	04949f30 	ldreq	r9, [r4], #3888	; 0xf30
    132c:	04bc0000 	ldrteq	r0, [ip], #0
    1330:	00020000 	andeq	r0, r2, r0
    1334:	04bc9f40 	ldrteq	r9, [ip], #3904	; 0xf40
    1338:	04d00000 	ldrbeq	r0, [r0], #0
    133c:	00020000 	andeq	r0, r2, r0
    1340:	04d09f32 	ldrbeq	r9, [r0], #3890	; 0xf32
    1344:	04f40000 	ldrbteq	r0, [r4], #0
    1348:	00020000 	andeq	r0, r2, r0
    134c:	04f49f30 	ldrbteq	r9, [r4], #3888	; 0xf30
    1350:	05340000 	ldreq	r0, [r4, #-0]!
    1354:	00020000 	andeq	r0, r2, r0
    1358:	06c09f3a 			; <UNDEFINED> instruction: 0x06c09f3a
    135c:	06e00000 	strbteq	r0, [r0], r0
    1360:	00020000 	andeq	r0, r2, r0
    1364:	07009f30 	smladxeq	r0, r0, pc, r9	; <UNPREDICTABLE>
    1368:	07180000 	ldreq	r0, [r8, -r0]
    136c:	00020000 	andeq	r0, r2, r0
    1370:	07189f3a 			; <UNDEFINED> instruction: 0x07189f3a
    1374:	07280000 	streq	r0, [r8, -r0]!
    1378:	00030000 	andeq	r0, r3, r0
    137c:	287efc91 	ldmdacs	lr!, {r0, r4, r7, sl, fp, ip, sp, lr, pc}^
    1380:	30000007 	andcc	r0, r0, r7
    1384:	02000007 	andeq	r0, r0, #7
    1388:	309f3000 	addscc	r3, pc, r0
    138c:	4c000007 	stcmi	0, cr0, [r0], {7}
    1390:	03000007 	movweq	r0, #7
    1394:	7efc9100 	nrmvce	f1, f0
	...
    13a0:	00000270 	andeq	r0, r0, r0, ror r2
    13a4:	000002a4 	andeq	r0, r0, r4, lsr #5
    13a8:	c4500001 	ldrbgt	r0, [r0], #-1
    13ac:	f4000003 	vst4.8	{d0-d3}, [r0], r3
    13b0:	01000003 	tsteq	r0, r3
    13b4:	03f45000 	mvnseq	r5, #0
    13b8:	04400000 	strbeq	r0, [r0], #-0
    13bc:	00010000 	andeq	r0, r1, r0
    13c0:	00044056 	andeq	r4, r4, r6, asr r0
    13c4:	00048000 	andeq	r8, r4, r0
    13c8:	91000300 	mrsls	r0, LR_irq
    13cc:	06287ef4 			; <UNDEFINED> instruction: 0x06287ef4
    13d0:	06480000 	strbeq	r0, [r8], -r0
    13d4:	00010000 	andeq	r0, r1, r0
    13d8:	00069450 	andeq	r9, r6, r0, asr r4
    13dc:	0006a400 	andeq	sl, r6, r0, lsl #8
    13e0:	50000100 	andpl	r0, r0, r0, lsl #2
    13e4:	000006c0 	andeq	r0, r0, r0, asr #13
    13e8:	000006e0 	andeq	r0, r0, r0, ror #13
    13ec:	e8500001 	ldmda	r0, {r0}^
    13f0:	00000006 	andeq	r0, r0, r6
    13f4:	03000007 	movweq	r0, #7
    13f8:	7ef49100 	nrmvcs	f1, f0
	...
    1404:	00000260 	andeq	r0, r0, r0, ror #4
    1408:	00000280 	andeq	r0, r0, r0, lsl #5
    140c:	9f300002 	svcls	0x00300002
    1410:	00000280 	andeq	r0, r0, r0, lsl #5
    1414:	000002a4 	andeq	r0, r0, r4, lsr #5
    1418:	b4580001 	ldrblt	r0, [r8], #-1
    141c:	0c000003 	stceq	0, cr0, [r0], {3}
    1420:	02000004 	andeq	r0, r0, #4
    1424:	209f3000 	addscs	r3, pc, r0
    1428:	4c000004 	stcmi	0, cr0, [r0], {4}
    142c:	01000004 	tsteq	r0, r4
    1430:	044c5800 	strbeq	r5, [ip], #-2048	; 0xfffff800
    1434:	04800000 	streq	r0, [r0], #0
    1438:	00010000 	andeq	r0, r1, r0
    143c:	00062859 	andeq	r2, r6, r9, asr r8
    1440:	00064800 	andeq	r4, r6, r0, lsl #16
    1444:	30000200 	andcc	r0, r0, r0, lsl #4
    1448:	0006949f 	muleq	r6, pc, r4	; <UNPREDICTABLE>
    144c:	0006a400 	andeq	sl, r6, r0, lsl #8
    1450:	58000100 	stmdapl	r0, {r8}
    1454:	000006c0 	andeq	r0, r0, r0, asr #13
    1458:	000006e0 	andeq	r0, r0, r0, ror #13
    145c:	9f300002 	svcls	0x00300002
    1460:	000006e8 	andeq	r0, r0, r8, ror #13
    1464:	000006f4 	strdeq	r0, [r0], -r4
    1468:	f4590001 			; <UNDEFINED> instruction: 0xf4590001
    146c:	00000006 	andeq	r0, r0, r6
    1470:	01000007 	tsteq	r0, r7
    1474:	00005800 	andeq	r5, r0, r0, lsl #16
    1478:	00000000 	andeq	r0, r0, r0
    147c:	028c0000 	addeq	r0, ip, #0
    1480:	02a40000 	adceq	r0, r4, #0
    1484:	00010000 	andeq	r0, r1, r0
    1488:	00040054 	andeq	r0, r4, r4, asr r0
    148c:	00043800 	andeq	r3, r4, r0, lsl #16
    1490:	54000100 	strpl	r0, [r0], #-256	; 0xffffff00
    1494:	00000694 	muleq	r0, r4, r6
    1498:	000006a4 	andeq	r0, r0, r4, lsr #13
    149c:	00540001 	subseq	r0, r4, r1
    14a0:	00000000 	andeq	r0, r0, r0
    14a4:	8c000000 	stchi	0, cr0, [r0], {-0}
    14a8:	a4000002 	strge	r0, [r0], #-2
    14ac:	02000002 	andeq	r0, r0, #2
    14b0:	009f3000 	addseq	r3, pc, r0
    14b4:	10000004 	andne	r0, r0, r4
    14b8:	02000004 	andeq	r0, r0, #4
    14bc:	109f3000 	addsne	r3, pc, r0
    14c0:	1c000004 	stcne	0, cr0, [r0], {4}
    14c4:	01000004 	tsteq	r0, r4
    14c8:	04205500 	strteq	r5, [r0], #-1280	; 0xfffffb00
    14cc:	04500000 	ldrbeq	r0, [r0], #-0
    14d0:	00010000 	andeq	r0, r1, r0
    14d4:	00045055 	andeq	r5, r4, r5, asr r0
    14d8:	00048000 	andeq	r8, r4, r0
    14dc:	58000100 	stmdapl	r0, {r8}
    14e0:	00000694 	muleq	r0, r4, r6
    14e4:	000006a4 	andeq	r0, r0, r4, lsr #13
    14e8:	9f300002 	svcls	0x00300002
    14ec:	000006e8 	andeq	r0, r0, r8, ror #13
    14f0:	000006f0 	strdeq	r0, [r0], -r0	; <UNPREDICTABLE>
    14f4:	f0580001 			; <UNDEFINED> instruction: 0xf0580001
    14f8:	00000006 	andeq	r0, r0, r6
    14fc:	01000007 	tsteq	r0, r7
    1500:	00005500 	andeq	r5, r0, r0, lsl #10
    1504:	00000000 	andeq	r0, r0, r0
    1508:	01e00000 	mvneq	r0, r0
    150c:	01ec0000 	mvneq	r0, r0
    1510:	00010000 	andeq	r0, r1, r0
    1514:	00052056 	andeq	r2, r5, r6, asr r0
    1518:	00053400 	andeq	r3, r5, r0, lsl #8
    151c:	30000200 	andcc	r0, r0, r0, lsl #4
    1520:	0000009f 	muleq	r0, pc, r0	; <UNPREDICTABLE>
    1524:	00000000 	andeq	r0, r0, r0
    1528:	0001e000 	andeq	lr, r1, r0
    152c:	00024000 	andeq	r4, r2, r0
    1530:	91000300 	mrsls	r0, LR_irq
    1534:	05207efc 	streq	r7, [r0, #-3836]!	; 0xfffff104
    1538:	05340000 	ldreq	r0, [r4, #-0]!
    153c:	00020000 	andeq	r0, r2, r0
    1540:	07189f3a 			; <UNDEFINED> instruction: 0x07189f3a
    1544:	07280000 	streq	r0, [r8, -r0]!
    1548:	00030000 	andeq	r0, r3, r0
    154c:	307efc91 			; <UNDEFINED> instruction: 0x307efc91
    1550:	4c000007 	stcmi	0, cr0, [r0], {7}
    1554:	03000007 	movweq	r0, #7
    1558:	7efc9100 	nrmvce	f1, f0
	...
    1564:	000001e0 	andeq	r0, r0, r0, ror #3
    1568:	00000250 	andeq	r0, r0, r0, asr r2
    156c:	88910004 	ldmhi	r1, {r2}
    1570:	02509f7f 	subseq	r9, r0, #508	; 0x1fc
    1574:	02540000 	subseq	r0, r4, #0
    1578:	00030000 	andeq	r0, r3, r0
    157c:	549f0172 	ldrpl	r0, [pc], #370	; 1584 <SCTLR_ENABLE_INSTRUCTION_CACHE+0x584>
    1580:	5c000002 	stcpl	0, cr0, [r0], {2}
    1584:	03000002 	movweq	r0, #2
    1588:	9f027200 	svcls	0x00027200
    158c:	0000025c 	andeq	r0, r0, ip, asr r2
    1590:	00000267 	andeq	r0, r0, r7, ror #4
    1594:	01720003 	cmneq	r2, r3
    1598:	0005209f 	muleq	r5, pc, r0	; <UNPREDICTABLE>
    159c:	0005c800 	andeq	ip, r5, r0, lsl #16
    15a0:	91000400 	tstls	r0, r0, lsl #8
    15a4:	189f7f88 	ldmne	pc, {r3, r7, r8, r9, sl, fp, ip, sp, lr}	; <UNPREDICTABLE>
    15a8:	28000007 	stmdacs	r0, {r0, r1, r2}
    15ac:	04000007 	streq	r0, [r0], #-7
    15b0:	7f889100 	svcvc	0x00889100
    15b4:	0007309f 	muleq	r7, pc, r0	; <UNPREDICTABLE>
    15b8:	00074c00 	andeq	r4, r7, r0, lsl #24
    15bc:	91000400 	tstls	r0, r0, lsl #8
    15c0:	009f7f88 	addseq	r7, pc, r8, lsl #31
    15c4:	00000000 	andeq	r0, r0, r0
    15c8:	e0000000 	and	r0, r0, r0
    15cc:	00000001 	andeq	r0, r0, r1
    15d0:	01000002 	tsteq	r0, r2
    15d4:	02005400 	andeq	r5, r0, #0, 8
    15d8:	020c0000 	andeq	r0, ip, #0
    15dc:	00060000 	andeq	r0, r6, r0
    15e0:	00710074 	rsbseq	r0, r1, r4, ror r0
    15e4:	020c9f25 	andeq	r9, ip, #37, 30	; 0x94
    15e8:	02280000 	eoreq	r0, r8, #0
    15ec:	00010000 	andeq	r0, r1, r0
    15f0:	00052052 	andeq	r2, r5, r2, asr r0
    15f4:	00055400 	andeq	r5, r5, r0, lsl #8
    15f8:	54000100 	strpl	r0, [r0], #-256	; 0xffffff00
    15fc:	00000554 	andeq	r0, r0, r4, asr r5
    1600:	00000584 	andeq	r0, r0, r4, lsl #11
    1604:	84500001 	ldrbhi	r0, [r0], #-1
    1608:	a8000005 	stmdage	r0, {r0, r2}
    160c:	01000005 	tsteq	r0, r5
    1610:	05ac5b00 	streq	r5, [ip, #2816]!	; 0xb00
    1614:	05c80000 	strbeq	r0, [r8]
    1618:	00010000 	andeq	r0, r1, r0
    161c:	00071850 	andeq	r1, r7, r0, asr r8
    1620:	00072800 	andeq	r2, r7, r0, lsl #16
    1624:	54000100 	strpl	r0, [r0], #-256	; 0xffffff00
    1628:	00000730 	andeq	r0, r0, r0, lsr r7
    162c:	0000074c 	andeq	r0, r0, ip, asr #14
    1630:	00520001 	subseq	r0, r2, r1
    1634:	00000000 	andeq	r0, r0, r0
    1638:	e0000000 	and	r0, r0, r0
    163c:	0c000001 	stceq	0, cr0, [r0], {1}
    1640:	01000002 	tsteq	r0, r2
    1644:	020c5200 	andeq	r5, ip, #0, 4
    1648:	02400000 	subeq	r0, r0, #0
    164c:	00010000 	andeq	r0, r1, r0
    1650:	00052056 	andeq	r2, r5, r6, asr r0
    1654:	00053400 	andeq	r3, r5, r0, lsl #8
    1658:	f2000600 	vmax.s8	d0, d0, d0
    165c:	00002a19 	andeq	r2, r0, r9, lsl sl
    1660:	00053400 	andeq	r3, r5, r0, lsl #8
    1664:	00058000 	andeq	r8, r5, r0
    1668:	56000100 	strpl	r0, [r0], -r0, lsl #2
    166c:	00000580 	andeq	r0, r0, r0, lsl #11
    1670:	000005b4 			; <UNDEFINED> instruction: 0x000005b4
    1674:	18540001 	ldmdane	r4, {r0}^
    1678:	28000007 	stmdacs	r0, {r0, r1, r2}
    167c:	01000007 	tsteq	r0, r7
    1680:	07305200 	ldreq	r5, [r0, -r0, lsl #4]!
    1684:	074c0000 	strbeq	r0, [ip, -r0]
    1688:	00010000 	andeq	r0, r1, r0
    168c:	00000056 	andeq	r0, r0, r6, asr r0
    1690:	00000000 	andeq	r0, r0, r0
    1694:	0001f000 	andeq	pc, r1, r0
    1698:	00021c00 	andeq	r1, r2, r0, lsl #24
    169c:	31000200 	mrscc	r0, R8_usr
    16a0:	00021c9f 	muleq	r2, pc, ip	; <UNPREDICTABLE>
    16a4:	00022c00 	andeq	r2, r2, r0, lsl #24
    16a8:	74000300 	strvc	r0, [r0], #-768	; 0xfffffd00
    16ac:	022c9f01 	eoreq	r9, ip, #1, 30
    16b0:	02400000 	subeq	r0, r0, #0
    16b4:	00010000 	andeq	r0, r1, r0
    16b8:	00052854 	andeq	r2, r5, r4, asr r8
    16bc:	00058400 	andeq	r8, r5, r0, lsl #8
    16c0:	31000200 	mrscc	r0, R8_usr
    16c4:	0005849f 	muleq	r5, pc, r4	; <UNPREDICTABLE>
    16c8:	0005ac00 	andeq	sl, r5, r0, lsl #24
    16cc:	75000300 	strvc	r0, [r0, #-768]	; 0xfffffd00
    16d0:	05ac9f01 	streq	r9, [ip, #3841]!	; 0xf01
    16d4:	05c00000 	strbeq	r0, [r0]
    16d8:	00010000 	andeq	r0, r1, r0
    16dc:	0005c055 	andeq	ip, r5, r5, asr r0
    16e0:	0005c800 	andeq	ip, r5, r0, lsl #16
    16e4:	54000100 	strpl	r0, [r0], #-256	; 0xffffff00
    16e8:	00000718 	andeq	r0, r0, r8, lsl r7
    16ec:	00000728 	andeq	r0, r0, r8, lsr #14
    16f0:	9f310002 	svcls	0x00310002
    16f4:	00000730 	andeq	r0, r0, r0, lsr r7
    16f8:	0000074c 	andeq	r0, r0, ip, asr #14
    16fc:	9f310002 	svcls	0x00310002
	...
    1708:	00000200 	andeq	r0, r0, r0, lsl #4
    170c:	00000240 	andeq	r0, r0, r0, asr #4
    1710:	305c0001 	subscc	r0, ip, r1
    1714:	4c000007 	stcmi	0, cr0, [r0], {7}
    1718:	01000007 	tsteq	r0, r7
    171c:	00005c00 	andeq	r5, r0, r0, lsl #24
	...
    1728:	00140000 	andseq	r0, r4, r0
    172c:	00010000 	andeq	r0, r1, r0
    1730:	00001450 	andeq	r1, r0, r0, asr r4
    1734:	00002800 	andeq	r2, r0, r0, lsl #16
    1738:	f3000400 	vshl.u8	d0, d0, d0
    173c:	289f5001 	ldmcs	pc, {r0, ip, lr}	; <UNPREDICTABLE>
    1740:	2c000000 	stccs	0, cr0, [r0], {-0}
    1744:	01000000 	mrseq	r0, (UNDEF: 0)
    1748:	002c5000 	eoreq	r5, ip, r0
    174c:	00300000 	eorseq	r0, r0, r0
    1750:	00040000 	andeq	r0, r4, r0
    1754:	9f5001f3 	svcls	0x005001f3
	...
    1764:	00000014 	andeq	r0, r0, r4, lsl r0
    1768:	9f300002 	svcls	0x00300002
    176c:	00000014 	andeq	r0, r0, r4, lsl r0
    1770:	00000028 	andeq	r0, r0, r8, lsr #32
    1774:	28500001 	ldmdacs	r0, {r0}^
    1778:	30000000 	andcc	r0, r0, r0
    177c:	02000000 	andeq	r0, r0, #0
    1780:	009f3000 	addseq	r3, pc, r0
    1784:	00000000 	andeq	r0, r0, r0
    1788:	Address 0x0000000000001788 is out of bounds.


Disassembly of section .debug_str:

00000000 <.debug_str>:
       0:	656c635f 	strbvs	r6, [ip, #-863]!	; 0xfffffca1
       4:	625f7261 	subsvs	r7, pc, #268435462	; 0x10000006
       8:	75007373 	strvc	r7, [r0, #-883]	; 0xfffffc8d
       c:	6769736e 	strbvs	r7, [r9, -lr, ror #6]!
      10:	2064656e 	rsbcs	r6, r4, lr, ror #10
      14:	72616863 	rsbvc	r6, r1, #6488064	; 0x630000
      18:	6f687300 	svcvs	0x00687300
      1c:	75207472 	strvc	r7, [r0, #-1138]!	; 0xfffffb8e
      20:	6769736e 	strbvs	r7, [r9, -lr, ror #6]!
      24:	2064656e 	rsbcs	r6, r4, lr, ror #10
      28:	00746e69 	rsbseq	r6, r4, r9, ror #28
      2c:	68637261 	stmdavs	r3!, {r0, r5, r6, r9, ip, sp, lr}^
      30:	6d72612f 	ldfvse	f6, [r2, #-188]!	; 0xffffff44
      34:	7373622f 	cmnvc	r3, #-268435454	; 0xf0000002
      38:	656c632d 	strbvs	r6, [ip, #-813]!	; 0xfffffcd3
      3c:	632e7261 			; <UNDEFINED> instruction: 0x632e7261
      40:	625f5f00 	subsvs	r5, pc, #0, 30
      44:	735f7373 	cmpvc	pc, #-872415231	; 0xcc000001
      48:	74726174 	ldrbtvc	r6, [r2], #-372	; 0xfffffe8c
      4c:	6e6f6c00 	cdpvs	12, 6, cr6, cr15, cr0, {0}
      50:	6f6c2067 	svcvs	0x006c2067
      54:	7520676e 	strvc	r6, [r0, #-1902]!	; 0xfffff892
      58:	6769736e 	strbvs	r7, [r9, -lr, ror #6]!
      5c:	2064656e 	rsbcs	r6, r4, lr, ror #10
      60:	00746e69 	rsbseq	r6, r4, r9, ror #28
      64:	20554e47 	subscs	r4, r5, r7, asr #28
      68:	20313143 	eorscs	r3, r1, r3, asr #2
      6c:	2e342e35 	mrccs	14, 1, r2, cr4, cr5, {1}
      70:	30322031 	eorscc	r2, r2, r1, lsr r0
      74:	39303631 	ldmdbcc	r0!, {r0, r4, r5, r9, sl, ip, sp}
      78:	28203931 	stmdacs	r0!, {r0, r4, r5, r8, fp, ip, sp}
      7c:	656c6572 	strbvs	r6, [ip, #-1394]!	; 0xfffffa8e
      80:	29657361 	stmdbcs	r5!, {r0, r5, r6, r8, r9, ip, sp, lr}^
      84:	52415b20 	subpl	r5, r1, #32, 22	; 0x8000
      88:	6d652f4d 	stclvs	15, cr2, [r5, #-308]!	; 0xfffffecc
      8c:	64646562 	strbtvs	r6, [r4], #-1378	; 0xfffffa9e
      90:	352d6465 	strcc	r6, [sp, #-1125]!	; 0xfffffb9b
      94:	6172622d 	cmnvs	r2, sp, lsr #4
      98:	2068636e 	rsbcs	r6, r8, lr, ror #6
      9c:	69766572 	ldmdbvs	r6!, {r1, r4, r5, r6, r8, sl, sp, lr}^
      a0:	6e6f6973 	mcrvs	9, 3, r6, cr15, cr3, {3}
      a4:	30343220 	eorscc	r3, r4, r0, lsr #4
      a8:	5d363934 	ldcpl	9, cr3, [r6, #-208]!	; 0xffffff30
      ac:	616d2d20 	cmnvs	sp, r0, lsr #26
      b0:	3d686372 	stclcc	3, cr6, [r8, #-456]!	; 0xfffffe38
      b4:	766d7261 	strbtvc	r7, [sp], -r1, ror #4
      b8:	2b612d38 	blcs	184b5a0 <__kernel_end+0x172a5a0>
      bc:	20637263 	rsbcs	r7, r3, r3, ror #4
      c0:	70666d2d 	rsbvc	r6, r6, sp, lsr #26
      c4:	72633d75 	rsbvc	r3, r3, #7488	; 0x1d40
      c8:	6f747079 	svcvs	0x00747079
      cc:	6f656e2d 	svcvs	0x00656e2d
      d0:	70662d6e 	rsbvc	r2, r6, lr, ror #26
      d4:	6d72612d 	ldfvse	f6, [r2, #-180]!	; 0xffffff4c
      d8:	2d203876 	stccs	8, cr3, [r0, #-472]!	; 0xfffffe28
      dc:	4f2d2067 	svcmi	0x002d2067
      e0:	732d2032 			; <UNDEFINED> instruction: 0x732d2032
      e4:	673d6474 			; <UNDEFINED> instruction: 0x673d6474
      e8:	3131756e 	teqcc	r1, lr, ror #10
      ec:	70662d20 	rsbvc	r2, r6, r0, lsr #26
      f0:	2d206369 	stccs	3, cr6, [r0, #-420]!	; 0xfffffe5c
      f4:	65726666 	ldrbvs	r6, [r2, #-1638]!	; 0xfffff99a
      f8:	61747365 	cmnvs	r4, r5, ror #6
      fc:	6e69646e 	cdpvs	4, 6, cr6, cr9, cr14, {3}
     100:	5f5f0067 	svcpl	0x005f0067
     104:	5f737362 	svcpl	0x00737362
     108:	00646e65 	rsbeq	r6, r4, r5, ror #28
     10c:	676e6f6c 	strbvs	r6, [lr, -ip, ror #30]!
     110:	6e6f6c20 	cdpvs	12, 6, cr6, cr15, cr0, {1}
     114:	6e692067 	cdpvs	0, 6, cr2, cr9, cr7, {3}
     118:	552f0074 	strpl	r0, [pc, #-116]!	; ac <ARM_I_BIT+0x2c>
     11c:	73726573 	cmnvc	r2, #482344960	; 0x1cc00000
     120:	6172702f 	cmnvs	r2, pc, lsr #32
     124:	6873616b 	ldmdavs	r3!, {r0, r1, r3, r5, r6, r8, sp, lr}^
     128:	6b726f62 	blvs	1c9beb8 <__kernel_end+0x1b7aeb8>
     12c:	442f7261 	strtmi	r7, [pc], #-609	; 134 <ARM_I_BIT+0xb4>
     130:	746b7365 	strbtvc	r7, [fp], #-869	; 0xfffffc9b
     134:	522f706f 	eorpl	r7, pc, #111	; 0x6f
     138:	746f6d65 	strbtvc	r6, [pc], #-3429	; 140 <ARM_I_BIT+0xc0>
     13c:	65525f65 	ldrbvs	r5, [r2, #-3941]	; 0xfffff09b
     140:	722f6f70 	eorvc	r6, pc, #112, 30	; 0x1c0
     144:	6f2d6970 	svcvs	0x002d6970
     148:	61752d73 	cmnvs	r5, r3, ror sp
     14c:	722f7472 	eorvc	r7, pc, #1912602624	; 0x72000000
     150:	62336970 	eorsvs	r6, r3, #112, 18	; 0x1c0000
     154:	61656d2d 	cmnvs	r5, sp, lsr #26
     158:	732d7974 			; <UNDEFINED> instruction: 0x732d7974
     15c:	656c656b 	strbvs	r6, [ip, #-1387]!	; 0xfffffa95
     160:	2f6e6f74 	svccs	0x006e6f74
     164:	6e72656b 	cdpvs	5, 7, cr6, cr2, cr11, {3}
     168:	73006c65 	movwvc	r6, #3173	; 0xc65
     16c:	74726f68 	ldrbtvc	r6, [r2], #-3944	; 0xfffff098
     170:	746e6920 	strbtvc	r6, [lr], #-2336	; 0xfffff6e0
     174:	6e697500 	cdpvs	5, 6, cr7, cr9, cr0, {0}
     178:	5f323374 	svcpl	0x00323374
     17c:	656b0074 	strbvs	r0, [fp, #-116]!	; 0xffffff8c
     180:	6c656e72 	stclvs	14, cr6, [r5], #-456	; 0xfffffe38
     184:	69616d5f 	stmdbvs	r1!, {r0, r1, r2, r3, r4, r6, r8, sl, fp, sp, lr}^
     188:	5052006e 	subspl	r0, r2, lr, rrx
     18c:	41425f49 	cmpmi	r2, r9, asr #30
     190:	5f434953 	svcpl	0x00434953
     194:	5f4d5241 	svcpl	0x004d5241
     198:	454d4954 	strbmi	r4, [sp, #-2388]	; 0xfffff6ac
     19c:	52495f52 	subpl	r5, r9, #328	; 0x148
     1a0:	70720051 	rsbsvc	r0, r2, r1, asr r0
     1a4:	72615f69 	rsbvc	r5, r1, #420	; 0x1a4
     1a8:	69745f6d 	ldmdbvs	r4!, {r0, r2, r3, r5, r6, r8, r9, sl, fp, ip, lr}^
     1ac:	5f72656d 	svcpl	0x0072656d
     1b0:	41520074 	cmpmi	r2, r4, ror r0
     1b4:	51524957 	cmppl	r2, r7, asr r9
     1b8:	6d726100 	ldfvse	f6, [r2, #-0]
     1bc:	6d69745f 	cfstrdvs	mvd7, [r9, #-380]!	; 0xfffffe84
     1c0:	695f7265 	ldmdbvs	pc, {r0, r2, r5, r6, r9, ip, sp, lr}^	; <UNPREDICTABLE>
     1c4:	0074696e 	rsbseq	r6, r4, lr, ror #18
     1c8:	5f495052 	svcpl	0x00495052
     1cc:	49534142 	ldmdbmi	r3, {r1, r6, r8, lr}^
     1d0:	52415f43 	subpl	r5, r1, #268	; 0x10c
     1d4:	4f445f4d 	svcmi	0x00445f4d
     1d8:	4542524f 	strbmi	r5, [r2, #-591]	; 0xfffffdb1
     1dc:	315f4c4c 	cmpcc	pc, ip, asr #24
     1e0:	5152495f 	cmppl	r2, pc, asr r9
     1e4:	6e6f4300 	cdpvs	3, 6, cr4, cr15, cr0, {0}
     1e8:	6c6f7274 	sfmvs	f7, 2, [pc], #-464	; 20 <CPSR_THUMB>
     1ec:	6c655200 	sfmvs	f5, 2, [r5], #-0
     1f0:	0064616f 	rsbeq	r6, r4, pc, ror #2
     1f4:	65657246 	strbvs	r7, [r5, #-582]!	; 0xfffffdba
     1f8:	6e6e7552 	mcrvs	5, 3, r7, cr14, cr2, {2}
     1fc:	43676e69 	cmnmi	r7, #1680	; 0x690
     200:	746e756f 	strbtvc	r7, [lr], #-1391	; 0xfffffa91
     204:	52007265 	andpl	r7, r0, #1342177286	; 0x50000006
     208:	425f4950 	subsmi	r4, pc, #80, 18	; 0x140000
     20c:	43495341 	movtmi	r5, #37697	; 0x9341
     210:	4343415f 	movtmi	r4, #12639	; 0x315f
     214:	5f535345 	svcpl	0x00535345
     218:	4f525245 	svcmi	0x00525245
     21c:	5f315f52 	svcpl	0x00315f52
     220:	00515249 	subseq	r5, r1, r9, asr #4
     224:	44657250 	strbtmi	r7, [r5], #-592	; 0xfffffdb0
     228:	64697669 	strbtvs	r7, [r9], #-1641	; 0xfffff997
     22c:	56007265 	strpl	r7, [r0], -r5, ror #4
     230:	65756c61 	ldrbvs	r6, [r5, #-3169]!	; 0xfffff39f
     234:	49505200 	ldmdbmi	r0, {r9, ip, lr}^
     238:	5341425f 	movtpl	r4, #4703	; 0x125f
     23c:	475f4349 	ldrbmi	r4, [pc, -r9, asr #6]
     240:	305f5550 	subscc	r5, pc, r0, asr r5	; <UNPREDICTABLE>
     244:	4c41485f 	mcrrmi	8, 5, r4, r1, cr15
     248:	5f444554 	svcpl	0x00444554
     24c:	00515249 	subseq	r5, r1, r9, asr #4
     250:	5f495052 	svcpl	0x00495052
     254:	49534142 	ldmdbmi	r3, {r1, r6, r8, lr}^
     258:	50475f43 	subpl	r5, r7, r3, asr #30
     25c:	5f315f55 	svcpl	0x00315f55
     260:	544c4148 	strbpl	r4, [ip], #-328	; 0xfffffeb8
     264:	495f4445 	ldmdbmi	pc, {r0, r2, r6, sl, lr}^	; <UNPREDICTABLE>
     268:	52005152 	andpl	r5, r0, #-2147483628	; 0x80000014
     26c:	475f4950 			; <UNDEFINED> instruction: 0x475f4950
     270:	72417465 	subvc	r7, r1, #1694498816	; 0x65000000
     274:	6d69546d 	cfstrdvs	mvd5, [r9, #-436]!	; 0xfffffe4c
     278:	61007265 	tstvs	r0, r5, ror #4
     27c:	2f686372 	svccs	0x00686372
     280:	2f6d7261 	svccs	0x006d7261
     284:	2d697072 	stclcs	0, cr7, [r9, #-456]!	; 0xfffffe38
     288:	746d7261 	strbtvc	r7, [sp], #-609	; 0xfffffd9f
     28c:	72656d69 	rsbvc	r6, r5, #6720	; 0x1a40
     290:	5200632e 	andpl	r6, r0, #-1207959552	; 0xb8000000
     294:	425f4950 	subsmi	r4, pc, #80, 18	; 0x140000
     298:	43495341 	movtmi	r5, #37697	; 0x9341
     29c:	4d52415f 	ldfmie	f4, [r2, #-380]	; 0xfffffe84
     2a0:	4f4f445f 	svcmi	0x004f445f
     2a4:	4c454252 	sfmmi	f4, 2, [r5], {82}	; 0x52
     2a8:	5f305f4c 	svcpl	0x00305f4c
     2ac:	00515249 	subseq	r5, r1, r9, asr #4
     2b0:	41697072 	smcmi	38658	; 0x9702
     2b4:	69546d72 	ldmdbvs	r4, {r1, r4, r5, r6, r8, sl, fp, sp, lr}^
     2b8:	0072656d 	rsbseq	r6, r2, sp, ror #10
     2bc:	64616f4c 	strbtvs	r6, [r1], #-3916	; 0xfffff0b4
     2c0:	51524900 	cmppl	r2, r0, lsl #18
     2c4:	61656c43 	cmnvs	r5, r3, asr #24
     2c8:	50520072 	subspl	r0, r2, r2, ror r0
     2cc:	41425f49 	cmpmi	r2, r9, asr #30
     2d0:	5f434953 	svcpl	0x00434953
     2d4:	45434341 	strbmi	r4, [r3, #-833]	; 0xfffffcbf
     2d8:	455f5353 	ldrbmi	r5, [pc, #-851]	; ffffff8d <__kernel_end+0xffedef8d>
     2dc:	524f5252 	subpl	r5, pc, #536870917	; 0x20000005
     2e0:	495f305f 	ldmdbmi	pc, {r0, r1, r2, r3, r4, r6, ip, sp}^	; <UNPREDICTABLE>
     2e4:	52005152 	andpl	r5, r0, #-2147483628	; 0x80000014
     2e8:	475f4950 			; <UNDEFINED> instruction: 0x475f4950
     2ec:	72497465 	subvc	r7, r9, #1694498816	; 0x65000000
     2f0:	6e6f4371 	mcrvs	3, 3, r4, cr15, cr1, {3}
     2f4:	6c6f7274 	sfmvs	f7, 2, [pc], #-464	; 12c <ARM_I_BIT+0xac>
     2f8:	0072656c 	rsbseq	r6, r2, ip, ror #10
     2fc:	6b73614d 	blvs	1cd8838 <__kernel_end+0x1bb7838>
     300:	52496465 	subpl	r6, r9, #1694498816	; 0x65000000
     304:	50520051 	subspl	r0, r2, r1, asr r0
     308:	41425f49 	cmpmi	r2, r9, asr #30
     30c:	5f434953 	svcpl	0x00434953
     310:	5f4d5241 	svcpl	0x004d5241
     314:	4c49414d 	stfmie	f4, [r9], {77}	; 0x4d
     318:	5f584f42 	svcpl	0x00584f42
     31c:	00515249 	subseq	r5, r1, r9, asr #4
     320:	66657270 			; <UNDEFINED> instruction: 0x66657270
     324:	68637465 	stmdavs	r3!, {r0, r2, r5, r6, sl, ip, sp, lr}^
     328:	6f62615f 	svcvs	0x0062615f
     32c:	765f7472 			; <UNDEFINED> instruction: 0x765f7472
     330:	6f746365 	svcvs	0x00746365
     334:	6f630072 	svcvs	0x00630072
     338:	5f746e75 	svcpl	0x00746e75
     33c:	73717269 	cmnvc	r1, #-1879048186	; 0x90000006
     340:	73694400 	cmnvc	r9, #0, 8
     344:	656c6261 	strbvs	r6, [ip, #-609]!	; 0xfffffd9f
     348:	5152495f 	cmppl	r2, pc, asr r9
     34c:	00325f73 	eorseq	r5, r2, r3, ror pc
     350:	657a6973 	ldrbvs	r6, [sl, #-2419]!	; 0xfffff68d
     354:	7300745f 	movwvc	r7, #1119	; 0x45f
     358:	74657a69 	strbtvc	r7, [r5], #-2665	; 0xfffff597
     35c:	00657079 	rsbeq	r7, r5, r9, ror r0
     360:	72657a62 	rsbvc	r7, r5, #401408	; 0x62000
     364:	4946006f 	stmdbmi	r6, {r0, r1, r2, r3, r5, r6}^
     368:	6f635f51 	svcvs	0x00635f51
     36c:	6f72746e 	svcvs	0x0072746e
     370:	6975006c 	ldmdbvs	r5!, {r2, r3, r5, r6}^
     374:	5f38746e 	svcpl	0x0038746e
     378:	6e690074 	mcrvs	0, 3, r0, cr9, cr4, {3}
     37c:	72726574 	rsbsvc	r6, r2, #116, 10	; 0x1d000000
     380:	5f747075 	svcpl	0x00747075
     384:	646e6168 	strbtvs	r6, [lr], #-360	; 0xfffffe98
     388:	5f72656c 	svcpl	0x0072656c
     38c:	70720066 	rsbsvc	r0, r2, r6, rrx
     390:	51524969 	cmppl	r2, r9, ror #18
     394:	746e6f43 	strbtvc	r6, [lr], #-3907	; 0xfffff0bd
     398:	6c6c6f72 	stclvs	15, cr6, [ip], #-456	; 0xfffffe38
     39c:	75007265 	strvc	r7, [r0, #-613]	; 0xfffffd9b
     3a0:	6765726e 	strbvs	r7, [r5, -lr, ror #4]!
     3a4:	65747369 	ldrbvs	r7, [r4, #-873]!	; 0xfffffc97
     3a8:	72695f72 	rsbvc	r5, r9, #456	; 0x1c8
     3ac:	61685f71 	smcvs	34289	; 0x85f1
     3b0:	656c646e 	strbvs	r6, [ip, #-1134]!	; 0xfffffb92
     3b4:	6f730072 	svcvs	0x00730072
     3b8:	61777466 	cmnvs	r7, r6, ror #8
     3bc:	695f6572 	ldmdbvs	pc, {r1, r4, r5, r6, r8, sl, sp, lr}^	; <UNPREDICTABLE>
     3c0:	7265746e 	rsbvc	r7, r5, #1845493760	; 0x6e000000
     3c4:	74707572 	ldrbtvc	r7, [r0], #-1394	; 0xfffffa8e
     3c8:	6365765f 	cmnvs	r5, #99614720	; 0x5f00000
     3cc:	00726f74 	rsbseq	r6, r2, r4, ror pc
     3d0:	65646e75 	strbvs	r6, [r4, #-3701]!	; 0xfffff18b
     3d4:	656e6966 	strbvs	r6, [lr, #-2406]!	; 0xfffff69a
     3d8:	6e695f64 	cdpvs	15, 6, cr5, cr9, cr4, {3}
     3dc:	75727473 	ldrbvc	r7, [r2, #-1139]!	; 0xfffffb8d
     3e0:	6f697463 	svcvs	0x00697463
     3e4:	65765f6e 	ldrbvs	r5, [r6, #-3950]!	; 0xfffff092
     3e8:	726f7463 	rsbvc	r7, pc, #1660944384	; 0x63000000
     3ec:	6d656d00 	stclvs	13, cr6, [r5, #-0]
     3f0:	00746573 	rsbseq	r6, r4, r3, ror r5
     3f4:	74736166 	ldrbtvc	r6, [r3], #-358	; 0xfffffe9a
     3f8:	746e695f 	strbtvc	r6, [lr], #-2399	; 0xfffff6a1
     3fc:	75727265 	ldrbvc	r7, [r2, #-613]!	; 0xfffffd9b
     400:	765f7470 			; <UNDEFINED> instruction: 0x765f7470
     404:	6f746365 	svcvs	0x00746365
     408:	72690072 	rsbvc	r0, r9, #114	; 0x72
     40c:	756e5f71 	strbvc	r5, [lr, #-3953]!	; 0xfffff08f
     410:	6e45006d 	cdpvs	0, 4, cr0, cr5, cr13, {3}
     414:	656c6261 	strbvs	r6, [ip, #-609]!	; 0xfffffd9f
     418:	5152495f 	cmppl	r2, pc, asr r9
     41c:	00315f73 	eorseq	r5, r1, r3, ror pc
     420:	62616e45 	rsbvs	r6, r1, #1104	; 0x450
     424:	495f656c 	ldmdbmi	pc, {r2, r3, r5, r6, r8, sl, sp, lr}^	; <UNPREDICTABLE>
     428:	5f735152 	svcpl	0x00735152
     42c:	6f6c0032 	svcvs	0x006c0032
     430:	6420676e 	strtvs	r6, [r0], #-1902	; 0xfffff892
     434:	6c62756f 	cfstr64vs	mvdx7, [r2], #-444	; 0xfffffe44
     438:	69440065 	stmdbvs	r4, {r0, r2, r5, r6}^
     43c:	6c626173 	stfvse	f6, [r2], #-460	; 0xfffffe34
     440:	61425f65 	cmpvs	r2, r5, ror #30
     444:	5f636973 	svcpl	0x00636973
     448:	73515249 	cmpvc	r1, #-1879048188	; 0x90000004
     44c:	6e616800 	cdpvs	8, 6, cr6, cr1, cr0, {0}
     450:	72656c64 	rsbvc	r6, r5, #100, 24	; 0x6400
     454:	79620073 	stmdbvc	r2!, {r0, r1, r4, r5, r6}^
     458:	69006574 	stmdbvs	r0, {r2, r4, r5, r6, r8, sl, sp, lr}
     45c:	705f7172 	subsvc	r7, pc, r2, ror r1	; <UNPREDICTABLE>
     460:	7200736f 	andvc	r7, r0, #-1140850687	; 0xbc000001
     464:	74657365 	strbtvc	r7, [r5], #-869	; 0xfffffc9b
     468:	6365765f 	cmnvs	r5, #99614720	; 0x5f00000
     46c:	00726f74 	rsbseq	r6, r2, r4, ror pc
     470:	65746e69 	ldrbvs	r6, [r4, #-3689]!	; 0xfffff197
     474:	70757272 	rsbsvc	r7, r5, r2, ror r2
     478:	6c635f74 	stclvs	15, cr5, [r3], #-464	; 0xfffffe30
     47c:	65726165 	ldrbvs	r6, [r2, #-357]!	; 0xfffffe9b
     480:	00665f72 	rsbeq	r5, r6, r2, ror pc
     484:	5f515249 	svcpl	0x00515249
     488:	646e6570 	strbtvs	r6, [lr], #-1392	; 0xfffffa90
     48c:	5f676e69 	svcpl	0x00676e69
     490:	49440032 	stmdbmi	r4, {r1, r4, r5}^
     494:	4c424153 	stfmie	f4, [r2], {83}	; 0x53
     498:	4e495f45 	cdpmi	15, 4, cr5, cr9, cr5, {2}
     49c:	52524554 	subspl	r4, r2, #84, 10	; 0x15000000
     4a0:	53545055 	cmppl	r4, #85	; 0x55
     4a4:	63726100 	cmnvs	r2, #0, 2
     4a8:	72612f68 	rsbvc	r2, r1, #104, 30	; 0x1a0
     4ac:	70722f6d 	rsbsvc	r2, r2, sp, ror #30
     4b0:	6e692d69 	cdpvs	13, 6, cr2, cr9, cr9, {3}
     4b4:	72726574 	rsbsvc	r6, r2, #116, 10	; 0x1d000000
     4b8:	73747075 	cmnvc	r4, #117	; 0x75
     4bc:	5f00632e 	svcpl	0x0000632e
     4c0:	62616e65 	rsbvs	r6, r1, #1616	; 0x650
     4c4:	695f656c 	ldmdbvs	pc, {r2, r3, r5, r6, r8, sl, sp, lr}^	; <UNPREDICTABLE>
     4c8:	7265746e 	rsbvc	r7, r5, #1845493760	; 0x6e000000
     4cc:	74707572 	ldrbtvc	r7, [r0], #-1394	; 0xfffffa8e
     4d0:	69440073 	stmdbvs	r4, {r0, r1, r4, r5, r6}^
     4d4:	6c626173 	stfvse	f6, [r2], #-460	; 0xfffffe34
     4d8:	52495f65 	subpl	r5, r9, #404	; 0x194
     4dc:	315f7351 	cmpcc	pc, r1, asr r3	; <UNPREDICTABLE>
     4e0:	616e4500 	cmnvs	lr, r0, lsl #10
     4e4:	5f656c62 	svcpl	0x00656c62
     4e8:	69736142 	ldmdbvs	r3!, {r1, r6, r8, sp, lr}^
     4ec:	52495f63 	subpl	r5, r9, #396	; 0x18c
     4f0:	45007351 	strmi	r7, [r0, #-849]	; 0xfffffcaf
     4f4:	4c42414e 	stfmie	f4, [r2], {78}	; 0x4e
     4f8:	4e495f45 	cdpmi	15, 4, cr5, cr9, cr5, {2}
     4fc:	52524554 	subspl	r4, r2, #84, 10	; 0x15000000
     500:	53545055 	cmppl	r4, #85	; 0x55
     504:	69707200 	ldmdbvs	r0!, {r9, ip, sp, lr}^
     508:	7172695f 	cmnvc	r2, pc, asr r9
     50c:	6e6f635f 	mcrvs	3, 3, r6, cr15, cr15, {2}
     510:	6c6f7274 	sfmvs	f7, 2, [pc], #-464	; 348 <ARM_I_BIT+0x2c8>
     514:	5f72656c 	svcpl	0x0072656c
     518:	61750074 	cmnvs	r5, r4, ror r0
     51c:	705f7472 	subsvc	r7, pc, r2, ror r4	; <UNPREDICTABLE>
     520:	00737475 	rsbseq	r7, r3, r5, ror r4
     524:	65746e69 	ldrbvs	r6, [r4, #-3689]!	; 0xfffff197
     528:	70757272 	rsbsvc	r7, r5, r2, ror r2
     52c:	695f7374 	ldmdbvs	pc, {r2, r4, r5, r6, r8, r9, ip, sp, lr}^	; <UNPREDICTABLE>
     530:	0074696e 	rsbseq	r6, r4, lr, ror #18
     534:	61656c63 	cmnvs	r5, r3, ror #24
     538:	73726572 	cmnvc	r2, #478150656	; 0x1c800000
     53c:	71726900 	cmnvc	r2, r0, lsl #18
     540:	6d756e5f 	ldclvs	14, cr6, [r5, #-380]!	; 0xfffffe84
     544:	5f726562 	svcpl	0x00726562
     548:	4e490074 	mcrmi	0, 2, r0, cr9, cr4, {3}
     54c:	52524554 	subspl	r4, r2, #84, 10	; 0x15000000
     550:	53545055 	cmppl	r4, #85	; 0x55
     554:	414e455f 	cmpmi	lr, pc, asr r5
     558:	44454c42 	strbmi	r4, [r5], #-3138	; 0xfffff3be
     55c:	74616400 	strbtvc	r6, [r1], #-1024	; 0xfffffc00
     560:	62615f61 	rsbvs	r5, r1, #388	; 0x184
     564:	5f74726f 	svcpl	0x0074726f
     568:	74636576 	strbtvc	r6, [r3], #-1398	; 0xfffffa8a
     56c:	4900726f 	stmdbmi	r0, {r0, r1, r2, r3, r5, r6, r9, ip, sp, lr}
     570:	705f5152 	subsvc	r5, pc, r2, asr r1	; <UNPREDICTABLE>
     574:	69646e65 	stmdbvs	r4!, {r0, r2, r5, r6, r9, sl, fp, sp, lr}^
     578:	315f676e 	cmpcc	pc, lr, ror #14
     57c:	51524900 	cmppl	r2, r0, lsl #18
     580:	7361625f 	cmnvc	r1, #-268435451	; 0xf0000005
     584:	705f6369 	subsvc	r6, pc, r9, ror #6
     588:	69646e65 	stmdbvs	r4!, {r0, r2, r5, r6, r9, sl, fp, sp, lr}^
     58c:	6d00676e 	stcvs	7, cr6, [r0, #-440]	; 0xfffffe48
     590:	5f6f696d 	svcpl	0x006f696d
     594:	74697277 	strbtvc	r7, [r9], #-631	; 0xfffffd89
     598:	6d6d0065 	stclvs	0, cr0, [sp, #-404]!	; 0xfffffe6c
     59c:	725f6f69 	subsvc	r6, pc, #420	; 0x1a4
     5a0:	00646165 	rsbeq	r6, r4, r5, ror #2
     5a4:	54524155 	ldrbpl	r4, [r2], #-341	; 0xfffffeab
     5a8:	494d5f30 	stmdbmi	sp, {r4, r5, r8, r9, sl, fp, ip, lr}^
     5ac:	41550053 	cmpmi	r5, r3, asr r0
     5b0:	5f305452 	svcpl	0x00305452
     5b4:	55005244 	strpl	r5, [r0, #-580]	; 0xfffffdbc
     5b8:	30545241 	subscc	r5, r4, r1, asr #4
     5bc:	5341425f 	movtpl	r4, #4703	; 0x125f
     5c0:	6f630045 	svcvs	0x00630045
     5c4:	00746e75 	rsbseq	r6, r4, r5, ror lr
     5c8:	54524155 	ldrbpl	r4, [r2], #-341	; 0xfffffeab
     5cc:	54495f30 	strbpl	r5, [r9], #-3888	; 0xfffff0d0
     5d0:	4700504f 	strmi	r5, [r0, -pc, asr #32]
     5d4:	44555050 	ldrbmi	r5, [r5], #-80	; 0xffffffb0
     5d8:	304b4c43 	subcc	r4, fp, r3, asr #24
     5dc:	72617500 	rsbvc	r7, r1, #0, 10
     5e0:	6e695f74 	mcrvs	15, 3, r5, cr9, cr4, {3}
     5e4:	64007469 	strvs	r7, [r0], #-1129	; 0xfffffb97
     5e8:	00617461 	rsbeq	r7, r1, r1, ror #8
     5ec:	55505047 	ldrbpl	r5, [r0, #-71]	; 0xffffffb9
     5f0:	72610044 	rsbvc	r0, r1, #68	; 0x44
     5f4:	612f6863 			; <UNDEFINED> instruction: 0x612f6863
     5f8:	752f6d72 	strvc	r6, [pc, #-3442]!	; fffff88e <__kernel_end+0xffede88e>
     5fc:	30747261 	rsbscc	r7, r4, r1, ror #4
     600:	7500632e 	strvc	r6, [r0, #-814]	; 0xfffffcd2
     604:	5f747261 	svcpl	0x00747261
     608:	63746567 	cmnvs	r4, #432013312	; 0x19c00000
     60c:	52415500 	subpl	r5, r1, #0, 10
     610:	495f3054 	ldmdbmi	pc, {r2, r4, r6, ip, sp}^	; <UNPREDICTABLE>
     614:	00445242 	subeq	r5, r4, r2, asr #4
     618:	54524155 	ldrbpl	r4, [r2], #-341	; 0xfffffeab
     61c:	52465f30 	subpl	r5, r6, #48, 30	; 0xc0
     620:	52415500 	subpl	r5, r1, #0, 10
     624:	4c5f3054 	mrrcmi	0, 5, r3, pc, cr4	; <UNPREDICTABLE>
     628:	00485243 	subeq	r5, r8, r3, asr #4
     62c:	54524155 	ldrbpl	r4, [r2], #-341	; 0xfffffeab
     630:	49525f30 	ldmdbmi	r2, {r4, r5, r8, r9, sl, fp, ip, lr}^
     634:	41550053 	cmpmi	r5, r3, asr r0
     638:	5f305452 	svcpl	0x00305452
     63c:	00524349 	subseq	r4, r2, r9, asr #6
     640:	54524155 	ldrbpl	r4, [r2], #-341	; 0xfffffeab
     644:	53525f30 	cmppl	r2, #48, 30	; 0xc0
     648:	52434552 	subpl	r4, r3, #343932928	; 0x14800000
     64c:	52415500 	subpl	r5, r1, #0, 10
     650:	445f3054 	ldrbmi	r3, [pc], #-84	; 658 <ARM_I_BIT+0x5d8>
     654:	5243414d 	subpl	r4, r3, #1073741843	; 0x40000013
     658:	52415500 	subpl	r5, r1, #0, 10
     65c:	495f3054 	ldmdbmi	pc, {r2, r4, r6, ip, sp}^	; <UNPREDICTABLE>
     660:	0043534d 	subeq	r5, r3, sp, asr #6
     664:	54524155 	ldrbpl	r4, [r2], #-341	; 0xfffffeab
     668:	46495f30 			; <UNDEFINED> instruction: 0x46495f30
     66c:	6800534c 	stmdavs	r0, {r2, r3, r6, r8, r9, ip, lr}
     670:	74737865 	ldrbtvc	r7, [r3], #-2149	; 0xfffff79b
     674:	676e6972 			; <UNDEFINED> instruction: 0x676e6972
     678:	50470073 	subpl	r0, r7, r3, ror r0
     67c:	425f4f49 	subsmi	r4, pc, #292	; 0x124
     680:	00455341 	subeq	r5, r5, r1, asr #6
     684:	54524155 	ldrbpl	r4, [r2], #-341	; 0xfffffeab
     688:	52435f30 	subpl	r5, r3, #48, 30	; 0xc0
     68c:	52415500 	subpl	r5, r1, #0, 10
     690:	495f3054 	ldmdbmi	pc, {r2, r4, r6, ip, sp}^	; <UNPREDICTABLE>
     694:	00524354 	subseq	r4, r2, r4, asr r3
     698:	54524155 	ldrbpl	r4, [r2], #-341	; 0xfffffeab
     69c:	44545f30 	ldrbmi	r5, [r4], #-3888	; 0xfffff0d0
     6a0:	41550052 	cmpmi	r5, r2, asr r0
     6a4:	5f305452 	svcpl	0x00305452
     6a8:	44524246 	ldrbmi	r4, [r2], #-582	; 0xfffffdba
     6ac:	52415500 	subpl	r5, r1, #0, 10
     6b0:	495f3054 	ldmdbmi	pc, {r2, r4, r6, ip, sp}^	; <UNPREDICTABLE>
     6b4:	0052504c 	subseq	r5, r2, ip, asr #32
     6b8:	74726175 	ldrbtvc	r6, [r2], #-373	; 0xfffffe8b
     6bc:	7475705f 	ldrbtvc	r7, [r5], #-95	; 0xffffffa1
     6c0:	41550063 	cmpmi	r5, r3, rrx
     6c4:	5f305452 	svcpl	0x00305452
     6c8:	50495449 	subpl	r5, r9, r9, asr #8
     6cc:	4d524100 	ldfmie	f4, [r2, #-0]
     6d0:	5f534d5f 	svcpl	0x00534d5f
     6d4:	4c4c5546 	cfstr64mi	mvdx5, [ip], {70}	; 0x46
     6d8:	69616d00 	stmdbvs	r1!, {r8, sl, fp, sp, lr}^
     6dc:	786f626c 	stmdavc	pc!, {r2, r3, r5, r6, r9, sp, lr}^	; <UNPREDICTABLE>
     6e0:	6174735f 	cmnvs	r4, pc, asr r3
     6e4:	5f737574 	svcpl	0x00737574
     6e8:	5f676572 	svcpl	0x00676572
     6ec:	73746962 	cmnvc	r4, #1605632	; 0x188000
     6f0:	61686300 	cmnvs	r8, r0, lsl #6
     6f4:	6c656e6e 	stclvs	14, cr6, [r5], #-440	; 0xfffffe48
     6f8:	30424d00 	subcc	r4, r2, r0, lsl #26
     6fc:	4741545f 	smlsldmi	r5, r1, pc, r4	; <UNPREDICTABLE>
     700:	52415f53 	subpl	r5, r1, #332	; 0x14c
     704:	4f545f4d 	svcmi	0x00545f4d
     708:	0043565f 	subeq	r5, r3, pc, asr r6
     70c:	756c6176 	strbvc	r6, [ip, #-374]!	; 0xfffffe8a
     710:	74530065 	ldrbvc	r0, [r3], #-101	; 0xffffff9b
     714:	73757461 	cmnvc	r5, #1627389952	; 0x61000000
     718:	69707200 	ldmdbvs	r0!, {r9, ip, sp, lr}^
     71c:	6c69614d 	stfvse	f6, [r9], #-308	; 0xfffffecc
     720:	30786f62 	rsbscc	r6, r8, r2, ror #30
     724:	69616d00 	stmdbvs	r1!, {r8, sl, fp, sp, lr}^
     728:	786f626c 	stmdavc	pc!, {r2, r3, r5, r6, r9, sp, lr}^	; <UNPREDICTABLE>
     72c:	5300745f 	movwpl	r7, #1119	; 0x45f
     730:	65646e65 	strbvs	r6, [r4, #-3685]!	; 0xfffff19b
     734:	424d0072 	submi	r0, sp, #114	; 0x72
     738:	4e555f30 	mrcmi	15, 2, r5, cr5, cr0, {1}
     73c:	44455355 	strbmi	r5, [r5], #-853	; 0xfffffcab
     740:	30424d00 	subcc	r4, r2, r0, lsl #26
     744:	4152465f 	cmpmi	r2, pc, asr r6
     748:	5542454d 	strbpl	r4, [r2, #-1357]	; 0xfffffab3
     74c:	52454646 	subpl	r4, r5, #73400320	; 0x4600000
     750:	49505200 	ldmdbmi	r0, {r9, ip, lr}^
     754:	69614d5f 	stmdbvs	r1!, {r0, r1, r2, r3, r4, r6, r8, sl, fp, lr}^
     758:	786f626c 	stmdavc	pc!, {r2, r3, r5, r6, r9, sp, lr}^	; <UNPREDICTABLE>
     75c:	61655230 	cmnvs	r5, r0, lsr r2
     760:	424d0064 	submi	r0, sp, #100	; 0x64
     764:	43565f30 	cmpmi	r6, #48, 30	; 0xc0
     768:	00514948 	subseq	r4, r1, r8, asr #18
     76c:	5f30424d 	svcpl	0x0030424d
     770:	43554f54 	cmpmi	r5, #84, 30	; 0x150
     774:	52435348 	subpl	r5, r3, #72, 6	; 0x20000001
     778:	004e4545 	subeq	r4, lr, r5, asr #10
     77c:	5f4d5241 	svcpl	0x004d5241
     780:	455f534d 	ldrbmi	r5, [pc, #-845]	; 43b <ARM_I_BIT+0x3bb>
     784:	5954504d 	ldmdbpl	r4, {r0, r2, r3, r6, ip, lr}^
     788:	4d524100 	ldfmie	f4, [r2, #-0]
     78c:	5f534d5f 	svcpl	0x00534d5f
     790:	4556454c 	ldrbmi	r4, [r6, #-1356]	; 0xfffffab4
     794:	6f43004c 	svcvs	0x0043004c
     798:	6769666e 	strbvs	r6, [r9, -lr, ror #12]!
     79c:	74617275 	strbtvc	r7, [r1], #-629	; 0xfffffd8b
     7a0:	006e6f69 	rsbeq	r6, lr, r9, ror #30
     7a4:	5f30424d 	svcpl	0x0030424d
     7a8:	54524956 	ldrbpl	r4, [r2], #-2390	; 0xfffff6aa
     7ac:	5f4c4155 	svcpl	0x004c4155
     7b0:	54524155 	ldrbpl	r4, [r2], #-341	; 0xfffffeab
     7b4:	30424d00 	subcc	r4, r2, r0, lsl #26
     7b8:	574f505f 	smlsldpl	r5, pc, pc, r0	; <UNPREDICTABLE>
     7bc:	4d5f5245 	lfmmi	f5, 2, [pc, #-276]	; 6b0 <ARM_I_BIT+0x630>
     7c0:	47414e41 	strbmi	r4, [r1, -r1, asr #28]
     7c4:	4e454d45 	cdpmi	13, 4, cr4, cr5, cr5, {2}
     7c8:	6f500054 	svcvs	0x00500054
     7cc:	6d006c6c 	stcvs	12, cr6, [r0, #-432]	; 0xfffffe50
     7d0:	626c6961 	rsbvs	r6, ip, #1589248	; 0x184000
     7d4:	5f30786f 	svcpl	0x0030786f
     7d8:	6e616863 	cdpvs	8, 6, cr6, cr1, cr3, {3}
     7dc:	5f6c656e 	svcpl	0x006c656e
     7e0:	424d0074 	submi	r0, sp, #116	; 0x74
     7e4:	454c5f30 	strbmi	r5, [ip, #-3888]	; 0xfffff0d0
     7e8:	61005344 	tstvs	r0, r4, asr #6
     7ec:	2f686372 	svccs	0x00686372
     7f0:	2f6d7261 	svccs	0x006d7261
     7f4:	2d697072 	stclcs	0, cr7, [r9, #-456]!	; 0xfffffe38
     7f8:	6c69616d 	stfvse	f6, [r9], #-436	; 0xfffffe4c
     7fc:	2e786f62 	cdpcs	15, 7, cr6, cr8, cr2, {3}
     800:	424d0063 	submi	r0, sp, #99	; 0x63
     804:	41545f30 	cmpmi	r4, r0, lsr pc
     808:	565f5347 	ldrbpl	r5, [pc], -r7, asr #6
     80c:	4f545f43 	svcmi	0x00545f43
     810:	4d52415f 	ldfmie	f4, [r2, #-380]	; 0xfffffe84
     814:	49505200 	ldmdbmi	r0, {r9, ip, lr}^
     818:	69614d5f 	stmdbvs	r1!, {r0, r1, r2, r3, r4, r6, r8, sl, fp, lr}^
     81c:	786f626c 	stmdavc	pc!, {r2, r3, r5, r6, r9, sp, lr}^	; <UNPREDICTABLE>
     820:	69725730 	ldmdbvs	r2!, {r4, r5, r8, r9, sl, ip, lr}^
     824:	4d006574 	cfstr32mi	mvfx6, [r0, #-464]	; 0xfffffe30
     828:	425f3042 	subsmi	r3, pc, #66	; 0x42
     82c:	4f545455 	svcmi	0x00545455
     830:	7200534e 	andvc	r5, r0, #939524097	; 0x38000001
     834:	72657365 	rsbvc	r7, r5, #-1811939327	; 0x94000001
     838:	31646576 	smccc	18006	; 0x4656
     83c:	47415400 	strbmi	r5, [r1, -r0, lsl #8]
     840:	414c425f 	cmpmi	ip, pc, asr r2
     844:	535f4b4e 	cmppl	pc, #79872	; 0x13800
     848:	45455243 	strbmi	r5, [r5, #-579]	; 0xfffffdbd
     84c:	4154004e 	cmpmi	r4, lr, asr #32
     850:	45475f47 	strbmi	r5, [r7, #-3911]	; 0xfffff0b9
     854:	564f5f54 			; <UNDEFINED> instruction: 0x564f5f54
     858:	43535245 	cmpmi	r3, #1342177284	; 0x50000004
     85c:	54004e41 	strpl	r4, [r0], #-3649	; 0xfffff1bf
     860:	475f4741 	ldrbmi	r4, [pc, -r1, asr #14]
     864:	425f5445 	subsmi	r5, pc, #1157627904	; 0x45000000
     868:	4452414f 	ldrbmi	r4, [r2], #-335	; 0xfffffeb1
     86c:	5245535f 	subpl	r5, r5, #2080374785	; 0x7c000001
     870:	004c4149 	subeq	r4, ip, r9, asr #2
     874:	5f474154 	svcpl	0x00474154
     878:	5f544547 	svcpl	0x00544547
     87c:	52414f42 	subpl	r4, r1, #264	; 0x108
     880:	45525f44 	ldrbmi	r5, [r2, #-3908]	; 0xfffff0bc
     884:	49534956 	ldmdbmi	r3, {r1, r2, r4, r6, r8, fp, lr}^
     888:	54004e4f 	strpl	r4, [r0], #-3663	; 0xfffff1b1
     88c:	475f4741 	ldrbmi	r4, [pc, -r1, asr #14]
     890:	4d5f5445 	cfldrdmi	mvd5, [pc, #-276]	; 784 <ARM_I_BIT+0x704>
     894:	435f4e49 	cmpmi	pc, #1168	; 0x490
     898:	4b434f4c 	blmi	10d45d0 <__kernel_end+0xfb35d0>
     89c:	5441525f 	strbpl	r5, [r1], #-607	; 0xfffffda1
     8a0:	41540045 	cmpmi	r4, r5, asr #32
     8a4:	45545f47 	ldrbmi	r5, [r4, #-3911]	; 0xfffff0b9
     8a8:	565f5453 			; <UNDEFINED> instruction: 0x565f5453
     8ac:	55545249 	ldrbpl	r5, [r4, #-585]	; 0xfffffdb7
     8b0:	4f5f4c41 	svcmi	0x005f4c41
     8b4:	45534646 	ldrbmi	r4, [r3, #-1606]	; 0xfffff9ba
     8b8:	41540054 	cmpmi	r4, r4, asr r0
     8bc:	45535f47 	ldrbmi	r5, [r3, #-3911]	; 0xfffff0b9
     8c0:	49565f54 	ldmdbmi	r6, {r2, r4, r6, r8, r9, sl, fp, ip, lr}^
     8c4:	41555452 	cmpmi	r5, r2, asr r4
     8c8:	464f5f4c 	strbmi	r5, [pc], -ip, asr #30
     8cc:	54455346 	strbpl	r5, [r5], #-838	; 0xfffffcba
     8d0:	47415400 	strbmi	r5, [r1, -r0, lsl #8]
     8d4:	5445475f 	strbpl	r4, [r5], #-1887	; 0xfffff8a1
     8d8:	5948505f 	stmdbpl	r8, {r0, r1, r2, r3, r4, r6, ip, lr}^
     8dc:	41434953 	cmpmi	r3, r3, asr r9
     8e0:	49535f4c 	ldmdbmi	r3, {r2, r3, r6, r8, r9, sl, fp, ip, lr}^
     8e4:	5400455a 	strpl	r4, [r0], #-1370	; 0xfffffaa6
     8e8:	475f4741 	ldrbmi	r4, [pc, -r1, asr #14]
     8ec:	545f5445 	ldrbpl	r5, [pc], #-1093	; 8f4 <SCTLR_ENABLE_BRANCH_PREDICTION+0xf4>
     8f0:	45504d45 	ldrbmi	r4, [r0, #-3397]	; 0xfffff2bb
     8f4:	55544152 	ldrbpl	r4, [r4, #-338]	; 0xfffffeae
     8f8:	54004552 	strpl	r4, [r0], #-1362	; 0xfffffaae
     8fc:	525f4741 	subspl	r4, pc, #17039360	; 0x1040000
     900:	41454c45 	cmpmi	r5, r5, asr #24
     904:	425f4553 	subsmi	r4, pc, #348127232	; 0x14c00000
     908:	45464655 	strbmi	r4, [r6, #-1621]	; 0xfffff9ab
     90c:	41540052 	cmpmi	r4, r2, asr r0
     910:	45535f47 	ldrbmi	r5, [r3, #-3911]	; 0xfffff0b9
     914:	4f565f54 	svcmi	0x00565f54
     918:	4741544c 	strbmi	r5, [r1, -ip, asr #8]
     91c:	41540045 	cmpmi	r4, r5, asr #32
     920:	45475f47 	strbmi	r5, [r7, #-3911]	; 0xfffff0b9
     924:	4c435f54 	mcrrmi	15, 5, r5, r3, cr4
     928:	5f4b434f 	svcpl	0x004b434f
     92c:	45544152 	ldrbmi	r4, [r4, #-338]	; 0xfffffeae
     930:	47415400 	strbmi	r5, [r1, -r0, lsl #8]
     934:	5445535f 	strbpl	r5, [r5], #-863	; 0xfffffca1
     938:	5045445f 	subpl	r4, r5, pc, asr r4
     93c:	54004854 	strpl	r4, [r0], #-2132	; 0xfffff7ac
     940:	475f4741 	ldrbmi	r4, [pc, -r1, asr #14]
     944:	505f5445 	subspl	r5, pc, r5, asr #8
     948:	54454c41 	strbpl	r4, [r5], #-3137	; 0xfffff3bf
     94c:	54004554 	strpl	r4, [r0], #-1364	; 0xfffffaac
     950:	475f4741 	ldrbmi	r4, [pc, -r1, asr #14]
     954:	565f5445 	ldrbpl	r5, [pc], -r5, asr #8
     958:	454d5f43 	strbmi	r5, [sp, #-3907]	; 0xfffff0bd
     95c:	59524f4d 	ldmdbpl	r2, {r0, r2, r3, r6, r8, r9, sl, fp, lr}^
     960:	66756200 	ldrbtvs	r6, [r5], -r0, lsl #4
     964:	5f726566 	svcpl	0x00726566
     968:	72700038 	rsbsvc	r0, r0, #56	; 0x38
     96c:	7265706f 	rsbvc	r7, r5, #111	; 0x6f
     970:	54007974 	strpl	r7, [r0], #-2420	; 0xfffff68c
     974:	535f4741 	cmppl	pc, #17039360	; 0x1040000
     978:	435f5445 	cmpmi	pc, #1157627904	; 0x45000000
     97c:	4b434f4c 	blmi	10d46b4 <__kernel_end+0xfb36b4>
     980:	4154535f 	cmpmi	r4, pc, asr r3
     984:	54004554 	strpl	r4, [r0], #-1364	; 0xfffffaac
     988:	545f4741 	ldrbpl	r4, [pc], #-1857	; 990 <SCTLR_ENABLE_BRANCH_PREDICTION+0x190>
     98c:	5f545345 	svcpl	0x00545345
     990:	45584950 	ldrbmi	r4, [r8, #-2384]	; 0xfffff6b0
     994:	524f5f4c 	subpl	r5, pc, #76, 30	; 0x130
     998:	00524544 	subseq	r4, r2, r4, asr #10
     99c:	61765f5f 	cmnvs	r6, pc, asr pc
     9a0:	73696c5f 	cmnvc	r9, #24320	; 0x5f00
     9a4:	41540074 	cmpmi	r4, r4, ror r0
     9a8:	45535f47 	ldrbmi	r5, [r3, #-3911]	; 0xfffff0b9
     9ac:	55435f54 	strbpl	r5, [r3, #-3924]	; 0xfffff0ac
     9b0:	524f5352 	subpl	r5, pc, #1207959553	; 0x48000001
     9b4:	464e495f 			; <UNDEFINED> instruction: 0x464e495f
     9b8:	4154004f 	cmpmi	r4, pc, asr #32
     9bc:	45475f47 	strbmi	r5, [r7, #-3911]	; 0xfffff0b9
     9c0:	49505f54 	ldmdbmi	r0, {r2, r4, r6, r8, r9, sl, fp, ip, lr}^
     9c4:	5f4c4558 	svcpl	0x004c4558
     9c8:	4544524f 	strbmi	r5, [r4, #-591]	; 0xfffffdb1
     9cc:	41540052 	cmpmi	r4, r2, asr r0
     9d0:	45475f47 	strbmi	r5, [r7, #-3911]	; 0xfffff0b9
     9d4:	44455f54 	strbmi	r5, [r5], #-3924	; 0xfffff0ac
     9d8:	425f4449 	subsmi	r4, pc, #1224736768	; 0x49000000
     9dc:	4b434f4c 	blmi	10d4714 <__kernel_end+0xfb3714>
     9e0:	47415400 	strbmi	r5, [r1, -r0, lsl #8]
     9e4:	5445475f 	strbpl	r4, [r5], #-1887	; 0xfffff8a1
     9e8:	58414d5f 	stmdapl	r1, {r0, r1, r2, r3, r4, r6, r8, sl, fp, lr}^
     9ec:	4f4c435f 	svcmi	0x004c435f
     9f0:	525f4b43 	subspl	r4, pc, #68608	; 0x10c00
     9f4:	00455441 	subeq	r5, r5, r1, asr #8
     9f8:	5f474154 	svcpl	0x00474154
     9fc:	54534554 	ldrbpl	r4, [r3], #-1364	; 0xfffffaac
     a00:	504c415f 	subpl	r4, ip, pc, asr r1
     a04:	4d5f4148 	ldfmie	f4, [pc, #-288]	; 8ec <SCTLR_ENABLE_BRANCH_PREDICTION+0xec>
     a08:	0045444f 	subeq	r4, r5, pc, asr #8
     a0c:	5f495052 	svcpl	0x00495052
     a10:	706f7250 	rsbvc	r7, pc, r0, asr r2	; <UNPREDICTABLE>
     a14:	79747265 	ldmdbvc	r4!, {r0, r2, r5, r6, r9, ip, sp, lr}^
     a18:	74696e49 	strbtvc	r6, [r9], #-3657	; 0xfffff1b7
     a1c:	5f545000 	svcpl	0x00545000
     a20:	5a49534f 	bpl	1255764 <__kernel_end+0x1134764>
     a24:	41540045 	cmpmi	r4, r5, asr #32
     a28:	45545f47 	ldrbmi	r5, [r4, #-3911]	; 0xfffff0b9
     a2c:	505f5453 	subspl	r5, pc, r3, asr r4	; <UNPREDICTABLE>
     a30:	54454c41 	strbpl	r4, [r5], #-3137	; 0xfffff3bf
     a34:	52004554 	andpl	r4, r0, #84, 10	; 0x15000000
     a38:	505f4950 	subspl	r4, pc, r0, asr r9	; <UNPREDICTABLE>
     a3c:	65706f72 	ldrbvs	r6, [r0, #-3954]!	; 0xfffff08e
     a40:	41797472 	cmnmi	r9, r2, ror r4
     a44:	61546464 	cmpvs	r4, r4, ror #8
     a48:	70720067 	rsbsvc	r0, r2, r7, rrx
     a4c:	616d5f69 	cmnvs	sp, r9, ror #30
     a50:	6f626c69 	svcvs	0x00626c69
     a54:	72705f78 	rsbsvc	r5, r0, #120, 30	; 0x1e0
     a58:	7265706f 	rsbvc	r7, r5, #111	; 0x6f
     a5c:	745f7974 	ldrbvc	r7, [pc], #-2420	; a64 <SCTLR_ENABLE_BRANCH_PREDICTION+0x264>
     a60:	5f545000 	svcpl	0x00545000
     a64:	5145524f 	cmppl	r5, pc, asr #4
     a68:	54534555 	ldrbpl	r4, [r3], #-1365	; 0xfffffaab
     a6c:	5f524f5f 	svcpl	0x00524f5f
     a70:	50534552 	subspl	r4, r3, r2, asr r5
     a74:	45534e4f 	ldrbmi	r4, [r3, #-3663]	; 0xfffff1b1
     a78:	47415400 	strbmi	r5, [r1, -r0, lsl #8]
     a7c:	5345545f 	movtpl	r5, #21599	; 0x545f
     a80:	564f5f54 			; <UNDEFINED> instruction: 0x564f5f54
     a84:	43535245 	cmpmi	r3, #1342177284	; 0x50000004
     a88:	54004e41 	strpl	r4, [r0], #-3649	; 0xfffff1bf
     a8c:	475f4741 	ldrbmi	r4, [pc, -r1, asr #14]
     a90:	565f5445 	ldrbpl	r5, [pc], -r5, asr #8
     a94:	55545249 	ldrbpl	r5, [r4, #-585]	; 0xfffffdb7
     a98:	4f5f4c41 	svcmi	0x005f4c41
     a9c:	45534646 	ldrbmi	r4, [r3, #-1606]	; 0xfffff9ba
     aa0:	41540054 	cmpmi	r4, r4, asr r0
     aa4:	45475f47 	strbmi	r5, [r7, #-3911]	; 0xfffff0b9
     aa8:	52415f54 	subpl	r5, r1, #84, 30	; 0x150
     aac:	454d5f4d 	strbmi	r5, [sp, #-3917]	; 0xfffff0b3
     ab0:	59524f4d 	ldmdbpl	r2, {r0, r2, r3, r6, r8, r9, sl, fp, lr}^
     ab4:	47415400 	strbmi	r5, [r1, -r0, lsl #8]
     ab8:	5445475f 	strbpl	r4, [r5], #-1887	; 0xfffff8a1
     abc:	5045445f 	subpl	r4, r5, pc, asr r4
     ac0:	54004854 	strpl	r4, [r0], #-2132	; 0xfffff7ac
     ac4:	475f4741 	ldrbmi	r4, [pc, -r1, asr #14]
     ac8:	565f5445 	ldrbpl	r5, [pc], -r5, asr #8
     acc:	55545249 	ldrbpl	r5, [r4, #-585]	; 0xfffffdb7
     ad0:	535f4c41 	cmppl	pc, #16640	; 0x4100
     ad4:	00455a49 	subeq	r5, r5, r9, asr #20
     ad8:	5f474154 	svcpl	0x00474154
     adc:	454c4552 	strbmi	r4, [ip, #-1362]	; 0xfffffaae
     ae0:	5f455341 	svcpl	0x00455341
     ae4:	4f4d454d 	svcmi	0x004d454d
     ae8:	54005952 	strpl	r5, [r0], #-2386	; 0xfffff6ae
     aec:	535f4741 	cmppl	pc, #17039360	; 0x1040000
     af0:	505f5445 	subspl	r5, pc, r5, asr #8
     af4:	5245574f 	subpl	r5, r5, #20709376	; 0x13c0000
     af8:	4154535f 	cmpmi	r4, pc, asr r3
     afc:	54004554 	strpl	r4, [r0], #-1364	; 0xfffffaac
     b00:	4c5f4741 	mrrcmi	7, 4, r4, pc, cr1	; <UNPREDICTABLE>
     b04:	5f4b434f 	svcpl	0x004b434f
     b08:	4f4d454d 	svcmi	0x004d454d
     b0c:	62005952 	andvs	r5, r0, #1343488	; 0x148000
     b10:	5f657479 	svcpl	0x00657479
     b14:	676e656c 	strbvs	r6, [lr, -ip, ror #10]!
     b18:	54006874 	strpl	r6, [r0], #-2164	; 0xfffff78c
     b1c:	475f4741 	ldrbmi	r4, [pc, -r1, asr #14]
     b20:	415f5445 	cmpmi	pc, r5, asr #8
     b24:	4148504c 	cmpmi	r8, ip, asr #32
     b28:	444f4d5f 	strbmi	r4, [pc], #-3423	; b30 <SCTLR_ENABLE_BRANCH_PREDICTION+0x330>
     b2c:	41540045 	cmpmi	r4, r5, asr #32
     b30:	45475f47 	strbmi	r5, [r7, #-3911]	; 0xfffff0b9
     b34:	49505f54 	ldmdbmi	r0, {r2, r4, r6, r8, r9, sl, fp, ip, lr}^
     b38:	00484354 	subeq	r4, r8, r4, asr r3
     b3c:	5f474154 	svcpl	0x00474154
     b40:	4f4c4c41 	svcmi	0x004c4c41
     b44:	45544143 	ldrbmi	r4, [r4, #-323]	; 0xfffffebd
     b48:	4655425f 			; <UNDEFINED> instruction: 0x4655425f
     b4c:	00524546 	subseq	r4, r2, r6, asr #10
     b50:	6e675f5f 	mcrvs	15, 3, r5, cr7, cr15, {2}
     b54:	765f6375 			; <UNDEFINED> instruction: 0x765f6375
     b58:	696c5f61 	stmdbvs	ip!, {r0, r5, r6, r8, r9, sl, fp, ip, lr}^
     b5c:	54007473 	strpl	r7, [r0], #-1139	; 0xfffffb8d
     b60:	535f4741 	cmppl	pc, #17039360	; 0x1040000
     b64:	505f5445 	subspl	r5, pc, r5, asr #8
     b68:	49535948 	ldmdbmi	r3, {r3, r6, r8, fp, ip, lr}^
     b6c:	5f4c4143 	svcpl	0x004c4143
     b70:	455a4953 	ldrbmi	r4, [sl, #-2387]	; 0xfffff6ad
     b74:	47415400 	strbmi	r5, [r1, -r0, lsl #8]
     b78:	5445475f 	strbpl	r4, [r5], #-1887	; 0xfffff8a1
     b7c:	4c4f565f 	mcrrmi	6, 5, r5, pc, cr15
     b80:	45474154 	strbmi	r4, [r7, #-340]	; 0xfffffeac
     b84:	47415400 	strbmi	r5, [r1, -r0, lsl #8]
     b88:	5445535f 	strbpl	r5, [r5], #-863	; 0xfffffca1
     b8c:	5249565f 	subpl	r5, r9, #99614720	; 0x5f00000
     b90:	4c415554 	cfstr64mi	mvdx5, [r1], {84}	; 0x54
     b94:	5a49535f 	bpl	1255918 <__kernel_end+0x1134918>
     b98:	50520045 	subspl	r0, r2, r5, asr #32
     b9c:	72505f49 	subsvc	r5, r0, #292	; 0x124
     ba0:	7265706f 	rsbvc	r7, r5, #111	; 0x6f
     ba4:	72507974 	subsvc	r7, r0, #116, 18	; 0x1d0000
     ba8:	7365636f 	cmnvc	r5, #-1140850687	; 0xbc000001
     bac:	41540073 	cmpmi	r4, r3, ror r0
     bb0:	58455f47 	stmdapl	r5, {r0, r1, r2, r6, r8, r9, sl, fp, ip, lr}^
     bb4:	54554345 	ldrbpl	r4, [r5], #-837	; 0xfffffcbb
     bb8:	4f435f45 	svcmi	0x00435f45
     bbc:	72004544 	andvc	r4, r0, #68, 10	; 0x11000000
     bc0:	6d5f6970 	ldclvs	9, cr6, [pc, #-448]	; a08 <SCTLR_ENABLE_BRANCH_PREDICTION+0x208>
     bc4:	626c6961 	rsbvs	r6, ip, #1589248	; 0x184000
     bc8:	745f786f 	ldrbvc	r7, [pc], #-2159	; bd0 <SCTLR_ENABLE_BRANCH_PREDICTION+0x3d0>
     bcc:	745f6761 	ldrbvc	r6, [pc], #-1889	; bd4 <SCTLR_ENABLE_BRANCH_PREDICTION+0x3d4>
     bd0:	67617400 	strbvs	r7, [r1, -r0, lsl #8]!
     bd4:	6675625f 			; <UNDEFINED> instruction: 0x6675625f
     bd8:	00726566 	rsbseq	r6, r2, r6, ror #10
     bdc:	494f5f54 	stmdbmi	pc, {r2, r4, r6, r8, r9, sl, fp, ip, lr}^	; <UNPREDICTABLE>
     be0:	544e4544 	strbpl	r4, [lr], #-1348	; 0xfffffabc
     be4:	47415400 	strbmi	r5, [r1, -r0, lsl #8]
     be8:	5445475f 	strbpl	r4, [r5], #-1887	; 0xfffff8a1
     bec:	4d4f435f 	stclmi	3, cr4, [pc, #-380]	; a78 <SCTLR_ENABLE_BRANCH_PREDICTION+0x278>
     bf0:	444e414d 	strbmi	r4, [lr], #-333	; 0xfffffeb3
     bf4:	4e494c5f 	mcrmi	12, 2, r4, cr9, cr15, {2}
     bf8:	41540045 	cmpmi	r4, r5, asr #32
     bfc:	45475f47 	strbmi	r5, [r7, #-3911]	; 0xfffff0b9
     c00:	4f425f54 	svcmi	0x00425f54
     c04:	5f445241 	svcpl	0x00445241
     c08:	45444f4d 	strbmi	r4, [r4, #-3917]	; 0xfffff0b3
     c0c:	4154004c 	cmpmi	r4, ip, asr #32
     c10:	45475f47 	strbmi	r5, [r7, #-3911]	; 0xfffff0b9
     c14:	49465f54 	stmdbmi	r6, {r2, r4, r6, r8, r9, sl, fp, ip, lr}^
     c18:	41574d52 	cmpmi	r7, r2, asr sp
     c1c:	565f4552 			; <UNDEFINED> instruction: 0x565f4552
     c20:	49535245 	ldmdbmi	r3, {r0, r2, r6, r9, ip, lr}^
     c24:	62004e4f 	andvs	r4, r0, #1264	; 0x4f0
     c28:	65666675 	strbvs	r6, [r6, #-1653]!	; 0xfffff98b
     c2c:	32335f72 	eorscc	r5, r3, #456	; 0x1c8
     c30:	47415400 	strbmi	r5, [r1, -r0, lsl #8]
     c34:	5445475f 	strbpl	r4, [r5], #-1887	; 0xfffff8a1
     c38:	58414d5f 	stmdapl	r1, {r0, r1, r2, r3, r4, r6, r8, sl, fp, lr}^
     c3c:	4d45545f 	cfstrdmi	mvd5, [r5, #-380]	; 0xfffffe84
     c40:	41524550 	cmpmi	r2, r0, asr r5
     c44:	45525554 	ldrbmi	r5, [r2, #-1364]	; 0xfffffaac
     c48:	4f5f5400 	svcmi	0x005f5400
     c4c:	554c4156 	strbpl	r4, [ip, #-342]	; 0xfffffeaa
     c50:	49535f45 	ldmdbmi	r3, {r0, r2, r6, r8, r9, sl, fp, ip, lr}^
     c54:	5400455a 	strpl	r4, [r0], #-1370	; 0xfffffaa6
     c58:	535f4741 	cmppl	pc, #17039360	; 0x1040000
     c5c:	505f5445 	subspl	r5, pc, r5, asr #8
     c60:	4c455849 	mcrrmi	8, 4, r5, r5, cr9
     c64:	44524f5f 	ldrbmi	r4, [r2], #-3935	; 0xfffff0a1
     c68:	54005245 	strpl	r5, [r0], #-581	; 0xfffffdbb
     c6c:	415f4741 	cmpmi	pc, r1, asr #14
     c70:	434f4c4c 	movtmi	r4, #64588	; 0xfc4c
     c74:	5f455441 	svcpl	0x00455441
     c78:	4f4d454d 	svcmi	0x004d454d
     c7c:	54005952 	strpl	r5, [r0], #-2386	; 0xfffff6ae
     c80:	475f4741 	ldrbmi	r4, [pc, -r1, asr #14]
     c84:	4d5f5445 	cfldrdmi	mvd5, [pc, #-276]	; b78 <SCTLR_ENABLE_BRANCH_PREDICTION+0x378>
     c88:	565f5841 	ldrbpl	r5, [pc], -r1, asr #16
     c8c:	41544c4f 	cmpmi	r4, pc, asr #24
     c90:	54004547 	strpl	r4, [r0], #-1351	; 0xfffffab9
     c94:	535f4741 	cmppl	pc, #17039360	; 0x1040000
     c98:	435f5445 	cmpmi	pc, #1157627904	; 0x45000000
     c9c:	4b434f4c 	blmi	10d49d4 <__kernel_end+0xfb39d4>
     ca0:	5441525f 	strbpl	r5, [r1], #-607	; 0xfffffda1
     ca4:	41540045 	cmpmi	r4, r5, asr #32
     ca8:	45475f47 	strbmi	r5, [r7, #-3911]	; 0xfffff0b9
     cac:	4c435f54 	mcrrmi	15, 5, r5, r3, cr4
     cb0:	5f4b434f 	svcpl	0x004b434f
     cb4:	54415453 	strbpl	r5, [r1], #-1107	; 0xfffffbad
     cb8:	41540045 	cmpmi	r4, r5, asr #32
     cbc:	45535f47 	ldrbmi	r5, [r3, #-3911]	; 0xfffff0b9
     cc0:	55545f54 	ldrbpl	r5, [r4, #-3924]	; 0xfffff0ac
     cc4:	004f4252 	subeq	r4, pc, r2, asr r2	; <UNPREDICTABLE>
     cc8:	564f5f54 			; <UNDEFINED> instruction: 0x564f5f54
     ccc:	45554c41 	ldrbmi	r4, [r5, #-3137]	; 0xfffff3bf
     cd0:	47415400 	strbmi	r5, [r1, -r0, lsl #8]
     cd4:	5445535f 	strbpl	r5, [r5], #-863	; 0xfffffca1
     cd8:	4c41505f 	mcrrmi	0, 5, r5, r1, cr15
     cdc:	45545445 	ldrbmi	r5, [r4, #-1093]	; 0xfffffbbb
     ce0:	47415400 	strbmi	r5, [r1, -r0, lsl #8]
     ce4:	5445535f 	strbpl	r5, [r5], #-863	; 0xfffffca1
     ce8:	504c415f 	subpl	r4, ip, pc, asr r1
     cec:	4d5f4148 	ldfmie	f4, [pc, #-288]	; bd4 <SCTLR_ENABLE_BRANCH_PREDICTION+0x3d4>
     cf0:	0045444f 	subeq	r4, r5, pc, asr #8
     cf4:	5f474154 	svcpl	0x00474154
     cf8:	5f544553 	svcpl	0x00544553
     cfc:	53525543 	cmppl	r2, #281018368	; 0x10c00000
     d00:	535f524f 	cmppl	pc, #-268435452	; 0xf0000004
     d04:	45544154 	ldrbmi	r4, [r4, #-340]	; 0xfffffeac
     d08:	47415400 	strbmi	r5, [r1, -r0, lsl #8]
     d0c:	5445475f 	strbpl	r4, [r5], #-1887	; 0xfffff8a1
     d10:	4e494d5f 	mcrmi	13, 2, r4, cr9, cr15, {2}
     d14:	4c4f565f 	mcrrmi	6, 5, r5, pc, cr15
     d18:	45474154 	strbmi	r4, [r7, #-340]	; 0xfffffeac
     d1c:	47415400 	strbmi	r5, [r1, -r0, lsl #8]
     d20:	5445475f 	strbpl	r4, [r5], #-1887	; 0xfffff8a1
     d24:	4f4c435f 	svcmi	0x004c435f
     d28:	00534b43 	subseq	r4, r3, r3, asr #22
     d2c:	5f474154 	svcpl	0x00474154
     d30:	5f544553 	svcpl	0x00544553
     d34:	5245564f 	subpl	r5, r5, #82837504	; 0x4f00000
     d38:	4e414353 	mcrmi	3, 2, r4, cr1, cr3, {2}
     d3c:	6d656d00 	stclvs	13, cr6, [r5, #-0]
     d40:	00797063 	rsbseq	r7, r9, r3, rrx
     d44:	70615f5f 	rsbvc	r5, r1, pc, asr pc
     d48:	6c617600 	stclvs	6, cr7, [r1], #-0
     d4c:	335f6575 	cmpcc	pc, #490733568	; 0x1d400000
     d50:	41540032 	cmpmi	r4, r2, lsr r0
     d54:	45545f47 	ldrbmi	r5, [r4, #-3911]	; 0xfffff0b9
     d58:	565f5453 			; <UNDEFINED> instruction: 0x565f5453
     d5c:	55545249 	ldrbpl	r5, [r4, #-585]	; 0xfffffdb7
     d60:	535f4c41 	cmppl	pc, #16640	; 0x4100
     d64:	00455a49 	subeq	r5, r5, r9, asr #20
     d68:	5f495052 	svcpl	0x00495052
     d6c:	706f7250 	rsbvc	r7, pc, r0, asr r2	; <UNPREDICTABLE>
     d70:	79747265 	ldmdbvc	r4!, {r0, r2, r5, r6, r9, ip, sp, lr}^
     d74:	00746547 	rsbseq	r6, r4, r7, asr #10
     d78:	5f474154 	svcpl	0x00474154
     d7c:	54534554 	ldrbpl	r4, [r3], #-1364	; 0xfffffaac
     d80:	5045445f 	subpl	r4, r5, pc, asr r4
     d84:	54004854 	strpl	r4, [r0], #-2132	; 0xfffff7ac
     d88:	475f4741 	ldrbmi	r4, [pc, -r1, asr #14]
     d8c:	445f5445 	ldrbmi	r5, [pc], #-1093	; d94 <SCTLR_ENABLE_BRANCH_PREDICTION+0x594>
     d90:	4d505349 	ldclmi	3, cr5, [r0, #-292]	; 0xfffffedc
     d94:	5f584e41 	svcpl	0x00584e41
     d98:	5f4d454d 	svcpl	0x004d454d
     d9c:	444e4148 	strbmi	r4, [lr], #-328	; 0xfffffeb8
     da0:	7000454c 	andvc	r4, r0, ip, asr #10
     da4:	6e695f74 	mcrvs	15, 3, r5, cr9, cr4, {3}
     da8:	00786564 	rsbseq	r6, r8, r4, ror #10
     dac:	68637261 	stmdavs	r3!, {r0, r5, r6, r9, ip, sp, lr}^
     db0:	6d72612f 	ldfvse	f6, [r2, #-188]!	; 0xffffff44
     db4:	6970722f 	ldmdbvs	r0!, {r0, r1, r2, r3, r5, r9, ip, sp, lr}^
     db8:	69616d2d 	stmdbvs	r1!, {r0, r2, r3, r5, r8, sl, fp, sp, lr}^
     dbc:	786f626c 	stmdavc	pc!, {r2, r3, r5, r6, r9, sp, lr}^	; <UNPREDICTABLE>
     dc0:	746e692d 	strbtvc	r6, [lr], #-2349	; 0xfffff6d3
     dc4:	61667265 	cmnvs	r6, r5, ror #4
     dc8:	632e6563 			; <UNDEFINED> instruction: 0x632e6563
     dcc:	47415400 	strbmi	r5, [r1, -r0, lsl #8]
     dd0:	4c4e555f 	cfstr64mi	mvdx5, [lr], {95}	; 0x5f
     dd4:	5f4b434f 	svcpl	0x004b434f
     dd8:	4f4d454d 	svcmi	0x004d454d
     ddc:	54005952 	strpl	r5, [r0], #-2386	; 0xfffff6ae
     de0:	475f4741 	ldrbmi	r4, [pc, -r1, asr #14]
     de4:	425f5445 	subsmi	r5, pc, #1157627904	; 0x45000000
     de8:	4452414f 	ldrbmi	r4, [r2], #-335	; 0xfffffeb1
     dec:	43414d5f 	movtmi	r4, #7519	; 0x1d5f
     df0:	4444415f 	strbmi	r4, [r4], #-351	; 0xfffffea1
     df4:	53534552 	cmppl	r3, #343932928	; 0x14800000
     df8:	47415400 	strbmi	r5, [r1, -r0, lsl #8]
     dfc:	5445475f 	strbpl	r4, [r5], #-1887	; 0xfffff8a1
     e00:	5255545f 	subspl	r5, r5, #1593835520	; 0x5f000000
     e04:	54004f42 	strpl	r4, [r0], #-3906	; 0xfffff0be
     e08:	475f4741 	ldrbmi	r4, [pc, -r1, asr #14]
     e0c:	445f5445 	ldrbmi	r5, [pc], #-1093	; e14 <SCTLR_ENABLE_BRANCH_PREDICTION+0x614>
     e10:	435f414d 	cmpmi	pc, #1073741843	; 0x40000013
     e14:	4e4e4148 	dvfmiem	f4, f6, #0.0
     e18:	00534c45 	subseq	r4, r3, r5, asr #24
     e1c:	524f5f54 	subpl	r5, pc, #84, 30	; 0x150
     e20:	4f505345 	svcmi	0x00505345
     e24:	0045534e 	subeq	r5, r5, lr, asr #6
     e28:	5f474154 	svcpl	0x00474154
     e2c:	54534554 	ldrbpl	r4, [r3], #-1364	; 0xfffffaac
     e30:	5948505f 	stmdbpl	r8, {r0, r1, r2, r3, r4, r6, ip, lr}^
     e34:	41434953 	cmpmi	r3, r3, asr r9
     e38:	49535f4c 	ldmdbmi	r3, {r2, r3, r6, r8, r9, sl, fp, ip, lr}^
     e3c:	5400455a 	strpl	r4, [r0], #-1370	; 0xfffffaa6
     e40:	475f4741 	ldrbmi	r4, [pc, -r1, asr #14]
     e44:	505f5445 	subspl	r5, pc, r5, asr #8
     e48:	5245574f 	subpl	r5, r5, #20709376	; 0x13c0000
     e4c:	4154535f 	cmpmi	r4, pc, asr r3
     e50:	72004554 	andvc	r4, r0, #84, 10	; 0x15000000
     e54:	6c757365 	ldclvs	3, cr7, [r5], #-404	; 0xfffffe6c
     e58:	41540074 	cmpmi	r4, r4, ror r0
     e5c:	45475f47 	strbmi	r5, [r7, #-3911]	; 0xfffff0b9
     e60:	49545f54 	ldmdbmi	r4, {r2, r4, r6, r8, r9, sl, fp, ip, lr}^
     e64:	474e494d 	strbmi	r4, [lr, -sp, asr #18]
     e68:	6d697400 	cfstrdvs	mvd7, [r9, #-0]
     e6c:	00307265 	eorseq	r7, r0, r5, ror #4
     e70:	656d6974 	strbvs	r6, [sp, #-2420]!	; 0xfffff68c
     e74:	74003172 	strvc	r3, [r0], #-370	; 0xfffffe8e
     e78:	72656d69 	rsbvc	r6, r5, #6720	; 0x1a40
     e7c:	69740032 	ldmdbvs	r4!, {r1, r4, r5}^
     e80:	3372656d 	cmncc	r2, #457179136	; 0x1b400000
     e84:	6d697400 	cfstrdvs	mvd7, [r9, #-0]
     e88:	695f7265 	ldmdbvs	pc, {r0, r2, r5, r6, r9, ip, sp, lr}^	; <UNPREDICTABLE>
     e8c:	635f7172 	cmpvs	pc, #-2147483620	; 0x8000001c
     e90:	7261656c 	rsbvc	r6, r1, #108, 10	; 0x1b000000
     e94:	74007265 	strvc	r7, [r0], #-613	; 0xfffffd9b
     e98:	72656d69 	rsbvc	r6, r5, #6720	; 0x1a40
     e9c:	616d5f30 	cmnvs	sp, r0, lsr pc
     ea0:	65686374 	strbvs	r6, [r8, #-884]!	; 0xfffffc8c
     ea4:	69740064 	ldmdbvs	r4!, {r2, r5, r6}^
     ea8:	5f72656d 	svcpl	0x0072656d
     eac:	00746573 	rsbseq	r6, r4, r3, ror r5
     eb0:	6c656475 	cfstrdvs	mvd6, [r5], #-468	; 0xfffffe2c
     eb4:	74007961 	strvc	r7, [r0], #-2401	; 0xfffff69f
     eb8:	72656d69 	rsbvc	r6, r5, #6720	; 0x1a40
     ebc:	6765725f 			; <UNDEFINED> instruction: 0x6765725f
     ec0:	6f630073 	svcvs	0x00630073
     ec4:	65746e75 	ldrbvs	r6, [r4, #-3701]!	; 0xfffff18b
     ec8:	69685f72 	stmdbvs	r8!, {r1, r4, r5, r6, r8, r9, sl, fp, ip, lr}^
     ecc:	74006867 	strvc	r6, [r0], #-2151	; 0xfffff799
     ed0:	72656d69 	rsbvc	r6, r5, #6720	; 0x1a40
     ed4:	7172695f 	cmnvc	r2, pc, asr r9
     ed8:	6e61685f 	mcrvs	8, 3, r6, cr1, cr15, {2}
     edc:	72656c64 	rsbvc	r6, r5, #100, 24	; 0x6400
     ee0:	65737500 	ldrbvs	r7, [r3, #-1280]!	; 0xfffffb00
     ee4:	74007363 	strvc	r7, [r0], #-867	; 0xfffffc9d
     ee8:	72656d69 	rsbvc	r6, r5, #6720	; 0x1a40
     eec:	616d5f32 	cmnvs	sp, r2, lsr pc
     ef0:	65686374 	strbvs	r6, [r8, #-884]!	; 0xfffffc8c
     ef4:	69740064 	ldmdbvs	r4!, {r2, r5, r6}^
     ef8:	3372656d 	cmncc	r2, #457179136	; 0x1b400000
     efc:	74616d5f 	strbtvc	r6, [r1], #-3423	; 0xfffff2a1
     f00:	64656863 	strbtvs	r6, [r5], #-2147	; 0xfffff79d
     f04:	756f6300 	strbvc	r6, [pc, #-768]!	; c0c <SCTLR_ENABLE_BRANCH_PREDICTION+0x40c>
     f08:	7265746e 	rsbvc	r7, r5, #1845493760	; 0x6e000000
     f0c:	776f6c5f 			; <UNDEFINED> instruction: 0x776f6c5f
     f10:	63726100 	cmnvs	r2, #0, 2
     f14:	72612f68 	rsbvc	r2, r1, #104, 30	; 0x1a0
     f18:	79732f6d 	ldmdbvc	r3!, {r0, r2, r3, r5, r6, r8, r9, sl, fp, sp}^
     f1c:	6d697473 	cfstrdvs	mvd7, [r9, #-460]!	; 0xfffffe34
     f20:	632e7265 			; <UNDEFINED> instruction: 0x632e7265
     f24:	72756300 	rsbsvc	r6, r5, #0, 6
     f28:	69740072 	ldmdbvs	r4!, {r1, r4, r5, r6}^
     f2c:	5f72656d 	svcpl	0x0072656d
     f30:	69676572 	stmdbvs	r7!, {r1, r4, r5, r6, r8, sl, sp, lr}^
     f34:	72657473 	rsbvc	r7, r5, #1929379840	; 0x73000000
     f38:	00745f73 	rsbseq	r5, r4, r3, ror pc
     f3c:	656d6974 	strbvs	r6, [sp, #-2420]!	; 0xfffff68c
     f40:	6f635f72 	svcvs	0x00635f72
     f44:	6f72746e 	svcvs	0x0072746e
     f48:	65725f6c 	ldrbvs	r5, [r2, #-3948]!	; 0xfffff094
     f4c:	00745f67 	rsbseq	r5, r4, r7, ror #30
     f50:	65736572 	ldrbvs	r6, [r3, #-1394]!	; 0xfffffa8e
     f54:	64657672 	strbtvs	r7, [r5], #-1650	; 0xfffff98e
     f58:	6d697400 	cfstrdvs	mvd7, [r9, #-0]
     f5c:	5f317265 	svcpl	0x00317265
     f60:	6374616d 	cmnvs	r4, #1073741851	; 0x4000001b
     f64:	00646568 	rsbeq	r6, r4, r8, ror #10
     f68:	6e697270 	mcrvs	2, 3, r7, cr9, cr0, {3}
     f6c:	5f006674 	svcpl	0x00006674
     f70:	72656b5f 	rsbvc	r6, r5, #97280	; 0x17c00
     f74:	5f6c656e 	svcpl	0x006c656e
     f78:	00646e65 	rsbeq	r6, r4, r5, ror #28
     f7c:	5f746567 	svcpl	0x00746567
     f80:	5f6d756e 	svcpl	0x006d756e
     f84:	665f666f 	ldrbvs	r6, [pc], -pc, ror #12
     f88:	5f656572 	svcpl	0x00656572
     f8c:	65676170 	strbvs	r6, [r7, #-368]!	; 0xfffffe90
     f90:	61700073 	cmnvs	r0, r3, ror r0
     f94:	696c6567 	stmdbvs	ip!, {r0, r1, r2, r5, r6, r8, sl, sp, lr}^
     f98:	61007473 	tstvs	r0, r3, ror r4
     f9c:	636f6c6c 	cmnvs	pc, #108, 24	; 0x6c00
     fa0:	6761705f 			; <UNDEFINED> instruction: 0x6761705f
     fa4:	656b0065 	strbvs	r0, [fp, #-101]!	; 0xffffff9b
     fa8:	6c656e72 	stclvs	14, cr6, [r5], #-456	; 0xfffffe38
     fac:	6761705f 			; <UNDEFINED> instruction: 0x6761705f
     fb0:	70007365 	andvc	r7, r0, r5, ror #6
     fb4:	5f656761 	svcpl	0x00656761
     fb8:	61727261 	cmnvs	r2, r1, ror #4
     fbc:	656c5f79 	strbvs	r5, [ip, #-3961]!	; 0xfffff087
     fc0:	7261006e 	rsbvc	r0, r1, #110	; 0x6e
     fc4:	612f6863 			; <UNDEFINED> instruction: 0x612f6863
     fc8:	702f6d72 	eorvc	r6, pc, r2, ror sp	; <UNPREDICTABLE>
     fcc:	6d737968 	ldclvs	9, cr7, [r3, #-416]!	; 0xfffffe60
     fd0:	632e6d65 			; <UNDEFINED> instruction: 0x632e6d65
     fd4:	65657000 	strbvs	r7, [r5, #-0]!
     fd8:	61705f6b 	cmnvs	r0, fp, ror #30
     fdc:	6c5f6567 	cfldr64vs	mvdx6, [pc], {103}	; 0x67
     fe0:	00747369 	rsbseq	r7, r4, r9, ror #6
     fe4:	5f746567 	svcpl	0x00746567
     fe8:	5f6d656d 	svcpl	0x006d656d
     fec:	657a6973 	ldrbvs	r6, [sl, #-2419]!	; 0xfffff68d
     ff0:	67617000 	strbvs	r7, [r1, -r0]!
     ff4:	6c665f65 	stclvs	15, cr5, [r6], #-404	; 0xfffffe6c
     ff8:	5f736761 	svcpl	0x00736761
     ffc:	61700074 	cmnvs	r0, r4, ror r0
    1000:	745f6567 	ldrbvc	r6, [pc], #-1383	; 1008 <SCTLR_ENABLE_INSTRUCTION_CACHE+0x8>
    1004:	78656e00 	stmdavc	r5!, {r9, sl, fp, sp, lr}^
    1008:	67617074 			; <UNDEFINED> instruction: 0x67617074
    100c:	72660065 	rsbvc	r0, r6, #101	; 0x65
    1010:	705f6565 	subsvc	r6, pc, r5, ror #10
    1014:	00656761 	rsbeq	r6, r5, r1, ror #14
    1018:	6c696174 	stfvse	f6, [r9], #-464	; 0xfffffe30
    101c:	78656e00 	stmdavc	r5!, {r9, sl, fp, sp, lr}^
    1020:	61705f74 	cmnvs	r0, r4, ror pc
    1024:	6c5f6567 	cfldr64vs	mvdx6, [pc], {103}	; 0x67
    1028:	00747369 	rsbseq	r7, r4, r9, ror #6
    102c:	65646f6e 	strbvs	r6, [r4, #-3950]!	; 0xfffff092
    1030:	72656b00 	rsbvc	r6, r5, #0, 22
    1034:	5f6c656e 	svcpl	0x006c656e
    1038:	65676170 	strbvs	r6, [r7, #-368]!	; 0xfffffe90
    103c:	73757000 	cmnvc	r5, #0
    1040:	61705f68 	cmnvs	r0, r8, ror #30
    1044:	6c5f6567 	cfldr64vs	mvdx6, [pc], {103}	; 0x67
    1048:	00747369 	rsbseq	r7, r4, r9, ror #6
    104c:	5f6d656d 	svcpl	0x006d656d
    1050:	74696e69 	strbtvc	r6, [r9], #-3689	; 0xfffff197
    1054:	706f7000 	rsbvc	r7, pc, r0
    1058:	6761705f 			; <UNDEFINED> instruction: 0x6761705f
    105c:	696c5f65 	stmdbvs	ip!, {r0, r2, r5, r6, r8, r9, sl, fp, ip, lr}^
    1060:	68007473 	stmdavs	r0, {r0, r1, r4, r5, r6, sl, ip, sp, lr}
    1064:	00646165 	rsbeq	r6, r4, r5, ror #2
    1068:	65676170 	strbvs	r6, [r7, #-368]!	; 0xfffffe90
    106c:	73696c5f 	cmnvc	r9, #24320	; 0x5f00
    1070:	00745f74 	rsbseq	r5, r4, r4, ror pc
    1074:	5f6d756e 	svcpl	0x006d756e
    1078:	65676170 	strbvs	r6, [r7, #-368]!	; 0xfffffe90
    107c:	72610073 	rsbvc	r0, r1, #115	; 0x73
    1080:	656d5f6d 	strbvs	r5, [sp, #-3949]!	; 0xfffff093
    1084:	69735f6d 	ldmdbvs	r3!, {r0, r2, r3, r5, r6, r8, r9, sl, fp, ip, lr}^
    1088:	7600657a 			; <UNDEFINED> instruction: 0x7600657a
    108c:	72646461 	rsbvc	r6, r4, #1627389952	; 0x61000000
    1090:	70616d5f 	rsbvc	r6, r1, pc, asr sp
    1094:	00646570 	rsbeq	r6, r4, r0, ror r5
    1098:	6f6c6c61 	svcvs	0x006c6c61
    109c:	65746163 	ldrbvs	r6, [r4, #-355]!	; 0xfffffe9d
    10a0:	69730064 	ldmdbvs	r3!, {r2, r5, r6}^
    10a4:	705f657a 	subsvc	r6, pc, sl, ror r5	; <UNPREDICTABLE>
    10a8:	5f656761 	svcpl	0x00656761
    10ac:	7473696c 	ldrbtvc	r6, [r3], #-2412	; 0xfffff694
    10b0:	70706100 	rsbsvc	r6, r0, r0, lsl #2
    10b4:	5f646e65 	svcpl	0x00646e65
    10b8:	65676170 	strbvs	r6, [r7, #-368]!	; 0xfffffe90
    10bc:	73696c5f 	cmnvc	r9, #24320	; 0x5f00
    10c0:	61700074 	cmnvs	r0, r4, ror r0
    10c4:	6d5f6567 	cfldr64vs	mvdx6, [pc, #-412]	; f30 <SCTLR_ENABLE_BRANCH_PREDICTION+0x730>
    10c8:	66006d65 	strvs	r6, [r0], -r5, ror #26
    10cc:	7367616c 	cmnvc	r7, #108, 2
    10d0:	65727000 	ldrbvs	r7, [r2, #-0]!
    10d4:	67617076 			; <UNDEFINED> instruction: 0x67617076
    10d8:	6c610065 	stclvs	0, cr0, [r1], #-404	; 0xfffffe6c
    10dc:	61705f6c 	cmnvs	r0, ip, ror #30
    10e0:	5f736567 	svcpl	0x00736567
    10e4:	61727261 	cmnvs	r2, r1, ror #4
    10e8:	74730079 	ldrbtvc	r0, [r3], #-121	; 0xffffff87
    10ec:	5f747261 	svcpl	0x00747261
    10f0:	00756d6d 	rsbseq	r6, r5, sp, ror #26
    10f4:	74696e69 	strbtvc	r6, [r9], #-3689	; 0xfffff197
    10f8:	696c6169 	stmdbvs	ip!, {r0, r3, r5, r6, r8, sp, lr}^
    10fc:	765f657a 			; <UNDEFINED> instruction: 0x765f657a
    1100:	75747269 	ldrbvc	r7, [r4, #-617]!	; 0xfffffd97
    1104:	6d5f6c61 	ldclvs	12, cr6, [pc, #-388]	; f88 <SCTLR_ENABLE_BRANCH_PREDICTION+0x788>
    1108:	726f6d65 	rsbvc	r6, pc, #6464	; 0x1940
    110c:	61740079 	cmnvs	r4, r9, ror r0
    1110:	31656c62 	cmncc	r5, r2, ror #24
    1114:	72746e45 	rsbsvc	r6, r4, #1104	; 0x450
    1118:	66664f79 	uqsub16vs	r4, r6, r9
    111c:	00746573 	rsbseq	r6, r4, r3, ror r5
    1120:	6c626174 	stfvse	f6, [r2], #-464	; 0xfffffe30
    1124:	746e4565 	strbtvc	r4, [lr], #-1381	; 0xfffffa9b
    1128:	61007972 	tstvs	r0, r2, ror r9
    112c:	2f686372 	svccs	0x00686372
    1130:	2f6d7261 	svccs	0x006d7261
    1134:	74726976 	ldrbtvc	r6, [r2], #-2422	; 0xfffff68a
    1138:	2e6d656d 	cdpcs	5, 6, cr6, cr13, cr13, {3}
    113c:	55500063 	ldrbpl	r0, [r0, #-99]	; 0xffffff9d
    1140:	00323354 	eorseq	r3, r2, r4, asr r3
    1144:	6c626174 	stfvse	f6, [r2], #-464	; 0xfffffe30
    1148:	6e453165 	dvfvssz	f3, f5, f5
    114c:	41797274 	cmnmi	r9, r4, ror r2
    1150:	65726464 	ldrbvs	r6, [r2, #-1124]!	; 0xfffffb9c
    1154:	6d007373 	stcvs	3, cr7, [r0, #-460]	; 0xfffffe34
    1158:	735f756d 	cmpvc	pc, #457179136	; 0x1b400000
    115c:	69746365 	ldmdbvs	r4!, {r0, r2, r5, r6, r8, r9, sp, lr}^
    1160:	76006e6f 	strvc	r6, [r0], -pc, ror #28
    1164:	00646461 	rsbeq	r6, r4, r1, ror #8
    1168:	54554d4d 	ldrbpl	r4, [r5], #-3405	; 0xfffff2b3
    116c:	454c4241 	strbmi	r4, [ip, #-577]	; 0xfffffdbf
    1170:	45534142 	ldrbmi	r4, [r3, #-322]	; 0xfffffebe
    1174:	665f5f00 	ldrbvs	r5, [pc], -r0, lsl #30
    1178:	74737269 	ldrbtvc	r7, [r3], #-617	; 0xfffffd97
    117c:	6c766c5f 	ldclvs	12, cr6, [r6], #-380	; 0xfffffe84
    1180:	6c62745f 	cfstrdvs	mvd7, [r2], #-380	; 0xfffffe84
    1184:	7361625f 	cmnvc	r1, #-268435451	; 0xf0000005
    1188:	61700065 	cmnvs	r0, r5, rrx
    118c:	61006464 	tstvs	r0, r4, ror #8
    1190:	73676174 	cmnvc	r7, #116, 2
    1194:	72656b00 	rsbvc	r6, r5, #0, 22
    1198:	2f6c656e 	svccs	0x006c656e
    119c:	6e72656b 	cdpvs	5, 7, cr6, cr2, cr11, {3}
    11a0:	632e6c65 			; <UNDEFINED> instruction: 0x632e6c65
    11a4:	554e4700 	strbpl	r4, [lr, #-1792]	; 0xfffff900
    11a8:	31314320 	teqcc	r1, r0, lsr #6
    11ac:	342e3520 	strtcc	r3, [lr], #-1312	; 0xfffffae0
    11b0:	3220312e 	eorcc	r3, r0, #-2147483637	; 0x8000000b
    11b4:	30363130 	eorscc	r3, r6, r0, lsr r1
    11b8:	20393139 	eorscs	r3, r9, r9, lsr r1
    11bc:	6c657228 	sfmvs	f7, 2, [r5], #-160	; 0xffffff60
    11c0:	65736165 	ldrbvs	r6, [r3, #-357]!	; 0xfffffe9b
    11c4:	415b2029 	cmpmi	fp, r9, lsr #32
    11c8:	652f4d52 	strvs	r4, [pc, #-3410]!	; 47e <ARM_I_BIT+0x3fe>
    11cc:	6465626d 	strbtvs	r6, [r5], #-621	; 0xfffffd93
    11d0:	2d646564 	cfstr64cs	mvdx6, [r4, #-400]!	; 0xfffffe70
    11d4:	72622d35 	rsbvc	r2, r2, #3392	; 0xd40
    11d8:	68636e61 	stmdavs	r3!, {r0, r5, r6, r9, sl, fp, sp, lr}^
    11dc:	76657220 	strbtvc	r7, [r5], -r0, lsr #4
    11e0:	6f697369 	svcvs	0x00697369
    11e4:	3432206e 	ldrtcc	r2, [r2], #-110	; 0xffffff92
    11e8:	36393430 			; <UNDEFINED> instruction: 0x36393430
    11ec:	672d205d 			; <UNDEFINED> instruction: 0x672d205d
    11f0:	324f2d20 	subcc	r2, pc, #32, 26	; 0x800
    11f4:	74732d20 	ldrbtvc	r2, [r3], #-3360	; 0xfffff2e0
    11f8:	6e673d64 	cdpvs	13, 6, cr3, cr7, cr4, {3}
    11fc:	20313175 	eorscs	r3, r1, r5, ror r1
    1200:	7266662d 	rsbvc	r6, r6, #47185920	; 0x2d00000
    1204:	74736565 	ldrbtvc	r6, [r3], #-1381	; 0xfffffa9b
    1208:	69646e61 	stmdbvs	r4!, {r0, r5, r6, r9, sl, fp, sp, lr}^
    120c:	6400676e 	strvs	r6, [r0], #-1902	; 0xfffff892
    1210:	74707473 	ldrbtvc	r7, [r0], #-1139	; 0xfffffb8d
    1214:	72730072 	rsbsvc	r0, r3, #114	; 0x72
    1218:	72747063 	rsbsvc	r7, r4, #99	; 0x63
    121c:	73552f00 	cmpvc	r5, #0, 30
    1220:	2f737265 	svccs	0x00737265
    1224:	6b617270 	blvs	185dbec <__kernel_end+0x173cbec>
    1228:	62687361 	rsbvs	r7, r8, #-2080374783	; 0x84000001
    122c:	616b726f 	cmnvs	fp, pc, ror #4
    1230:	65442f72 	strbvs	r2, [r4, #-3954]	; 0xfffff08e
    1234:	6f746b73 	svcvs	0x00746b73
    1238:	65522f70 	ldrbvs	r2, [r2, #-3952]	; 0xfffff090
    123c:	65746f6d 	ldrbvs	r6, [r4, #-3949]!	; 0xfffff093
    1240:	7065525f 	rsbvc	r5, r5, pc, asr r2
    1244:	70722f6f 	rsbsvc	r2, r2, pc, ror #30
    1248:	736f2d69 	cmnvc	pc, #6720	; 0x1a40
    124c:	7261752d 	rsbvc	r7, r1, #188743680	; 0xb400000
    1250:	70722f74 	rsbsvc	r2, r2, r4, ror pc
    1254:	2d623369 	stclcs	3, cr3, [r2, #-420]!	; 0xfffffe5c
    1258:	7461656d 	strbtvc	r6, [r1], #-1389	; 0xfffffa93
    125c:	6b732d79 	blvs	1ccc848 <__kernel_end+0x1bab848>
    1260:	74656c65 	strbtvc	r6, [r5], #-3173	; 0xfffff39b
    1264:	6c2f6e6f 	stcvs	14, cr6, [pc], #-444	; 10b0 <SCTLR_ENABLE_INSTRUCTION_CACHE+0xb0>
    1268:	00636269 	rsbeq	r6, r3, r9, ror #4
    126c:	69727473 	ldmdbvs	r2!, {r0, r1, r4, r5, r6, sl, ip, sp, lr}^
    1270:	6d2f676e 	stcvs	7, cr6, [pc, #-440]!	; 10c0 <SCTLR_ENABLE_INSTRUCTION_CACHE+0xc0>
    1274:	70636d65 	rsbvc	r6, r3, r5, ror #26
    1278:	00632e79 	rsbeq	r2, r3, r9, ror lr
    127c:	69647473 	stmdbvs	r4!, {r0, r1, r4, r5, r6, sl, ip, sp, lr}^
    1280:	72702f6f 	rsbsvc	r2, r0, #444	; 0x1bc
    1284:	66746e69 	ldrbtvs	r6, [r4], -r9, ror #28
    1288:	6600632e 	strvs	r6, [r0], -lr, lsr #6
    128c:	63747570 	cmnvs	r4, #112, 10	; 0x1c000000
    1290:	726f6600 	rsbvc	r6, pc, #0, 12
    1294:	0074616d 	rsbseq	r6, r4, sp, ror #2
    1298:	706f645f 	rsbvc	r6, pc, pc, asr r4	; <UNPREDICTABLE>
    129c:	00746e72 	rsbseq	r6, r4, r2, ror lr
    12a0:	5f646170 	svcpl	0x00646170
    12a4:	72616863 	rsbvc	r6, r1, #6488064	; 0x630000
    12a8:	69687300 	stmdbvs	r8!, {r8, r9, ip, sp, lr}^
    12ac:	75007466 	strvc	r7, [r0, #-1126]	; 0xfffffb9a
    12b0:	6772616c 	ldrbvs	r6, [r2, -ip, ror #2]!
    12b4:	74696c00 	strbtvc	r6, [r9], #-3072	; 0xfffff400
    12b8:	6c617265 	sfmvs	f7, 2, [r1], #-404	; 0xfffffe6c
    12bc:	67696400 	strbvs	r6, [r9, -r0, lsl #8]!
    12c0:	5f737469 	svcpl	0x00737469
    12c4:	70006375 	andvc	r6, r0, r5, ror r3
    12c8:	5f637475 	svcpl	0x00637475
    12cc:	00677261 	rsbeq	r7, r7, r1, ror #4
    12d0:	6e696d66 	cdpvs	13, 6, cr6, cr9, cr6, {3}
    12d4:	66656c00 	strbtvs	r6, [r5], -r0, lsl #24
    12d8:	73756a74 	cmnvc	r5, #116, 20	; 0x74000
    12dc:	74730074 	ldrbtvc	r0, [r3], #-116	; 0xffffff8c
    12e0:	6e656c72 	mcrvs	12, 3, r6, cr5, cr2, {3}
    12e4:	6d756e00 	ldclvs	14, cr6, [r5, #-0]
    12e8:	72657a5f 	rsbvc	r7, r5, #389120	; 0x5f000
    12ec:	0073656f 	rsbseq	r6, r3, pc, ror #10
    12f0:	524f4853 	subpl	r4, pc, #5439488	; 0x530000
    12f4:	48535f54 	ldmdami	r3, {r2, r4, r6, r8, r9, sl, fp, ip, lr}^
    12f8:	5f54524f 	svcpl	0x0054524f
    12fc:	455a4953 	ldrbmi	r4, [sl, #-2387]	; 0xfffff6ad
    1300:	73616200 	cmnvc	r1, #0, 4
    1304:	6f745f65 	svcvs	0x00745f65
    1308:	69626e5f 	stmdbvs	r2!, {r0, r1, r2, r3, r4, r6, r9, sl, fp, sp, lr}^
    130c:	74007374 	strvc	r7, [r0], #-884	; 0xfffffc8c
    1310:	00706d65 	rsbseq	r6, r0, r5, ror #26
    1314:	69676964 	stmdbvs	r7!, {r2, r5, r6, r8, fp, sp, lr}^
    1318:	6c5f7374 	mrrcvs	3, 7, r7, pc, cr4	; <UNPREDICTABLE>
    131c:	6c750063 	ldclvs	0, cr0, [r5], #-396	; 0xfffffe74
    1320:	5f676e6f 	svcpl	0x00676e6f
    1324:	735f6f74 	cmpvc	pc, #116, 30	; 0x1d0
    1328:	6e697274 	mcrvs	2, 3, r7, cr9, cr4, {3}
    132c:	6e690067 	cdpvs	0, 6, cr0, cr9, cr7, {3}
    1330:	65676574 	strbvs	r6, [r7, #-1396]!	; 0xfffffa8c
    1334:	69735f72 	ldmdbvs	r3!, {r1, r4, r5, r6, r8, r9, sl, fp, ip, lr}^
    1338:	6600657a 			; <UNDEFINED> instruction: 0x6600657a
    133c:	7367616c 	cmnvc	r7, #108, 2
    1340:	6163735f 	cmnvs	r3, pc, asr r3
    1344:	64656e6e 	strbtvs	r6, [r5], #-3694	; 0xfffff192
    1348:	6e656c00 	cdpvs	12, 6, cr6, cr5, cr0, {0}
    134c:	7274735f 	rsbsvc	r7, r4, #2080374785	; 0x7c000001
    1350:	6e656c00 	cdpvs	12, 6, cr6, cr5, cr0, {0}
    1354:	6e6f6e5f 	mcrvs	14, 3, r6, cr15, cr15, {2}
    1358:	64646170 	strbtvs	r6, [r4], #-368	; 0xfffffe90
    135c:	00676e69 	rsbeq	r6, r7, r9, ror #28
    1360:	63747570 	cmnvs	r4, #112, 10	; 0x1c000000
    1364:	6e75665f 	mrcvs	6, 3, r6, cr5, cr15, {2}
    1368:	61680063 	cmnvs	r8, r3, rrx
    136c:	656c646e 	strbvs	r6, [ip, #-1134]!	; 0xfffffb92
    1370:	736e755f 	cmnvc	lr, #398458880	; 0x17c00000
    1374:	656e6769 	strbvs	r6, [lr, #-1897]!	; 0xfffff897
    1378:	616d0064 	cmnvs	sp, r4, rrx
    137c:	52006b73 	andpl	r6, r0, #117760	; 0x1cc00
    1380:	4c554745 	mrrcmi	7, 4, r4, r5, cr5
    1384:	535f5241 	cmppl	pc, #268435460	; 0x10000004
    1388:	00455a49 	subeq	r5, r5, r9, asr #20
    138c:	69647473 	stmdbvs	r4!, {r0, r1, r4, r5, r6, sl, ip, sp, lr}^
    1390:	6f642f6f 	svcvs	0x00642f6f
    1394:	746e7270 	strbtvc	r7, [lr], #-624	; 0xfffffd90
    1398:	7000632e 	andvc	r6, r0, lr, lsr #6
    139c:	00636572 	rsbeq	r6, r3, r2, ror r5
    13a0:	474e4f4c 	strbmi	r4, [lr, -ip, asr #30]
    13a4:	5a49535f 	bpl	1256128 <__kernel_end+0x1135128>
    13a8:	68630045 	stmdavs	r3!, {r0, r2, r6}^
    13ac:	5f737261 	svcpl	0x00737261
    13b0:	74697277 	strbtvc	r7, [r9], #-631	; 0xfffffd89
    13b4:	006e6574 	rsbeq	r6, lr, r4, ror r5
    13b8:	5f746c61 	svcpl	0x00746c61
    13bc:	69676964 	stmdbvs	r7!, {r2, r5, r6, r8, fp, sp, lr}^
    13c0:	73007374 	movwvc	r7, #884	; 0x374
    13c4:	006e6769 	rsbeq	r6, lr, r9, ror #14
    13c8:	63657073 	cmnvs	r5, #115	; 0x73
    13cc:	6174735f 	cmnvs	r4, pc, asr r3
    13d0:	6c007472 	cfstrsvs	mvf7, [r0], {114}	; 0x72
    13d4:	705f6e65 	subsvc	r6, pc, r5, ror #28
    13d8:	69646461 	stmdbvs	r4!, {r0, r5, r6, sl, sp, lr}^
    13dc:	7300676e 	movwvc	r6, #1902	; 0x76e
    13e0:	6e697274 	mcrvs	2, 3, r7, cr9, cr4, {3}
    13e4:	74732f67 	ldrbtvc	r2, [r3], #-3943	; 0xfffff099
    13e8:	6e656c72 	mcrvs	12, 3, r6, cr5, cr2, {3}
    13ec:	Address 0x00000000000013ec is out of bounds.


Disassembly of section .debug_frame:

00000000 <.debug_frame>:
   0:	0000000c 	andeq	r0, r0, ip
   4:	ffffffff 			; <UNDEFINED> instruction: 0xffffffff
   8:	7c020001 	stcvc	0, cr0, [r2], {1}
   c:	000d0c0e 	andeq	r0, sp, lr, lsl #24
  10:	00000014 	andeq	r0, r0, r4, lsl r0
  14:	00000000 	andeq	r0, r0, r0
  18:	00008208 	andeq	r8, r0, r8, lsl #4
  1c:	00000060 	andeq	r0, r0, r0, rrx
  20:	84080e44 	strhi	r0, [r8], #-3652	; 0xfffff1bc
  24:	00018e02 	andeq	r8, r1, r2, lsl #28
  28:	0000000c 	andeq	r0, r0, ip
  2c:	ffffffff 			; <UNDEFINED> instruction: 0xffffffff
  30:	7c020001 	stcvc	0, cr0, [r2], {1}
  34:	000d0c0e 	andeq	r0, sp, lr, lsl #24
  38:	0000000c 	andeq	r0, r0, ip
  3c:	00000028 	andeq	r0, r0, r8, lsr #32
  40:	00008268 	andeq	r8, r0, r8, ror #4
  44:	0000000c 	andeq	r0, r0, ip
  48:	00000014 	andeq	r0, r0, r4, lsl r0
  4c:	00000028 	andeq	r0, r0, r8, lsr #32
  50:	00008274 	andeq	r8, r0, r4, ror r2
  54:	0000002c 	andeq	r0, r0, ip, lsr #32
  58:	84080e42 	strhi	r0, [r8], #-3650	; 0xfffff1be
  5c:	00018e02 	andeq	r8, r1, r2, lsl #28
  60:	0000000c 	andeq	r0, r0, ip
  64:	ffffffff 			; <UNDEFINED> instruction: 0xffffffff
  68:	7c020001 	stcvc	0, cr0, [r2], {1}
  6c:	000d0c0e 	andeq	r0, sp, lr, lsl #24
  70:	0000000c 	andeq	r0, r0, ip
  74:	00000060 	andeq	r0, r0, r0, rrx
  78:	000082a0 	andeq	r8, r0, r0, lsr #5
  7c:	0000000c 	andeq	r0, r0, ip
  80:	0000001c 	andeq	r0, r0, ip, lsl r0
  84:	00000060 	andeq	r0, r0, r0, rrx
  88:	000082ac 	andeq	r8, r0, ip, lsr #5
  8c:	0000001c 	andeq	r0, r0, ip, lsl r0
  90:	80180e44 	andshi	r0, r8, r4, asr #28
  94:	82058106 	andhi	r8, r5, #-2147483647	; 0x80000001
  98:	8c038304 	stchi	3, cr8, [r3], {4}
  9c:	00018e02 	andeq	r8, r1, r2, lsl #28
  a0:	0000001c 	andeq	r0, r0, ip, lsl r0
  a4:	00000060 	andeq	r0, r0, r0, rrx
  a8:	000082c8 	andeq	r8, r0, r8, asr #5
  ac:	00000018 	andeq	r0, r0, r8, lsl r0
  b0:	80180e42 	andshi	r0, r8, r2, asr #28
  b4:	82058106 	andhi	r8, r5, #-2147483647	; 0x80000001
  b8:	8c038304 	stchi	3, cr8, [r3], {4}
  bc:	00018e02 	andeq	r8, r1, r2, lsl #28
  c0:	0000001c 	andeq	r0, r0, ip, lsl r0
  c4:	00000060 	andeq	r0, r0, r0, rrx
  c8:	000082e0 	andeq	r8, r0, r0, ror #5
  cc:	00000018 	andeq	r0, r0, r8, lsl r0
  d0:	80180e42 	andshi	r0, r8, r2, asr #28
  d4:	82058106 	andhi	r8, r5, #-2147483647	; 0x80000001
  d8:	8c038304 	stchi	3, cr8, [r3], {4}
  dc:	00018e02 	andeq	r8, r1, r2, lsl #28
  e0:	0000001c 	andeq	r0, r0, ip, lsl r0
  e4:	00000060 	andeq	r0, r0, r0, rrx
  e8:	000082f8 	strdeq	r8, [r0], -r8	; <UNPREDICTABLE>
  ec:	0000001c 	andeq	r0, r0, ip, lsl r0
  f0:	80180e44 	andshi	r0, r8, r4, asr #28
  f4:	82058106 	andhi	r8, r5, #-2147483647	; 0x80000001
  f8:	8c038304 	stchi	3, cr8, [r3], {4}
  fc:	00018e02 	andeq	r8, r1, r2, lsl #28
 100:	0000001c 	andeq	r0, r0, ip, lsl r0
 104:	00000060 	andeq	r0, r0, r0, rrx
 108:	00008314 	andeq	r8, r0, r4, lsl r3
 10c:	0000001c 	andeq	r0, r0, ip, lsl r0
 110:	80180e44 	andshi	r0, r8, r4, asr #28
 114:	82058106 	andhi	r8, r5, #-2147483647	; 0x80000001
 118:	8c038304 	stchi	3, cr8, [r3], {4}
 11c:	00018e02 	andeq	r8, r1, r2, lsl #28
 120:	0000001c 	andeq	r0, r0, ip, lsl r0
 124:	00000060 	andeq	r0, r0, r0, rrx
 128:	00008330 	andeq	r8, r0, r0, lsr r3
 12c:	0000001c 	andeq	r0, r0, ip, lsl r0
 130:	80180e44 	andshi	r0, r8, r4, asr #28
 134:	82058106 	andhi	r8, r5, #-2147483647	; 0x80000001
 138:	84038304 	strhi	r8, [r3], #-772	; 0xfffffcfc
 13c:	00018e02 	andeq	r8, r1, r2, lsl #28
 140:	00000014 	andeq	r0, r0, r4, lsl r0
 144:	00000060 	andeq	r0, r0, r0, rrx
 148:	0000834c 	andeq	r8, r0, ip, asr #6
 14c:	000000d8 	ldrdeq	r0, [r0], -r8
 150:	84080e48 	strhi	r0, [r8], #-3656	; 0xfffff1b8
 154:	00018e02 	andeq	r8, r1, r2, lsl #28
 158:	00000018 	andeq	r0, r0, r8, lsl r0
 15c:	00000060 	andeq	r0, r0, r0, rrx
 160:	00008424 	andeq	r8, r0, r4, lsr #8
 164:	000000bc 	strheq	r0, [r0], -ip
 168:	84100e44 	ldrhi	r0, [r0], #-3652	; 0xfffff1bc
 16c:	86038504 	strhi	r8, [r3], -r4, lsl #10
 170:	00018e02 	andeq	r8, r1, r2, lsl #28
 174:	00000018 	andeq	r0, r0, r8, lsl r0
 178:	00000060 	andeq	r0, r0, r0, rrx
 17c:	000084e0 	andeq	r8, r0, r0, ror #9
 180:	000000c8 	andeq	r0, r0, r8, asr #1
 184:	840c0e44 	strhi	r0, [ip], #-3652	; 0xfffff1bc
 188:	8e028503 	cfsh32hi	mvfx8, mvfx2, #3
 18c:	00000001 	andeq	r0, r0, r1
 190:	0000000c 	andeq	r0, r0, ip
 194:	00000060 	andeq	r0, r0, r0, rrx
 198:	000085a8 	andeq	r8, r0, r8, lsr #11
 19c:	00000024 	andeq	r0, r0, r4, lsr #32
 1a0:	0000000c 	andeq	r0, r0, ip
 1a4:	00000060 	andeq	r0, r0, r0, rrx
 1a8:	000085cc 	andeq	r8, r0, ip, asr #11
 1ac:	0000000c 	andeq	r0, r0, ip
 1b0:	00000014 	andeq	r0, r0, r4, lsl r0
 1b4:	00000060 	andeq	r0, r0, r0, rrx
 1b8:	000085d8 	ldrdeq	r8, [r0], -r8	; <UNPREDICTABLE>
 1bc:	00000068 	andeq	r0, r0, r8, rrx
 1c0:	84080e42 	strhi	r0, [r8], #-3650	; 0xfffff1be
 1c4:	00018e02 	andeq	r8, r1, r2, lsl #28
 1c8:	0000000c 	andeq	r0, r0, ip
 1cc:	ffffffff 			; <UNDEFINED> instruction: 0xffffffff
 1d0:	7c020001 	stcvc	0, cr0, [r2], {1}
 1d4:	000d0c0e 	andeq	r0, sp, lr, lsl #24
 1d8:	0000000c 	andeq	r0, r0, ip
 1dc:	000001c8 	andeq	r0, r0, r8, asr #3
 1e0:	00008640 	andeq	r8, r0, r0, asr #12
 1e4:	00000074 	andeq	r0, r0, r4, ror r0
 1e8:	0000000c 	andeq	r0, r0, ip
 1ec:	000001c8 	andeq	r0, r0, r8, asr #3
 1f0:	000086b4 			; <UNDEFINED> instruction: 0x000086b4
 1f4:	00000024 	andeq	r0, r0, r4, lsr #32
 1f8:	0000000c 	andeq	r0, r0, ip
 1fc:	000001c8 	andeq	r0, r0, r8, asr #3
 200:	000086d8 	ldrdeq	r8, [r0], -r8	; <UNPREDICTABLE>
 204:	00000028 	andeq	r0, r0, r8, lsr #32
 208:	00000014 	andeq	r0, r0, r4, lsl r0
 20c:	000001c8 	andeq	r0, r0, r8, asr #3
 210:	00008700 	andeq	r8, r0, r0, lsl #14
 214:	00000028 	andeq	r0, r0, r8, lsr #32
 218:	84080e42 	strhi	r0, [r8], #-3650	; 0xfffff1be
 21c:	00018e02 	andeq	r8, r1, r2, lsl #28
 220:	00000020 	andeq	r0, r0, r0, lsr #32
 224:	000001c8 	andeq	r0, r0, r8, asr #3
 228:	00008728 	andeq	r8, r0, r8, lsr #14
 22c:	00000040 	andeq	r0, r0, r0, asr #32
 230:	84100e42 	ldrhi	r0, [r0], #-3650	; 0xfffff1be
 234:	86038504 	strhi	r8, [r3], -r4, lsl #10
 238:	5c018e02 	stcpl	14, cr8, [r1], {2}
 23c:	c4c5c6ce 	strbgt	ip, [r5], #1742	; 0x6ce
 240:	0000000e 	andeq	r0, r0, lr
 244:	0000000c 	andeq	r0, r0, ip
 248:	ffffffff 			; <UNDEFINED> instruction: 0xffffffff
 24c:	7c020001 	stcvc	0, cr0, [r2], {1}
 250:	000d0c0e 	andeq	r0, sp, lr, lsl #24
 254:	0000000c 	andeq	r0, r0, ip
 258:	00000244 	andeq	r0, r0, r4, asr #4
 25c:	00008768 	andeq	r8, r0, r8, ror #14
 260:	0000002c 	andeq	r0, r0, ip, lsr #32
 264:	0000000c 	andeq	r0, r0, ip
 268:	00000244 	andeq	r0, r0, r4, asr #4
 26c:	00008794 	muleq	r0, r4, r7
 270:	00000040 	andeq	r0, r0, r0, asr #32
 274:	0000000c 	andeq	r0, r0, ip
 278:	ffffffff 			; <UNDEFINED> instruction: 0xffffffff
 27c:	7c020001 	stcvc	0, cr0, [r2], {1}
 280:	000d0c0e 	andeq	r0, sp, lr, lsl #24
 284:	0000000c 	andeq	r0, r0, ip
 288:	00000274 	andeq	r0, r0, r4, ror r2
 28c:	000087d4 	ldrdeq	r8, [r0], -r4
 290:	00000038 	andeq	r0, r0, r8, lsr r0
 294:	00000040 	andeq	r0, r0, r0, asr #32
 298:	00000274 	andeq	r0, r0, r4, ror r2
 29c:	0000880c 	andeq	r8, r0, ip, lsl #16
 2a0:	00000444 	andeq	r0, r0, r4, asr #8
 2a4:	80100e42 	andshi	r0, r0, r2, asr #28
 2a8:	82038104 	andhi	r8, r3, #4, 2
 2ac:	48018302 	stmdami	r1, {r1, r8, r9, pc}
 2b0:	0984240e 	stmibeq	r4, {r1, r2, r3, sl, sp}
 2b4:	07860885 	streq	r0, [r6, r5, lsl #17]
 2b8:	058e0687 	streq	r0, [lr, #1671]	; 0x687
 2bc:	02300e46 	eorseq	r0, r0, #1120	; 0x460
 2c0:	240e0a68 	strcs	r0, [lr], #-2664	; 0xfffff598
 2c4:	c6c7ce42 	strbgt	ip, [r7], r2, asr #28
 2c8:	100ec4c5 	andne	ip, lr, r5, asr #9
 2cc:	c1c2c342 	bicgt	ip, r2, r2, asr #6
 2d0:	42000ec0 	andmi	r0, r0, #192, 28	; 0xc00
 2d4:	0000000b 	andeq	r0, r0, fp
 2d8:	00000018 	andeq	r0, r0, r8, lsl r0
 2dc:	00000274 	andeq	r0, r0, r4, ror r2
 2e0:	00008c50 	andeq	r8, r0, r0, asr ip
 2e4:	0000004c 	andeq	r0, r0, ip, asr #32
 2e8:	84080e4c 	strhi	r0, [r8], #-3660	; 0xfffff1b4
 2ec:	54018e02 	strpl	r8, [r1], #-3586	; 0xfffff1fe
 2f0:	000ec4ce 	andeq	ip, lr, lr, asr #9
 2f4:	00000014 	andeq	r0, r0, r4, lsl r0
 2f8:	00000274 	andeq	r0, r0, r4, ror r2
 2fc:	00008c9c 	muleq	r0, ip, ip
 300:	000000ac 	andeq	r0, r0, ip, lsr #1
 304:	84080e4a 	strhi	r0, [r8], #-3658	; 0xfffff1b6
 308:	00018e02 	andeq	r8, r1, r2, lsl #28
 30c:	0000000c 	andeq	r0, r0, ip
 310:	ffffffff 			; <UNDEFINED> instruction: 0xffffffff
 314:	7c020001 	stcvc	0, cr0, [r2], {1}
 318:	000d0c0e 	andeq	r0, sp, lr, lsl #24
 31c:	00000018 	andeq	r0, r0, r8, lsl r0
 320:	0000030c 	andeq	r0, r0, ip, lsl #6
 324:	00008d48 	andeq	r8, r0, r8, asr #26
 328:	00000024 	andeq	r0, r0, r4, lsr #32
 32c:	84080e42 	strhi	r0, [r8], #-3650	; 0xfffff1be
 330:	4c018e02 	stcmi	14, cr8, [r1], {2}
 334:	000ec4ce 	andeq	ip, lr, lr, asr #9
 338:	0000000c 	andeq	r0, r0, ip
 33c:	0000030c 	andeq	r0, r0, ip, lsl #6
 340:	00008d6c 	andeq	r8, r0, ip, ror #26
 344:	00000030 	andeq	r0, r0, r0, lsr r0
 348:	0000000c 	andeq	r0, r0, ip
 34c:	0000030c 	andeq	r0, r0, ip, lsl #6
 350:	00008d9c 	muleq	r0, ip, sp
 354:	00000038 	andeq	r0, r0, r8, lsr r0
 358:	0000000c 	andeq	r0, r0, ip
 35c:	0000030c 	andeq	r0, r0, ip, lsl #6
 360:	00008dd4 	ldrdeq	r8, [r0], -r4
 364:	0000001c 	andeq	r0, r0, ip, lsl r0
 368:	0000001c 	andeq	r0, r0, ip, lsl r0
 36c:	0000030c 	andeq	r0, r0, ip, lsl #6
 370:	00008df0 	strdeq	r8, [r0], -r0
 374:	0000008c 	andeq	r0, r0, ip, lsl #1
 378:	8b040e42 	blhi	103c88 <__first_lvl_tbl_end+0xe2c88>
 37c:	0b0d4201 	bleq	350b88 <__kernel_end+0x22fb88>
 380:	420d0d78 	andmi	r0, sp, #120, 26	; 0x1e00
 384:	00000ecb 	andeq	r0, r0, fp, asr #29
 388:	0000000c 	andeq	r0, r0, ip
 38c:	ffffffff 			; <UNDEFINED> instruction: 0xffffffff
 390:	7c020001 	stcvc	0, cr0, [r2], {1}
 394:	000d0c0e 	andeq	r0, sp, lr, lsl #24
 398:	0000000c 	andeq	r0, r0, ip
 39c:	00000388 	andeq	r0, r0, r8, lsl #7
 3a0:	00008e7c 	andeq	r8, r0, ip, ror lr
 3a4:	00000024 	andeq	r0, r0, r4, lsr #32
 3a8:	0000000c 	andeq	r0, r0, ip
 3ac:	00000388 	andeq	r0, r0, r8, lsl #7
 3b0:	00008ea0 	andeq	r8, r0, r0, lsr #29
 3b4:	00000024 	andeq	r0, r0, r4, lsr #32
 3b8:	0000000c 	andeq	r0, r0, ip
 3bc:	00000388 	andeq	r0, r0, r8, lsl #7
 3c0:	00008ec4 	andeq	r8, r0, r4, asr #29
 3c4:	00000008 	andeq	r0, r0, r8
 3c8:	0000000c 	andeq	r0, r0, ip
 3cc:	00000388 	andeq	r0, r0, r8, lsl #7
 3d0:	00008ecc 	andeq	r8, r0, ip, asr #29
 3d4:	0000002c 	andeq	r0, r0, ip, lsr #32
 3d8:	0000000c 	andeq	r0, r0, ip
 3dc:	00000388 	andeq	r0, r0, r8, lsl #7
 3e0:	00008ef8 	strdeq	r8, [r0], -r8	; <UNPREDICTABLE>
 3e4:	00000008 	andeq	r0, r0, r8
 3e8:	0000000c 	andeq	r0, r0, ip
 3ec:	00000388 	andeq	r0, r0, r8, lsl #7
 3f0:	00008f00 	andeq	r8, r0, r0, lsl #30
 3f4:	00000008 	andeq	r0, r0, r8
 3f8:	0000000c 	andeq	r0, r0, ip
 3fc:	00000388 	andeq	r0, r0, r8, lsl #7
 400:	00008f08 	andeq	r8, r0, r8, lsl #30
 404:	0000001c 	andeq	r0, r0, ip, lsl r0
 408:	00000014 	andeq	r0, r0, r4, lsl r0
 40c:	00000388 	andeq	r0, r0, r8, lsl #7
 410:	00008f24 	andeq	r8, r0, r4, lsr #30
 414:	0000006c 	andeq	r0, r0, ip, rrx
 418:	84080e44 	strhi	r0, [r8], #-3652	; 0xfffff1bc
 41c:	00018e02 	andeq	r8, r1, r2, lsl #28
 420:	0000000c 	andeq	r0, r0, ip
 424:	00000388 	andeq	r0, r0, r8, lsl #7
 428:	00008f90 	muleq	r0, r0, pc	; <UNPREDICTABLE>
 42c:	00000044 	andeq	r0, r0, r4, asr #32
 430:	00000014 	andeq	r0, r0, r4, lsl r0
 434:	00000388 	andeq	r0, r0, r8, lsl #7
 438:	00008fd4 	ldrdeq	r8, [r0], -r4
 43c:	00000050 	andeq	r0, r0, r0, asr r0
 440:	84080e42 	strhi	r0, [r8], #-3650	; 0xfffff1be
 444:	00018e02 	andeq	r8, r1, r2, lsl #28
 448:	0000001c 	andeq	r0, r0, ip, lsl r0
 44c:	00000388 	andeq	r0, r0, r8, lsl #7
 450:	00009024 	andeq	r9, r0, r4, lsr #32
 454:	00000118 	andeq	r0, r0, r8, lsl r1
 458:	84180e42 	ldrhi	r0, [r8], #-3650	; 0xfffff1be
 45c:	86058506 	strhi	r8, [r5], -r6, lsl #10
 460:	88038704 	stmdahi	r3, {r2, r8, r9, sl, pc}
 464:	00018e02 	andeq	r8, r1, r2, lsl #28
 468:	0000000c 	andeq	r0, r0, ip
 46c:	ffffffff 			; <UNDEFINED> instruction: 0xffffffff
 470:	7c020001 	stcvc	0, cr0, [r2], {1}
 474:	000d0c0e 	andeq	r0, sp, lr, lsl #24
 478:	00000014 	andeq	r0, r0, r4, lsl r0
 47c:	00000468 	andeq	r0, r0, r8, ror #8
 480:	0000913c 	andeq	r9, r0, ip, lsr r1
 484:	0000003c 	andeq	r0, r0, ip, lsr r0
 488:	84080e50 	strhi	r0, [r8], #-3664	; 0xfffff1b0
 48c:	00018e02 	andeq	r8, r1, r2, lsl #28
 490:	00000020 	andeq	r0, r0, r0, lsr #32
 494:	00000468 	andeq	r0, r0, r8, ror #8
 498:	00009178 	andeq	r9, r0, r8, ror r1
 49c:	000000a8 	andeq	r0, r0, r8, lsr #1
 4a0:	84100e46 	ldrhi	r0, [r0], #-3654	; 0xfffff1ba
 4a4:	86038504 	strhi	r8, [r3], -r4, lsl #10
 4a8:	7e018e02 	cdpvc	14, 0, cr8, cr1, cr2, {0}
 4ac:	c4c5c6ce 	strbgt	ip, [r5], #1742	; 0x6ce
 4b0:	0000000e 	andeq	r0, r0, lr
 4b4:	0000000c 	andeq	r0, r0, ip
 4b8:	ffffffff 			; <UNDEFINED> instruction: 0xffffffff
 4bc:	7c020001 	stcvc	0, cr0, [r2], {1}
 4c0:	000d0c0e 	andeq	r0, sp, lr, lsl #24
 4c4:	00000014 	andeq	r0, r0, r4, lsl r0
 4c8:	000004b4 			; <UNDEFINED> instruction: 0x000004b4
 4cc:	00009220 	andeq	r9, r0, r0, lsr #4
 4d0:	0000005c 	andeq	r0, r0, ip, asr r0
 4d4:	84080e44 	strhi	r0, [r8], #-3652	; 0xfffff1bc
 4d8:	00018e02 	andeq	r8, r1, r2, lsl #28
 4dc:	0000000c 	andeq	r0, r0, ip
 4e0:	ffffffff 			; <UNDEFINED> instruction: 0xffffffff
 4e4:	7c020001 	stcvc	0, cr0, [r2], {1}
 4e8:	000d0c0e 	andeq	r0, sp, lr, lsl #24
 4ec:	0000000c 	andeq	r0, r0, ip
 4f0:	000004dc 	ldrdeq	r0, [r0], -ip
 4f4:	0000927c 	andeq	r9, r0, ip, ror r2
 4f8:	00000024 	andeq	r0, r0, r4, lsr #32
 4fc:	0000000c 	andeq	r0, r0, ip
 500:	ffffffff 			; <UNDEFINED> instruction: 0xffffffff
 504:	7c020001 	stcvc	0, cr0, [r2], {1}
 508:	000d0c0e 	andeq	r0, sp, lr, lsl #24
 50c:	00000018 	andeq	r0, r0, r8, lsl r0
 510:	000004fc 	strdeq	r0, [r0], -ip
 514:	000092a0 	andeq	r9, r0, r0, lsr #5
 518:	00000018 	andeq	r0, r0, r8, lsl r0
 51c:	84080e42 	strhi	r0, [r8], #-3650	; 0xfffff1be
 520:	48018e02 	stmdami	r1, {r1, r9, sl, fp, pc}
 524:	000ec4ce 	andeq	ip, lr, lr, asr #9
 528:	00000030 	andeq	r0, r0, r0, lsr r0
 52c:	000004fc 	strdeq	r0, [r0], -ip
 530:	000092b8 			; <UNDEFINED> instruction: 0x000092b8
 534:	0000003c 	andeq	r0, r0, ip, lsr r0
 538:	80100e42 	andshi	r0, r0, r2, asr #28
 53c:	82038104 	andhi	r8, r3, #4, 2
 540:	42018302 	andmi	r8, r1, #134217728	; 0x8000000
 544:	058e140e 	streq	r1, [lr, #1038]	; 0x40e
 548:	50200e42 	eorpl	r0, r0, r2, asr #28
 54c:	ce42140e 	cdpgt	4, 4, cr1, cr2, cr14, {0}
 550:	c342100e 	movtgt	r1, #8206	; 0x200e
 554:	0ec0c1c2 	acseqdm	f4, f2
 558:	00000000 	andeq	r0, r0, r0
 55c:	0000000c 	andeq	r0, r0, ip
 560:	ffffffff 			; <UNDEFINED> instruction: 0xffffffff
 564:	7c020001 	stcvc	0, cr0, [r2], {1}
 568:	000d0c0e 	andeq	r0, sp, lr, lsl #24
 56c:	0000003c 	andeq	r0, r0, ip, lsr r0
 570:	0000055c 	andeq	r0, r0, ip, asr r5
 574:	000092f4 	strdeq	r9, [r0], -r4
 578:	0000074c 	andeq	r0, r0, ip, asr #14
 57c:	84240e42 	strthi	r0, [r4], #-3650	; 0xfffff1be
 580:	86088509 	strhi	r8, [r8], -r9, lsl #10
 584:	88068707 	stmdahi	r6, {r0, r1, r2, r8, r9, sl, pc}
 588:	8a048905 	bhi	1229a4 <__kernel_end+0x19a4>
 58c:	8e028b03 	vmlahi.f64	d8, d2, d3
 590:	980e4801 	stmdals	lr, {r0, fp, lr}
 594:	016c0301 	cmneq	ip, r1, lsl #6
 598:	42240e0a 	eormi	r0, r4, #10, 28	; 0xa0
 59c:	c9cacbce 	stmibgt	sl, {r1, r2, r3, r6, r7, r8, r9, fp, lr, pc}^
 5a0:	c5c6c7c8 	strbgt	ip, [r6, #1992]	; 0x7c8
 5a4:	42000ec4 	andmi	r0, r0, #196, 28	; 0xc40
 5a8:	0000000b 	andeq	r0, r0, fp
 5ac:	0000000c 	andeq	r0, r0, ip
 5b0:	ffffffff 			; <UNDEFINED> instruction: 0xffffffff
 5b4:	7c020001 	stcvc	0, cr0, [r2], {1}
 5b8:	000d0c0e 	andeq	r0, sp, lr, lsl #24
 5bc:	0000000c 	andeq	r0, r0, ip
 5c0:	000005ac 	andeq	r0, r0, ip, lsr #11
 5c4:	00009a40 	andeq	r9, r0, r0, asr #20
 5c8:	00000030 	andeq	r0, r0, r0, lsr r0
 5cc:	0000000c 	andeq	r0, r0, ip
 5d0:	ffffffff 			; <UNDEFINED> instruction: 0xffffffff
 5d4:	7c010001 	stcvc	0, cr0, [r1], {1}
 5d8:	000d0c0e 	andeq	r0, sp, lr, lsl #24
 5dc:	0000000c 	andeq	r0, r0, ip
 5e0:	000005cc 	andeq	r0, r0, ip, asr #11
 5e4:	00009a70 	andeq	r9, r0, r0, ror sl
 5e8:	000000f4 	strdeq	r0, [r0], -r4

Disassembly of section .debug_ranges:

00000000 <.debug_ranges>:
   0:	00000000 	andeq	r0, r0, r0
   4:	00000008 	andeq	r0, r0, r8
   8:	00000014 	andeq	r0, r0, r4, lsl r0
   c:	00000018 	andeq	r0, r0, r8, lsl r0
  10:	0000001c 	andeq	r0, r0, ip, lsl r0
  14:	00000020 	andeq	r0, r0, r0, lsr #32
	...
  20:	00000008 	andeq	r0, r0, r8
  24:	00000010 	andeq	r0, r0, r0, lsl r0
  28:	00000020 	andeq	r0, r0, r0, lsr #32
  2c:	00000024 	andeq	r0, r0, r4, lsr #32
	...
  38:	00000010 	andeq	r0, r0, r0, lsl r0
  3c:	00000014 	andeq	r0, r0, r4, lsl r0
  40:	00000018 	andeq	r0, r0, r8, lsl r0
  44:	0000001c 	andeq	r0, r0, ip, lsl r0
  48:	00000024 	andeq	r0, r0, r4, lsr #32
  4c:	0000002c 	andeq	r0, r0, ip, lsr #32
	...
  58:	0000003c 	andeq	r0, r0, ip, lsr r0
  5c:	00000040 	andeq	r0, r0, r0, asr #32
  60:	00000050 	andeq	r0, r0, r0, asr r0
  64:	00000054 	andeq	r0, r0, r4, asr r0
	...
  70:	00000044 	andeq	r0, r0, r4, asr #32
  74:	00000048 	andeq	r0, r0, r8, asr #32
  78:	0000004c 	andeq	r0, r0, ip, asr #32
  7c:	00000050 	andeq	r0, r0, r0, asr r0
	...
  88:	00000048 	andeq	r0, r0, r8, asr #32
  8c:	0000004c 	andeq	r0, r0, ip, asr #32
  90:	00000058 	andeq	r0, r0, r8, asr r0
  94:	0000005c 	andeq	r0, r0, ip, asr r0
	...
  a0:	00000054 	andeq	r0, r0, r4, asr r0
  a4:	00000058 	andeq	r0, r0, r8, asr r0
  a8:	00000060 	andeq	r0, r0, r0, rrx
  ac:	00000064 	andeq	r0, r0, r4, rrx
	...
  b8:	0000005c 	andeq	r0, r0, ip, asr r0
  bc:	00000060 	andeq	r0, r0, r0, rrx
  c0:	00000068 	andeq	r0, r0, r8, rrx
  c4:	0000006c 	andeq	r0, r0, ip, rrx
	...
  d0:	00000064 	andeq	r0, r0, r4, rrx
  d4:	00000068 	andeq	r0, r0, r8, rrx
  d8:	0000006c 	andeq	r0, r0, ip, rrx
  dc:	00000074 	andeq	r0, r0, r4, ror r0
	...
  e8:	000001c8 	andeq	r0, r0, r8, asr #3
  ec:	000001d0 	ldrdeq	r0, [r0], -r0	; <UNPREDICTABLE>
  f0:	000001d4 	ldrdeq	r0, [r0], -r4
  f4:	000001dc 	ldrdeq	r0, [r0], -ip
  f8:	000001e0 	andeq	r0, r0, r0, ror #3
  fc:	00000260 	andeq	r0, r0, r0, ror #4
 100:	00000520 	andeq	r0, r0, r0, lsr #10
 104:	000005c8 	andeq	r0, r0, r8, asr #11
 108:	00000718 	andeq	r0, r0, r8, lsl r7
 10c:	00000728 	andeq	r0, r0, r8, lsr #14
 110:	00000730 	andeq	r0, r0, r0, lsr r7
 114:	0000074c 	andeq	r0, r0, ip, asr #14
	...
 120:	000001f4 	strdeq	r0, [r0], -r4
 124:	00000254 	andeq	r0, r0, r4, asr r2
 128:	00000730 	andeq	r0, r0, r0, lsr r7
 12c:	0000073c 	andeq	r0, r0, ip, lsr r7
	...
