
kernel8-32.elf:     file format elf32-littlearm


Disassembly of section .text:

00008000 <__start>:
    8000:	e59ff018 	ldr	pc, [pc, #24]	; 8020 <_reset_h>
    8004:	e59ff018 	ldr	pc, [pc, #24]	; 8024 <_undefined_instruction_vector_h>
    8008:	e59ff018 	ldr	pc, [pc, #24]	; 8028 <_software_interrupt_vector_h>
    800c:	e59ff018 	ldr	pc, [pc, #24]	; 802c <_prefetch_abort_vector_h>
    8010:	e59ff018 	ldr	pc, [pc, #24]	; 8030 <_data_abort_vector_h>
    8014:	e59ff018 	ldr	pc, [pc, #24]	; 8034 <_unused_handler_h>
    8018:	e59ff018 	ldr	pc, [pc, #24]	; 8038 <_interrupt_vector_h>
    801c:	e59ff018 	ldr	pc, [pc, #24]	; 803c <_fast_interrupt_vector_h>

00008020 <_reset_h>:
    8020:	00008040 	andeq	r8, r0, r0, asr #32

00008024 <_undefined_instruction_vector_h>:
    8024:	000082c8 	andeq	r8, r0, r8, asr #5

00008028 <_software_interrupt_vector_h>:
    8028:	000082e0 	andeq	r8, r0, r0, ror #5

0000802c <_prefetch_abort_vector_h>:
    802c:	000082f8 	strdeq	r8, [r0], -r8	; <UNPREDICTABLE>

00008030 <_data_abort_vector_h>:
    8030:	0000818c 	andeq	r8, r0, ip, lsl #3

00008034 <_unused_handler_h>:
    8034:	00008040 	andeq	r8, r0, r0, asr #32

00008038 <_interrupt_vector_h>:
    8038:	0000812c 	andeq	r8, r0, ip, lsr #2

0000803c <_fast_interrupt_vector_h>:
    803c:	00008330 	andeq	r8, r0, r0, lsr r3

00008040 <_reset_>:
    8040:	ee106fb0 	mrc	15, 0, r6, cr0, cr0, {5}
    8044:	e2066003 	and	r6, r6, #3
    8048:	e3a07000 	mov	r7, #0
    804c:	e1560007 	cmp	r6, r7
    8050:	0a000001 	beq	805c <_reset_+0x1c>
    8054:	e320f002 	wfe
    8058:	eafffffd 	b	8054 <_reset_+0x14>
    805c:	e1a0c00f 	mov	ip, pc
    8060:	e10f0000 	mrs	r0, CPSR
    8064:	e38000c0 	orr	r0, r0, #192	; 0xc0
    8068:	e200b01f 	and	fp, r0, #31
    806c:	e35b001a 	cmp	fp, #26
    8070:	1a000005 	bne	808c <.NotInHypMode>
    8074:	e3c0001f 	bic	r0, r0, #31
    8078:	e3800013 	orr	r0, r0, #19
    807c:	e16ff000 	msr	SPSR_fsxc, r0
    8080:	e28fe004 	add	lr, pc, #4
    8084:	e12ef30e 	msr	ELR_hyp, lr
    8088:	e160006e 	eret

0000808c <.NotInHypMode>:
    808c:	e3a00902 	mov	r0, #32768	; 0x8000
    8090:	e3a01000 	mov	r1, #0
    8094:	e8b003fc 	ldm	r0!, {r2, r3, r4, r5, r6, r7, r8, r9}
    8098:	e8a103fc 	stmia	r1!, {r2, r3, r4, r5, r6, r7, r8, r9}
    809c:	e8b003fc 	ldm	r0!, {r2, r3, r4, r5, r6, r7, r8, r9}
    80a0:	e8a103fc 	stmia	r1!, {r2, r3, r4, r5, r6, r7, r8, r9}
    80a4:	e3a000d2 	mov	r0, #210	; 0xd2
    80a8:	e121f000 	msr	CPSR_c, r0
    80ac:	e59fd14c 	ldr	sp, [pc, #332]	; 8200 <read_cpu_id+0x8>
    80b0:	e3a000d3 	mov	r0, #211	; 0xd3
    80b4:	e121f000 	msr	CPSR_c, r0
    80b8:	e59fd144 	ldr	sp, [pc, #324]	; 8204 <read_cpu_id+0xc>
    80bc:	ee110f10 	mrc	15, 0, r0, cr1, cr0, {0}
    80c0:	e3800501 	orr	r0, r0, #4194304	; 0x400000
    80c4:	ee010f10 	mcr	15, 0, r0, cr1, cr0, {0}
    80c8:	ee111f50 	mrc	15, 0, r1, cr1, cr0, {2}
    80cc:	e381160f 	orr	r1, r1, #15728640	; 0xf00000
    80d0:	ee011f50 	mcr	15, 0, r1, cr1, cr0, {2}
    80d4:	e3a01000 	mov	r1, #0
    80d8:	ee071f95 	mcr	15, 0, r1, cr7, cr5, {4}
    80dc:	e3a00101 	mov	r0, #1073741824	; 0x40000000
    80e0:	eee80a10 	vmsr	fpexc, r0
    80e4:	eb000047 	bl	8208 <_clear_bss>

000080e8 <_inf_loop>:
    80e8:	eafffffe 	b	80e8 <_inf_loop>

000080ec <PUT32>:
    80ec:	e5801000 	str	r1, [r0]
    80f0:	e12fff1e 	bx	lr

000080f4 <GET32>:
    80f4:	e5900000 	ldr	r0, [r0]
    80f8:	e12fff1e 	bx	lr

000080fc <dummy>:
    80fc:	e1a0f00e 	mov	pc, lr

00008100 <enable_irq>:
    8100:	e10f0000 	mrs	r0, CPSR
    8104:	e3c00080 	bic	r0, r0, #128	; 0x80
    8108:	e121f000 	msr	CPSR_c, r0
    810c:	e12fff1e 	bx	lr

00008110 <_get_stack_pointer>:
    8110:	e58dd000 	str	sp, [sp]
    8114:	e59d0000 	ldr	r0, [sp]
    8118:	e1a0f00e 	mov	pc, lr

0000811c <_enable_interrupts>:
    811c:	e10f0000 	mrs	r0, CPSR
    8120:	e3c00080 	bic	r0, r0, #128	; 0x80
    8124:	e121f000 	msr	CPSR_c, r0
    8128:	e1a0f00e 	mov	pc, lr

0000812c <irq_handler_asm_wrapper>:
    812c:	e24ee004 	sub	lr, lr, #4
    8130:	f96d0513 	srsdb	sp!, #19
    8134:	f10e00d3 	cpsid	if,#19
    8138:	e92d500f 	push	{r0, r1, r2, r3, ip, lr}
    813c:	e20d1004 	and	r1, sp, #4
    8140:	e04dd001 	sub	sp, sp, r1
    8144:	e52d1004 	push	{r1}		; (str r1, [sp, #-4]!)
    8148:	eb00007f 	bl	834c <irq_handler>
    814c:	e49d1004 	pop	{r1}		; (ldr r1, [sp], #4)
    8150:	e08dd001 	add	sp, sp, r1
    8154:	e8bd500f 	pop	{r0, r1, r2, r3, ip, lr}
    8158:	f8bd0a00 	rfeia	sp!

0000815c <start_mmu>:
    815c:	e3a02000 	mov	r2, #0
    8160:	ee082f17 	mcr	15, 0, r2, cr8, cr7, {0}
    8164:	ee072f9a 	mcr	15, 0, r2, cr7, cr10, {4}
    8168:	ee132f10 	mrc	15, 0, r2, cr3, cr0, {0}
    816c:	e3822003 	orr	r2, r2, #3
    8170:	ee032f10 	mcr	15, 0, r2, cr3, cr0, {0}
    8174:	ee020f10 	mcr	15, 0, r0, cr2, cr0, {0}
    8178:	ee020f30 	mcr	15, 0, r0, cr2, cr0, {1}
    817c:	ee112f10 	mrc	15, 0, r2, cr1, cr0, {0}
    8180:	e1822001 	orr	r2, r2, r1
    8184:	ee012f10 	mcr	15, 0, r2, cr1, cr0, {0}
    8188:	e12fff1e 	bx	lr

0000818c <data_abort_vector_asm>:
    818c:	e1a0600e 	mov	r6, lr
    8190:	e5168008 	ldr	r8, [r6, #-8]
    8194:	ee154f10 	mrc	15, 0, r4, cr5, cr0, {0}
    8198:	ee155f30 	mrc	15, 0, r5, cr5, cr0, {1}
    819c:	e3a0d901 	mov	sp, #16384	; 0x4000
    81a0:	eb000429 	bl	924c <hexstrings>
    81a4:	e1a00004 	mov	r0, r4
    81a8:	eb000427 	bl	924c <hexstrings>
    81ac:	e1a00005 	mov	r0, r5
    81b0:	eb000425 	bl	924c <hexstrings>
    81b4:	e1a00006 	mov	r0, r6
    81b8:	eb000423 	bl	924c <hexstrings>
    81bc:	e1a00008 	mov	r0, r8
    81c0:	eb000421 	bl	924c <hexstrings>
    81c4:	e1a00007 	mov	r0, r7
    81c8:	eb00041f 	bl	924c <hexstrings>
    81cc:	eafffffe 	b	81cc <data_abort_vector_asm+0x40>

000081d0 <stop_mmu>:
    81d0:	ee112f10 	mrc	15, 0, r2, cr1, cr0, {0}
    81d4:	e3c22a01 	bic	r2, r2, #4096	; 0x1000
    81d8:	e3c22004 	bic	r2, r2, #4
    81dc:	e3c22001 	bic	r2, r2, #1
    81e0:	ee012f10 	mcr	15, 0, r2, cr1, cr0, {0}
    81e4:	e12fff1e 	bx	lr

000081e8 <invalidate_tlbs>:
    81e8:	e3a02000 	mov	r2, #0
    81ec:	ee082f17 	mcr	15, 0, r2, cr8, cr7, {0}
    81f0:	ee072f9a 	mcr	15, 0, r2, cr7, cr10, {4}
    81f4:	e12fff1e 	bx	lr

000081f8 <read_cpu_id>:
    81f8:	ee100fb0 	mrc	15, 0, r0, cr0, cr0, {5}
    81fc:	e12fff1e 	bx	lr
    8200:	0001e400 	andeq	lr, r1, r0, lsl #8
    8204:	0001e000 	andeq	lr, r1, r0

00008208 <_clear_bss>:
    8208:	e59fc04c 	ldr	ip, [pc, #76]	; 825c <_clear_bss+0x54>
    820c:	e92d4010 	push	{r4, lr}
    8210:	e08fc00c 	add	ip, pc, ip
    8214:	e59fe044 	ldr	lr, [pc, #68]	; 8260 <_clear_bss+0x58>
    8218:	e59f3044 	ldr	r3, [pc, #68]	; 8264 <_clear_bss+0x5c>
    821c:	e79ce00e 	ldr	lr, [ip, lr]
    8220:	e79c3003 	ldr	r3, [ip, r3]
    8224:	e15e0003 	cmp	lr, r3
    8228:	2a000009 	bcs	8254 <_clear_bss+0x4c>
    822c:	e1e0c00e 	mvn	ip, lr
    8230:	e1a0400e 	mov	r4, lr
    8234:	e08c3003 	add	r3, ip, r3
    8238:	e3a0c000 	mov	ip, #0
    823c:	e3c33003 	bic	r3, r3, #3
    8240:	e2833004 	add	r3, r3, #4
    8244:	e083300e 	add	r3, r3, lr
    8248:	e484c004 	str	ip, [r4], #4
    824c:	e1540003 	cmp	r4, r3
    8250:	1afffffc 	bne	8248 <_clear_bss+0x40>
    8254:	eb00052b 	bl	9708 <kernel_main>
    8258:	eafffffe 	b	8258 <_clear_bss+0x50>
    825c:	00003df0 	strdeq	r3, [r0], -r0
    8260:	0000001c 	andeq	r0, r0, ip, lsl r0
    8264:	00000010 	andeq	r0, r0, r0, lsl r0

00008268 <RPI_GetArmTimer>:
    8268:	e3a00b2d 	mov	r0, #46080	; 0xb400
    826c:	e3430f00 	movt	r0, #16128	; 0x3f00
    8270:	e12fff1e 	bx	lr

00008274 <arm_timer_init>:
    8274:	e92d4010 	push	{r4, lr}
    8278:	eb000008 	bl	82a0 <RPI_GetIrqController>
    827c:	e3a03001 	mov	r3, #1
    8280:	e5803018 	str	r3, [r0, #24]
    8284:	ebfffff7 	bl	8268 <RPI_GetArmTimer>
    8288:	e3a03b01 	mov	r3, #1024	; 0x400
    828c:	e5803000 	str	r3, [r0]
    8290:	ebfffff4 	bl	8268 <RPI_GetArmTimer>
    8294:	e3a030aa 	mov	r3, #170	; 0xaa
    8298:	e5803008 	str	r3, [r0, #8]
    829c:	e8bd8010 	pop	{r4, pc}

000082a0 <RPI_GetIrqController>:
    82a0:	e3a00cb2 	mov	r0, #45568	; 0xb200
    82a4:	e3430f00 	movt	r0, #16128	; 0x3f00
    82a8:	e12fff1e 	bx	lr

000082ac <reset_vector>:
    82ac:	e24ee004 	sub	lr, lr, #4
    82b0:	e92d500f 	push	{r0, r1, r2, r3, ip, lr}
    82b4:	e59f0008 	ldr	r0, [pc, #8]	; 82c4 <reset_vector+0x18>
    82b8:	e08f0000 	add	r0, pc, r0
    82bc:	eb0003d8 	bl	9224 <uart_puts>
    82c0:	eafffffe 	b	82c0 <reset_vector+0x14>
    82c4:	00002dac 	andeq	r2, r0, ip, lsr #27

000082c8 <undefined_instruction_vector>:
    82c8:	e92d500f 	push	{r0, r1, r2, r3, ip, lr}
    82cc:	e59f0008 	ldr	r0, [pc, #8]	; 82dc <undefined_instruction_vector+0x14>
    82d0:	e08f0000 	add	r0, pc, r0
    82d4:	eb0003d2 	bl	9224 <uart_puts>
    82d8:	eafffffe 	b	82d8 <undefined_instruction_vector+0x10>
    82dc:	00002db0 			; <UNDEFINED> instruction: 0x00002db0

000082e0 <software_interrupt_vector>:
    82e0:	e92d500f 	push	{r0, r1, r2, r3, ip, lr}
    82e4:	e59f0008 	ldr	r0, [pc, #8]	; 82f4 <software_interrupt_vector+0x14>
    82e8:	e08f0000 	add	r0, pc, r0
    82ec:	eb0003cc 	bl	9224 <uart_puts>
    82f0:	e8fd900f 	ldm	sp!, {r0, r1, r2, r3, ip, pc}^
    82f4:	00002db4 			; <UNDEFINED> instruction: 0x00002db4

000082f8 <prefetch_abort_vector>:
    82f8:	e24ee004 	sub	lr, lr, #4
    82fc:	e92d500f 	push	{r0, r1, r2, r3, ip, lr}
    8300:	e59f0008 	ldr	r0, [pc, #8]	; 8310 <prefetch_abort_vector+0x18>
    8304:	e08f0000 	add	r0, pc, r0
    8308:	eb0003c5 	bl	9224 <uart_puts>
    830c:	eafffffe 	b	830c <prefetch_abort_vector+0x14>
    8310:	00002db4 			; <UNDEFINED> instruction: 0x00002db4

00008314 <data_abort_vector>:
    8314:	e24ee004 	sub	lr, lr, #4
    8318:	e92d500f 	push	{r0, r1, r2, r3, ip, lr}
    831c:	e59f0008 	ldr	r0, [pc, #8]	; 832c <data_abort_vector+0x18>
    8320:	e08f0000 	add	r0, pc, r0
    8324:	eb0003be 	bl	9224 <uart_puts>
    8328:	eafffffe 	b	8328 <data_abort_vector+0x14>
    832c:	00002dc4 	andeq	r2, r0, r4, asr #27

00008330 <fast_interrupt_vector>:
    8330:	e24ee004 	sub	lr, lr, #4
    8334:	e92d401f 	push	{r0, r1, r2, r3, r4, lr}
    8338:	e59f0008 	ldr	r0, [pc, #8]	; 8348 <fast_interrupt_vector+0x18>
    833c:	e08f0000 	add	r0, pc, r0
    8340:	eb0003b7 	bl	9224 <uart_puts>
    8344:	e8fd801f 	ldm	sp!, {r0, r1, r2, r3, r4, pc}^
    8348:	00002dd0 	ldrdeq	r2, [r0], -r0

0000834c <irq_handler>:
    834c:	e59f00d4 	ldr	r0, [pc, #212]	; 8428 <irq_handler+0xdc>
    8350:	e92d4010 	push	{r4, lr}
    8354:	e08f0000 	add	r0, pc, r0
    8358:	e3a04000 	mov	r4, #0
    835c:	eb00050b 	bl	9790 <printf>
    8360:	e59fc0c4 	ldr	ip, [pc, #196]	; 842c <irq_handler+0xe0>
    8364:	e3a01cb2 	mov	r1, #45568	; 0xb200
    8368:	e3431f00 	movt	r1, #16128	; 0x3f00
    836c:	e08fc00c 	add	ip, pc, ip
    8370:	e3e0301f 	mvn	r3, #31
    8374:	e3a00001 	mov	r0, #1
    8378:	ea000003 	b	838c <irq_handler+0x40>
    837c:	e2844001 	add	r4, r4, #1
    8380:	e2833001 	add	r3, r3, #1
    8384:	e3540048 	cmp	r4, #72	; 0x48
    8388:	0a000021 	beq	8414 <irq_handler+0xc8>
    838c:	e354003f 	cmp	r4, #63	; 0x3f
    8390:	ca00001a 	bgt	8400 <irq_handler+0xb4>
    8394:	e353001f 	cmp	r3, #31
    8398:	9a00001e 	bls	8418 <irq_handler+0xcc>
    839c:	e354001f 	cmp	r4, #31
    83a0:	cafffff5 	bgt	837c <irq_handler+0x30>
    83a4:	e5912004 	ldr	r2, [r1, #4]
    83a8:	e0122410 	ands	r2, r2, r0, lsl r4
    83ac:	0afffff2 	beq	837c <irq_handler+0x30>
    83b0:	e79c2104 	ldr	r2, [ip, r4, lsl #2]
    83b4:	e1a0e104 	lsl	lr, r4, #2
    83b8:	e3520000 	cmp	r2, #0
    83bc:	0affffee 	beq	837c <irq_handler+0x30>
    83c0:	e08cc00e 	add	ip, ip, lr
    83c4:	e59c3120 	ldr	r3, [ip, #288]	; 0x120
    83c8:	e12fff33 	blx	r3
    83cc:	e10f3000 	mrs	r3, CPSR
    83d0:	e3130080 	tst	r3, #128	; 0x80
    83d4:	0a000000 	beq	83dc <irq_handler+0x90>
    83d8:	f1080080 	cpsie	i
    83dc:	e59f304c 	ldr	r3, [pc, #76]	; 8430 <irq_handler+0xe4>
    83e0:	e08f3003 	add	r3, pc, r3
    83e4:	e7933104 	ldr	r3, [r3, r4, lsl #2]
    83e8:	e12fff33 	blx	r3
    83ec:	e10f3000 	mrs	r3, CPSR
    83f0:	e3130080 	tst	r3, #128	; 0x80
    83f4:	18bd8010 	popne	{r4, pc}
    83f8:	f10c0080 	cpsid	i
    83fc:	e8bd8010 	pop	{r4, pc}
    8400:	e5912000 	ldr	r2, [r1]
    8404:	e244e040 	sub	lr, r4, #64	; 0x40
    8408:	e0122e10 	ands	r2, r2, r0, lsl lr
    840c:	1affffe7 	bne	83b0 <irq_handler+0x64>
    8410:	eaffffdf 	b	8394 <irq_handler+0x48>
    8414:	e8bd8010 	pop	{r4, pc}
    8418:	e5912008 	ldr	r2, [r1, #8]
    841c:	e0122310 	ands	r2, r2, r0, lsl r3
    8420:	1affffe2 	bne	83b0 <irq_handler+0x64>
    8424:	eaffffd4 	b	837c <irq_handler+0x30>
    8428:	00002de4 	andeq	r2, r0, r4, ror #27
    842c:	00004c8c 	andeq	r4, r0, ip, lsl #25
    8430:	00004c18 	andeq	r4, r0, r8, lsl ip

00008434 <register_irq_handler>:
    8434:	e350003f 	cmp	r0, #63	; 0x3f
    8438:	e92d4070 	push	{r4, r5, r6, lr}
    843c:	8a00001b 	bhi	84b0 <register_irq_handler+0x7c>
    8440:	e2403020 	sub	r3, r0, #32
    8444:	e6efc073 	uxtb	ip, r3
    8448:	e35c001f 	cmp	ip, #31
    844c:	9a00000b 	bls	8480 <register_irq_handler+0x4c>
    8450:	e59f308c 	ldr	r3, [pc, #140]	; 84e4 <register_irq_handler+0xb0>
    8454:	e3a0ccb2 	mov	ip, #45568	; 0xb200
    8458:	e343cf00 	movt	ip, #16128	; 0x3f00
    845c:	e08f3003 	add	r3, pc, r3
    8460:	e3a05001 	mov	r5, #1
    8464:	e0834100 	add	r4, r3, r0, lsl #2
    8468:	e59ce010 	ldr	lr, [ip, #16]
    846c:	e7831100 	str	r1, [r3, r0, lsl #2]
    8470:	e5842120 	str	r2, [r4, #288]	; 0x120
    8474:	e18e0015 	orr	r0, lr, r5, lsl r0
    8478:	e58c0010 	str	r0, [ip, #16]
    847c:	e8bd8070 	pop	{r4, r5, r6, pc}
    8480:	e59fc060 	ldr	ip, [pc, #96]	; 84e8 <register_irq_handler+0xb4>
    8484:	e3a0ecb2 	mov	lr, #45568	; 0xb200
    8488:	e343ef00 	movt	lr, #16128	; 0x3f00
    848c:	e08fc00c 	add	ip, pc, ip
    8490:	e3a06001 	mov	r6, #1
    8494:	e08c5100 	add	r5, ip, r0, lsl #2
    8498:	e59e4014 	ldr	r4, [lr, #20]
    849c:	e78c1100 	str	r1, [ip, r0, lsl #2]
    84a0:	e1843316 	orr	r3, r4, r6, lsl r3
    84a4:	e5852120 	str	r2, [r5, #288]	; 0x120
    84a8:	e58e3014 	str	r3, [lr, #20]
    84ac:	e8bd8070 	pop	{r4, r5, r6, pc}
    84b0:	e59f3034 	ldr	r3, [pc, #52]	; 84ec <register_irq_handler+0xb8>
    84b4:	e3a0ccb2 	mov	ip, #45568	; 0xb200
    84b8:	e343cf00 	movt	ip, #16128	; 0x3f00
    84bc:	e08f3003 	add	r3, pc, r3
    84c0:	e2405040 	sub	r5, r0, #64	; 0x40
    84c4:	e0834100 	add	r4, r3, r0, lsl #2
    84c8:	e3a06001 	mov	r6, #1
    84cc:	e59ce018 	ldr	lr, [ip, #24]
    84d0:	e7831100 	str	r1, [r3, r0, lsl #2]
    84d4:	e5842120 	str	r2, [r4, #288]	; 0x120
    84d8:	e18e3516 	orr	r3, lr, r6, lsl r5
    84dc:	e58c3018 	str	r3, [ip, #24]
    84e0:	e8bd8070 	pop	{r4, r5, r6, pc}
    84e4:	00004b9c 	muleq	r0, ip, fp
    84e8:	00004b6c 	andeq	r4, r0, ip, ror #22
    84ec:	00004b3c 	andeq	r4, r0, ip, lsr fp

000084f0 <unregister_irq_handler>:
    84f0:	e350003f 	cmp	r0, #63	; 0x3f
    84f4:	e92d4030 	push	{r4, r5, lr}
    84f8:	8a00001d 	bhi	8574 <unregister_irq_handler+0x84>
    84fc:	e2403020 	sub	r3, r0, #32
    8500:	e6ef2073 	uxtb	r2, r3
    8504:	e352001f 	cmp	r2, #31
    8508:	9a00000c 	bls	8540 <unregister_irq_handler+0x50>
    850c:	e59f3098 	ldr	r3, [pc, #152]	; 85ac <unregister_irq_handler+0xbc>
    8510:	e3a02cb2 	mov	r2, #45568	; 0xb200
    8514:	e3432f00 	movt	r2, #16128	; 0x3f00
    8518:	e08f3003 	add	r3, pc, r3
    851c:	e3a04001 	mov	r4, #1
    8520:	e083e100 	add	lr, r3, r0, lsl #2
    8524:	e3a0c000 	mov	ip, #0
    8528:	e592101c 	ldr	r1, [r2, #28]
    852c:	e783c100 	str	ip, [r3, r0, lsl #2]
    8530:	e58ec120 	str	ip, [lr, #288]	; 0x120
    8534:	e1810014 	orr	r0, r1, r4, lsl r0
    8538:	e582001c 	str	r0, [r2, #28]
    853c:	e8bd8030 	pop	{r4, r5, pc}
    8540:	e59f2068 	ldr	r2, [pc, #104]	; 85b0 <unregister_irq_handler+0xc0>
    8544:	e3a01cb2 	mov	r1, #45568	; 0xb200
    8548:	e3431f00 	movt	r1, #16128	; 0x3f00
    854c:	e08f2002 	add	r2, pc, r2
    8550:	e3a05001 	mov	r5, #1
    8554:	e0824100 	add	r4, r2, r0, lsl #2
    8558:	e3a0e000 	mov	lr, #0
    855c:	e591c020 	ldr	ip, [r1, #32]
    8560:	e782e100 	str	lr, [r2, r0, lsl #2]
    8564:	e18c3315 	orr	r3, ip, r5, lsl r3
    8568:	e584e120 	str	lr, [r4, #288]	; 0x120
    856c:	e5813020 	str	r3, [r1, #32]
    8570:	e8bd8030 	pop	{r4, r5, pc}
    8574:	e59f3038 	ldr	r3, [pc, #56]	; 85b4 <unregister_irq_handler+0xc4>
    8578:	e3a02cb2 	mov	r2, #45568	; 0xb200
    857c:	e3432f00 	movt	r2, #16128	; 0x3f00
    8580:	e08f3003 	add	r3, pc, r3
    8584:	e2404040 	sub	r4, r0, #64	; 0x40
    8588:	e083e100 	add	lr, r3, r0, lsl #2
    858c:	e3a05001 	mov	r5, #1
    8590:	e5921024 	ldr	r1, [r2, #36]	; 0x24
    8594:	e3a0c000 	mov	ip, #0
    8598:	e783c100 	str	ip, [r3, r0, lsl #2]
    859c:	e58ec120 	str	ip, [lr, #288]	; 0x120
    85a0:	e1813415 	orr	r3, r1, r5, lsl r4
    85a4:	e5823024 	str	r3, [r2, #36]	; 0x24
    85a8:	e8bd8030 	pop	{r4, r5, pc}
    85ac:	00004ae0 	andeq	r4, r0, r0, ror #21
    85b0:	00004aac 	andeq	r4, r0, ip, lsr #21
    85b4:	00004a78 	andeq	r4, r0, r8, ror sl

000085b8 <memset>:
    85b8:	e3520000 	cmp	r2, #0
    85bc:	e6ef1071 	uxtb	r1, r1
    85c0:	012fff1e 	bxeq	lr
    85c4:	e0802002 	add	r2, r0, r2
    85c8:	e1a03000 	mov	r3, r0
    85cc:	e4c31001 	strb	r1, [r3], #1
    85d0:	e1530002 	cmp	r3, r2
    85d4:	1afffffc 	bne	85cc <memset+0x14>
    85d8:	e12fff1e 	bx	lr

000085dc <bzero>:
    85dc:	e1a02001 	mov	r2, r1
    85e0:	e3a01000 	mov	r1, #0
    85e4:	eafffff3 	b	85b8 <memset>

000085e8 <interrupts_init>:
    85e8:	e92d4010 	push	{r4, lr}
    85ec:	ebfffeca 	bl	811c <_enable_interrupts>
    85f0:	e10f3000 	mrs	r3, CPSR
    85f4:	e3130080 	tst	r3, #128	; 0x80
    85f8:	1a000000 	bne	8600 <interrupts_init+0x18>
    85fc:	f10c0080 	cpsid	i
    8600:	e59f4044 	ldr	r4, [pc, #68]	; 864c <interrupts_init+0x64>
    8604:	e3a01e12 	mov	r1, #288	; 0x120
    8608:	e08f4004 	add	r4, pc, r4
    860c:	e1a00004 	mov	r0, r4
    8610:	ebfffff1 	bl	85dc <bzero>
    8614:	e2840e12 	add	r0, r4, #288	; 0x120
    8618:	e3a01e12 	mov	r1, #288	; 0x120
    861c:	ebffffee 	bl	85dc <bzero>
    8620:	e3a03cb2 	mov	r3, #45568	; 0xb200
    8624:	e3433f00 	movt	r3, #16128	; 0x3f00
    8628:	e3e02000 	mvn	r2, #0
    862c:	e5832024 	str	r2, [r3, #36]	; 0x24
    8630:	e583201c 	str	r2, [r3, #28]
    8634:	e5832020 	str	r2, [r3, #32]
    8638:	e10f3000 	mrs	r3, CPSR
    863c:	e3130080 	tst	r3, #128	; 0x80
    8640:	08bd8010 	popeq	{r4, pc}
    8644:	f1080080 	cpsie	i
    8648:	e8bd8010 	pop	{r4, pc}
    864c:	000049f0 	strdeq	r4, [r0], -r0

00008650 <RPI_Mailbox0Write>:
    8650:	e3c1100f 	bic	r1, r1, #15
    8654:	e3a0cb2e 	mov	ip, #47104	; 0xb800
    8658:	e343cf00 	movt	ip, #16128	; 0x3f00
    865c:	e1800001 	orr	r0, r0, r1
    8660:	e59c2098 	ldr	r2, [ip, #152]	; 0x98
    8664:	e3a03b2e 	mov	r3, #47104	; 0xb800
    8668:	e3433f00 	movt	r3, #16128	; 0x3f00
    866c:	e3520000 	cmp	r2, #0
    8670:	bafffffa 	blt	8660 <RPI_Mailbox0Write+0x10>
    8674:	e58300a0 	str	r0, [r3, #160]	; 0xa0
    8678:	e12fff1e 	bx	lr

0000867c <RPI_Mailbox0Read>:
    867c:	e350000f 	cmp	r0, #15
    8680:	0a00000b 	beq	86b4 <RPI_Mailbox0Read+0x38>
    8684:	e3a02b2e 	mov	r2, #47104	; 0xb800
    8688:	e3432f00 	movt	r2, #16128	; 0x3f00
    868c:	e1a0c002 	mov	ip, r2
    8690:	e5923098 	ldr	r3, [r2, #152]	; 0x98
    8694:	e3130101 	tst	r3, #1073741824	; 0x40000000
    8698:	1afffffc 	bne	8690 <RPI_Mailbox0Read+0x14>
    869c:	e59c3080 	ldr	r3, [ip, #128]	; 0x80
    86a0:	e203100f 	and	r1, r3, #15
    86a4:	e1510000 	cmp	r1, r0
    86a8:	1afffff8 	bne	8690 <RPI_Mailbox0Read+0x14>
    86ac:	e1a00243 	asr	r0, r3, #4
    86b0:	e12fff1e 	bx	lr
    86b4:	e3e00000 	mvn	r0, #0
    86b8:	e12fff1e 	bx	lr

000086bc <RPI_PropertyInit>:
    86bc:	e59f3028 	ldr	r3, [pc, #40]	; 86ec <RPI_PropertyInit+0x30>
    86c0:	e3a01000 	mov	r1, #0
    86c4:	e59f2024 	ldr	r2, [pc, #36]	; 86f0 <RPI_PropertyInit+0x34>
    86c8:	e3a0c00c 	mov	ip, #12
    86cc:	e08f3003 	add	r3, pc, r3
    86d0:	e3a00002 	mov	r0, #2
    86d4:	e08f2002 	add	r2, pc, r2
    86d8:	e583c000 	str	ip, [r3]
    86dc:	e5831004 	str	r1, [r3, #4]
    86e0:	e5831008 	str	r1, [r3, #8]
    86e4:	e5820020 	str	r0, [r2, #32]
    86e8:	e12fff1e 	bx	lr
    86ec:	00004b7c 	andeq	r4, r0, ip, ror fp
    86f0:	0000cb54 	andeq	ip, r0, r4, asr fp

000086f4 <RPI_PropertyAddTag>:
    86f4:	e92d000f 	push	{r0, r1, r2, r3}
    86f8:	e59f144c 	ldr	r1, [pc, #1100]	; 8b4c <RPI_PropertyAddTag+0x458>
    86fc:	e3a00008 	mov	r0, #8
    8700:	e3400004 	movt	r0, #4
    8704:	e92d40f0 	push	{r4, r5, r6, r7, lr}
    8708:	e08f1001 	add	r1, pc, r1
    870c:	e59fc43c 	ldr	ip, [pc, #1084]	; 8b50 <RPI_PropertyAddTag+0x45c>
    8710:	e24dd00c 	sub	sp, sp, #12
    8714:	e08fc00c 	add	ip, pc, ip
    8718:	e28de024 	add	lr, sp, #36	; 0x24
    871c:	e5913020 	ldr	r3, [r1, #32]
    8720:	e59d2020 	ldr	r2, [sp, #32]
    8724:	e58de004 	str	lr, [sp, #4]
    8728:	e1520000 	cmp	r2, r0
    872c:	e78c2103 	str	r2, [ip, r3, lsl #2]
    8730:	e2830001 	add	r0, r3, #1
    8734:	e5810020 	str	r0, [r1, #32]
    8738:	8a000047 	bhi	885c <RPI_PropertyAddTag+0x168>
    873c:	e3a04005 	mov	r4, #5
    8740:	e3404004 	movt	r4, #4
    8744:	e1520004 	cmp	r2, r4
    8748:	2a00008c 	bcs	8980 <RPI_PropertyAddTag+0x28c>
    874c:	e3a04002 	mov	r4, #2
    8750:	e3404003 	movt	r4, #3
    8754:	e1520004 	cmp	r2, r4
    8758:	0a00002d 	beq	8814 <RPI_PropertyAddTag+0x120>
    875c:	8a00001f 	bhi	87e0 <RPI_PropertyAddTag+0xec>
    8760:	e3a04006 	mov	r4, #6
    8764:	e3404001 	movt	r4, #1
    8768:	e1520004 	cmp	r2, r4
    876c:	9a0000d0 	bls	8ab4 <RPI_PropertyAddTag+0x3c0>
    8770:	e3a04001 	mov	r4, #1
    8774:	e3404002 	movt	r4, #2
    8778:	e1520004 	cmp	r2, r4
    877c:	0a000024 	beq	8814 <RPI_PropertyAddTag+0x120>
    8780:	e3084001 	movw	r4, #32769	; 0x8001
    8784:	e3404002 	movt	r4, #2
    8788:	e1520004 	cmp	r2, r4
    878c:	1a000090 	bne	89d4 <RPI_PropertyAddTag+0x2e0>
    8790:	e2835002 	add	r5, r3, #2
    8794:	e2832004 	add	r2, r3, #4
    8798:	e2834003 	add	r4, r3, #3
    879c:	e3a06008 	mov	r6, #8
    87a0:	e2833005 	add	r3, r3, #5
    87a4:	e78c6100 	str	r6, [ip, r0, lsl #2]
    87a8:	e5813020 	str	r3, [r1, #32]
    87ac:	e3a06000 	mov	r6, #0
    87b0:	e89e0003 	ldm	lr, {r0, r1}
    87b4:	e78c6105 	str	r6, [ip, r5, lsl #2]
    87b8:	e78c0104 	str	r0, [ip, r4, lsl #2]
    87bc:	e78c1102 	str	r1, [ip, r2, lsl #2]
    87c0:	e59f238c 	ldr	r2, [pc, #908]	; 8b54 <RPI_PropertyAddTag+0x460>
    87c4:	e3a01000 	mov	r1, #0
    87c8:	e08f2002 	add	r2, pc, r2
    87cc:	e7821103 	str	r1, [r2, r3, lsl #2]
    87d0:	e28dd00c 	add	sp, sp, #12
    87d4:	e8bd40f0 	pop	{r4, r5, r6, r7, lr}
    87d8:	e28dd010 	add	sp, sp, #16
    87dc:	e12fff1e 	bx	lr
    87e0:	e3084002 	movw	r4, #32770	; 0x8002
    87e4:	e3404003 	movt	r4, #3
    87e8:	e1520004 	cmp	r2, r4
    87ec:	0a00004f 	beq	8930 <RPI_PropertyAddTag+0x23c>
    87f0:	8a0000cb 	bhi	8b24 <RPI_PropertyAddTag+0x430>
    87f4:	e3a01004 	mov	r1, #4
    87f8:	e3401003 	movt	r1, #3
    87fc:	e1520001 	cmp	r2, r1
    8800:	0a000003 	beq	8814 <RPI_PropertyAddTag+0x120>
    8804:	e3a01007 	mov	r1, #7
    8808:	e3401003 	movt	r1, #3
    880c:	e1520001 	cmp	r2, r1
    8810:	1a000073 	bne	89e4 <RPI_PropertyAddTag+0x2f0>
    8814:	e59f233c 	ldr	r2, [pc, #828]	; 8b58 <RPI_PropertyAddTag+0x464>
    8818:	e2835002 	add	r5, r3, #2
    881c:	e59f1338 	ldr	r1, [pc, #824]	; 8b5c <RPI_PropertyAddTag+0x468>
    8820:	e283e003 	add	lr, r3, #3
    8824:	e59d4004 	ldr	r4, [sp, #4]
    8828:	e08f2002 	add	r2, pc, r2
    882c:	e283c004 	add	ip, r3, #4
    8830:	e08f1001 	add	r1, pc, r1
    8834:	e3a06008 	mov	r6, #8
    8838:	e2833005 	add	r3, r3, #5
    883c:	e5944000 	ldr	r4, [r4]
    8840:	e5813020 	str	r3, [r1, #32]
    8844:	e7826100 	str	r6, [r2, r0, lsl #2]
    8848:	e3a00000 	mov	r0, #0
    884c:	e7820105 	str	r0, [r2, r5, lsl #2]
    8850:	e782410e 	str	r4, [r2, lr, lsl #2]
    8854:	e782010c 	str	r0, [r2, ip, lsl #2]
    8858:	eaffffd8 	b	87c0 <RPI_PropertyAddTag+0xcc>
    885c:	e3081004 	movw	r1, #32772	; 0x8004
    8860:	e3401004 	movt	r1, #4
    8864:	e1520001 	cmp	r2, r1
    8868:	9a000061 	bls	89f4 <RPI_PropertyAddTag+0x300>
    886c:	e3081009 	movw	r1, #32777	; 0x8009
    8870:	e3401004 	movt	r1, #4
    8874:	e1520001 	cmp	r2, r1
    8878:	0a00006a 	beq	8a28 <RPI_PropertyAddTag+0x334>
    887c:	9a00003b 	bls	8970 <RPI_PropertyAddTag+0x27c>
    8880:	e3a01001 	mov	r1, #1
    8884:	e3401005 	movt	r1, #5
    8888:	e1520001 	cmp	r2, r1
    888c:	0a000098 	beq	8af4 <RPI_PropertyAddTag+0x400>
    8890:	e3a01001 	mov	r1, #1
    8894:	e3401006 	movt	r1, #6
    8898:	e1520001 	cmp	r2, r1
    889c:	0a000088 	beq	8ac4 <RPI_PropertyAddTag+0x3d0>
    88a0:	e308100a 	movw	r1, #32778	; 0x800a
    88a4:	e3401004 	movt	r1, #4
    88a8:	e1520001 	cmp	r2, r1
    88ac:	1a00004c 	bne	89e4 <RPI_PropertyAddTag+0x2f0>
    88b0:	e59f12a8 	ldr	r1, [pc, #680]	; 8b60 <RPI_PropertyAddTag+0x46c>
    88b4:	e283c002 	add	ip, r3, #2
    88b8:	e59fe2a4 	ldr	lr, [pc, #676]	; 8b64 <RPI_PropertyAddTag+0x470>
    88bc:	e308400a 	movw	r4, #32778	; 0x800a
    88c0:	e3404004 	movt	r4, #4
    88c4:	e08f1001 	add	r1, pc, r1
    88c8:	e08fe00e 	add	lr, pc, lr
    88cc:	e1520004 	cmp	r2, r4
    88d0:	e3a02010 	mov	r2, #16
    88d4:	e3a04000 	mov	r4, #0
    88d8:	e7812100 	str	r2, [r1, r0, lsl #2]
    88dc:	e2830003 	add	r0, r3, #3
    88e0:	e781410c 	str	r4, [r1, ip, lsl #2]
    88e4:	12833007 	addne	r3, r3, #7
    88e8:	e58e0020 	str	r0, [lr, #32]
    88ec:	158e3020 	strne	r3, [lr, #32]
    88f0:	1affffb2 	bne	87c0 <RPI_PropertyAddTag+0xcc>
    88f4:	e59d2004 	ldr	r2, [sp, #4]
    88f8:	e2835004 	add	r5, r3, #4
    88fc:	e2834005 	add	r4, r3, #5
    8900:	e283c006 	add	ip, r3, #6
    8904:	e2833007 	add	r3, r3, #7
    8908:	e58e3020 	str	r3, [lr, #32]
    890c:	e592e000 	ldr	lr, [r2]
    8910:	e781e100 	str	lr, [r1, r0, lsl #2]
    8914:	e592e004 	ldr	lr, [r2, #4]
    8918:	e5920008 	ldr	r0, [r2, #8]
    891c:	e592200c 	ldr	r2, [r2, #12]
    8920:	e781e105 	str	lr, [r1, r5, lsl #2]
    8924:	e7810104 	str	r0, [r1, r4, lsl #2]
    8928:	e781210c 	str	r2, [r1, ip, lsl #2]
    892c:	eaffffa3 	b	87c0 <RPI_PropertyAddTag+0xcc>
    8930:	e2836002 	add	r6, r3, #2
    8934:	e2835003 	add	r5, r3, #3
    8938:	e2832005 	add	r2, r3, #5
    893c:	e2834004 	add	r4, r3, #4
    8940:	e3a0700c 	mov	r7, #12
    8944:	e2833006 	add	r3, r3, #6
    8948:	e78c7100 	str	r7, [ip, r0, lsl #2]
    894c:	e3a00000 	mov	r0, #0
    8950:	e5813020 	str	r3, [r1, #32]
    8954:	e78c0106 	str	r0, [ip, r6, lsl #2]
    8958:	e59e6000 	ldr	r6, [lr]
    895c:	e99e0003 	ldmib	lr, {r0, r1}
    8960:	e78c6105 	str	r6, [ip, r5, lsl #2]
    8964:	e78c0104 	str	r0, [ip, r4, lsl #2]
    8968:	e78c1102 	str	r1, [ip, r2, lsl #2]
    896c:	eaffff93 	b	87c0 <RPI_PropertyAddTag+0xcc>
    8970:	e3081007 	movw	r1, #32775	; 0x8007
    8974:	e3401004 	movt	r1, #4
    8978:	e1520001 	cmp	r2, r1
    897c:	8a000018 	bhi	89e4 <RPI_PropertyAddTag+0x2f0>
    8980:	e59fc1e0 	ldr	ip, [pc, #480]	; 8b68 <RPI_PropertyAddTag+0x474>
    8984:	e2421912 	sub	r1, r2, #294912	; 0x48000
    8988:	e2832002 	add	r2, r3, #2
    898c:	e2411005 	sub	r1, r1, #5
    8990:	e08fc00c 	add	ip, pc, ip
    8994:	e3510002 	cmp	r1, #2
    8998:	e3a0e004 	mov	lr, #4
    899c:	e3a01000 	mov	r1, #0
    89a0:	e78ce100 	str	lr, [ip, r0, lsl #2]
    89a4:	e2830003 	add	r0, r3, #3
    89a8:	e78c1102 	str	r1, [ip, r2, lsl #2]
    89ac:	9083300e 	addls	r3, r3, lr
    89b0:	e59f21b4 	ldr	r2, [pc, #436]	; 8b6c <RPI_PropertyAddTag+0x478>
    89b4:	82833004 	addhi	r3, r3, #4
    89b8:	959d1004 	ldrls	r1, [sp, #4]
    89bc:	e08f2002 	add	r2, pc, r2
    89c0:	95823020 	strls	r3, [r2, #32]
    89c4:	95912000 	ldrls	r2, [r1]
    89c8:	978c2100 	strls	r2, [ip, r0, lsl #2]
    89cc:	85823020 	strhi	r3, [r2, #32]
    89d0:	eaffff7a 	b	87c0 <RPI_PropertyAddTag+0xcc>
    89d4:	e3a01007 	mov	r1, #7
    89d8:	e3401001 	movt	r1, #1
    89dc:	e1520001 	cmp	r2, r1
    89e0:	0a000043 	beq	8af4 <RPI_PropertyAddTag+0x400>
    89e4:	e59f2184 	ldr	r2, [pc, #388]	; 8b70 <RPI_PropertyAddTag+0x47c>
    89e8:	e08f2002 	add	r2, pc, r2
    89ec:	e5823020 	str	r3, [r2, #32]
    89f0:	eaffff72 	b	87c0 <RPI_PropertyAddTag+0xcc>
    89f4:	e3081003 	movw	r1, #32771	; 0x8003
    89f8:	e3401004 	movt	r1, #4
    89fc:	e1520001 	cmp	r2, r1
    8a00:	2a000008 	bcs	8a28 <RPI_PropertyAddTag+0x334>
    8a04:	e3a0100a 	mov	r1, #10
    8a08:	e3401004 	movt	r1, #4
    8a0c:	e1520001 	cmp	r2, r1
    8a10:	0affffa6 	beq	88b0 <RPI_PropertyAddTag+0x1bc>
    8a14:	3a000003 	bcc	8a28 <RPI_PropertyAddTag+0x334>
    8a18:	e2421911 	sub	r1, r2, #278528	; 0x44000
    8a1c:	e2411003 	sub	r1, r1, #3
    8a20:	e3510001 	cmp	r1, #1
    8a24:	8affffee 	bhi	89e4 <RPI_PropertyAddTag+0x2f0>
    8a28:	e59f1144 	ldr	r1, [pc, #324]	; 8b74 <RPI_PropertyAddTag+0x480>
    8a2c:	e283c002 	add	ip, r3, #2
    8a30:	e59f4140 	ldr	r4, [pc, #320]	; 8b78 <RPI_PropertyAddTag+0x484>
    8a34:	e308e009 	movw	lr, #32777	; 0x8009
    8a38:	e340e004 	movt	lr, #4
    8a3c:	e08f1001 	add	r1, pc, r1
    8a40:	e08f4004 	add	r4, pc, r4
    8a44:	e152000e 	cmp	r2, lr
    8a48:	e3a05000 	mov	r5, #0
    8a4c:	e3a0e008 	mov	lr, #8
    8a50:	e781e100 	str	lr, [r1, r0, lsl #2]
    8a54:	e283e003 	add	lr, r3, #3
    8a58:	e781510c 	str	r5, [r1, ip, lsl #2]
    8a5c:	e584e020 	str	lr, [r4, #32]
    8a60:	0a000006 	beq	8a80 <RPI_PropertyAddTag+0x38c>
    8a64:	e2422911 	sub	r2, r2, #278528	; 0x44000
    8a68:	e2422003 	sub	r2, r2, #3
    8a6c:	e3c22901 	bic	r2, r2, #16384	; 0x4000
    8a70:	e3520001 	cmp	r2, #1
    8a74:	82833005 	addhi	r3, r3, #5
    8a78:	85843020 	strhi	r3, [r4, #32]
    8a7c:	8affff4f 	bhi	87c0 <RPI_PropertyAddTag+0xcc>
    8a80:	e59f10f4 	ldr	r1, [pc, #244]	; 8b7c <RPI_PropertyAddTag+0x488>
    8a84:	e283c004 	add	ip, r3, #4
    8a88:	e59f20f0 	ldr	r2, [pc, #240]	; 8b80 <RPI_PropertyAddTag+0x48c>
    8a8c:	e2833005 	add	r3, r3, #5
    8a90:	e59d0004 	ldr	r0, [sp, #4]
    8a94:	e08f1001 	add	r1, pc, r1
    8a98:	e08f2002 	add	r2, pc, r2
    8a9c:	e5904000 	ldr	r4, [r0]
    8aa0:	e5900004 	ldr	r0, [r0, #4]
    8aa4:	e5823020 	str	r3, [r2, #32]
    8aa8:	e781410e 	str	r4, [r1, lr, lsl #2]
    8aac:	e781010c 	str	r0, [r1, ip, lsl #2]
    8ab0:	eaffff42 	b	87c0 <RPI_PropertyAddTag+0xcc>
    8ab4:	e3520801 	cmp	r2, #65536	; 0x10000
    8ab8:	8a000001 	bhi	8ac4 <RPI_PropertyAddTag+0x3d0>
    8abc:	e3520001 	cmp	r2, #1
    8ac0:	1affffc7 	bne	89e4 <RPI_PropertyAddTag+0x2f0>
    8ac4:	e59f20b8 	ldr	r2, [pc, #184]	; 8b84 <RPI_PropertyAddTag+0x490>
    8ac8:	e283c002 	add	ip, r3, #2
    8acc:	e59f10b4 	ldr	r1, [pc, #180]	; 8b88 <RPI_PropertyAddTag+0x494>
    8ad0:	e3a04008 	mov	r4, #8
    8ad4:	e08f2002 	add	r2, pc, r2
    8ad8:	e2833005 	add	r3, r3, #5
    8adc:	e08f1001 	add	r1, pc, r1
    8ae0:	e3a0e000 	mov	lr, #0
    8ae4:	e7824100 	str	r4, [r2, r0, lsl #2]
    8ae8:	e5813020 	str	r3, [r1, #32]
    8aec:	e782e10c 	str	lr, [r2, ip, lsl #2]
    8af0:	eaffff32 	b	87c0 <RPI_PropertyAddTag+0xcc>
    8af4:	e59f2090 	ldr	r2, [pc, #144]	; 8b8c <RPI_PropertyAddTag+0x498>
    8af8:	e283c002 	add	ip, r3, #2
    8afc:	e59f108c 	ldr	r1, [pc, #140]	; 8b90 <RPI_PropertyAddTag+0x49c>
    8b00:	e3a04c01 	mov	r4, #256	; 0x100
    8b04:	e08f2002 	add	r2, pc, r2
    8b08:	e2833043 	add	r3, r3, #67	; 0x43
    8b0c:	e08f1001 	add	r1, pc, r1
    8b10:	e3a0e000 	mov	lr, #0
    8b14:	e7824100 	str	r4, [r2, r0, lsl #2]
    8b18:	e5813020 	str	r3, [r1, #32]
    8b1c:	e782e10c 	str	lr, [r2, ip, lsl #2]
    8b20:	eaffff26 	b	87c0 <RPI_PropertyAddTag+0xcc>
    8b24:	e3a01001 	mov	r1, #1
    8b28:	e3401004 	movt	r1, #4
    8b2c:	e1520001 	cmp	r2, r1
    8b30:	0affff37 	beq	8814 <RPI_PropertyAddTag+0x120>
    8b34:	3affffaa 	bcc	89e4 <RPI_PropertyAddTag+0x2f0>
    8b38:	e3a01003 	mov	r1, #3
    8b3c:	e3401004 	movt	r1, #4
    8b40:	e1520001 	cmp	r2, r1
    8b44:	2affffb7 	bcs	8a28 <RPI_PropertyAddTag+0x334>
    8b48:	eaffffa5 	b	89e4 <RPI_PropertyAddTag+0x2f0>
    8b4c:	0000cb20 	andeq	ip, r0, r0, lsr #22
    8b50:	00004b34 	andeq	r4, r0, r4, lsr fp
    8b54:	00004a80 	andeq	r4, r0, r0, lsl #21
    8b58:	00004a20 	andeq	r4, r0, r0, lsr #20
    8b5c:	0000c9f8 	strdeq	ip, [r0], -r8
    8b60:	00004984 	andeq	r4, r0, r4, lsl #19
    8b64:	0000c960 	andeq	ip, r0, r0, ror #18
    8b68:	000048b8 			; <UNDEFINED> instruction: 0x000048b8
    8b6c:	0000c86c 	andeq	ip, r0, ip, ror #16
    8b70:	0000c840 	andeq	ip, r0, r0, asr #16
    8b74:	0000480c 	andeq	r4, r0, ip, lsl #16
    8b78:	0000c7e8 	andeq	ip, r0, r8, ror #15
    8b7c:	000047b4 			; <UNDEFINED> instruction: 0x000047b4
    8b80:	0000c790 	muleq	r0, r0, r7
    8b84:	00004774 	andeq	r4, r0, r4, ror r7
    8b88:	0000c74c 	andeq	ip, r0, ip, asr #14
    8b8c:	00004744 	andeq	r4, r0, r4, asr #14
    8b90:	0000c71c 	andeq	ip, r0, ip, lsl r7

00008b94 <RPI_PropertyProcess>:
    8b94:	e59f303c 	ldr	r3, [pc, #60]	; 8bd8 <RPI_PropertyProcess+0x44>
    8b98:	e3a00008 	mov	r0, #8
    8b9c:	e59f2038 	ldr	r2, [pc, #56]	; 8bdc <RPI_PropertyProcess+0x48>
    8ba0:	e3a0c000 	mov	ip, #0
    8ba4:	e08f3003 	add	r3, pc, r3
    8ba8:	e92d4010 	push	{r4, lr}
    8bac:	e5933020 	ldr	r3, [r3, #32]
    8bb0:	e08f2002 	add	r2, pc, r2
    8bb4:	e1a01002 	mov	r1, r2
    8bb8:	e2833001 	add	r3, r3, #1
    8bbc:	e582c004 	str	ip, [r2, #4]
    8bc0:	e1a03103 	lsl	r3, r3, #2
    8bc4:	e5823000 	str	r3, [r2]
    8bc8:	ebfffea0 	bl	8650 <RPI_Mailbox0Write>
    8bcc:	e3a00008 	mov	r0, #8
    8bd0:	e8bd4010 	pop	{r4, lr}
    8bd4:	eafffea8 	b	867c <RPI_Mailbox0Read>
    8bd8:	0000c684 	andeq	ip, r0, r4, lsl #13
    8bdc:	00004698 	muleq	r0, r8, r6

00008be0 <RPI_PropertyGet>:
    8be0:	e59f2094 	ldr	r2, [pc, #148]	; 8c7c <RPI_PropertyGet+0x9c>
    8be4:	e59f3094 	ldr	r3, [pc, #148]	; 8c80 <RPI_PropertyGet+0xa0>
    8be8:	e08f2002 	add	r2, pc, r2
    8bec:	e08f3003 	add	r3, pc, r3
    8bf0:	e92d4010 	push	{r4, lr}
    8bf4:	e592c000 	ldr	ip, [r2]
    8bf8:	e5830024 	str	r0, [r3, #36]	; 0x24
    8bfc:	e1a0c14c 	asr	ip, ip, #2
    8c00:	e35c0002 	cmp	ip, #2
    8c04:	da00000d 	ble	8c40 <RPI_PropertyGet+0x60>
    8c08:	e5923008 	ldr	r3, [r2, #8]
    8c0c:	e1530000 	cmp	r3, r0
    8c10:	e3a03002 	mov	r3, #2
    8c14:	1a000003 	bne	8c28 <RPI_PropertyGet+0x48>
    8c18:	ea00000a 	b	8c48 <RPI_PropertyGet+0x68>
    8c1c:	e7921103 	ldr	r1, [r2, r3, lsl #2]
    8c20:	e1500001 	cmp	r0, r1
    8c24:	0a000007 	beq	8c48 <RPI_PropertyGet+0x68>
    8c28:	e2831001 	add	r1, r3, #1
    8c2c:	e7921101 	ldr	r1, [r2, r1, lsl #2]
    8c30:	e0833141 	add	r3, r3, r1, asr #2
    8c34:	e2833003 	add	r3, r3, #3
    8c38:	e153000c 	cmp	r3, ip
    8c3c:	bafffff6 	blt	8c1c <RPI_PropertyGet+0x3c>
    8c40:	e3a00000 	mov	r0, #0
    8c44:	e8bd8010 	pop	{r4, pc}
    8c48:	e59f2034 	ldr	r2, [pc, #52]	; 8c84 <RPI_PropertyGet+0xa4>
    8c4c:	e59fc034 	ldr	ip, [pc, #52]	; 8c88 <RPI_PropertyGet+0xa8>
    8c50:	e08f2002 	add	r2, pc, r2
    8c54:	e0823103 	add	r3, r2, r3, lsl #2
    8c58:	e08fc00c 	add	ip, pc, ip
    8c5c:	e28c4024 	add	r4, ip, #36	; 0x24
    8c60:	e283100c 	add	r1, r3, #12
    8c64:	e28c002c 	add	r0, ip, #44	; 0x2c
    8c68:	e1d320b8 	ldrh	r2, [r3, #8]
    8c6c:	e58c2028 	str	r2, [ip, #40]	; 0x28
    8c70:	eb0002b7 	bl	9754 <memcpy>
    8c74:	e1a00004 	mov	r0, r4
    8c78:	e8bd8010 	pop	{r4, pc}
    8c7c:	00004660 	andeq	r4, r0, r0, ror #12
    8c80:	0000c63c 	andeq	ip, r0, ip, lsr r6
    8c84:	000045f8 	strdeq	r4, [r0], -r8
    8c88:	0000c5d0 	ldrdeq	ip, [r0], -r0

00008c8c <timer_irq_handler>:
    8c8c:	e92d4010 	push	{r4, lr}
    8c90:	e59f0014 	ldr	r0, [pc, #20]	; 8cac <timer_irq_handler+0x20>
    8c94:	e08f0000 	add	r0, pc, r0
    8c98:	eb000161 	bl	9224 <uart_puts>
    8c9c:	e3060da0 	movw	r0, #28064	; 0x6da0
    8ca0:	e340020e 	movt	r0, #526	; 0x20e
    8ca4:	e8bd4010 	pop	{r4, lr}
    8ca8:	ea00001a 	b	8d18 <timer_set>
    8cac:	00002364 	andeq	r2, r0, r4, ror #6

00008cb0 <timer_irq_clearer>:
    8cb0:	e59f3020 	ldr	r3, [pc, #32]	; 8cd8 <timer_irq_clearer+0x28>
    8cb4:	e59f0020 	ldr	r0, [pc, #32]	; 8cdc <timer_irq_clearer+0x2c>
    8cb8:	e08f3003 	add	r3, pc, r3
    8cbc:	e08f0000 	add	r0, pc, r0
    8cc0:	e2800020 	add	r0, r0, #32
    8cc4:	e5932000 	ldr	r2, [r3]
    8cc8:	e5d23000 	ldrb	r3, [r2]
    8ccc:	e3833002 	orr	r3, r3, #2
    8cd0:	e5c23000 	strb	r3, [r2]
    8cd4:	ea000152 	b	9224 <uart_puts>
    8cd8:	0000c69c 	muleq	r0, ip, r6
    8cdc:	0000233c 	andeq	r2, r0, ip, lsr r3

00008ce0 <timer_init>:
    8ce0:	e59f3024 	ldr	r3, [pc, #36]	; 8d0c <timer_init+0x2c>
    8ce4:	e3a0ca03 	mov	ip, #12288	; 0x3000
    8ce8:	e343cf00 	movt	ip, #16128	; 0x3f00
    8cec:	e08f3003 	add	r3, pc, r3
    8cf0:	e59f2018 	ldr	r2, [pc, #24]	; 8d10 <timer_init+0x30>
    8cf4:	e59f1018 	ldr	r1, [pc, #24]	; 8d14 <timer_init+0x34>
    8cf8:	e3a00001 	mov	r0, #1
    8cfc:	e08f2002 	add	r2, pc, r2
    8d00:	e08f1001 	add	r1, pc, r1
    8d04:	e583c000 	str	ip, [r3]
    8d08:	eafffdc9 	b	8434 <register_irq_handler>
    8d0c:	0000c668 	andeq	ip, r0, r8, ror #12
    8d10:	ffffffac 			; <UNDEFINED> instruction: 0xffffffac
    8d14:	ffffff84 			; <UNDEFINED> instruction: 0xffffff84

00008d18 <timer_set>:
    8d18:	e59f3010 	ldr	r3, [pc, #16]	; 8d30 <timer_set+0x18>
    8d1c:	e79f2003 	ldr	r2, [pc, r3]
    8d20:	e5923004 	ldr	r3, [r2, #4]
    8d24:	e0830000 	add	r0, r3, r0
    8d28:	e5820010 	str	r0, [r2, #16]
    8d2c:	e12fff1e 	bx	lr
    8d30:	0000c638 	andeq	ip, r0, r8, lsr r6

00008d34 <udelay>:
    8d34:	e52db004 	push	{fp}		; (str fp, [sp, #-4]!)
    8d38:	e28db000 	add	fp, sp, #0
    8d3c:	e24dd014 	sub	sp, sp, #20
    8d40:	e50b0010 	str	r0, [fp, #-16]
    8d44:	e59f3068 	ldr	r3, [pc, #104]	; 8db4 <udelay+0x80>
    8d48:	e08f3003 	add	r3, pc, r3
    8d4c:	e5933000 	ldr	r3, [r3]
    8d50:	e5933004 	ldr	r3, [r3, #4]
    8d54:	e50b3008 	str	r3, [fp, #-8]
    8d58:	e59f3058 	ldr	r3, [pc, #88]	; 8db8 <udelay+0x84>
    8d5c:	e08f3003 	add	r3, pc, r3
    8d60:	e5933000 	ldr	r3, [r3]
    8d64:	e5932004 	ldr	r2, [r3, #4]
    8d68:	e51b3008 	ldr	r3, [fp, #-8]
    8d6c:	e0633002 	rsb	r3, r3, r2
    8d70:	e50b300c 	str	r3, [fp, #-12]
    8d74:	ea000006 	b	8d94 <udelay+0x60>
    8d78:	e59f303c 	ldr	r3, [pc, #60]	; 8dbc <udelay+0x88>
    8d7c:	e08f3003 	add	r3, pc, r3
    8d80:	e5933000 	ldr	r3, [r3]
    8d84:	e5932004 	ldr	r2, [r3, #4]
    8d88:	e51b3008 	ldr	r3, [fp, #-8]
    8d8c:	e0633002 	rsb	r3, r3, r2
    8d90:	e50b300c 	str	r3, [fp, #-12]
    8d94:	e51b200c 	ldr	r2, [fp, #-12]
    8d98:	e51b3010 	ldr	r3, [fp, #-16]
    8d9c:	e1520003 	cmp	r2, r3
    8da0:	3afffff4 	bcc	8d78 <udelay+0x44>
    8da4:	e1a00000 	nop			; (mov r0, r0)
    8da8:	e24bd000 	sub	sp, fp, #0
    8dac:	e49db004 	pop	{fp}		; (ldr fp, [sp], #4)
    8db0:	e12fff1e 	bx	lr
    8db4:	0000c60c 	andeq	ip, r0, ip, lsl #12
    8db8:	0000c5f8 	strdeq	ip, [r0], -r8
    8dbc:	0000c5d8 	ldrdeq	ip, [r0], -r8

00008dc0 <mmu_section>:
    8dc0:	e59f3030 	ldr	r3, [pc, #48]	; 8df8 <mmu_section+0x38>
    8dc4:	e1a01a21 	lsr	r1, r1, #20
    8dc8:	e3822b03 	orr	r2, r2, #3072	; 0xc00
    8dcc:	e1a00a20 	lsr	r0, r0, #20
    8dd0:	e08f3003 	add	r3, pc, r3
    8dd4:	e3822002 	orr	r2, r2, #2
    8dd8:	e1a01a01 	lsl	r1, r1, #20
    8ddc:	e92d4010 	push	{r4, lr}
    8de0:	e5933000 	ldr	r3, [r3]
    8de4:	e1821001 	orr	r1, r2, r1
    8de8:	e1830100 	orr	r0, r3, r0, lsl #2
    8dec:	ebfffcbe 	bl	80ec <PUT32>
    8df0:	e3a00000 	mov	r0, #0
    8df4:	e8bd8010 	pop	{r4, pc}
    8df8:	0000c588 	andeq	ip, r0, r8, lsl #11

00008dfc <initialize_virtual_memory>:
    8dfc:	e59f3088 	ldr	r3, [pc, #136]	; 8e8c <initialize_virtual_memory+0x90>
    8e00:	e59f1088 	ldr	r1, [pc, #136]	; 8e90 <initialize_virtual_memory+0x94>
    8e04:	e92d4070 	push	{r4, r5, r6, lr}
    8e08:	e08f3003 	add	r3, pc, r3
    8e0c:	e59f0080 	ldr	r0, [pc, #128]	; 8e94 <initialize_virtual_memory+0x98>
    8e10:	e08f1001 	add	r1, pc, r1
    8e14:	e59f207c 	ldr	r2, [pc, #124]	; 8e98 <initialize_virtual_memory+0x9c>
    8e18:	e3a04000 	mov	r4, #0
    8e1c:	e7930000 	ldr	r0, [r3, r0]
    8e20:	e5810000 	str	r0, [r1]
    8e24:	e7935002 	ldr	r5, [r3, r2]
    8e28:	e1a01004 	mov	r1, r4
    8e2c:	e1a00004 	mov	r0, r4
    8e30:	e3a02000 	mov	r2, #0
    8e34:	ebffffe1 	bl	8dc0 <mmu_section>
    8e38:	e1540005 	cmp	r4, r5
    8e3c:	e2844601 	add	r4, r4, #1048576	; 0x100000
    8e40:	3afffff8 	bcc	8e28 <initialize_virtual_memory+0x2c>
    8e44:	e3a0143f 	mov	r1, #1056964608	; 0x3f000000
    8e48:	e3a02000 	mov	r2, #0
    8e4c:	e1a00001 	mov	r0, r1
    8e50:	ebffffda 	bl	8dc0 <mmu_section>
    8e54:	e3a01000 	mov	r1, #0
    8e58:	e3431f20 	movt	r1, #16160	; 0x3f20
    8e5c:	e1a00001 	mov	r0, r1
    8e60:	e3a02000 	mov	r2, #0
    8e64:	ebffffd5 	bl	8dc0 <mmu_section>
    8e68:	e59f002c 	ldr	r0, [pc, #44]	; 8e9c <initialize_virtual_memory+0xa0>
    8e6c:	e08f0000 	add	r0, pc, r0
    8e70:	eb000246 	bl	9790 <printf>
    8e74:	e59f3024 	ldr	r3, [pc, #36]	; 8ea0 <initialize_virtual_memory+0xa4>
    8e78:	e3a01005 	mov	r1, #5
    8e7c:	e08f3003 	add	r3, pc, r3
    8e80:	e8bd4070 	pop	{r4, r5, r6, lr}
    8e84:	e5930000 	ldr	r0, [r3]
    8e88:	eafffcb3 	b	815c <start_mmu>
    8e8c:	000031f8 	strdeq	r3, [r0], -r8
    8e90:	0000c548 	andeq	ip, r0, r8, asr #10
    8e94:	00000008 	andeq	r0, r0, r8
    8e98:	0000000c 	andeq	r0, r0, ip
    8e9c:	000022dc 	ldrdeq	r2, [r0], -ip
    8ea0:	0000c4dc 	ldrdeq	ip, [r0], -ip	; <UNPREDICTABLE>

00008ea4 <append_page_list>:
    8ea4:	e990000c 	ldmib	r0, {r2, r3}
    8ea8:	e5821008 	str	r1, [r2, #8]
    8eac:	e3a0c000 	mov	ip, #0
    8eb0:	e581200c 	str	r2, [r1, #12]
    8eb4:	e2833001 	add	r3, r3, #1
    8eb8:	e5801004 	str	r1, [r0, #4]
    8ebc:	e581c008 	str	ip, [r1, #8]
    8ec0:	e5803008 	str	r3, [r0, #8]
    8ec4:	e12fff1e 	bx	lr

00008ec8 <push_page_list>:
    8ec8:	e5903008 	ldr	r3, [r0, #8]
    8ecc:	e3a02000 	mov	r2, #0
    8ed0:	e590c000 	ldr	ip, [r0]
    8ed4:	e581c008 	str	ip, [r1, #8]
    8ed8:	e2833001 	add	r3, r3, #1
    8edc:	e581200c 	str	r2, [r1, #12]
    8ee0:	e5801000 	str	r1, [r0]
    8ee4:	e5803008 	str	r3, [r0, #8]
    8ee8:	e12fff1e 	bx	lr

00008eec <peek_page_list>:
    8eec:	e5900000 	ldr	r0, [r0]
    8ef0:	e12fff1e 	bx	lr

00008ef4 <pop_page_list>:
    8ef4:	e5901000 	ldr	r1, [r0]
    8ef8:	e1a03000 	mov	r3, r0
    8efc:	e5902008 	ldr	r2, [r0, #8]
    8f00:	e3a0c000 	mov	ip, #0
    8f04:	e1a00001 	mov	r0, r1
    8f08:	e5911008 	ldr	r1, [r1, #8]
    8f0c:	e2422001 	sub	r2, r2, #1
    8f10:	e5831000 	str	r1, [r3]
    8f14:	e581c00c 	str	ip, [r1, #12]
    8f18:	e5832008 	str	r2, [r3, #8]
    8f1c:	e12fff1e 	bx	lr

00008f20 <size_page_list>:
    8f20:	e5900008 	ldr	r0, [r0, #8]
    8f24:	e12fff1e 	bx	lr

00008f28 <next_page_list>:
    8f28:	e5900008 	ldr	r0, [r0, #8]
    8f2c:	e12fff1e 	bx	lr

00008f30 <get_num_of_free_pages>:
    8f30:	e59f300c 	ldr	r3, [pc, #12]	; 8f44 <get_num_of_free_pages+0x14>
    8f34:	e59f200c 	ldr	r2, [pc, #12]	; 8f48 <get_num_of_free_pages+0x18>
    8f38:	e08f3003 	add	r3, pc, r3
    8f3c:	e7930002 	ldr	r0, [r3, r2]
    8f40:	eafffff6 	b	8f20 <size_page_list>
    8f44:	000030c8 	andeq	r3, r0, r8, asr #1
    8f48:	00000004 	andeq	r0, r0, r4

00008f4c <alloc_page>:
    8f4c:	e59f3058 	ldr	r3, [pc, #88]	; 8fac <alloc_page+0x60>
    8f50:	e92d4010 	push	{r4, lr}
    8f54:	e08f3003 	add	r3, pc, r3
    8f58:	e59f2050 	ldr	r2, [pc, #80]	; 8fb0 <alloc_page+0x64>
    8f5c:	e7934002 	ldr	r4, [r3, r2]
    8f60:	e1a00004 	mov	r0, r4
    8f64:	ebffffed 	bl	8f20 <size_page_list>
    8f68:	e3500000 	cmp	r0, #0
    8f6c:	08bd8010 	popeq	{r4, pc}
    8f70:	e1a00004 	mov	r0, r4
    8f74:	ebffffde 	bl	8ef4 <pop_page_list>
    8f78:	e59f2034 	ldr	r2, [pc, #52]	; 8fb4 <alloc_page+0x68>
    8f7c:	e5d03004 	ldrb	r3, [r0, #4]
    8f80:	e3a01a01 	mov	r1, #4096	; 0x1000
    8f84:	e08f2002 	add	r2, pc, r2
    8f88:	e3833003 	orr	r3, r3, #3
    8f8c:	e5c03004 	strb	r3, [r0, #4]
    8f90:	e5924000 	ldr	r4, [r2]
    8f94:	e0640000 	rsb	r0, r4, r0
    8f98:	e1a04400 	lsl	r4, r0, #8
    8f9c:	e1a00004 	mov	r0, r4
    8fa0:	ebfffd8d 	bl	85dc <bzero>
    8fa4:	e1a00004 	mov	r0, r4
    8fa8:	e8bd8010 	pop	{r4, pc}
    8fac:	000030ac 	andeq	r3, r0, ip, lsr #1
    8fb0:	00000004 	andeq	r0, r0, r4
    8fb4:	0000c3d8 	ldrdeq	ip, [r0], -r8

00008fb8 <free_page>:
    8fb8:	e59f3030 	ldr	r3, [pc, #48]	; 8ff0 <free_page+0x38>
    8fbc:	e1a00620 	lsr	r0, r0, #12
    8fc0:	e59fc02c 	ldr	ip, [pc, #44]	; 8ff4 <free_page+0x3c>
    8fc4:	e08f3003 	add	r3, pc, r3
    8fc8:	e59f2028 	ldr	r2, [pc, #40]	; 8ff8 <free_page+0x40>
    8fcc:	e08fc00c 	add	ip, pc, ip
    8fd0:	e5933000 	ldr	r3, [r3]
    8fd4:	e0830200 	add	r0, r3, r0, lsl #4
    8fd8:	e1a01000 	mov	r1, r0
    8fdc:	e5d03004 	ldrb	r3, [r0, #4]
    8fe0:	e7c0301f 	bfc	r3, #0, #1
    8fe4:	e5c03004 	strb	r3, [r0, #4]
    8fe8:	e79c0002 	ldr	r0, [ip, r2]
    8fec:	eaffffac 	b	8ea4 <append_page_list>
    8ff0:	0000c398 	muleq	r0, r8, r3
    8ff4:	00003034 	andeq	r3, r0, r4, lsr r0
    8ff8:	00000004 	andeq	r0, r0, r4

00008ffc <get_mem_size>:
    8ffc:	e92d4010 	push	{r4, lr}
    9000:	e59f4040 	ldr	r4, [pc, #64]	; 9048 <get_mem_size+0x4c>
    9004:	e08f4004 	add	r4, pc, r4
    9008:	e5940004 	ldr	r0, [r4, #4]
    900c:	e3500000 	cmp	r0, #0
    9010:	18bd8010 	popne	{r4, pc}
    9014:	ebfffda8 	bl	86bc <RPI_PropertyInit>
    9018:	e3a00001 	mov	r0, #1
    901c:	e3400002 	movt	r0, #2
    9020:	ebfffdb3 	bl	86f4 <RPI_PropertyAddTag>
    9024:	ebfffeda 	bl	8b94 <RPI_PropertyProcess>
    9028:	e3a00005 	mov	r0, #5
    902c:	e3400001 	movt	r0, #1
    9030:	ebfffeea 	bl	8be0 <RPI_PropertyGet>
    9034:	e3500000 	cmp	r0, #0
    9038:	1590000c 	ldrne	r0, [r0, #12]
    903c:	03e00000 	mvneq	r0, #0
    9040:	15840004 	strne	r0, [r4, #4]
    9044:	e8bd8010 	pop	{r4, pc}
    9048:	0000c358 	andeq	ip, r0, r8, asr r3

0000904c <mem_init>:
    904c:	e92d41f0 	push	{r4, r5, r6, r7, r8, lr}
    9050:	ebffffe9 	bl	8ffc <get_mem_size>
    9054:	e1a01000 	mov	r1, r0
    9058:	e1a04000 	mov	r4, r0
    905c:	e59f00e4 	ldr	r0, [pc, #228]	; 9148 <mem_init+0xfc>
    9060:	e59f60e4 	ldr	r6, [pc, #228]	; 914c <mem_init+0x100>
    9064:	e08f0000 	add	r0, pc, r0
    9068:	e1a04624 	lsr	r4, r4, #12
    906c:	eb0001c7 	bl	9790 <printf>
    9070:	e08f6006 	add	r6, pc, r6
    9074:	e59f00d4 	ldr	r0, [pc, #212]	; 9150 <mem_init+0x104>
    9078:	e1a01004 	mov	r1, r4
    907c:	e59f50d0 	ldr	r5, [pc, #208]	; 9154 <mem_init+0x108>
    9080:	e08f0000 	add	r0, pc, r0
    9084:	e5864008 	str	r4, [r6, #8]
    9088:	e08f5005 	add	r5, pc, r5
    908c:	eb0001bf 	bl	9790 <printf>
    9090:	e59f30c0 	ldr	r3, [pc, #192]	; 9158 <mem_init+0x10c>
    9094:	e5961008 	ldr	r1, [r6, #8]
    9098:	e7954003 	ldr	r4, [r5, r3]
    909c:	e1a01201 	lsl	r1, r1, #4
    90a0:	e5864000 	str	r4, [r6]
    90a4:	e1a00004 	mov	r0, r4
    90a8:	ebfffd4b 	bl	85dc <bzero>
    90ac:	e59f20a8 	ldr	r2, [pc, #168]	; 915c <mem_init+0x110>
    90b0:	e1b04624 	lsrs	r4, r4, #12
    90b4:	e3a03000 	mov	r3, #0
    90b8:	e7955002 	ldr	r5, [r5, r2]
    90bc:	e5853004 	str	r3, [r5, #4]
    90c0:	e5853000 	str	r3, [r5]
    90c4:	e5853008 	str	r3, [r5, #8]
    90c8:	0a00000a 	beq	90f8 <mem_init+0xac>
    90cc:	e5960000 	ldr	r0, [r6]
    90d0:	e1a02000 	mov	r2, r0
    90d4:	e1a01603 	lsl	r1, r3, #12
    90d8:	e7801203 	str	r1, [r0, r3, lsl #4]
    90dc:	e2833001 	add	r3, r3, #1
    90e0:	e5d21004 	ldrb	r1, [r2, #4]
    90e4:	e1540003 	cmp	r4, r3
    90e8:	e2822010 	add	r2, r2, #16
    90ec:	e3811003 	orr	r1, r1, #3
    90f0:	e542100c 	strb	r1, [r2, #-12]
    90f4:	1afffff6 	bne	90d4 <mem_init+0x88>
    90f8:	e59f7060 	ldr	r7, [pc, #96]	; 9160 <mem_init+0x114>
    90fc:	e08f7007 	add	r7, pc, r7
    9100:	e5973008 	ldr	r3, [r7, #8]
    9104:	e1540003 	cmp	r4, r3
    9108:	28bd81f0 	popcs	{r4, r5, r6, r7, r8, pc}
    910c:	e1a06204 	lsl	r6, r4, #4
    9110:	e5973000 	ldr	r3, [r7]
    9114:	e1a00005 	mov	r0, r5
    9118:	e2844001 	add	r4, r4, #1
    911c:	e0833006 	add	r3, r3, r6
    9120:	e2866010 	add	r6, r6, #16
    9124:	e1a01003 	mov	r1, r3
    9128:	e5d32004 	ldrb	r2, [r3, #4]
    912c:	e7c0201f 	bfc	r2, #0, #1
    9130:	e5c32004 	strb	r2, [r3, #4]
    9134:	ebffff5a 	bl	8ea4 <append_page_list>
    9138:	e5973008 	ldr	r3, [r7, #8]
    913c:	e1530004 	cmp	r3, r4
    9140:	8afffff2 	bhi	9110 <mem_init+0xc4>
    9144:	e8bd81f0 	pop	{r4, r5, r6, r7, r8, pc}
    9148:	000020f4 	strdeq	r2, [r0], -r4
    914c:	0000c2ec 	andeq	ip, r0, ip, ror #5
    9150:	000020f4 	strdeq	r2, [r0], -r4
    9154:	00002f78 	andeq	r2, r0, r8, ror pc
    9158:	0000000c 	andeq	r0, r0, ip
    915c:	00000004 	andeq	r0, r0, r4
    9160:	0000c260 	andeq	ip, r0, r0, ror #4

00009164 <uart_init>:
    9164:	e3a03a01 	mov	r3, #4096	; 0x1000
    9168:	e3433f20 	movt	r3, #16160	; 0x3f20
    916c:	e3a01000 	mov	r1, #0
    9170:	e3431f20 	movt	r1, #16160	; 0x3f20
    9174:	e3a02096 	mov	r2, #150	; 0x96
    9178:	e3a00000 	mov	r0, #0
    917c:	e1a0c002 	mov	ip, r2
    9180:	e5830030 	str	r0, [r3, #48]	; 0x30
    9184:	e5810094 	str	r0, [r1, #148]	; 0x94

00009188 <__delay_53>:
    9188:	e25cc001 	subs	ip, ip, #1
    918c:	1afffffd 	bne	9188 <__delay_53>
    9190:	e3a0c903 	mov	ip, #49152	; 0xc000
    9194:	e581c098 	str	ip, [r1, #152]	; 0x98

00009198 <__delay_70>:
    9198:	e2522001 	subs	r2, r2, #1
    919c:	1afffffd 	bne	9198 <__delay_70>
    91a0:	e3a02001 	mov	r2, #1
    91a4:	e5810098 	str	r0, [r1, #152]	; 0x98
    91a8:	e300c7ff 	movw	ip, #2047	; 0x7ff
    91ac:	e3a01028 	mov	r1, #40	; 0x28
    91b0:	e583c044 	str	ip, [r3, #68]	; 0x44
    91b4:	e5832024 	str	r2, [r3, #36]	; 0x24
    91b8:	e3a02070 	mov	r2, #112	; 0x70
    91bc:	e5831028 	str	r1, [r3, #40]	; 0x28
    91c0:	e30017f2 	movw	r1, #2034	; 0x7f2
    91c4:	e583202c 	str	r2, [r3, #44]	; 0x2c
    91c8:	e3002301 	movw	r2, #769	; 0x301
    91cc:	e5831038 	str	r1, [r3, #56]	; 0x38
    91d0:	e5832030 	str	r2, [r3, #48]	; 0x30
    91d4:	e12fff1e 	bx	lr

000091d8 <uart_putc>:
    91d8:	e3a01a01 	mov	r1, #4096	; 0x1000
    91dc:	e3431f20 	movt	r1, #16160	; 0x3f20
    91e0:	e5912018 	ldr	r2, [r1, #24]
    91e4:	e3a03a01 	mov	r3, #4096	; 0x1000
    91e8:	e3433f20 	movt	r3, #16160	; 0x3f20
    91ec:	e3120020 	tst	r2, #32
    91f0:	1afffffa 	bne	91e0 <uart_putc+0x8>
    91f4:	e5830000 	str	r0, [r3]
    91f8:	e12fff1e 	bx	lr

000091fc <uart_getc>:
    91fc:	e3a01a01 	mov	r1, #4096	; 0x1000
    9200:	e3431f20 	movt	r1, #16160	; 0x3f20
    9204:	e5912018 	ldr	r2, [r1, #24]
    9208:	e3a03a01 	mov	r3, #4096	; 0x1000
    920c:	e3433f20 	movt	r3, #16160	; 0x3f20
    9210:	e3120010 	tst	r2, #16
    9214:	1afffffa 	bne	9204 <uart_getc+0x8>
    9218:	e5930000 	ldr	r0, [r3]
    921c:	e6ef0070 	uxtb	r0, r0
    9220:	e12fff1e 	bx	lr

00009224 <uart_puts>:
    9224:	e92d4010 	push	{r4, lr}
    9228:	e1a04000 	mov	r4, r0
    922c:	e5d00000 	ldrb	r0, [r0]
    9230:	e3500000 	cmp	r0, #0
    9234:	08bd8010 	popeq	{r4, pc}
    9238:	ebffffe6 	bl	91d8 <uart_putc>
    923c:	e5f40001 	ldrb	r0, [r4, #1]!
    9240:	e3500000 	cmp	r0, #0
    9244:	1afffffb 	bne	9238 <uart_puts+0x14>
    9248:	e8bd8010 	pop	{r4, pc}

0000924c <hexstrings>:
    924c:	e92d4070 	push	{r4, r5, r6, lr}
    9250:	e1a05000 	mov	r5, r0
    9254:	e3a04020 	mov	r4, #32
    9258:	e2444004 	sub	r4, r4, #4
    925c:	e1a03435 	lsr	r3, r5, r4
    9260:	e203300f 	and	r3, r3, #15
    9264:	e3530009 	cmp	r3, #9
    9268:	e2830030 	add	r0, r3, #48	; 0x30
    926c:	82830037 	addhi	r0, r3, #55	; 0x37
    9270:	e6ef0070 	uxtb	r0, r0
    9274:	ebffffd7 	bl	91d8 <uart_putc>
    9278:	e3540000 	cmp	r4, #0
    927c:	1afffff5 	bne	9258 <hexstrings+0xc>
    9280:	e3a00020 	mov	r0, #32
    9284:	e8bd4070 	pop	{r4, r5, r6, lr}
    9288:	eaffffd2 	b	91d8 <uart_putc>

0000928c <dma_0_irq_clearer>:
    928c:	e59f302c 	ldr	r3, [pc, #44]	; 92c0 <dma_0_irq_clearer+0x34>
    9290:	e3a01004 	mov	r1, #4
    9294:	e59f2028 	ldr	r2, [pc, #40]	; 92c4 <dma_0_irq_clearer+0x38>
    9298:	e08f3003 	add	r3, pc, r3
    929c:	e59f0024 	ldr	r0, [pc, #36]	; 92c8 <dma_0_irq_clearer+0x3c>
    92a0:	e08f0000 	add	r0, pc, r0
    92a4:	e7933002 	ldr	r3, [r3, r2]
    92a8:	e5933000 	ldr	r3, [r3]
    92ac:	e1a03403 	lsl	r3, r3, #8
    92b0:	e283343f 	add	r3, r3, #1056964608	; 0x3f000000
    92b4:	e2833a07 	add	r3, r3, #28672	; 0x7000
    92b8:	e5831000 	str	r1, [r3]
    92bc:	ea000133 	b	9790 <printf>
    92c0:	00002d68 	andeq	r2, r0, r8, ror #26
    92c4:	00000020 	andeq	r0, r0, r0, lsr #32
    92c8:	00001efc 	strdeq	r1, [r0], -ip

000092cc <dma_0_irq_handler>:
    92cc:	e59f0004 	ldr	r0, [pc, #4]	; 92d8 <dma_0_irq_handler+0xc>
    92d0:	e08f0000 	add	r0, pc, r0
    92d4:	ea00012d 	b	9790 <printf>
    92d8:	00001f08 	andeq	r1, r0, r8, lsl #30

000092dc <print_area>:
    92dc:	e92d4070 	push	{r4, r5, r6, lr}
    92e0:	e1a04000 	mov	r4, r0
    92e4:	e59f0034 	ldr	r0, [pc, #52]	; 9320 <print_area+0x44>
    92e8:	e1a05001 	mov	r5, r1
    92ec:	e08f0000 	add	r0, pc, r0
    92f0:	ebffffcb 	bl	9224 <uart_puts>
    92f4:	e3550000 	cmp	r5, #0
    92f8:	c0845005 	addgt	r5, r4, r5
    92fc:	da000003 	ble	9310 <print_area+0x34>
    9300:	e4d40001 	ldrb	r0, [r4], #1
    9304:	ebffffb3 	bl	91d8 <uart_putc>
    9308:	e1550004 	cmp	r5, r4
    930c:	1afffffb 	bne	9300 <print_area+0x24>
    9310:	e59f000c 	ldr	r0, [pc, #12]	; 9324 <print_area+0x48>
    9314:	e8bd4070 	pop	{r4, r5, r6, lr}
    9318:	e08f0000 	add	r0, pc, r0
    931c:	eaffffc0 	b	9224 <uart_puts>
    9320:	00001f2c 	andeq	r1, r0, ip, lsr #30
    9324:	00001f00 	andeq	r1, r0, r0, lsl #30

00009328 <copy>:
    9328:	e3520000 	cmp	r2, #0
    932c:	d12fff1e 	bxle	lr
    9330:	e2400001 	sub	r0, r0, #1
    9334:	e0812002 	add	r2, r1, r2
    9338:	e5f03001 	ldrb	r3, [r0, #1]!
    933c:	e4c13001 	strb	r3, [r1], #1
    9340:	e1510002 	cmp	r1, r2
    9344:	1afffffb 	bne	9338 <copy+0x10>
    9348:	e12fff1e 	bx	lr

0000934c <writeBitmasked>:
    934c:	e5903000 	ldr	r3, [r0]
    9350:	e0222003 	eor	r2, r2, r3
    9354:	e0011002 	and	r1, r1, r2
    9358:	e0233001 	eor	r3, r3, r1
    935c:	e5803000 	str	r3, [r0]
    9360:	e5803000 	str	r3, [r0]
    9364:	e12fff1e 	bx	lr

00009368 <show_dma_demo>:
    9368:	e92d4ff0 	push	{r4, r5, r6, r7, r8, r9, sl, fp, lr}
    936c:	e59f21ec 	ldr	r2, [pc, #492]	; 9560 <show_dma_demo+0x1f8>
    9370:	e3a00014 	mov	r0, #20
    9374:	e59f11e8 	ldr	r1, [pc, #488]	; 9564 <show_dma_demo+0x1fc>
    9378:	e24dd014 	sub	sp, sp, #20
    937c:	e08f2002 	add	r2, pc, r2
    9380:	e59f51e0 	ldr	r5, [pc, #480]	; 9568 <show_dma_demo+0x200>
    9384:	e08f1001 	add	r1, pc, r1
    9388:	e3a0600c 	mov	r6, #12
    938c:	ebfffc28 	bl	8434 <register_irq_handler>
    9390:	e59f21d4 	ldr	r2, [pc, #468]	; 956c <show_dma_demo+0x204>
    9394:	e28d3004 	add	r3, sp, #4
    9398:	e08f5005 	add	r5, pc, r5
    939c:	e08f2002 	add	r2, pc, r2
    93a0:	e59f41c8 	ldr	r4, [pc, #456]	; 9570 <show_dma_demo+0x208>
    93a4:	e3a09001 	mov	r9, #1
    93a8:	e59fa1c4 	ldr	sl, [pc, #452]	; 9574 <show_dma_demo+0x20c>
    93ac:	e08f4004 	add	r4, pc, r4
    93b0:	e5920000 	ldr	r0, [r2]
    93b4:	e08fa00a 	add	sl, pc, sl
    93b8:	e5921004 	ldr	r1, [r2, #4]
    93bc:	e5922008 	ldr	r2, [r2, #8]
    93c0:	e8a30007 	stmia	r3!, {r0, r1, r2}
    93c4:	e59f01ac 	ldr	r0, [pc, #428]	; 9578 <show_dma_demo+0x210>
    93c8:	e08f0000 	add	r0, pc, r0
    93cc:	ebffff94 	bl	9224 <uart_puts>
    93d0:	e59f31a4 	ldr	r3, [pc, #420]	; 957c <show_dma_demo+0x214>
    93d4:	e1a01006 	mov	r1, r6
    93d8:	e795b003 	ldr	fp, [r5, r3]
    93dc:	e1a0000b 	mov	r0, fp
    93e0:	ebffffbd 	bl	92dc <print_area>
    93e4:	e1a02006 	mov	r2, r6
    93e8:	e1a0100b 	mov	r1, fp
    93ec:	e28d0004 	add	r0, sp, #4
    93f0:	ebffffcc 	bl	9328 <copy>
    93f4:	e59f0184 	ldr	r0, [pc, #388]	; 9580 <show_dma_demo+0x218>
    93f8:	e08f0000 	add	r0, pc, r0
    93fc:	ebffff88 	bl	9224 <uart_puts>
    9400:	e1a01006 	mov	r1, r6
    9404:	e1a0000b 	mov	r0, fp
    9408:	ebffffb3 	bl	92dc <print_area>
    940c:	e1a00004 	mov	r0, r4
    9410:	ebffff83 	bl	9224 <uart_puts>
    9414:	e59f3168 	ldr	r3, [pc, #360]	; 9584 <show_dma_demo+0x21c>
    9418:	e1a01006 	mov	r1, r6
    941c:	e7958003 	ldr	r8, [r5, r3]
    9420:	e1a00008 	mov	r0, r8
    9424:	ebffffac 	bl	92dc <print_area>
    9428:	e1a00004 	mov	r0, r4
    942c:	ebffff7c 	bl	9224 <uart_puts>
    9430:	e59f3150 	ldr	r3, [pc, #336]	; 9588 <show_dma_demo+0x220>
    9434:	e1a01006 	mov	r1, r6
    9438:	e7957003 	ldr	r7, [r5, r3]
    943c:	e1a00007 	mov	r0, r7
    9440:	ebffffa5 	bl	92dc <print_area>
    9444:	e59f3140 	ldr	r3, [pc, #320]	; 958c <show_dma_demo+0x224>
    9448:	e59f0140 	ldr	r0, [pc, #320]	; 9590 <show_dma_demo+0x228>
    944c:	e3002111 	movw	r2, #273	; 0x111
    9450:	e3a01e11 	mov	r1, #272	; 0x110
    9454:	e7954003 	ldr	r4, [r5, r3]
    9458:	e08f0000 	add	r0, pc, r0
    945c:	e3a03000 	mov	r3, #0
    9460:	e5842020 	str	r2, [r4, #32]
    9464:	e5843010 	str	r3, [r4, #16]
    9468:	e5843030 	str	r3, [r4, #48]	; 0x30
    946c:	e5843034 	str	r3, [r4, #52]	; 0x34
    9470:	e584b004 	str	fp, [r4, #4]
    9474:	e584b024 	str	fp, [r4, #36]	; 0x24
    9478:	e284b020 	add	fp, r4, #32
    947c:	e5841000 	str	r1, [r4]
    9480:	e1a01004 	mov	r1, r4
    9484:	e5848008 	str	r8, [r4, #8]
    9488:	e5847028 	str	r7, [r4, #40]	; 0x28
    948c:	e584b014 	str	fp, [r4, #20]
    9490:	e584600c 	str	r6, [r4, #12]
    9494:	e584602c 	str	r6, [r4, #44]	; 0x2c
    9498:	eb0000bc 	bl	9790 <printf>
    949c:	e59f00f0 	ldr	r0, [pc, #240]	; 9594 <show_dma_demo+0x22c>
    94a0:	e1a0100b 	mov	r1, fp
    94a4:	e08f0000 	add	r0, pc, r0
    94a8:	eb0000b8 	bl	9790 <printf>
    94ac:	e59f30e4 	ldr	r3, [pc, #228]	; 9598 <show_dma_demo+0x230>
    94b0:	e3070ff0 	movw	r0, #32752	; 0x7ff0
    94b4:	e3430f00 	movt	r0, #16128	; 0x3f00
    94b8:	e7955003 	ldr	r5, [r5, r3]
    94bc:	e5952000 	ldr	r2, [r5]
    94c0:	e1a02219 	lsl	r2, r9, r2
    94c4:	e1a01002 	mov	r1, r2
    94c8:	ebffff9f 	bl	934c <writeBitmasked>
    94cc:	e5955000 	ldr	r5, [r5]
    94d0:	e59f00c4 	ldr	r0, [pc, #196]	; 959c <show_dma_demo+0x234>
    94d4:	e3a03102 	mov	r3, #-2147483648	; 0x80000000
    94d8:	e1a05405 	lsl	r5, r5, #8
    94dc:	e08f0000 	add	r0, pc, r0
    94e0:	e285543f 	add	r5, r5, #1056964608	; 0x3f000000
    94e4:	e2855a07 	add	r5, r5, #28672	; 0x7000
    94e8:	e5853000 	str	r3, [r5]
    94ec:	ebffff4c 	bl	9224 <uart_puts>
    94f0:	e59f00a8 	ldr	r0, [pc, #168]	; 95a0 <show_dma_demo+0x238>
    94f4:	e3a03007 	mov	r3, #7
    94f8:	e5853020 	str	r3, [r5, #32]
    94fc:	e08f0000 	add	r0, pc, r0
    9500:	ebffff47 	bl	9224 <uart_puts>
    9504:	e59f0098 	ldr	r0, [pc, #152]	; 95a4 <show_dma_demo+0x23c>
    9508:	e5854004 	str	r4, [r5, #4]
    950c:	e08f0000 	add	r0, pc, r0
    9510:	ebffff43 	bl	9224 <uart_puts>
    9514:	e59f008c 	ldr	r0, [pc, #140]	; 95a8 <show_dma_demo+0x240>
    9518:	e5859000 	str	r9, [r5]
    951c:	e08f0000 	add	r0, pc, r0
    9520:	ebffff3f 	bl	9224 <uart_puts>
    9524:	e59f0080 	ldr	r0, [pc, #128]	; 95ac <show_dma_demo+0x244>
    9528:	e08f0000 	add	r0, pc, r0
    952c:	ebffff3c 	bl	9224 <uart_puts>
    9530:	e1a0000a 	mov	r0, sl
    9534:	ebffff3a 	bl	9224 <uart_puts>
    9538:	e1a01006 	mov	r1, r6
    953c:	e1a00008 	mov	r0, r8
    9540:	ebffff65 	bl	92dc <print_area>
    9544:	e1a0000a 	mov	r0, sl
    9548:	ebffff35 	bl	9224 <uart_puts>
    954c:	e1a01006 	mov	r1, r6
    9550:	e1a00007 	mov	r0, r7
    9554:	ebffff60 	bl	92dc <print_area>
    9558:	e28dd014 	add	sp, sp, #20
    955c:	e8bd8ff0 	pop	{r4, r5, r6, r7, r8, r9, sl, fp, pc}
    9560:	ffffff08 			; <UNDEFINED> instruction: 0xffffff08
    9564:	ffffff40 			; <UNDEFINED> instruction: 0xffffff40
    9568:	00002c68 	andeq	r2, r0, r8, ror #24
    956c:	00001c9c 	muleq	r0, ip, ip
    9570:	00001ec4 	andeq	r1, r0, r4, asr #29
    9574:	00001f60 	andeq	r1, r0, r0, ror #30
    9578:	00001e68 	andeq	r1, r0, r8, ror #28
    957c:	00000018 	andeq	r0, r0, r8, lsl r0
    9580:	00001e58 	andeq	r1, r0, r8, asr lr
    9584:	00000014 	andeq	r0, r0, r4, lsl r0
    9588:	00000024 	andeq	r0, r0, r4, lsr #32
    958c:	00000028 	andeq	r0, r0, r8, lsr #32
    9590:	00001e40 	andeq	r1, r0, r0, asr #28
    9594:	00001e00 	andeq	r1, r0, r0, lsl #28
    9598:	00000020 	andeq	r0, r0, r0, lsr #32
    959c:	00001dd4 	ldrdeq	r1, [r0], -r4
    95a0:	00001dc8 	andeq	r1, r0, r8, asr #27
    95a4:	00001dcc 	andeq	r1, r0, ip, asr #27
    95a8:	00001dd0 	ldrdeq	r1, [r0], -r0
    95ac:	00001ddc 	ldrdeq	r1, [r0], -ip

000095b0 <turn_off_usb>:
    95b0:	e92d4010 	push	{r4, lr}
    95b4:	ebfffc40 	bl	86bc <RPI_PropertyInit>
    95b8:	e59f3030 	ldr	r3, [pc, #48]	; 95f0 <turn_off_usb+0x40>
    95bc:	e59f1030 	ldr	r1, [pc, #48]	; 95f4 <turn_off_usb+0x44>
    95c0:	e3084001 	movw	r4, #32769	; 0x8001
    95c4:	e3404002 	movt	r4, #2
    95c8:	e08f3003 	add	r3, pc, r3
    95cc:	e1a00004 	mov	r0, r4
    95d0:	e3a02000 	mov	r2, #0
    95d4:	e7931001 	ldr	r1, [r3, r1]
    95d8:	e5911000 	ldr	r1, [r1]
    95dc:	ebfffc44 	bl	86f4 <RPI_PropertyAddTag>
    95e0:	ebfffd6b 	bl	8b94 <RPI_PropertyProcess>
    95e4:	e1a00004 	mov	r0, r4
    95e8:	e8bd4010 	pop	{r4, lr}
    95ec:	eafffd7b 	b	8be0 <RPI_PropertyGet>
    95f0:	00002a38 	andeq	r2, r0, r8, lsr sl
    95f4:	00000000 	andeq	r0, r0, r0

000095f8 <turn_on_usb>:
    95f8:	e92d4010 	push	{r4, lr}
    95fc:	ebfffc2e 	bl	86bc <RPI_PropertyInit>
    9600:	e59f3030 	ldr	r3, [pc, #48]	; 9638 <turn_on_usb+0x40>
    9604:	e59f1030 	ldr	r1, [pc, #48]	; 963c <turn_on_usb+0x44>
    9608:	e3084001 	movw	r4, #32769	; 0x8001
    960c:	e3404002 	movt	r4, #2
    9610:	e08f3003 	add	r3, pc, r3
    9614:	e1a00004 	mov	r0, r4
    9618:	e3a02001 	mov	r2, #1
    961c:	e7931001 	ldr	r1, [r3, r1]
    9620:	e5911000 	ldr	r1, [r1]
    9624:	ebfffc32 	bl	86f4 <RPI_PropertyAddTag>
    9628:	ebfffd59 	bl	8b94 <RPI_PropertyProcess>
    962c:	e1a00004 	mov	r0, r4
    9630:	e8bd4010 	pop	{r4, lr}
    9634:	eafffd69 	b	8be0 <RPI_PropertyGet>
    9638:	000029f0 	strdeq	r2, [r0], -r0
    963c:	00000000 	andeq	r0, r0, r0

00009640 <print_usb_power_state>:
    9640:	e92d4010 	push	{r4, lr}
    9644:	ebfffc1c 	bl	86bc <RPI_PropertyInit>
    9648:	e59f3050 	ldr	r3, [pc, #80]	; 96a0 <print_usb_power_state+0x60>
    964c:	e59f2050 	ldr	r2, [pc, #80]	; 96a4 <print_usb_power_state+0x64>
    9650:	e3a04001 	mov	r4, #1
    9654:	e3404002 	movt	r4, #2
    9658:	e08f3003 	add	r3, pc, r3
    965c:	e1a00004 	mov	r0, r4
    9660:	e7933002 	ldr	r3, [r3, r2]
    9664:	e5931000 	ldr	r1, [r3]
    9668:	ebfffc21 	bl	86f4 <RPI_PropertyAddTag>
    966c:	ebfffd48 	bl	8b94 <RPI_PropertyProcess>
    9670:	e1a00004 	mov	r0, r4
    9674:	ebfffd59 	bl	8be0 <RPI_PropertyGet>
    9678:	e1a04000 	mov	r4, r0
    967c:	e59f0024 	ldr	r0, [pc, #36]	; 96a8 <print_usb_power_state+0x68>
    9680:	e5941008 	ldr	r1, [r4, #8]
    9684:	e08f0000 	add	r0, pc, r0
    9688:	eb000040 	bl	9790 <printf>
    968c:	e59f0018 	ldr	r0, [pc, #24]	; 96ac <print_usb_power_state+0x6c>
    9690:	e594100c 	ldr	r1, [r4, #12]
    9694:	e08f0000 	add	r0, pc, r0
    9698:	e8bd4010 	pop	{r4, lr}
    969c:	ea00003b 	b	9790 <printf>
    96a0:	000029a8 	andeq	r2, r0, r8, lsr #19
    96a4:	00000000 	andeq	r0, r0, r0
    96a8:	00001cb4 			; <UNDEFINED> instruction: 0x00001cb4
    96ac:	00001cb4 			; <UNDEFINED> instruction: 0x00001cb4

000096b0 <power_on_host_controller>:
    96b0:	e92d4010 	push	{r4, lr}
    96b4:	e59f4040 	ldr	r4, [pc, #64]	; 96fc <power_on_host_controller+0x4c>
    96b8:	ebffffbc 	bl	95b0 <turn_off_usb>
    96bc:	ebffffdf 	bl	9640 <print_usb_power_state>
    96c0:	e08f4004 	add	r4, pc, r4
    96c4:	ebffffcb 	bl	95f8 <turn_on_usb>
    96c8:	ebffffdc 	bl	9640 <print_usb_power_state>
    96cc:	ebffffb7 	bl	95b0 <turn_off_usb>
    96d0:	ebffffda 	bl	9640 <print_usb_power_state>
    96d4:	ebfffbf8 	bl	86bc <RPI_PropertyInit>
    96d8:	e59f3020 	ldr	r3, [pc, #32]	; 9700 <power_on_host_controller+0x50>
    96dc:	e3080001 	movw	r0, #32769	; 0x8001
    96e0:	e3400002 	movt	r0, #2
    96e4:	e3a02001 	mov	r2, #1
    96e8:	e7943003 	ldr	r3, [r4, r3]
    96ec:	e5931000 	ldr	r1, [r3]
    96f0:	ebfffbff 	bl	86f4 <RPI_PropertyAddTag>
    96f4:	e8bd4010 	pop	{r4, lr}
    96f8:	eaffffd0 	b	9640 <print_usb_power_state>
    96fc:	00002940 	andeq	r2, r0, r0, asr #18
    9700:	00000000 	andeq	r0, r0, r0

00009704 <usb_initialise>:
    9704:	eaffffe9 	b	96b0 <power_on_host_controller>

00009708 <kernel_main>:
    9708:	e59f0034 	ldr	r0, [pc, #52]	; 9744 <kernel_main+0x3c>
    970c:	e92d4010 	push	{r4, lr}
    9710:	e59f4030 	ldr	r4, [pc, #48]	; 9748 <kernel_main+0x40>
    9714:	e08f0000 	add	r0, pc, r0
    9718:	eb00001c 	bl	9790 <printf>
    971c:	e08f4004 	add	r4, pc, r4
    9720:	ebfffe8f 	bl	9164 <uart_init>
    9724:	e59f2020 	ldr	r2, [pc, #32]	; 974c <kernel_main+0x44>
    9728:	e1a03004 	mov	r3, r4
    972c:	e59f001c 	ldr	r0, [pc, #28]	; 9750 <kernel_main+0x48>
    9730:	e7941002 	ldr	r1, [r4, r2]
    9734:	e08f0000 	add	r0, pc, r0
    9738:	eb000014 	bl	9790 <printf>
    973c:	ebfffff0 	bl	9704 <usb_initialise>
    9740:	eafffffe 	b	9740 <kernel_main+0x38>
    9744:	00001c48 	andeq	r1, r0, r8, asr #24
    9748:	000028e4 	andeq	r2, r0, r4, ror #17
    974c:	0000000c 	andeq	r0, r0, ip
    9750:	00001c68 	andeq	r1, r0, r8, ror #24

00009754 <memcpy>:
    9754:	e3520000 	cmp	r2, #0
    9758:	012fff1e 	bxeq	lr
    975c:	e2403001 	sub	r3, r0, #1
    9760:	e0812002 	add	r2, r1, r2
    9764:	e4d1c001 	ldrb	ip, [r1], #1
    9768:	e1510002 	cmp	r1, r2
    976c:	e5e3c001 	strb	ip, [r3, #1]!
    9770:	1afffffb 	bne	9764 <memcpy+0x10>
    9774:	e12fff1e 	bx	lr

00009778 <fputc>:
    9778:	e92d4010 	push	{r4, lr}
    977c:	e20000ff 	and	r0, r0, #255	; 0xff
    9780:	ebfffe94 	bl	91d8 <uart_putc>
    9784:	e3a00001 	mov	r0, #1
    9788:	e8bd4010 	pop	{r4, lr}
    978c:	e12fff1e 	bx	lr

00009790 <printf>:
    9790:	e92d000f 	push	{r0, r1, r2, r3}
    9794:	e52de004 	push	{lr}		; (str lr, [sp, #-4]!)
    9798:	e24dd00c 	sub	sp, sp, #12
    979c:	e28dc014 	add	ip, sp, #20
    97a0:	e1a0100c 	mov	r1, ip
    97a4:	e3a03001 	mov	r3, #1
    97a8:	e59f2018 	ldr	r2, [pc, #24]	; 97c8 <printf+0x38>
    97ac:	e59d0010 	ldr	r0, [sp, #16]
    97b0:	e58dc004 	str	ip, [sp, #4]
    97b4:	eb000004 	bl	97cc <_doprnt>
    97b8:	e28dd00c 	add	sp, sp, #12
    97bc:	e49de004 	pop	{lr}		; (ldr lr, [sp], #4)
    97c0:	e28dd010 	add	sp, sp, #16
    97c4:	e12fff1e 	bx	lr
    97c8:	00009778 	andeq	r9, r0, r8, ror r7

000097cc <_doprnt>:
    97cc:	e92d4ff0 	push	{r4, r5, r6, r7, r8, r9, sl, fp, lr}
    97d0:	e3a0b000 	mov	fp, #0
    97d4:	e1a07002 	mov	r7, r2
    97d8:	e1a0a003 	mov	sl, r3
    97dc:	e24dd074 	sub	sp, sp, #116	; 0x74
    97e0:	e58d0004 	str	r0, [sp, #4]
    97e4:	e58d1010 	str	r1, [sp, #16]
    97e8:	e59d3004 	ldr	r3, [sp, #4]
    97ec:	e5d30000 	ldrb	r0, [r3]
    97f0:	e3500000 	cmp	r0, #0
    97f4:	0a0001ac 	beq	9eac <_doprnt+0x6e0>
    97f8:	e3500025 	cmp	r0, #37	; 0x25
    97fc:	1a000014 	bne	9854 <_doprnt+0x88>
    9800:	e59d3004 	ldr	r3, [sp, #4]
    9804:	e5d30001 	ldrb	r0, [r3, #1]
    9808:	e3500025 	cmp	r0, #37	; 0x25
    980c:	e2833001 	add	r3, r3, #1
    9810:	0a0000aa 	beq	9ac0 <_doprnt+0x2f4>
    9814:	e3a02020 	mov	r2, #32
    9818:	e58d2008 	str	r2, [sp, #8]
    981c:	e3a02000 	mov	r2, #0
    9820:	e350002d 	cmp	r0, #45	; 0x2d
    9824:	e58d200c 	str	r2, [sp, #12]
    9828:	0a000005 	beq	9844 <_doprnt+0x78>
    982c:	e3500030 	cmp	r0, #48	; 0x30
    9830:	1a000011 	bne	987c <_doprnt+0xb0>
    9834:	e58d0008 	str	r0, [sp, #8]
    9838:	e5f30001 	ldrb	r0, [r3, #1]!
    983c:	e350002d 	cmp	r0, #45	; 0x2d
    9840:	1afffff9 	bne	982c <_doprnt+0x60>
    9844:	e3a02001 	mov	r2, #1
    9848:	e58d200c 	str	r2, [sp, #12]
    984c:	eafffff9 	b	9838 <_doprnt+0x6c>
    9850:	e3a00025 	mov	r0, #37	; 0x25
    9854:	e1a0100a 	mov	r1, sl
    9858:	e1a0e00f 	mov	lr, pc
    985c:	e12fff17 	bx	r7
    9860:	e3700001 	cmn	r0, #1
    9864:	0a000091 	beq	9ab0 <_doprnt+0x2e4>
    9868:	e59d3004 	ldr	r3, [sp, #4]
    986c:	e2833001 	add	r3, r3, #1
    9870:	e28bb001 	add	fp, fp, #1
    9874:	e58d3004 	str	r3, [sp, #4]
    9878:	eaffffda 	b	97e8 <_doprnt+0x1c>
    987c:	e350002a 	cmp	r0, #42	; 0x2a
    9880:	0a000090 	beq	9ac8 <_doprnt+0x2fc>
    9884:	e2402030 	sub	r2, r0, #48	; 0x30
    9888:	e20210ff 	and	r1, r2, #255	; 0xff
    988c:	e3510009 	cmp	r1, #9
    9890:	e3a05000 	mov	r5, #0
    9894:	8a000006 	bhi	98b4 <_doprnt+0xe8>
    9898:	e5f30001 	ldrb	r0, [r3, #1]!
    989c:	e0855105 	add	r5, r5, r5, lsl #2
    98a0:	e0825085 	add	r5, r2, r5, lsl #1
    98a4:	e2402030 	sub	r2, r0, #48	; 0x30
    98a8:	e20210ff 	and	r1, r2, #255	; 0xff
    98ac:	e3510009 	cmp	r1, #9
    98b0:	9afffff8 	bls	9898 <_doprnt+0xcc>
    98b4:	e59d100c 	ldr	r1, [sp, #12]
    98b8:	e3510000 	cmp	r1, #0
    98bc:	e59d2008 	ldr	r2, [sp, #8]
    98c0:	13a02020 	movne	r2, #32
    98c4:	e350002e 	cmp	r0, #46	; 0x2e
    98c8:	e58d2008 	str	r2, [sp, #8]
    98cc:	13e08000 	mvnne	r8, #0
    98d0:	0a00008a 	beq	9b00 <_doprnt+0x334>
    98d4:	e350006c 	cmp	r0, #108	; 0x6c
    98d8:	0a000085 	beq	9af4 <_doprnt+0x328>
    98dc:	e3500068 	cmp	r0, #104	; 0x68
    98e0:	0a000097 	beq	9b44 <_doprnt+0x378>
    98e4:	e2400058 	sub	r0, r0, #88	; 0x58
    98e8:	e3500020 	cmp	r0, #32
    98ec:	979ff100 	ldrls	pc, [pc, r0, lsl #2]
    98f0:	eaffffd6 	b	9850 <_doprnt+0x84>
    98f4:	00009c74 	andeq	r9, r0, r4, ror ip
    98f8:	00009850 	andeq	r9, r0, r0, asr r8
    98fc:	00009850 	andeq	r9, r0, r0, asr r8
    9900:	00009850 	andeq	r9, r0, r0, asr r8
    9904:	00009850 	andeq	r9, r0, r0, asr r8
    9908:	00009850 	andeq	r9, r0, r0, asr r8
    990c:	00009850 	andeq	r9, r0, r0, asr r8
    9910:	00009850 	andeq	r9, r0, r0, asr r8
    9914:	00009850 	andeq	r9, r0, r0, asr r8
    9918:	00009850 	andeq	r9, r0, r0, asr r8
    991c:	00009c88 	andeq	r9, r0, r8, lsl #25
    9920:	00009c9c 	muleq	r0, ip, ip
    9924:	00009cc0 	andeq	r9, r0, r0, asr #25
    9928:	00009850 	andeq	r9, r0, r0, asr r8
    992c:	00009850 	andeq	r9, r0, r0, asr r8
    9930:	00009850 	andeq	r9, r0, r0, asr r8
    9934:	00009850 	andeq	r9, r0, r0, asr r8
    9938:	00009850 	andeq	r9, r0, r0, asr r8
    993c:	00009850 	andeq	r9, r0, r0, asr r8
    9940:	00009850 	andeq	r9, r0, r0, asr r8
    9944:	00009850 	andeq	r9, r0, r0, asr r8
    9948:	00009850 	andeq	r9, r0, r0, asr r8
    994c:	00009850 	andeq	r9, r0, r0, asr r8
    9950:	00009978 	andeq	r9, r0, r8, ror r9
    9954:	00009850 	andeq	r9, r0, r0, asr r8
    9958:	00009850 	andeq	r9, r0, r0, asr r8
    995c:	00009850 	andeq	r9, r0, r0, asr r8
    9960:	00009b5c 	andeq	r9, r0, ip, asr fp
    9964:	00009850 	andeq	r9, r0, r0, asr r8
    9968:	00009c4c 	andeq	r9, r0, ip, asr #24
    996c:	00009850 	andeq	r9, r0, r0, asr r8
    9970:	00009850 	andeq	r9, r0, r0, asr r8
    9974:	00009c60 	andeq	r9, r0, r0, ror #24
    9978:	e3a00008 	mov	r0, #8
    997c:	e3a01003 	mov	r1, #3
    9980:	e3a06000 	mov	r6, #0
    9984:	e58d001c 	str	r0, [sp, #28]
    9988:	e59d2010 	ldr	r2, [sp, #16]
    998c:	e5924000 	ldr	r4, [r2]
    9990:	e282e004 	add	lr, r2, #4
    9994:	e59f2574 	ldr	r2, [pc, #1396]	; 9f10 <_doprnt+0x744>
    9998:	e3560000 	cmp	r6, #0
    999c:	e2833001 	add	r3, r3, #1
    99a0:	e2420010 	sub	r0, r2, #16
    99a4:	11a02000 	movne	r2, r0
    99a8:	e58d3004 	str	r3, [sp, #4]
    99ac:	e3a03000 	mov	r3, #0
    99b0:	e3510000 	cmp	r1, #0
    99b4:	e1a06002 	mov	r6, r2
    99b8:	e5cd304c 	strb	r3, [sp, #76]	; 0x4c
    99bc:	0a000148 	beq	9ee4 <_doprnt+0x718>
    99c0:	e3a03001 	mov	r3, #1
    99c4:	e1a0c113 	lsl	ip, r3, r1
    99c8:	e24cc001 	sub	ip, ip, #1
    99cc:	e00c3004 	and	r3, ip, r4
    99d0:	e7d29003 	ldrb	r9, [r2, r3]
    99d4:	e1b02134 	lsrs	r2, r4, r1
    99d8:	e5cd904d 	strb	r9, [sp, #77]	; 0x4d
    99dc:	0a000146 	beq	9efc <_doprnt+0x730>
    99e0:	e3a04001 	mov	r4, #1
    99e4:	e28d004d 	add	r0, sp, #77	; 0x4d
    99e8:	e00c3002 	and	r3, ip, r2
    99ec:	e7d69003 	ldrb	r9, [r6, r3]
    99f0:	e1b02132 	lsrs	r2, r2, r1
    99f4:	e2844001 	add	r4, r4, #1
    99f8:	e5e09001 	strb	r9, [r0, #1]!
    99fc:	1afffff9 	bne	99e8 <_doprnt+0x21c>
    9a00:	e58d2014 	str	r2, [sp, #20]
    9a04:	e58de010 	str	lr, [sp, #16]
    9a08:	e58d2018 	str	r2, [sp, #24]
    9a0c:	e28d104c 	add	r1, sp, #76	; 0x4c
    9a10:	e0814004 	add	r4, r1, r4
    9a14:	e28d2027 	add	r2, sp, #39	; 0x27
    9a18:	ea000000 	b	9a20 <_doprnt+0x254>
    9a1c:	e5749001 	ldrb	r9, [r4, #-1]!
    9a20:	e1540001 	cmp	r4, r1
    9a24:	e5e29001 	strb	r9, [r2, #1]!
    9a28:	1afffffb 	bne	9a1c <_doprnt+0x250>
    9a2c:	e28d0028 	add	r0, sp, #40	; 0x28
    9a30:	eb000138 	bl	9f18 <strlen>
    9a34:	e3580000 	cmp	r8, #0
    9a38:	e1a06000 	mov	r6, r0
    9a3c:	ba0000ec 	blt	9df4 <_doprnt+0x628>
    9a40:	e1580000 	cmp	r8, r0
    9a44:	c0608008 	rsbgt	r8, r0, r8
    9a48:	d3a08000 	movle	r8, #0
    9a4c:	e59d3014 	ldr	r3, [sp, #20]
    9a50:	e0864008 	add	r4, r6, r8
    9a54:	e0844003 	add	r4, r4, r3
    9a58:	e1550004 	cmp	r5, r4
    9a5c:	e28d9028 	add	r9, sp, #40	; 0x28
    9a60:	ca0000fe 	bgt	9e60 <_doprnt+0x694>
    9a64:	e3a03020 	mov	r3, #32
    9a68:	e3a05000 	mov	r5, #0
    9a6c:	e58d3008 	str	r3, [sp, #8]
    9a70:	e59d3018 	ldr	r3, [sp, #24]
    9a74:	e3530000 	cmp	r3, #0
    9a78:	1a0000d5 	bne	9dd4 <_doprnt+0x608>
    9a7c:	e3580000 	cmp	r8, #0
    9a80:	0a0000c3 	beq	9d94 <_doprnt+0x5c8>
    9a84:	e088800b 	add	r8, r8, fp
    9a88:	ea000001 	b	9a94 <_doprnt+0x2c8>
    9a8c:	e15b0008 	cmp	fp, r8
    9a90:	0a0000c0 	beq	9d98 <_doprnt+0x5cc>
    9a94:	e1a0100a 	mov	r1, sl
    9a98:	e3a00030 	mov	r0, #48	; 0x30
    9a9c:	e1a0e00f 	mov	lr, pc
    9aa0:	e12fff17 	bx	r7
    9aa4:	e3700001 	cmn	r0, #1
    9aa8:	e28bb001 	add	fp, fp, #1
    9aac:	1afffff6 	bne	9a8c <_doprnt+0x2c0>
    9ab0:	e3e00000 	mvn	r0, #0
    9ab4:	e28dd074 	add	sp, sp, #116	; 0x74
    9ab8:	e8bd4ff0 	pop	{r4, r5, r6, r7, r8, r9, sl, fp, lr}
    9abc:	e12fff1e 	bx	lr
    9ac0:	e58d3004 	str	r3, [sp, #4]
    9ac4:	eaffff62 	b	9854 <_doprnt+0x88>
    9ac8:	e59d2010 	ldr	r2, [sp, #16]
    9acc:	e5925000 	ldr	r5, [r2]
    9ad0:	e3550000 	cmp	r5, #0
    9ad4:	b3a01001 	movlt	r1, #1
    9ad8:	e2822004 	add	r2, r2, #4
    9adc:	e5d30001 	ldrb	r0, [r3, #1]
    9ae0:	b58d100c 	strlt	r1, [sp, #12]
    9ae4:	b2655000 	rsblt	r5, r5, #0
    9ae8:	e58d2010 	str	r2, [sp, #16]
    9aec:	e2833001 	add	r3, r3, #1
    9af0:	eaffff6f 	b	98b4 <_doprnt+0xe8>
    9af4:	e5d30001 	ldrb	r0, [r3, #1]
    9af8:	e2833001 	add	r3, r3, #1
    9afc:	eaffff78 	b	98e4 <_doprnt+0x118>
    9b00:	e5d30001 	ldrb	r0, [r3, #1]
    9b04:	e350002a 	cmp	r0, #42	; 0x2a
    9b08:	0a0000d8 	beq	9e70 <_doprnt+0x6a4>
    9b0c:	e2402030 	sub	r2, r0, #48	; 0x30
    9b10:	e20210ff 	and	r1, r2, #255	; 0xff
    9b14:	e3510009 	cmp	r1, #9
    9b18:	e3a08000 	mov	r8, #0
    9b1c:	e2833001 	add	r3, r3, #1
    9b20:	8affff6b 	bhi	98d4 <_doprnt+0x108>
    9b24:	e5f30001 	ldrb	r0, [r3, #1]!
    9b28:	e0888108 	add	r8, r8, r8, lsl #2
    9b2c:	e0828088 	add	r8, r2, r8, lsl #1
    9b30:	e2402030 	sub	r2, r0, #48	; 0x30
    9b34:	e20210ff 	and	r1, r2, #255	; 0xff
    9b38:	e3510009 	cmp	r1, #9
    9b3c:	9afffff8 	bls	9b24 <_doprnt+0x358>
    9b40:	eaffff63 	b	98d4 <_doprnt+0x108>
    9b44:	e5d30001 	ldrb	r0, [r3, #1]
    9b48:	e3500068 	cmp	r0, #104	; 0x68
    9b4c:	05d30002 	ldrbeq	r0, [r3, #2]
    9b50:	12833001 	addne	r3, r3, #1
    9b54:	02833002 	addeq	r3, r3, #2
    9b58:	eaffff61 	b	98e4 <_doprnt+0x118>
    9b5c:	e59d2010 	ldr	r2, [sp, #16]
    9b60:	e5929000 	ldr	r9, [r2]
    9b64:	e2822004 	add	r2, r2, #4
    9b68:	e3590000 	cmp	r9, #0
    9b6c:	e58d2010 	str	r2, [sp, #16]
    9b70:	0a0000df 	beq	9ef4 <_doprnt+0x728>
    9b74:	e2833001 	add	r3, r3, #1
    9b78:	e1a00009 	mov	r0, r9
    9b7c:	e58d3004 	str	r3, [sp, #4]
    9b80:	eb0000e4 	bl	9f18 <strlen>
    9b84:	e3a03000 	mov	r3, #0
    9b88:	e3580000 	cmp	r8, #0
    9b8c:	e1a06000 	mov	r6, r0
    9b90:	e1a02003 	mov	r2, r3
    9b94:	e58d3014 	str	r3, [sp, #20]
    9b98:	ba0000bb 	blt	9e8c <_doprnt+0x6c0>
    9b9c:	e59d300c 	ldr	r3, [sp, #12]
    9ba0:	e58d2018 	str	r2, [sp, #24]
    9ba4:	e59d2008 	ldr	r2, [sp, #8]
    9ba8:	e1560008 	cmp	r6, r8
    9bac:	e2233001 	eor	r3, r3, #1
    9bb0:	a1a06008 	movge	r6, r8
    9bb4:	e3520030 	cmp	r2, #48	; 0x30
    9bb8:	13a03000 	movne	r3, #0
    9bbc:	02033001 	andeq	r3, r3, #1
    9bc0:	e3a08000 	mov	r8, #0
    9bc4:	e59d2014 	ldr	r2, [sp, #20]
    9bc8:	e0864002 	add	r4, r6, r2
    9bcc:	e1550004 	cmp	r5, r4
    9bd0:	d1a05008 	movle	r5, r8
    9bd4:	da000000 	ble	9bdc <_doprnt+0x410>
    9bd8:	e0645005 	rsb	r5, r4, r5
    9bdc:	e3530000 	cmp	r3, #0
    9be0:	11a08005 	movne	r8, r5
    9be4:	13a05000 	movne	r5, #0
    9be8:	1affffa0 	bne	9a70 <_doprnt+0x2a4>
    9bec:	e59d300c 	ldr	r3, [sp, #12]
    9bf0:	e3530000 	cmp	r3, #0
    9bf4:	1affff9d 	bne	9a70 <_doprnt+0x2a4>
    9bf8:	e3550000 	cmp	r5, #0
    9bfc:	0affff9b 	beq	9a70 <_doprnt+0x2a4>
    9c00:	e085400b 	add	r4, r5, fp
    9c04:	e58d6014 	str	r6, [sp, #20]
    9c08:	e1a0600b 	mov	r6, fp
    9c0c:	e1a0b009 	mov	fp, r9
    9c10:	e1a09008 	mov	r9, r8
    9c14:	e1a08005 	mov	r8, r5
    9c18:	e1a05004 	mov	r5, r4
    9c1c:	e59d4008 	ldr	r4, [sp, #8]
    9c20:	ea000001 	b	9c2c <_doprnt+0x460>
    9c24:	e1560005 	cmp	r6, r5
    9c28:	0a0000a1 	beq	9eb4 <_doprnt+0x6e8>
    9c2c:	e1a0100a 	mov	r1, sl
    9c30:	e1a00004 	mov	r0, r4
    9c34:	e1a0e00f 	mov	lr, pc
    9c38:	e12fff17 	bx	r7
    9c3c:	e3700001 	cmn	r0, #1
    9c40:	e2866001 	add	r6, r6, #1
    9c44:	1afffff6 	bne	9c24 <_doprnt+0x458>
    9c48:	eaffff98 	b	9ab0 <_doprnt+0x2e4>
    9c4c:	e3a01000 	mov	r1, #0
    9c50:	e3a0000a 	mov	r0, #10
    9c54:	e1a06001 	mov	r6, r1
    9c58:	e58d001c 	str	r0, [sp, #28]
    9c5c:	eaffff49 	b	9988 <_doprnt+0x1bc>
    9c60:	e3a00010 	mov	r0, #16
    9c64:	e3a01004 	mov	r1, #4
    9c68:	e58d001c 	str	r0, [sp, #28]
    9c6c:	e3a06000 	mov	r6, #0
    9c70:	eaffff44 	b	9988 <_doprnt+0x1bc>
    9c74:	e3a00010 	mov	r0, #16
    9c78:	e3a01004 	mov	r1, #4
    9c7c:	e58d001c 	str	r0, [sp, #28]
    9c80:	e3a06001 	mov	r6, #1
    9c84:	eaffff3f 	b	9988 <_doprnt+0x1bc>
    9c88:	e3a00002 	mov	r0, #2
    9c8c:	e3a01001 	mov	r1, #1
    9c90:	e58d001c 	str	r0, [sp, #28]
    9c94:	e3a06000 	mov	r6, #0
    9c98:	eaffff3a 	b	9988 <_doprnt+0x1bc>
    9c9c:	e3a00000 	mov	r0, #0
    9ca0:	e59d1010 	ldr	r1, [sp, #16]
    9ca4:	e5912000 	ldr	r2, [r1]
    9ca8:	e5cd2028 	strb	r2, [sp, #40]	; 0x28
    9cac:	e2812004 	add	r2, r1, #4
    9cb0:	e5cd0029 	strb	r0, [sp, #41]	; 0x29
    9cb4:	e58d2010 	str	r2, [sp, #16]
    9cb8:	e28d9028 	add	r9, sp, #40	; 0x28
    9cbc:	eaffffac 	b	9b74 <_doprnt+0x3a8>
    9cc0:	e59d2010 	ldr	r2, [sp, #16]
    9cc4:	e5924000 	ldr	r4, [r2]
    9cc8:	e2822004 	add	r2, r2, #4
    9ccc:	e3540000 	cmp	r4, #0
    9cd0:	e58d2010 	str	r2, [sp, #16]
    9cd4:	a3a02000 	movge	r2, #0
    9cd8:	a58d2014 	strge	r2, [sp, #20]
    9cdc:	a58d2018 	strge	r2, [sp, #24]
    9ce0:	ba000079 	blt	9ecc <_doprnt+0x700>
    9ce4:	e2833001 	add	r3, r3, #1
    9ce8:	e58d3004 	str	r3, [sp, #4]
    9cec:	e3a03000 	mov	r3, #0
    9cf0:	e5cd304c 	strb	r3, [sp, #76]	; 0x4c
    9cf4:	e3a0300a 	mov	r3, #10
    9cf8:	e59f6210 	ldr	r6, [pc, #528]	; 9f10 <_doprnt+0x744>
    9cfc:	e58d301c 	str	r3, [sp, #28]
    9d00:	e1a00004 	mov	r0, r4
    9d04:	e59d101c 	ldr	r1, [sp, #28]
    9d08:	eb0000cb 	bl	a03c <__aeabi_uidivmod>
    9d0c:	e7d69001 	ldrb	r9, [r6, r1]
    9d10:	e1a00004 	mov	r0, r4
    9d14:	e59d101c 	ldr	r1, [sp, #28]
    9d18:	e5cd904d 	strb	r9, [sp, #77]	; 0x4d
    9d1c:	eb000089 	bl	9f48 <__aeabi_uidiv>
    9d20:	e2502000 	subs	r2, r0, #0
    9d24:	e3a04001 	mov	r4, #1
    9d28:	0affff37 	beq	9a0c <_doprnt+0x240>
    9d2c:	e28d304d 	add	r3, sp, #77	; 0x4d
    9d30:	e58db020 	str	fp, [sp, #32]
    9d34:	e1a09003 	mov	r9, r3
    9d38:	e1a0b002 	mov	fp, r2
    9d3c:	e58d5024 	str	r5, [sp, #36]	; 0x24
    9d40:	e1a05004 	mov	r5, r4
    9d44:	e1a04006 	mov	r4, r6
    9d48:	e59d601c 	ldr	r6, [sp, #28]
    9d4c:	e58d701c 	str	r7, [sp, #28]
    9d50:	e1a0000b 	mov	r0, fp
    9d54:	e1a01006 	mov	r1, r6
    9d58:	eb0000b7 	bl	a03c <__aeabi_uidivmod>
    9d5c:	e7d47001 	ldrb	r7, [r4, r1]
    9d60:	e1a0000b 	mov	r0, fp
    9d64:	e1a01006 	mov	r1, r6
    9d68:	e5e97001 	strb	r7, [r9, #1]!
    9d6c:	eb000075 	bl	9f48 <__aeabi_uidiv>
    9d70:	e250b000 	subs	fp, r0, #0
    9d74:	e2855001 	add	r5, r5, #1
    9d78:	1afffff4 	bne	9d50 <_doprnt+0x584>
    9d7c:	e1a04005 	mov	r4, r5
    9d80:	e1a09007 	mov	r9, r7
    9d84:	e59db020 	ldr	fp, [sp, #32]
    9d88:	e59d5024 	ldr	r5, [sp, #36]	; 0x24
    9d8c:	e59d701c 	ldr	r7, [sp, #28]
    9d90:	eaffff1d 	b	9a0c <_doprnt+0x240>
    9d94:	e1a0800b 	mov	r8, fp
    9d98:	e3560000 	cmp	r6, #0
    9d9c:	da00001c 	ble	9e14 <_doprnt+0x648>
    9da0:	e2499001 	sub	r9, r9, #1
    9da4:	e086b008 	add	fp, r6, r8
    9da8:	ea000001 	b	9db4 <_doprnt+0x5e8>
    9dac:	e158000b 	cmp	r8, fp
    9db0:	0a000018 	beq	9e18 <_doprnt+0x64c>
    9db4:	e1a0100a 	mov	r1, sl
    9db8:	e5f90001 	ldrb	r0, [r9, #1]!
    9dbc:	e1a0e00f 	mov	lr, pc
    9dc0:	e12fff17 	bx	r7
    9dc4:	e3700001 	cmn	r0, #1
    9dc8:	e2888001 	add	r8, r8, #1
    9dcc:	1afffff6 	bne	9dac <_doprnt+0x5e0>
    9dd0:	eaffff36 	b	9ab0 <_doprnt+0x2e4>
    9dd4:	e1a00003 	mov	r0, r3
    9dd8:	e1a0100a 	mov	r1, sl
    9ddc:	e1a0e00f 	mov	lr, pc
    9de0:	e12fff17 	bx	r7
    9de4:	e3700001 	cmn	r0, #1
    9de8:	0affff30 	beq	9ab0 <_doprnt+0x2e4>
    9dec:	e28bb001 	add	fp, fp, #1
    9df0:	eaffff21 	b	9a7c <_doprnt+0x2b0>
    9df4:	e59d300c 	ldr	r3, [sp, #12]
    9df8:	e59d2008 	ldr	r2, [sp, #8]
    9dfc:	e2233001 	eor	r3, r3, #1
    9e00:	e28d9028 	add	r9, sp, #40	; 0x28
    9e04:	e3520030 	cmp	r2, #48	; 0x30
    9e08:	13a03000 	movne	r3, #0
    9e0c:	02033001 	andeq	r3, r3, #1
    9e10:	eaffff6a 	b	9bc0 <_doprnt+0x3f4>
    9e14:	e1a0b008 	mov	fp, r8
    9e18:	e59d300c 	ldr	r3, [sp, #12]
    9e1c:	e3530000 	cmp	r3, #0
    9e20:	0afffe70 	beq	97e8 <_doprnt+0x1c>
    9e24:	e3550000 	cmp	r5, #0
    9e28:	0afffe6e 	beq	97e8 <_doprnt+0x1c>
    9e2c:	e085500b 	add	r5, r5, fp
    9e30:	e59d4008 	ldr	r4, [sp, #8]
    9e34:	ea000001 	b	9e40 <_doprnt+0x674>
    9e38:	e15b0005 	cmp	fp, r5
    9e3c:	0afffe69 	beq	97e8 <_doprnt+0x1c>
    9e40:	e1a0100a 	mov	r1, sl
    9e44:	e1a00004 	mov	r0, r4
    9e48:	e1a0e00f 	mov	lr, pc
    9e4c:	e12fff17 	bx	r7
    9e50:	e3700001 	cmn	r0, #1
    9e54:	e28bb001 	add	fp, fp, #1
    9e58:	1afffff6 	bne	9e38 <_doprnt+0x66c>
    9e5c:	eaffff13 	b	9ab0 <_doprnt+0x2e4>
    9e60:	e3a02020 	mov	r2, #32
    9e64:	e3a03000 	mov	r3, #0
    9e68:	e58d2008 	str	r2, [sp, #8]
    9e6c:	eaffff59 	b	9bd8 <_doprnt+0x40c>
    9e70:	e59d2010 	ldr	r2, [sp, #16]
    9e74:	e5928000 	ldr	r8, [r2]
    9e78:	e2822004 	add	r2, r2, #4
    9e7c:	e5d30002 	ldrb	r0, [r3, #2]
    9e80:	e58d2010 	str	r2, [sp, #16]
    9e84:	e2833002 	add	r3, r3, #2
    9e88:	eafffe91 	b	98d4 <_doprnt+0x108>
    9e8c:	e59d300c 	ldr	r3, [sp, #12]
    9e90:	e58d2018 	str	r2, [sp, #24]
    9e94:	e59d2008 	ldr	r2, [sp, #8]
    9e98:	e2233001 	eor	r3, r3, #1
    9e9c:	e3520030 	cmp	r2, #48	; 0x30
    9ea0:	13a03000 	movne	r3, #0
    9ea4:	02033001 	andeq	r3, r3, #1
    9ea8:	eaffff44 	b	9bc0 <_doprnt+0x3f4>
    9eac:	e1a0000b 	mov	r0, fp
    9eb0:	eafffeff 	b	9ab4 <_doprnt+0x2e8>
    9eb4:	e1a05008 	mov	r5, r8
    9eb8:	e1a08009 	mov	r8, r9
    9ebc:	e1a0900b 	mov	r9, fp
    9ec0:	e1a0b006 	mov	fp, r6
    9ec4:	e59d6014 	ldr	r6, [sp, #20]
    9ec8:	eafffee8 	b	9a70 <_doprnt+0x2a4>
    9ecc:	e3a02001 	mov	r2, #1
    9ed0:	e58d2014 	str	r2, [sp, #20]
    9ed4:	e3a0202d 	mov	r2, #45	; 0x2d
    9ed8:	e2644000 	rsb	r4, r4, #0
    9edc:	e58d2018 	str	r2, [sp, #24]
    9ee0:	eaffff7f 	b	9ce4 <_doprnt+0x518>
    9ee4:	e58d1014 	str	r1, [sp, #20]
    9ee8:	e58de010 	str	lr, [sp, #16]
    9eec:	e58d1018 	str	r1, [sp, #24]
    9ef0:	eaffff82 	b	9d00 <_doprnt+0x534>
    9ef4:	e59f9018 	ldr	r9, [pc, #24]	; 9f14 <_doprnt+0x748>
    9ef8:	eaffff1d 	b	9b74 <_doprnt+0x3a8>
    9efc:	e58d2014 	str	r2, [sp, #20]
    9f00:	e58de010 	str	lr, [sp, #16]
    9f04:	e58d2018 	str	r2, [sp, #24]
    9f08:	e3a04001 	mov	r4, #1
    9f0c:	eafffebe 	b	9a0c <_doprnt+0x240>
    9f10:	0000b05c 	andeq	fp, r0, ip, asr r0
    9f14:	0000b3bc 			; <UNDEFINED> instruction: 0x0000b3bc

00009f18 <strlen>:
    9f18:	e5d03000 	ldrb	r3, [r0]
    9f1c:	e3530000 	cmp	r3, #0
    9f20:	0a000006 	beq	9f40 <strlen+0x28>
    9f24:	e1a03000 	mov	r3, r0
    9f28:	e3a00000 	mov	r0, #0
    9f2c:	e5f32001 	ldrb	r2, [r3, #1]!
    9f30:	e3520000 	cmp	r2, #0
    9f34:	e2800001 	add	r0, r0, #1
    9f38:	1afffffb 	bne	9f2c <strlen+0x14>
    9f3c:	e12fff1e 	bx	lr
    9f40:	e1a00003 	mov	r0, r3
    9f44:	e12fff1e 	bx	lr

00009f48 <__aeabi_uidiv>:
    9f48:	e2512001 	subs	r2, r1, #1
    9f4c:	012fff1e 	bxeq	lr
    9f50:	3a000036 	bcc	a030 <__aeabi_uidiv+0xe8>
    9f54:	e1500001 	cmp	r0, r1
    9f58:	9a000022 	bls	9fe8 <__aeabi_uidiv+0xa0>
    9f5c:	e1110002 	tst	r1, r2
    9f60:	0a000023 	beq	9ff4 <__aeabi_uidiv+0xac>
    9f64:	e311020e 	tst	r1, #-536870912	; 0xe0000000
    9f68:	01a01181 	lsleq	r1, r1, #3
    9f6c:	03a03008 	moveq	r3, #8
    9f70:	13a03001 	movne	r3, #1
    9f74:	e3510201 	cmp	r1, #268435456	; 0x10000000
    9f78:	31510000 	cmpcc	r1, r0
    9f7c:	31a01201 	lslcc	r1, r1, #4
    9f80:	31a03203 	lslcc	r3, r3, #4
    9f84:	3afffffa 	bcc	9f74 <__aeabi_uidiv+0x2c>
    9f88:	e3510102 	cmp	r1, #-2147483648	; 0x80000000
    9f8c:	31510000 	cmpcc	r1, r0
    9f90:	31a01081 	lslcc	r1, r1, #1
    9f94:	31a03083 	lslcc	r3, r3, #1
    9f98:	3afffffa 	bcc	9f88 <__aeabi_uidiv+0x40>
    9f9c:	e3a02000 	mov	r2, #0
    9fa0:	e1500001 	cmp	r0, r1
    9fa4:	20400001 	subcs	r0, r0, r1
    9fa8:	21822003 	orrcs	r2, r2, r3
    9fac:	e15000a1 	cmp	r0, r1, lsr #1
    9fb0:	204000a1 	subcs	r0, r0, r1, lsr #1
    9fb4:	218220a3 	orrcs	r2, r2, r3, lsr #1
    9fb8:	e1500121 	cmp	r0, r1, lsr #2
    9fbc:	20400121 	subcs	r0, r0, r1, lsr #2
    9fc0:	21822123 	orrcs	r2, r2, r3, lsr #2
    9fc4:	e15001a1 	cmp	r0, r1, lsr #3
    9fc8:	204001a1 	subcs	r0, r0, r1, lsr #3
    9fcc:	218221a3 	orrcs	r2, r2, r3, lsr #3
    9fd0:	e3500000 	cmp	r0, #0
    9fd4:	11b03223 	lsrsne	r3, r3, #4
    9fd8:	11a01221 	lsrne	r1, r1, #4
    9fdc:	1affffef 	bne	9fa0 <__aeabi_uidiv+0x58>
    9fe0:	e1a00002 	mov	r0, r2
    9fe4:	e12fff1e 	bx	lr
    9fe8:	03a00001 	moveq	r0, #1
    9fec:	13a00000 	movne	r0, #0
    9ff0:	e12fff1e 	bx	lr
    9ff4:	e3510801 	cmp	r1, #65536	; 0x10000
    9ff8:	21a01821 	lsrcs	r1, r1, #16
    9ffc:	23a02010 	movcs	r2, #16
    a000:	33a02000 	movcc	r2, #0
    a004:	e3510c01 	cmp	r1, #256	; 0x100
    a008:	21a01421 	lsrcs	r1, r1, #8
    a00c:	22822008 	addcs	r2, r2, #8
    a010:	e3510010 	cmp	r1, #16
    a014:	21a01221 	lsrcs	r1, r1, #4
    a018:	22822004 	addcs	r2, r2, #4
    a01c:	e3510004 	cmp	r1, #4
    a020:	82822003 	addhi	r2, r2, #3
    a024:	908220a1 	addls	r2, r2, r1, lsr #1
    a028:	e1a00230 	lsr	r0, r0, r2
    a02c:	e12fff1e 	bx	lr
    a030:	e3500000 	cmp	r0, #0
    a034:	13e00000 	mvnne	r0, #0
    a038:	ea000007 	b	a05c <__aeabi_idiv0>

0000a03c <__aeabi_uidivmod>:
    a03c:	e3510000 	cmp	r1, #0
    a040:	0afffffa 	beq	a030 <__aeabi_uidiv+0xe8>
    a044:	e92d4003 	push	{r0, r1, lr}
    a048:	ebffffbe 	bl	9f48 <__aeabi_uidiv>
    a04c:	e8bd4006 	pop	{r1, r2, lr}
    a050:	e0030092 	mul	r3, r2, r0
    a054:	e0411003 	sub	r1, r1, r3
    a058:	e12fff1e 	bx	lr

0000a05c <__aeabi_idiv0>:
    a05c:	e12fff1e 	bx	lr

Disassembly of section .rodata:

0000b000 <__rodata_start>:
    b000:	2a2a200a 	bcs	a93030 <__kernel_end+0x931030>
    b004:	6974202a 	ldmdbvs	r4!, {r1, r3, r5, sp}^
    b008:	2072656d 	rsbscs	r6, r2, sp, ror #10
    b00c:	20717269 	rsbscs	r7, r1, r9, ror #4
    b010:	646e6168 	strbtvs	r6, [lr], #-360	; 0xfffffe98
    b014:	2072656c 	rsbscs	r6, r2, ip, ror #10
    b018:	6c6c6163 	stfvse	f6, [ip], #-396	; 0xfffffe74
    b01c:	00006465 	andeq	r6, r0, r5, ror #8
    b020:	2a2a200a 	bcs	a93050 <__kernel_end+0x931050>
    b024:	6974202a 	ldmdbvs	r4!, {r1, r3, r5, sp}^
    b028:	2072656d 	rsbscs	r6, r2, sp, ror #10
    b02c:	20717269 	rsbscs	r7, r1, r9, ror #4
    b030:	61656c63 	cmnvs	r5, r3, ror #24
    b034:	20726572 	rsbscs	r6, r2, r2, ror r5
    b038:	6c6c6163 	stfvse	f6, [ip], #-396	; 0xfffffe74
    b03c:	00006465 	andeq	r6, r0, r5, ror #8
    b040:	44434241 	strbmi	r4, [r3], #-577	; 0xfffffdbf
    b044:	5a474645 	bpl	11dc960 <__kernel_end+0x107a960>
    b048:	004b4a49 	subeq	r4, fp, r9, asr #20

0000b04c <digits_uc>:
    b04c:	33323130 	teqcc	r2, #48, 2
    b050:	37363534 			; <UNDEFINED> instruction: 0x37363534
    b054:	42413938 	submi	r3, r1, #56, 18	; 0xe0000
    b058:	46454443 	strbmi	r4, [r5], -r3, asr #8

0000b05c <digits_lc>:
    b05c:	33323130 	teqcc	r2, #48, 2
    b060:	37363534 			; <UNDEFINED> instruction: 0x37363534
    b064:	62613938 	rsbvs	r3, r1, #56, 18	; 0xe0000
    b068:	66656463 	strbtvs	r6, [r5], -r3, ror #8

Disassembly of section .rodata.str1.4:

0000b06c <.rodata.str1.4>:
    b06c:	524f4241 	subpl	r4, pc, #268435460	; 0x10000004
    b070:	4e492054 	mcrmi	0, 2, r2, cr9, cr4, {2}
    b074:	52524554 	subspl	r4, r2, #84, 10	; 0x15000000
    b078:	20545055 	subscs	r5, r4, r5, asr r0
    b07c:	5543434f 	strbpl	r4, [r3, #-847]	; 0xfffffcb1
    b080:	44455252 	strbmi	r5, [r5], #-594	; 0xfffffdae
    b084:	00000000 	andeq	r0, r0, r0
    b088:	65646e55 	strbvs	r6, [r4, #-3669]!	; 0xfffff1ab
    b08c:	6e492066 	cdpvs	0, 4, cr2, cr9, cr6, {3}
    b090:	72726574 	rsbsvc	r6, r2, #116, 10	; 0x1d000000
    b094:	20747075 	rsbscs	r7, r4, r5, ror r0
    b098:	7563634f 	strbvc	r6, [r3, #-847]!	; 0xfffffcb1
    b09c:	64657272 	strbtvs	r7, [r5], #-626	; 0xfffffd8e
    b0a0:	00000000 	andeq	r0, r0, r0
    b0a4:	74666f53 	strbtvc	r6, [r6], #-3923	; 0xfffff0ad
    b0a8:	65726177 	ldrbvs	r6, [r2, #-375]!	; 0xfffffe89
    b0ac:	746e4920 	strbtvc	r4, [lr], #-2336	; 0xfffff6e0
    b0b0:	75727265 	ldrbvc	r7, [r2, #-613]!	; 0xfffffd9b
    b0b4:	4f207470 	svcmi	0x00207470
    b0b8:	72756363 	rsbsvc	r6, r5, #-1946157055	; 0x8c000001
    b0bc:	00646572 	rsbeq	r6, r4, r2, ror r5
    b0c0:	66657270 			; <UNDEFINED> instruction: 0x66657270
    b0c4:	68637465 	stmdavs	r3!, {r0, r2, r5, r6, sl, ip, sp, lr}^
    b0c8:	6f62615f 	svcvs	0x0062615f
    b0cc:	765f7472 			; <UNDEFINED> instruction: 0x765f7472
    b0d0:	6f746365 	svcvs	0x00746365
    b0d4:	6e492072 	mcrvs	0, 2, r2, cr9, cr2, {3}
    b0d8:	72726574 	rsbsvc	r6, r2, #116, 10	; 0x1d000000
    b0dc:	20747075 	rsbscs	r7, r4, r5, ror r0
    b0e0:	7563634f 	strbvc	r6, [r3, #-847]!	; 0xfffffcb1
    b0e4:	64657272 	strbtvs	r7, [r5], #-626	; 0xfffffd8e
    b0e8:	00000000 	andeq	r0, r0, r0
    b0ec:	61746164 	cmnvs	r4, r4, ror #2
    b0f0:	6f62615f 	svcvs	0x0062615f
    b0f4:	765f7472 			; <UNDEFINED> instruction: 0x765f7472
    b0f8:	6f746365 	svcvs	0x00746365
    b0fc:	6e492072 	mcrvs	0, 2, r2, cr9, cr2, {3}
    b100:	72726574 	rsbsvc	r6, r2, #116, 10	; 0x1d000000
    b104:	20747075 	rsbscs	r7, r4, r5, ror r0
    b108:	7563634f 	strbvc	r6, [r3, #-847]!	; 0xfffffcb1
    b10c:	64657272 	strbtvs	r7, [r5], #-626	; 0xfffffd8e
    b110:	00000000 	andeq	r0, r0, r0
    b114:	74736166 	ldrbtvc	r6, [r3], #-358	; 0xfffffe9a
    b118:	746e695f 	strbtvc	r6, [lr], #-2399	; 0xfffff6a1
    b11c:	75727265 	ldrbvc	r7, [r2, #-613]!	; 0xfffffd9b
    b120:	765f7470 			; <UNDEFINED> instruction: 0x765f7470
    b124:	6f746365 	svcvs	0x00746365
    b128:	6e492072 	mcrvs	0, 2, r2, cr9, cr2, {3}
    b12c:	72726574 	rsbsvc	r6, r2, #116, 10	; 0x1d000000
    b130:	20747075 	rsbscs	r7, r4, r5, ror r0
    b134:	7563634f 	strbvc	r6, [r3, #-847]!	; 0xfffffcb1
    b138:	64657272 	strbtvs	r7, [r5], #-626	; 0xfffffd8e
    b13c:	00000000 	andeq	r0, r0, r0
    b140:	20515249 	subscs	r5, r1, r9, asr #4
    b144:	67697274 			; <UNDEFINED> instruction: 0x67697274
    b148:	65726567 	ldrbvs	r6, [r2, #-1383]!	; 0xfffffa99
    b14c:	00000064 	andeq	r0, r0, r4, rrx
    b150:	62616e45 	rsbvs	r6, r1, #1104	; 0x450
    b154:	676e696c 	strbvs	r6, [lr, -ip, ror #18]!
    b158:	554d4d20 	strbpl	r4, [sp, #-3360]	; 0xfffff2e0
    b15c:	00200a20 	eoreq	r0, r0, r0, lsr #20
    b160:	61746f54 	cmnvs	r4, r4, asr pc
    b164:	654d206c 	strbvs	r2, [sp, #-108]	; 0xffffff94
    b168:	6953206d 	ldmdbvs	r3, {r0, r2, r3, r5, r6, sp}^
    b16c:	203a657a 	eorscs	r6, sl, sl, ror r5
    b170:	42206425 	eormi	r6, r0, #620756992	; 0x25000000
    b174:	73657479 	cmnvc	r5, #2030043136	; 0x79000000
    b178:	00000a20 	andeq	r0, r0, r0, lsr #20
    b17c:	61746f54 	cmnvs	r4, r4, asr pc
    b180:	7641206c 	strbvc	r2, [r1], -ip, rrx
    b184:	616c6961 	cmnvs	ip, r1, ror #18
    b188:	20656c62 	rsbcs	r6, r5, r2, ror #24
    b18c:	294b3428 	stmdbcs	fp, {r3, r5, sl, ip, sp}^
    b190:	67615020 	strbvs	r5, [r1, -r0, lsr #32]!
    b194:	72462065 	subvc	r2, r6, #101	; 0x65
    b198:	73656d61 	cmnvc	r5, #6208	; 0x1840
    b19c:	6425203a 	strtvs	r2, [r5], #-58	; 0xffffffc6
    b1a0:	00000a20 	andeq	r0, r0, r0, lsr #20
    b1a4:	414d440a 	cmpmi	sp, sl, lsl #8
    b1a8:	71726920 	cmnvc	r2, r0, lsr #18
    b1ac:	656c6320 	strbvs	r6, [ip, #-800]!	; 0xfffffce0
    b1b0:	72657261 	rsbvc	r7, r5, #268435462	; 0x10000006
    b1b4:	6c616320 	stclvs	3, cr6, [r1], #-128	; 0xffffff80
    b1b8:	2e64656c 	cdpcs	5, 6, cr6, cr4, cr12, {3}
    b1bc:	6f685320 	svcvs	0x00685320
    b1c0:	20646c75 	rsbcs	r6, r4, r5, ror ip
    b1c4:	63206562 			; <UNDEFINED> instruction: 0x63206562
    b1c8:	656c6c61 	strbvs	r6, [ip, #-3169]!	; 0xfffff39f
    b1cc:	65622064 	strbvs	r2, [r2, #-100]!	; 0xffffff9c
    b1d0:	65726f66 	ldrbvs	r6, [r2, #-3942]!	; 0xfffff09a
    b1d4:	6e616820 	cdpvs	8, 6, cr6, cr1, cr0, {1}
    b1d8:	72656c64 	rsbvc	r6, r5, #100, 24	; 0x6400
    b1dc:	00000a20 	andeq	r0, r0, r0, lsr #20
    b1e0:	414d440a 	cmpmi	sp, sl, lsl #8
    b1e4:	71726920 	cmnvc	r2, r0, lsr #18
    b1e8:	6e616820 	cdpvs	8, 6, cr6, cr1, cr0, {1}
    b1ec:	72656c64 	rsbvc	r6, r5, #100, 24	; 0x6400
    b1f0:	6c616320 	stclvs	3, cr6, [r1], #-128	; 0xffffff80
    b1f4:	2e64656c 	cdpcs	5, 6, cr6, cr4, cr12, {3}
    b1f8:	69685420 	stmdbvs	r8!, {r5, sl, ip, lr}^
    b1fc:	68732073 	ldmdavs	r3!, {r0, r1, r4, r5, r6, sp}^
    b200:	646c756f 	strbtvs	r7, [ip], #-1391	; 0xfffffa91
    b204:	20656220 	rsbcs	r6, r5, r0, lsr #4
    b208:	6c6c6163 	stfvse	f6, [ip], #-396	; 0xfffffe74
    b20c:	61206465 			; <UNDEFINED> instruction: 0x61206465
    b210:	72657466 	rsbvc	r7, r5, #1711276032	; 0x66000000
    b214:	656c6320 	strbvs	r6, [ip, #-800]!	; 0xfffffce0
    b218:	72657261 	rsbvc	r7, r5, #268435462	; 0x10000006
    b21c:	000a202e 	andeq	r2, sl, lr, lsr #32
    b220:	2d2d200a 	stccs	0, cr2, [sp, #-40]!	; 0xffffffd8
    b224:	2d2d2d2d 	stccs	13, cr2, [sp, #-180]!	; 0xffffff4c
    b228:	2d2d2d2d 	stccs	13, cr2, [sp, #-180]!	; 0xffffff4c
    b22c:	2d2d2d2d 	stccs	13, cr2, [sp, #-180]!	; 0xffffff4c
    b230:	202d2d2d 	eorcs	r2, sp, sp, lsr #26
    b234:	0000000a 	andeq	r0, r0, sl
    b238:	6f666542 	svcvs	0x00666542
    b23c:	73206572 			; <UNDEFINED> instruction: 0x73206572
    b240:	69747465 	ldmdbvs	r4!, {r0, r2, r5, r6, sl, ip, sp, lr}^
    b244:	7320676e 			; <UNDEFINED> instruction: 0x7320676e
    b248:	6372756f 	cmnvs	r2, #465567744	; 0x1bc00000
    b24c:	64612065 	strbtvs	r2, [r1], #-101	; 0xffffff9b
    b250:	73657264 	cmnvc	r5, #100, 4	; 0x40000006
    b254:	000a2073 	andeq	r2, sl, r3, ror r0
    b258:	65746641 	ldrbvs	r6, [r4, #-1601]!	; 0xfffff9bf
    b25c:	65732072 	ldrbvs	r2, [r3, #-114]!	; 0xffffff8e
    b260:	6e697474 	mcrvs	4, 3, r7, cr9, cr4, {3}
    b264:	6f732067 	svcvs	0x00732067
    b268:	65637275 	strbvs	r7, [r3, #-629]!	; 0xfffffd8b
    b26c:	64646120 	strbtvs	r6, [r4], #-288	; 0xfffffee0
    b270:	73736572 	cmnvc	r3, #478150656	; 0x1c800000
    b274:	00000a20 	andeq	r0, r0, r0, lsr #20
    b278:	6f666542 	svcvs	0x00666542
    b27c:	63206572 			; <UNDEFINED> instruction: 0x63206572
    b280:	6979706f 	ldmdbvs	r9!, {r0, r1, r2, r3, r5, r6, ip, sp, lr}^
    b284:	6420676e 	strtvs	r6, [r0], #-1902	; 0xfffff892
    b288:	69747365 	ldmdbvs	r4!, {r0, r2, r5, r6, r8, r9, ip, sp, lr}^
    b28c:	6974616e 	ldmdbvs	r4!, {r1, r2, r3, r5, r6, r8, sp, lr}^
    b290:	6c206e6f 	stcvs	14, cr6, [r0], #-444	; 0xfffffe44
    b294:	736b6f6f 	cmnvc	fp, #444	; 0x1bc
    b298:	656b696c 	strbvs	r6, [fp, #-2412]!	; 0xfffff694
    b29c:	00000a20 	andeq	r0, r0, r0, lsr #20
    b2a0:	6263200a 	rsbvs	r2, r3, #10
    b2a4:	25203a31 	strcs	r3, [r0, #-2609]!	; 0xfffff5cf
    b2a8:	00000078 	andeq	r0, r0, r8, ror r0
    b2ac:	6263200a 	rsbvs	r2, r3, #10
    b2b0:	25203a32 	strcs	r3, [r0, #-2610]!	; 0xfffff5ce
    b2b4:	00000078 	andeq	r0, r0, r8, ror r0
    b2b8:	65746641 	ldrbvs	r6, [r4, #-1601]!	; 0xfffff9bf
    b2bc:	4d442072 	stclmi	0, cr2, [r4, #-456]	; 0xfffffe38
    b2c0:	65722041 	ldrbvs	r2, [r2, #-65]!	; 0xffffffbf
    b2c4:	20746573 	rsbscs	r6, r4, r3, ror r5
    b2c8:	0000000a 	andeq	r0, r0, sl
    b2cc:	65746641 	ldrbvs	r6, [r4, #-1601]!	; 0xfffff9bf
    b2d0:	4d442072 	stclmi	0, cr2, [r4, #-456]	; 0xfffffe38
    b2d4:	65642041 	strbvs	r2, [r4, #-65]!	; 0xffffffbf
    b2d8:	20677562 	rsbcs	r7, r7, r2, ror #10
    b2dc:	0000000a 	andeq	r0, r0, sl
    b2e0:	65746641 	ldrbvs	r6, [r4, #-1601]!	; 0xfffff9bf
    b2e4:	4d442072 	stclmi	0, cr2, [r4, #-456]	; 0xfffffe38
    b2e8:	64612041 	strbtvs	r2, [r1], #-65	; 0xffffffbf
    b2ec:	73657264 	cmnvc	r5, #100, 4	; 0x40000006
    b2f0:	000a2073 	andeq	r2, sl, r3, ror r0
    b2f4:	65746641 	ldrbvs	r6, [r4, #-1601]!	; 0xfffff9bf
    b2f8:	4d442072 	stclmi	0, cr2, [r4, #-456]	; 0xfffffe38
    b2fc:	63612041 	cmnvs	r1, #65	; 0x41
    b300:	61766974 	cmnvs	r6, r4, ror r9
    b304:	0a206574 	beq	8248dc <__kernel_end+0x6c28dc>
    b308:	00000000 	andeq	r0, r0, r0
    b30c:	65746641 	ldrbvs	r6, [r4, #-1601]!	; 0xfffff9bf
    b310:	4d442072 	stclmi	0, cr2, [r4, #-456]	; 0xfffffe38
    b314:	706f2041 	rsbvc	r2, pc, r1, asr #32
    b318:	000a2073 	andeq	r2, sl, r3, ror r0
    b31c:	65746641 	ldrbvs	r6, [r4, #-1601]!	; 0xfffff9bf
    b320:	4d442072 	stclmi	0, cr2, [r4, #-456]	; 0xfffffe38
    b324:	65642041 	strbvs	r2, [r4, #-65]!	; 0xffffffbf
    b328:	6e697473 	mcrvs	4, 3, r7, cr9, cr3, {3}
    b32c:	6f697461 	svcvs	0x00697461
    b330:	6f6c206e 	svcvs	0x006c206e
    b334:	6c736b6f 	ldclvs	11, cr6, [r3], #-444	; 0xfffffe44
    b338:	20656b69 	rsbcs	r6, r5, r9, ror #22
    b33c:	0000000a 	andeq	r0, r0, sl
    b340:	6564200a 	strbvs	r2, [r4, #-10]!
    b344:	65636976 	strbvs	r6, [r3, #-2422]!	; 0xfffff68a
    b348:	3a646920 	bcc	19257d0 <__kernel_end+0x17c37d0>
    b34c:	00782520 	rsbseq	r2, r8, r0, lsr #10
    b350:	6564200a 	strbvs	r2, [r4, #-10]!
    b354:	65636976 	strbvs	r6, [r3, #-2422]!	; 0xfffff68a
    b358:	61747320 	cmnvs	r4, r0, lsr #6
    b35c:	203a6574 	eorscs	r6, sl, r4, ror r5
    b360:	00007825 	andeq	r7, r0, r5, lsr #16
    b364:	2d2d2d0a 	stccs	13, cr2, [sp, #-40]!	; 0xffffffd8
    b368:	2d2d2d2d 	stccs	13, cr2, [sp, #-180]!	; 0xffffff4c
    b36c:	2d2d2d2d 	stccs	13, cr2, [sp, #-180]!	; 0xffffff4c
    b370:	2d2d2d2d 	stccs	13, cr2, [sp, #-180]!	; 0xffffff4c
    b374:	654b2d2d 	strbvs	r2, [fp, #-3373]	; 0xfffff2d3
    b378:	6c656e72 	stclvs	14, cr6, [r5], #-456	; 0xfffffe38
    b37c:	61745320 	cmnvs	r4, r0, lsr #6
    b380:	64657472 	strbtvs	r7, [r5], #-1138	; 0xfffffb8e
    b384:	64754420 	ldrbtvs	r4, [r5], #-1056	; 0xfffffbe0
    b388:	2e2e2e65 	cdpcs	14, 2, cr2, cr14, cr5, {3}
    b38c:	2e2e2e2e 	cdpcs	14, 2, cr2, cr14, cr14, {1}
    b390:	2e2e2e2e 	cdpcs	14, 2, cr2, cr14, cr14, {1}
    b394:	2e2e2e2e 	cdpcs	14, 2, cr2, cr14, cr14, {1}
    b398:	2e2e2e2e 	cdpcs	14, 2, cr2, cr14, cr14, {1}
    b39c:	2e2e2e2e 	cdpcs	14, 2, cr2, cr14, cr14, {1}
    b3a0:	00000a2e 	andeq	r0, r0, lr, lsr #20
    b3a4:	654b200a 	strbvs	r2, [fp, #-10]
    b3a8:	6c656e72 	stclvs	14, cr6, [r5], #-456	; 0xfffffe38
    b3ac:	646e4520 	strbtvs	r4, [lr], #-1312	; 0xfffffae0
    b3b0:	7830203a 	ldmdavc	r0!, {r1, r3, r4, r5, sp}
    b3b4:	0a207825 	beq	829450 <__kernel_end+0x6c7450>
    b3b8:	00000000 	andeq	r0, r0, r0
    b3bc:	6c756e28 	ldclvs	14, cr6, [r5], #-160	; 0xffffff60
    b3c0:	0000296c 	andeq	r2, r0, ip, ror #18

Disassembly of section .data:

0000c000 <__data_start>:
    c000:	00000004 	andeq	r0, r0, r4

0000c004 <usb_hcd_device_id>:
    c004:	00000003 	andeq	r0, r0, r3

Disassembly of section .got:

0000c008 <.got>:
    c008:	0000c004 	andeq	ip, r0, r4
    c00c:	00015370 	andeq	r5, r1, r0, ror r3
    c010:	00020000 	andeq	r0, r2, r0
    c014:	00162000 	andseq	r2, r6, r0
    c018:	00016000 	andeq	r6, r1, r0
    c01c:	00142000 	andseq	r2, r4, r0
    c020:	00122000 	andseq	r2, r2, r0
    c024:	0000d000 	andeq	sp, r0, r0
    c028:	0000c000 	andeq	ip, r0, r0
    c02c:	00152000 	andseq	r2, r5, r0
    c030:	00121000 	andseq	r1, r2, r0

Disassembly of section .got.plt:

0000c034 <_GLOBAL_OFFSET_TABLE_>:
	...

Disassembly of section .bss:

0000d000 <__bss_start>:
	...

0000d120 <clearers>:
	...

0000d240 <count_irqs>:
	...

0000d250 <pt>:
	...

00015250 <pt_index>:
   15250:	00000000 	andeq	r0, r0, r0

00015254 <property.4299>:
	...

0001535c <timer_regs>:
   1535c:	00000000 	andeq	r0, r0, r0

00015360 <MMUTABLEBASE>:
   15360:	00000000 	andeq	r0, r0, r0

00015364 <all_pages_array>:
   15364:	00000000 	andeq	r0, r0, r0

00015368 <arm_mem_size>:
   15368:	00000000 	andeq	r0, r0, r0

0001536c <num_pages>:
   1536c:	00000000 	andeq	r0, r0, r0

00015370 <free_pages>:
	...

Disassembly of section .ARM.attributes:

00000000 <.ARM.attributes>:
   0:	00003241 	andeq	r3, r0, r1, asr #4
   4:	61656100 	cmnvs	r5, r0, lsl #2
   8:	01006962 	tsteq	r0, r2, ror #18
   c:	00000028 	andeq	r0, r0, r8, lsr #32
  10:	412d3805 			; <UNDEFINED> instruction: 0x412d3805
  14:	070e0600 	streq	r0, [lr, -r0, lsl #12]
  18:	09010841 	stmdbeq	r1, {r0, r6, fp}
  1c:	0c070a02 	stceq	10, cr0, [r7], {2}
  20:	14041203 	strne	r1, [r4], #-515	; 0xfffffdfd
  24:	17011501 	strne	r1, [r1, -r1, lsl #10]
  28:	1a011803 	bne	4603c <__first_lvl_tbl_end+0x2503c>
  2c:	2a012201 	bcs	48838 <__first_lvl_tbl_end+0x27838>
  30:	Address 0x0000000000000030 is out of bounds.


Disassembly of section .comment:

00000000 <.comment>:
   0:	3a434347 	bcc	10d0d24 <__kernel_end+0xf6ed24>
   4:	4e472820 	cdpmi	8, 4, cr2, cr7, cr0, {1}
   8:	6f542055 	svcvs	0x00542055
   c:	20736c6f 	rsbscs	r6, r3, pc, ror #24
  10:	20726f66 	rsbscs	r6, r2, r6, ror #30
  14:	204d5241 	subcs	r5, sp, r1, asr #4
  18:	65626d45 	strbvs	r6, [r2, #-3397]!	; 0xfffff2bb
  1c:	64656464 	strbtvs	r6, [r5], #-1124	; 0xfffffb9c
  20:	6f725020 	svcvs	0x00725020
  24:	73736563 	cmnvc	r3, #415236096	; 0x18c00000
  28:	2973726f 	ldmdbcs	r3!, {r0, r1, r2, r3, r5, r6, r9, ip, sp, lr}^
  2c:	342e3520 	strtcc	r3, [lr], #-1312	; 0xfffffae0
  30:	3220312e 	eorcc	r3, r0, #-2147483637	; 0x8000000b
  34:	30363130 	eorscc	r3, r6, r0, lsr r1
  38:	20393139 	eorscs	r3, r9, r9, lsr r1
  3c:	6c657228 	sfmvs	f7, 2, [r5], #-160	; 0xffffff60
  40:	65736165 	ldrbvs	r6, [r3, #-357]!	; 0xfffffe9b
  44:	415b2029 	cmpmi	fp, r9, lsr #32
  48:	652f4d52 	strvs	r4, [pc, #-3410]!	; fffff2fe <__kernel_end+0xffe9d2fe>
  4c:	6465626d 	strbtvs	r6, [r5], #-621	; 0xfffffd93
  50:	2d646564 	cfstr64cs	mvdx6, [r4, #-400]!	; 0xfffffe70
  54:	72622d35 	rsbvc	r2, r2, #3392	; 0xd40
  58:	68636e61 	stmdavs	r3!, {r0, r5, r6, r9, sl, fp, sp, lr}^
  5c:	76657220 	strbtvc	r7, [r5], -r0, lsr #4
  60:	6f697369 	svcvs	0x00697369
  64:	3432206e 	ldrtcc	r2, [r2], #-110	; 0xffffff92
  68:	36393430 			; <UNDEFINED> instruction: 0x36393430
  6c:	Address 0x000000000000006c is out of bounds.


Disassembly of section .debug_line:

00000000 <.debug_line>:
       0:	000000ba 	strheq	r0, [r0], -sl
       4:	00260002 	eoreq	r0, r6, r2
       8:	01020000 	mrseq	r0, (UNDEF: 2)
       c:	000d0efb 	strdeq	r0, [sp], -fp
      10:	01010101 	tsteq	r1, r1, lsl #2
      14:	01000000 	mrseq	r0, (UNDEF: 0)
      18:	61010000 	mrsvs	r0, (UNDEF: 1)
      1c:	2f686372 	svccs	0x00686372
      20:	006d7261 	rsbeq	r7, sp, r1, ror #4
      24:	6f6f6200 	svcvs	0x006f6200
      28:	00532e74 	subseq	r2, r3, r4, ror lr
      2c:	00000001 	andeq	r0, r0, r1
      30:	00020500 	andeq	r0, r2, r0, lsl #10
      34:	03000080 	movweq	r0, #128	; 0x80
      38:	2f2f012a 	svccs	0x002f012a
      3c:	2f2f2f2f 	svccs	0x002f2f2f
      40:	080d032f 	stmdaeq	sp, {r0, r1, r2, r3, r5, r8, r9}
      44:	2f2f2f20 	svccs	0x002f2f20
      48:	322f302f 	eorcc	r3, pc, #47	; 0x2f
      4c:	302f2f2f 	eorcc	r2, pc, pc, lsr #30
      50:	2f2f2f2f 	svccs	0x002f2f2f
      54:	312f302f 			; <UNDEFINED> instruction: 0x312f302f
      58:	2f2f2f2f 	svccs	0x002f2f2f
      5c:	2f2f312f 	svccs	0x002f312f
      60:	312f2f32 			; <UNDEFINED> instruction: 0x312f2f32
      64:	30332f2f 	eorscc	r2, r3, pc, lsr #30
      68:	31302f30 	teqcc	r0, r0, lsr pc
      6c:	32333230 	eorscc	r3, r3, #48, 4
      70:	322f322f 	eorcc	r3, pc, #-268435454	; 0xf0000002
      74:	2f2f2f32 	svccs	0x002f2f32
      78:	32312f32 	eorscc	r2, r1, #50, 30	; 0xc8
      7c:	312f2f2f 			; <UNDEFINED> instruction: 0x312f2f2f
      80:	2f2f2f2f 	svccs	0x002f2f2f
      84:	2f2f2f2f 	svccs	0x002f2f2f
      88:	322f2f2f 	eorcc	r2, pc, #47, 30	; 0xbc
      8c:	2f312f2f 	svccs	0x00312f2f
      90:	302f302f 	eorcc	r3, pc, pc, lsr #32
      94:	31302f2f 	teqcc	r0, pc, lsr #30
      98:	2f2f2f2f 	svccs	0x002f2f2f
      9c:	2f2f2f2f 	svccs	0x002f2f2f
      a0:	2f2f2f2f 	svccs	0x002f2f2f
      a4:	302f2f2f 	eorcc	r2, pc, pc, lsr #30
      a8:	2f2f2f32 	svccs	0x002f2f32
      ac:	2f322f2f 	svccs	0x00322f2f
      b0:	2f342f2f 	svccs	0x00342f2f
      b4:	2e7eea03 	vaddcs.f32	s29, s28, s6
      b8:	00020234 	andeq	r0, r2, r4, lsr r2
      bc:	009f0101 	addseq	r0, pc, r1, lsl #2
      c0:	00020000 	andeq	r0, r2, r0
      c4:	00000086 	andeq	r0, r0, r6, lsl #1
      c8:	0efb0102 	cdpeq	1, 15, cr0, cr11, cr2, {0}
      cc:	0101000d 	tsteq	r1, sp
      d0:	00000101 	andeq	r0, r0, r1, lsl #2
      d4:	00000100 	andeq	r0, r0, r0, lsl #2
      d8:	63726101 	cmnvs	r2, #1073741824	; 0x40000000
      dc:	72612f68 	rsbvc	r2, r1, #104, 30	; 0x1a0
      e0:	552f006d 	strpl	r0, [pc, #-109]!	; 7b <ARM_F_BIT+0x3b>
      e4:	73726573 	cmnvc	r2, #482344960	; 0x1cc00000
      e8:	6172702f 	cmnvs	r2, pc, lsr #32
      ec:	6873616b 	ldmdavs	r3!, {r0, r1, r3, r5, r6, r8, sp, lr}^
      f0:	6b726f62 	blvs	1c9be80 <__kernel_end+0x1b39e80>
      f4:	672f7261 	strvs	r7, [pc, -r1, ror #4]!
      f8:	612d6363 			; <UNDEFINED> instruction: 0x612d6363
      fc:	6e2d6d72 	mcrvs	13, 1, r6, cr13, cr2, {3}
     100:	2d656e6f 	stclcs	14, cr6, [r5, #-444]!	; 0xfffffe44
     104:	69626165 	stmdbvs	r2!, {r0, r2, r5, r6, r8, sp, lr}^
     108:	62696c2f 	rsbvs	r6, r9, #12032	; 0x2f00
     10c:	6363672f 	cmnvs	r3, #12320768	; 0xbc0000
     110:	6d72612f 	ldfvse	f6, [r2, #-188]!	; 0xffffff44
     114:	6e6f6e2d 	cdpvs	14, 6, cr6, cr15, cr13, {1}
     118:	61652d65 	cmnvs	r5, r5, ror #26
     11c:	352f6962 	strcc	r6, [pc, #-2402]!	; fffff7c2 <__kernel_end+0xffe9d7c2>
     120:	312e342e 			; <UNDEFINED> instruction: 0x312e342e
     124:	636e692f 	cmnvs	lr, #770048	; 0xbc000
     128:	6564756c 	strbvs	r7, [r4, #-1388]!	; 0xfffffa94
     12c:	73620000 	cmnvc	r2, #0
     130:	6c632d73 	stclvs	13, cr2, [r3], #-460	; 0xfffffe34
     134:	2e726165 	rpwcssz	f6, f2, f5
     138:	00010063 	andeq	r0, r1, r3, rrx
     13c:	64747300 	ldrbtvs	r7, [r4], #-768	; 0xfffffd00
     140:	2d746e69 	ldclcs	14, cr6, [r4, #-420]!	; 0xfffffe5c
     144:	2e636367 	cdpcs	3, 6, cr6, cr3, cr7, {3}
     148:	00020068 	andeq	r0, r2, r8, rrx
     14c:	05000000 	streq	r0, [r0, #-0]
     150:	00820802 	addeq	r0, r2, r2, lsl #16
     154:	324a1900 	subcc	r1, sl, #0, 18
     158:	4d9d2108 	ldfmis	f2, [sp, #32]
     15c:	01000a02 	tsteq	r0, r2, lsl #20
     160:	0000d601 	andeq	sp, r0, r1, lsl #12
     164:	be000200 	cdplt	2, 0, cr0, cr0, cr0, {0}
     168:	02000000 	andeq	r0, r0, #0
     16c:	0d0efb01 	vstreq	d15, [lr, #-4]
     170:	01010100 	mrseq	r0, (UNDEF: 17)
     174:	00000001 	andeq	r0, r0, r1
     178:	01000001 	tsteq	r0, r1
     17c:	68637261 	stmdavs	r3!, {r0, r5, r6, r9, ip, sp, lr}^
     180:	6d72612f 	ldfvse	f6, [r2, #-188]!	; 0xffffff44
     184:	636e6900 	cmnvs	lr, #0, 18
     188:	6564756c 	strbvs	r7, [r4, #-1388]!	; 0xfffffa94
     18c:	72656b2f 	rsbvc	r6, r5, #48128	; 0xbc00
     190:	006c656e 	rsbeq	r6, ip, lr, ror #10
     194:	6573552f 	ldrbvs	r5, [r3, #-1327]!	; 0xfffffad1
     198:	702f7372 	eorvc	r7, pc, r2, ror r3	; <UNPREDICTABLE>
     19c:	616b6172 	smcvs	46610	; 0xb612
     1a0:	6f626873 	svcvs	0x00626873
     1a4:	72616b72 	rsbvc	r6, r1, #116736	; 0x1c800
     1a8:	6363672f 	cmnvs	r3, #12320768	; 0xbc0000
     1ac:	6d72612d 	ldfvse	f6, [r2, #-180]!	; 0xffffff4c
     1b0:	6e6f6e2d 	cdpvs	14, 6, cr6, cr15, cr13, {1}
     1b4:	61652d65 	cmnvs	r5, r5, ror #26
     1b8:	6c2f6962 	stcvs	9, cr6, [pc], #-392	; 38 <CPSR_THUMB+0x18>
     1bc:	672f6269 	strvs	r6, [pc, -r9, ror #4]!
     1c0:	612f6363 			; <UNDEFINED> instruction: 0x612f6363
     1c4:	6e2d6d72 	mcrvs	13, 1, r6, cr13, cr2, {3}
     1c8:	2d656e6f 	stclcs	14, cr6, [r5, #-444]!	; 0xfffffe44
     1cc:	69626165 	stmdbvs	r2!, {r0, r2, r5, r6, r8, sp, lr}^
     1d0:	342e352f 	strtcc	r3, [lr], #-1327	; 0xfffffad1
     1d4:	692f312e 	stmdbvs	pc!, {r1, r2, r3, r5, r8, ip, sp}	; <UNPREDICTABLE>
     1d8:	756c636e 	strbvc	r6, [ip, #-878]!	; 0xfffffc92
     1dc:	00006564 	andeq	r6, r0, r4, ror #10
     1e0:	2d697072 	stclcs	0, cr7, [r9, #-456]!	; 0xfffffe38
     1e4:	746d7261 	strbtvc	r7, [sp], #-609	; 0xfffffd9f
     1e8:	72656d69 	rsbvc	r6, r5, #6720	; 0x1a40
     1ec:	0100632e 	tsteq	r0, lr, lsr #6
     1f0:	70720000 	rsbsvc	r0, r2, r0
     1f4:	72612d69 	rsbvc	r2, r1, #6720	; 0x1a40
     1f8:	6d69746d 	cfstrdvs	mvd7, [r9, #-436]!	; 0xfffffe4c
     1fc:	682e7265 	stmdavs	lr!, {r0, r2, r5, r6, r9, ip, sp, lr}
     200:	00000200 	andeq	r0, r0, r0, lsl #4
     204:	69647473 	stmdbvs	r4!, {r0, r1, r4, r5, r6, sl, ip, sp, lr}^
     208:	672d746e 	strvs	r7, [sp, -lr, ror #8]!
     20c:	682e6363 	stmdavs	lr!, {r0, r1, r5, r6, r8, r9, sp, lr}
     210:	00000300 	andeq	r0, r0, r0, lsl #6
     214:	2d697072 	stclcs	0, cr7, [r9, #-456]!	; 0xfffffe38
     218:	65746e69 	ldrbvs	r6, [r4, #-3689]!	; 0xfffff197
     21c:	70757272 	rsbsvc	r7, r5, r2, ror r2
     220:	682e7374 	stmdavs	lr!, {r2, r4, r5, r6, r8, r9, ip, sp, lr}
     224:	00000200 	andeq	r0, r0, r0, lsl #4
     228:	02050000 	andeq	r0, r5, #0
     22c:	00008268 	andeq	r8, r0, r8, ror #4
     230:	2f691419 	svccs	0x00691419
     234:	08026767 	stmdaeq	r2, {r0, r1, r2, r5, r6, r8, r9, sl, sp, lr}
     238:	3d010100 	stfccs	f0, [r1, #-0]
     23c:	02000002 	andeq	r0, r0, #2
     240:	00014300 	andeq	r4, r1, r0, lsl #6
     244:	fb010200 	blx	40a4e <__first_lvl_tbl_end+0x1fa4e>
     248:	01000d0e 	tsteq	r0, lr, lsl #26
     24c:	00010101 	andeq	r0, r1, r1, lsl #2
     250:	00010000 	andeq	r0, r1, r0
     254:	72610100 	rsbvc	r0, r1, #0, 2
     258:	612f6863 			; <UNDEFINED> instruction: 0x612f6863
     25c:	69006d72 	stmdbvs	r0, {r1, r4, r5, r6, r8, sl, fp, sp, lr}
     260:	756c636e 	strbvc	r6, [ip, #-878]!	; 0xfffffc92
     264:	6b2f6564 	blvs	bd97fc <__kernel_end+0xa777fc>
     268:	656e7265 	strbvs	r7, [lr, #-613]!	; 0xfffffd9b
     26c:	552f006c 	strpl	r0, [pc, #-108]!	; 208 <ARM_I_BIT+0x188>
     270:	73726573 	cmnvc	r2, #482344960	; 0x1cc00000
     274:	6172702f 	cmnvs	r2, pc, lsr #32
     278:	6873616b 	ldmdavs	r3!, {r0, r1, r3, r5, r6, r8, sp, lr}^
     27c:	6b726f62 	blvs	1c9c00c <__kernel_end+0x1b3a00c>
     280:	672f7261 	strvs	r7, [pc, -r1, ror #4]!
     284:	612d6363 			; <UNDEFINED> instruction: 0x612d6363
     288:	6e2d6d72 	mcrvs	13, 1, r6, cr13, cr2, {3}
     28c:	2d656e6f 	stclcs	14, cr6, [r5, #-444]!	; 0xfffffe44
     290:	69626165 	stmdbvs	r2!, {r0, r2, r5, r6, r8, sp, lr}^
     294:	62696c2f 	rsbvs	r6, r9, #12032	; 0x2f00
     298:	6363672f 	cmnvs	r3, #12320768	; 0xbc0000
     29c:	6d72612f 	ldfvse	f6, [r2, #-188]!	; 0xffffff44
     2a0:	6e6f6e2d 	cdpvs	14, 6, cr6, cr15, cr13, {1}
     2a4:	61652d65 	cmnvs	r5, r5, ror #26
     2a8:	352f6962 	strcc	r6, [pc, #-2402]!	; fffff94e <__kernel_end+0xffe9d94e>
     2ac:	312e342e 			; <UNDEFINED> instruction: 0x312e342e
     2b0:	636e692f 	cmnvs	lr, #770048	; 0xbc000
     2b4:	6564756c 	strbvs	r7, [r4, #-1388]!	; 0xfffffa94
     2b8:	636e6900 	cmnvs	lr, #0, 18
     2bc:	6564756c 	strbvs	r7, [r4, #-1388]!	; 0xfffffa94
     2c0:	7665642f 	strbtvc	r6, [r5], -pc, lsr #8
     2c4:	00656369 	rsbeq	r6, r5, r9, ror #6
     2c8:	6573552f 	ldrbvs	r5, [r3, #-1327]!	; 0xfffffad1
     2cc:	702f7372 	eorvc	r7, pc, r2, ror r3	; <UNPREDICTABLE>
     2d0:	616b6172 	smcvs	46610	; 0xb612
     2d4:	6f626873 	svcvs	0x00626873
     2d8:	72616b72 	rsbvc	r6, r1, #116736	; 0x1c800
     2dc:	7365442f 	cmnvc	r5, #788529152	; 0x2f000000
     2e0:	706f746b 	rsbvc	r7, pc, fp, ror #8
     2e4:	6d65522f 	sfmvs	f5, 2, [r5, #-188]!	; 0xffffff44
     2e8:	5f65746f 	svcpl	0x0065746f
     2ec:	6f706552 	svcvs	0x00706552
     2f0:	6970722f 	ldmdbvs	r0!, {r0, r1, r2, r3, r5, r9, ip, sp, lr}^
     2f4:	2d736f2d 	ldclcs	15, cr6, [r3, #-180]!	; 0xffffff4c
     2f8:	74726175 	ldrbtvc	r6, [r2], #-373	; 0xfffffe8b
     2fc:	6970722f 	ldmdbvs	r0!, {r0, r1, r2, r3, r5, r9, ip, sp, lr}^
     300:	6d2d6233 	sfmvs	f6, 4, [sp, #-204]!	; 0xffffff34
     304:	79746165 	ldmdbvc	r4!, {r0, r2, r5, r6, r8, sp, lr}^
     308:	656b732d 	strbvs	r7, [fp, #-813]!	; 0xfffffcd3
     30c:	6f74656c 	svcvs	0x0074656c
     310:	79732f6e 	ldmdbvc	r3!, {r1, r2, r3, r5, r6, r8, r9, sl, fp, sp}^
     314:	6f6f7273 	svcvs	0x006f7273
     318:	73752f74 	cmnvc	r5, #116, 30	; 0x1d0
     31c:	6e692f72 	mcrvs	15, 3, r2, cr9, cr2, {3}
     320:	64756c63 	ldrbtvs	r6, [r5], #-3171	; 0xfffff39d
     324:	6c702f65 	ldclvs	15, cr2, [r0], #-404	; 0xfffffe6c
     328:	00636269 	rsbeq	r6, r3, r9, ror #4
     32c:	69707200 	ldmdbvs	r0!, {r9, ip, sp, lr}^
     330:	746e692d 	strbtvc	r6, [lr], #-2349	; 0xfffff6d3
     334:	75727265 	ldrbvc	r7, [r2, #-613]!	; 0xfffffd9b
     338:	2e737470 	mrccs	4, 3, r7, cr3, cr0, {3}
     33c:	00010063 	andeq	r0, r1, r3, rrx
     340:	69707200 	ldmdbvs	r0!, {r9, ip, sp, lr}^
     344:	746e692d 	strbtvc	r6, [lr], #-2349	; 0xfffff6d3
     348:	75727265 	ldrbvc	r7, [r2, #-613]!	; 0xfffffd9b
     34c:	2e737470 	mrccs	4, 3, r7, cr3, cr0, {3}
     350:	00020068 	andeq	r0, r2, r8, rrx
     354:	64747300 	ldrbtvs	r7, [r4], #-768	; 0xfffffd00
     358:	2e666564 	cdpcs	5, 6, cr6, cr6, cr4, {3}
     35c:	00030068 	andeq	r0, r3, r8, rrx
     360:	64747300 	ldrbtvs	r7, [r4], #-768	; 0xfffffd00
     364:	2d746e69 	ldclcs	14, cr6, [r4, #-420]!	; 0xfffffe5c
     368:	2e636367 	cdpcs	3, 6, cr6, cr3, cr7, {3}
     36c:	00030068 	andeq	r0, r3, r8, rrx
     370:	72617500 	rsbvc	r7, r1, #0, 10
     374:	682e3074 	stmdavs	lr!, {r2, r4, r5, r6, ip, sp}
     378:	00000400 	andeq	r0, r0, r0, lsl #8
     37c:	69647473 	stmdbvs	r4!, {r0, r1, r4, r5, r6, sl, ip, sp, lr}^
     380:	00682e6f 	rsbeq	r2, r8, pc, ror #28
     384:	00000005 	andeq	r0, r0, r5
     388:	a0020500 	andge	r0, r2, r0, lsl #10
     38c:	03000082 	movweq	r0, #130	; 0x82
     390:	03140121 	tsteq	r4, #1073741832	; 0x40000008
     394:	034b660a 	movteq	r6, #46602	; 0xb60a
     398:	032f9e0c 			; <UNDEFINED> instruction: 0x032f9e0c
     39c:	a22f9e0c 	eorge	r9, pc, #12, 28	; 0xc0
     3a0:	a44ba44b 	strbge	sl, [fp], #-1099	; 0xfffffbb5
     3a4:	9e13034b 	cdpls	3, 1, cr0, cr3, cr11, {2}
     3a8:	302f2d13 	eorcc	r2, pc, r3, lsl sp	; <UNPREDICTABLE>
     3ac:	337d332c 	cmncc	sp, #44, 6	; 0xb0000000
     3b0:	02040200 	andeq	r0, r4, #0, 4
     3b4:	02008547 	andeq	r8, r0, #297795584	; 0x11c00000
     3b8:	4a060404 	bmi	1813d0 <__kernel_end+0x1f3d0>
     3bc:	08040200 	stmdaeq	r4, {r9}
     3c0:	0402004a 	streq	r0, [r2], #-74	; 0xffffffb6
     3c4:	02004a09 	andeq	r4, r0, #36864	; 0x9000
     3c8:	06660a04 	strbteq	r0, [r6], -r4, lsl #20
     3cc:	03020484 	movweq	r0, #9348	; 0x2484
     3d0:	4c35664e 	ldcmi	6, cr6, [r5], #-312	; 0xfffffec8
     3d4:	2b030104 	blcs	c07ec <__first_lvl_tbl_end+0x9f7ec>
     3d8:	0302042e 	movweq	r0, #9262	; 0x242e
     3dc:	1103824c 	tstne	r3, ip, asr #4
     3e0:	01044c2e 	tsteq	r4, lr, lsr #24
     3e4:	01040200 	mrseq	r0, R12_usr
     3e8:	004a1d03 	subeq	r1, sl, r3, lsl #26
     3ec:	06050402 	streq	r0, [r5], -r2, lsl #8
     3f0:	0c0306ba 	stceq	6, cr0, [r3], {186}	; 0xba
     3f4:	302c14d6 	ldrdcc	r1, [ip], -r6	; <UNPREDICTABLE>
     3f8:	820a0335 	andhi	r0, sl, #-738197504	; 0xd4000000
     3fc:	2d304830 	ldccs	8, cr4, [r0, #-192]!	; 0xffffff40
     400:	2f2f2c2f 	svccs	0x002f2c2f
     404:	30667703 	rsbcc	r7, r6, r3, lsl #14
     408:	2f2d3048 	svccs	0x002d3048
     40c:	2f2d302c 	svccs	0x002d302c
     410:	304a7703 	subcc	r7, sl, r3, lsl #14
     414:	2f2d3048 	svccs	0x002d3048
     418:	032f2f48 			; <UNDEFINED> instruction: 0x032f2f48
     41c:	2c14ba16 	ldccs	10, cr11, [r4], {22}
     420:	0a033630 	beq	cdce8 <__first_lvl_tbl_end+0xacce8>
     424:	30483082 	subcc	r3, r8, r2, lsl #1
     428:	2c302d2d 	ldccs	13, cr2, [r0], #-180	; 0xffffff4c
     42c:	77032f2f 	strvc	r2, [r3, -pc, lsr #30]
     430:	30483066 	subcc	r3, r8, r6, rrx
     434:	2c302d2d 	ldccs	13, cr2, [r0], #-180	; 0xffffff4c
     438:	032f2d30 			; <UNDEFINED> instruction: 0x032f2d30
     43c:	47314a76 			; <UNDEFINED> instruction: 0x47314a76
     440:	47302c31 			; <UNDEFINED> instruction: 0x47302c31
     444:	1703304b 	strne	r3, [r3, -fp, asr #32]
     448:	312b17ba 			; <UNDEFINED> instruction: 0x312b17ba
     44c:	03040200 	movweq	r0, #16896	; 0x4200
     450:	04020068 	streq	r0, [r2], #-104	; 0xffffff98
     454:	314f2c03 	cmpcc	pc, r3, lsl #24
     458:	7f950313 	svcvc	0x00950313
     45c:	02042f66 	andeq	r2, r4, #408	; 0x198
     460:	032e6403 			; <UNDEFINED> instruction: 0x032e6403
     464:	044c2e11 	strbeq	r2, [ip], #-3601	; 0xfffff1ef
     468:	2e0b0301 	cdpcs	3, 0, cr0, cr11, cr1, {0}
     46c:	2f83679f 	svccs	0x0083679f
     470:	5e030204 	cdppl	2, 0, cr0, cr3, cr4, {0}
     474:	024c352e 	subeq	r3, ip, #192937984	; 0xb800000
     478:	01010006 	tsteq	r1, r6
     47c:	000000d4 	ldrdeq	r0, [r0], -r4
     480:	00a80002 	adceq	r0, r8, r2
     484:	01020000 	mrseq	r0, (UNDEF: 2)
     488:	000d0efb 	strdeq	r0, [sp], -fp
     48c:	01010101 	tsteq	r1, r1, lsl #2
     490:	01000000 	mrseq	r0, (UNDEF: 0)
     494:	61010000 	mrsvs	r0, (UNDEF: 1)
     498:	2f686372 	svccs	0x00686372
     49c:	006d7261 	rsbeq	r7, sp, r1, ror #4
     4a0:	6573552f 	ldrbvs	r5, [r3, #-1327]!	; 0xfffffad1
     4a4:	702f7372 	eorvc	r7, pc, r2, ror r3	; <UNPREDICTABLE>
     4a8:	616b6172 	smcvs	46610	; 0xb612
     4ac:	6f626873 	svcvs	0x00626873
     4b0:	72616b72 	rsbvc	r6, r1, #116736	; 0x1c800
     4b4:	6363672f 	cmnvs	r3, #12320768	; 0xbc0000
     4b8:	6d72612d 	ldfvse	f6, [r2, #-180]!	; 0xffffff4c
     4bc:	6e6f6e2d 	cdpvs	14, 6, cr6, cr15, cr13, {1}
     4c0:	61652d65 	cmnvs	r5, r5, ror #26
     4c4:	6c2f6962 	stcvs	9, cr6, [pc], #-392	; 344 <ARM_I_BIT+0x2c4>
     4c8:	672f6269 	strvs	r6, [pc, -r9, ror #4]!
     4cc:	612f6363 			; <UNDEFINED> instruction: 0x612f6363
     4d0:	6e2d6d72 	mcrvs	13, 1, r6, cr13, cr2, {3}
     4d4:	2d656e6f 	stclcs	14, cr6, [r5, #-444]!	; 0xfffffe44
     4d8:	69626165 	stmdbvs	r2!, {r0, r2, r5, r6, r8, sp, lr}^
     4dc:	342e352f 	strtcc	r3, [lr], #-1327	; 0xfffffad1
     4e0:	692f312e 	stmdbvs	pc!, {r1, r2, r3, r5, r8, ip, sp}	; <UNPREDICTABLE>
     4e4:	756c636e 	strbvc	r6, [ip, #-878]!	; 0xfffffc92
     4e8:	69006564 	stmdbvs	r0, {r2, r5, r6, r8, sl, sp, lr}
     4ec:	756c636e 	strbvc	r6, [ip, #-878]!	; 0xfffffc92
     4f0:	6b2f6564 	blvs	bd9a88 <__kernel_end+0xa77a88>
     4f4:	656e7265 	strbvs	r7, [lr, #-613]!	; 0xfffffd9b
     4f8:	7200006c 	andvc	r0, r0, #108	; 0x6c
     4fc:	6d2d6970 	stcvs	9, cr6, [sp, #-448]!	; 0xfffffe40
     500:	626c6961 	rsbvs	r6, ip, #1589248	; 0x184000
     504:	632e786f 			; <UNDEFINED> instruction: 0x632e786f
     508:	00000100 	andeq	r0, r0, r0, lsl #2
     50c:	69647473 	stmdbvs	r4!, {r0, r1, r4, r5, r6, sl, ip, sp, lr}^
     510:	672d746e 	strvs	r7, [sp, -lr, ror #8]!
     514:	682e6363 	stmdavs	lr!, {r0, r1, r5, r6, r8, r9, sp, lr}
     518:	00000200 	andeq	r0, r0, r0, lsl #4
     51c:	2d697072 	stclcs	0, cr7, [r9, #-456]!	; 0xfffffe38
     520:	6c69616d 	stfvse	f6, [r9], #-436	; 0xfffffe4c
     524:	2e786f62 	cdpcs	15, 7, cr6, cr8, cr2, {3}
     528:	00030068 	andeq	r0, r3, r8, rrx
     52c:	05000000 	streq	r0, [r0, #-0]
     530:	00865002 	addeq	r5, r6, r2
     534:	010a0300 	mrseq	r0, (UNDEF: 58)
     538:	00463317 	subeq	r3, r6, r7, lsl r3
     53c:	32010402 	andcc	r0, r1, #33554432	; 0x2000000
     540:	00184ea3 	andseq	r4, r8, r3, lsr #29
     544:	4e010402 	cdpmi	4, 0, cr0, cr1, cr2, {0}
     548:	2e7603c0 	cdpcs	3, 7, cr0, cr6, cr0, {6}
     54c:	02ba0f03 	adcseq	r0, sl, #3, 30
     550:	01010002 	tsteq	r1, r2
     554:	00000267 	andeq	r0, r0, r7, ror #4
     558:	01300002 	teqeq	r0, r2
     55c:	01020000 	mrseq	r0, (UNDEF: 2)
     560:	000d0efb 	strdeq	r0, [sp], -fp
     564:	01010101 	tsteq	r1, r1, lsl #2
     568:	01000000 	mrseq	r0, (UNDEF: 0)
     56c:	61010000 	mrsvs	r0, (UNDEF: 1)
     570:	2f686372 	svccs	0x00686372
     574:	006d7261 	rsbeq	r7, sp, r1, ror #4
     578:	6573552f 	ldrbvs	r5, [r3, #-1327]!	; 0xfffffad1
     57c:	702f7372 	eorvc	r7, pc, r2, ror r3	; <UNPREDICTABLE>
     580:	616b6172 	smcvs	46610	; 0xb612
     584:	6f626873 	svcvs	0x00626873
     588:	72616b72 	rsbvc	r6, r1, #116736	; 0x1c800
     58c:	6363672f 	cmnvs	r3, #12320768	; 0xbc0000
     590:	6d72612d 	ldfvse	f6, [r2, #-180]!	; 0xffffff4c
     594:	6e6f6e2d 	cdpvs	14, 6, cr6, cr15, cr13, {1}
     598:	61652d65 	cmnvs	r5, r5, ror #26
     59c:	6c2f6962 	stcvs	9, cr6, [pc], #-392	; 41c <ARM_I_BIT+0x39c>
     5a0:	672f6269 	strvs	r6, [pc, -r9, ror #4]!
     5a4:	612f6363 			; <UNDEFINED> instruction: 0x612f6363
     5a8:	6e2d6d72 	mcrvs	13, 1, r6, cr13, cr2, {3}
     5ac:	2d656e6f 	stclcs	14, cr6, [r5, #-444]!	; 0xfffffe44
     5b0:	69626165 	stmdbvs	r2!, {r0, r2, r5, r6, r8, sp, lr}^
     5b4:	342e352f 	strtcc	r3, [lr], #-1327	; 0xfffffad1
     5b8:	692f312e 	stmdbvs	pc!, {r1, r2, r3, r5, r8, ip, sp}	; <UNPREDICTABLE>
     5bc:	756c636e 	strbvc	r6, [ip, #-878]!	; 0xfffffc92
     5c0:	69006564 	stmdbvs	r0, {r2, r5, r6, r8, sl, sp, lr}
     5c4:	756c636e 	strbvc	r6, [ip, #-878]!	; 0xfffffc92
     5c8:	6b2f6564 	blvs	bd9b60 <__kernel_end+0xa77b60>
     5cc:	656e7265 	strbvs	r7, [lr, #-613]!	; 0xfffffd9b
     5d0:	552f006c 	strpl	r0, [pc, #-108]!	; 56c <ARM_I_BIT+0x4ec>
     5d4:	73726573 	cmnvc	r2, #482344960	; 0x1cc00000
     5d8:	6172702f 	cmnvs	r2, pc, lsr #32
     5dc:	6873616b 	ldmdavs	r3!, {r0, r1, r3, r5, r6, r8, sp, lr}^
     5e0:	6b726f62 	blvs	1c9c370 <__kernel_end+0x1b3a370>
     5e4:	672f7261 	strvs	r7, [pc, -r1, ror #4]!
     5e8:	612d6363 			; <UNDEFINED> instruction: 0x612d6363
     5ec:	6e2d6d72 	mcrvs	13, 1, r6, cr13, cr2, {3}
     5f0:	2d656e6f 	stclcs	14, cr6, [r5, #-444]!	; 0xfffffe44
     5f4:	69626165 	stmdbvs	r2!, {r0, r2, r5, r6, r8, sp, lr}^
     5f8:	6d72612f 	ldfvse	f6, [r2, #-188]!	; 0xffffff44
     5fc:	6e6f6e2d 	cdpvs	14, 6, cr6, cr15, cr13, {1}
     600:	61652d65 	cmnvs	r5, r5, ror #26
     604:	692f6962 	stmdbvs	pc!, {r1, r5, r6, r8, fp, sp, lr}	; <UNPREDICTABLE>
     608:	756c636e 	strbvc	r6, [ip, #-878]!	; 0xfffffc92
     60c:	00006564 	andeq	r6, r0, r4, ror #10
     610:	2d697072 	stclcs	0, cr7, [r9, #-456]!	; 0xfffffe38
     614:	6c69616d 	stfvse	f6, [r9], #-436	; 0xfffffe4c
     618:	2d786f62 	ldclcs	15, cr6, [r8, #-392]!	; 0xfffffe78
     61c:	65746e69 	ldrbvs	r6, [r4, #-3689]!	; 0xfffff197
     620:	63616672 	cmnvs	r1, #119537664	; 0x7200000
     624:	00632e65 	rsbeq	r2, r3, r5, ror #28
     628:	73000001 	movwvc	r0, #1
     62c:	72616474 	rsbvc	r6, r1, #116, 8	; 0x74000000
     630:	00682e67 	rsbeq	r2, r8, r7, ror #28
     634:	73000002 	movwvc	r0, #2
     638:	6e696474 	mcrvs	4, 3, r6, cr9, cr4, {3}
     63c:	63672d74 	cmnvs	r7, #116, 26	; 0x1d00
     640:	00682e63 	rsbeq	r2, r8, r3, ror #28
     644:	72000002 	andvc	r0, r0, #2
     648:	6d2d6970 	stcvs	9, cr6, [sp, #-448]!	; 0xfffffe40
     64c:	626c6961 	rsbvs	r6, ip, #1589248	; 0x184000
     650:	682e786f 	stmdavs	lr!, {r0, r1, r2, r3, r5, r6, fp, ip, sp, lr}
     654:	00000300 	andeq	r0, r0, r0, lsl #6
     658:	2d697072 	stclcs	0, cr7, [r9, #-456]!	; 0xfffffe38
     65c:	6c69616d 	stfvse	f6, [r9], #-436	; 0xfffffe4c
     660:	2d786f62 	ldclcs	15, cr6, [r8, #-392]!	; 0xfffffe78
     664:	65746e69 	ldrbvs	r6, [r4, #-3689]!	; 0xfffff197
     668:	63616672 	cmnvs	r1, #119537664	; 0x7200000
     66c:	00682e65 	rsbeq	r2, r8, r5, ror #28
     670:	73000003 	movwvc	r0, #3
     674:	6e697274 	mcrvs	2, 3, r7, cr9, cr4, {3}
     678:	00682e67 	rsbeq	r2, r8, r7, ror #28
     67c:	3c000004 	stccc	0, cr0, [r0], {4}
     680:	6c697562 	cfstr64vs	mvdx7, [r9], #-392	; 0xfffffe78
     684:	6e692d74 	mcrvs	13, 3, r2, cr9, cr4, {3}
     688:	0000003e 	andeq	r0, r0, lr, lsr r0
     68c:	05000000 	streq	r0, [r0, #-0]
     690:	0086bc02 	addeq	fp, r6, r2, lsl #24
     694:	01180300 	tsteq	r8, r0, lsl #6
     698:	03313114 	teqeq	r1, #20, 2
     69c:	03502e7a 	cmpeq	r0, #1952	; 0x7a0
     6a0:	34314a7a 	ldrtcc	r4, [r1], #-2682	; 0xfffff586
     6a4:	820b032b 	andhi	r0, fp, #-1409286144	; 0xac000000
     6a8:	7a033032 	bvc	cc778 <__first_lvl_tbl_end+0xab778>
     6ac:	3246324a 	subcc	r3, r6, #-1610612732	; 0xa0000004
     6b0:	302a302c 	eorcc	r3, sl, ip, lsr #32
     6b4:	03682c32 	cmneq	r8, #12800	; 0x3200
     6b8:	2c0200f0 	stccs	0, cr0, [r2], {240}	; 0xf0
     6bc:	31482f01 	cmpcc	r8, r1, lsl #30
     6c0:	302c312b 	eorcc	r3, ip, fp, lsr #2
     6c4:	032f2f2c 			; <UNDEFINED> instruction: 0x032f2f2c
     6c8:	03852e0a 	orreq	r2, r5, #10, 28	; 0xa0
     6cc:	03827f81 	orreq	r7, r2, #516	; 0x204
     6d0:	2f90081d 	svccs	0x0090081d
     6d4:	30482d30 	subcc	r2, r8, r0, lsr sp
     6d8:	2d312b2f 	fldmdbxcs	r1!, {d2-d24}	;@ Deprecated
     6dc:	4b2f2b2f 	blmi	bcb3a0 <__kernel_end+0xa693a0>
     6e0:	5f032f2f 	svcpl	0x00032f2f
     6e4:	00de032e 	sbcseq	r0, lr, lr, lsr #6
     6e8:	2f012a02 	svccs	0x00012a02
     6ec:	302f474c 	eorcc	r4, pc, ip, asr #14
     6f0:	2f2d2f2b 	svccs	0x002d2f2b
     6f4:	034a0b03 	movteq	r0, #43779	; 0xab03
     6f8:	0b032e75 	bleq	cc0d4 <__first_lvl_tbl_end+0xab0d4>
     6fc:	2e77032e 	cdpcs	3, 7, cr0, cr7, cr14, {1}
     700:	4b2f2f30 	blmi	bcc3c8 <__kernel_end+0xa6a3c8>
     704:	2f2f4b47 	svccs	0x002f4b47
     708:	032f2f2c 			; <UNDEFINED> instruction: 0x032f2f2c
     70c:	2f4a7fbf 	svccs	0x004a7fbf
     710:	2a32472f 	bcs	c923d4 <__kernel_end+0xb303d4>
     714:	2f2b312f 	svccs	0x002b312f
     718:	2f2f2c30 	svccs	0x002f2c30
     71c:	2e57032f 	cdpcs	3, 5, cr0, cr7, cr15, {1}
     720:	8200cc03 	andhi	ip, r0, #768	; 0x300
     724:	2b302c31 	blcs	c0b7f0 <__kernel_end+0xaa97f0>
     728:	2d2f2b31 	fstmdbxcs	pc!, {d2-d25}	;@ Deprecated
     72c:	7903512f 	stmdbvc	r3, {r0, r1, r2, r3, r5, r8, ip, lr}
     730:	2e0b032e 	cdpcs	3, 0, cr0, cr11, cr14, {1}
     734:	2e79032a 	cdpcs	3, 7, cr0, cr9, cr10, {1}
     738:	a8036a35 	stmdage	r3, {r0, r2, r4, r5, r9, fp, sp, lr}
     73c:	f7034a7f 			; <UNDEFINED> instruction: 0xf7034a7f
     740:	03678200 	cmneq	r7, #0, 4
     744:	032e7f88 			; <UNDEFINED> instruction: 0x032e7f88
     748:	2f900833 	svccs	0x00900833
     74c:	302f474c 	eorcc	r4, pc, ip, asr #14
     750:	684b2d2c 	stmdavs	fp, {r2, r3, r5, r8, sl, fp, sp}^
     754:	78038a31 	stmdavc	r3, {r0, r4, r5, r9, fp, pc}
     758:	494b314a 	stmdbmi	fp, {r1, r3, r6, r8, ip, sp}^
     75c:	492f2d4b 	stmdbmi	pc!, {r0, r1, r3, r6, r8, sl, fp, sp}	; <UNPREDICTABLE>
     760:	4a43032f 	bmi	10c1424 <__kernel_end+0xf5f424>
     764:	2f820b03 	svccs	0x00820b03
     768:	494c2c2f 	stmdbmi	ip, {r0, r1, r2, r3, r5, sl, fp, sp}^
     76c:	302d302d 	eorcc	r3, sp, sp, lsr #32
     770:	2c2f2f33 	stccs	15, cr2, [pc], #-204	; 6ac <ARM_I_BIT+0x62c>
     774:	302d494c 	eorcc	r4, sp, ip, asr #18
     778:	6a03302d 	bvs	cc834 <__first_lvl_tbl_end+0xab834>
     77c:	0182032e 	orreq	r0, r2, lr, lsr #6
     780:	16013802 	strne	r3, [r1], -r2, lsl #16
     784:	2d2f2b31 	fstmdbxcs	pc!, {d2-d25}	;@ Deprecated
     788:	2b4d322a 	blcs	134d038 <__kernel_end+0x11eb038>
     78c:	2f4d2d2f 	svccs	0x004d2d2f
     790:	036b2c30 	cmneq	fp, #48, 24	; 0x3000
     794:	33290109 			; <UNDEFINED> instruction: 0x33290109
     798:	09032a29 	stmdbeq	r3, {r0, r3, r5, r9, fp, sp}
     79c:	6933292e 	ldmdbvs	r3!, {r1, r2, r3, r5, r8, fp, sp}
     7a0:	03a53345 			; <UNDEFINED> instruction: 0x03a53345
     7a4:	0f038276 	svceq	0x00038276
     7a8:	6f03354a 	svcvs	0x0003354a
     7ac:	2e0d032e 	cdpcs	3, 0, cr0, cr13, cr14, {1}
     7b0:	032e7303 			; <UNDEFINED> instruction: 0x032e7303
     7b4:	652f4a0d 	strvs	r4, [pc, #-2573]!	; fffffdaf <__kernel_end+0xffe9ddaf>
     7b8:	0c02304b 	stceq	0, cr3, [r2], {75}	; 0x4b
     7bc:	fc010100 	stc2	1, cr0, [r1], {-0}
     7c0:	02000000 	andeq	r0, r0, #0
     7c4:	0000d000 	andeq	sp, r0, r0
     7c8:	fb010200 	blx	40fd2 <__first_lvl_tbl_end+0x1ffd2>
     7cc:	01000d0e 	tsteq	r0, lr, lsl #26
     7d0:	00010101 	andeq	r0, r1, r1, lsl #2
     7d4:	00010000 	andeq	r0, r1, r0
     7d8:	72610100 	rsbvc	r0, r1, #0, 2
     7dc:	612f6863 			; <UNDEFINED> instruction: 0x612f6863
     7e0:	2f006d72 	svccs	0x00006d72
     7e4:	72657355 	rsbvc	r7, r5, #1409286145	; 0x54000001
     7e8:	72702f73 	rsbsvc	r2, r0, #460	; 0x1cc
     7ec:	73616b61 	cmnvc	r1, #99328	; 0x18400
     7f0:	726f6268 	rsbvc	r6, pc, #104, 4	; 0x80000006
     7f4:	2f72616b 	svccs	0x0072616b
     7f8:	2d636367 	stclcs	3, cr6, [r3, #-412]!	; 0xfffffe64
     7fc:	2d6d7261 	sfmcs	f7, 2, [sp, #-388]!	; 0xfffffe7c
     800:	656e6f6e 	strbvs	r6, [lr, #-3950]!	; 0xfffff092
     804:	6261652d 	rsbvs	r6, r1, #188743680	; 0xb400000
     808:	696c2f69 	stmdbvs	ip!, {r0, r3, r5, r6, r8, r9, sl, fp, sp}^
     80c:	63672f62 	cmnvs	r7, #392	; 0x188
     810:	72612f63 	rsbvc	r2, r1, #396	; 0x18c
     814:	6f6e2d6d 	svcvs	0x006e2d6d
     818:	652d656e 	strvs	r6, [sp, #-1390]!	; 0xfffffa92
     81c:	2f696261 	svccs	0x00696261
     820:	2e342e35 	mrccs	14, 1, r2, cr4, cr5, {1}
     824:	6e692f31 	mcrvs	15, 3, r2, cr9, cr1, {1}
     828:	64756c63 	ldrbtvs	r6, [r5], #-3171	; 0xfffff39d
     82c:	6e690065 	cdpvs	0, 6, cr0, cr9, cr5, {3}
     830:	64756c63 	ldrbtvs	r6, [r5], #-3171	; 0xfffff39d
     834:	656b2f65 	strbvs	r2, [fp, #-3941]!	; 0xfffff09b
     838:	6c656e72 	stclvs	14, cr6, [r5], #-456	; 0xfffffe38
     83c:	636e6900 	cmnvs	lr, #0, 18
     840:	6564756c 	strbvs	r7, [r4, #-1388]!	; 0xfffffa94
     844:	7665642f 	strbtvc	r6, [r5], -pc, lsr #8
     848:	00656369 	rsbeq	r6, r5, r9, ror #6
     84c:	73797300 	cmnvc	r9, #0, 6
     850:	656d6974 	strbvs	r6, [sp, #-2420]!	; 0xfffff68c
     854:	00632e72 	rsbeq	r2, r3, r2, ror lr
     858:	73000001 	movwvc	r0, #1
     85c:	6e696474 	mcrvs	4, 3, r6, cr9, cr4, {3}
     860:	63672d74 	cmnvs	r7, #116, 26	; 0x1d00
     864:	00682e63 	rsbeq	r2, r8, r3, ror #28
     868:	73000002 	movwvc	r0, #2
     86c:	69747379 	ldmdbvs	r4!, {r0, r3, r4, r5, r6, r8, r9, ip, sp, lr}^
     870:	2e72656d 	cdpcs	5, 7, cr6, cr2, cr13, {3}
     874:	00030068 	andeq	r0, r3, r8, rrx
     878:	72617500 	rsbvc	r7, r1, #0, 10
     87c:	682e3074 	stmdavs	lr!, {r2, r4, r5, r6, ip, sp}
     880:	00000400 	andeq	r0, r0, r0, lsl #8
     884:	2d697072 	stclcs	0, cr7, [r9, #-456]!	; 0xfffffe38
     888:	65746e69 	ldrbvs	r6, [r4, #-3689]!	; 0xfffff197
     88c:	70757272 	rsbsvc	r7, r5, r2, ror r2
     890:	682e7374 	stmdavs	lr!, {r2, r4, r5, r6, r8, r9, ip, sp, lr}
     894:	00000300 	andeq	r0, r0, r0, lsl #6
     898:	02050000 	andeq	r0, r5, #0
     89c:	00008c8c 	andeq	r8, r0, ip, lsl #25
     8a0:	4b672f19 	blmi	19cc50c <__kernel_end+0x186a50c>
     8a4:	2f134e2d 	svccs	0x00134e2d
     8a8:	83492f2d 	movthi	r2, #40749	; 0x9f2d
     8ac:	9d83136a 	stcls	3, cr1, [r3, #424]	; 0x1a8
     8b0:	da13862f 	ble	4e2174 <__kernel_end+0x380174>
     8b4:	30d79f83 	sbcscc	r9, r7, r3, lsl #31
     8b8:	0e0286d4 	mcreq	6, 0, r8, cr2, cr4, {6}
     8bc:	46010100 	strmi	r0, [r1], -r0, lsl #2
     8c0:	02000001 	andeq	r0, r0, #1
     8c4:	00010700 	andeq	r0, r1, r0, lsl #14
     8c8:	fb010200 	blx	410d2 <__first_lvl_tbl_end+0x200d2>
     8cc:	01000d0e 	tsteq	r0, lr, lsl #26
     8d0:	00010101 	andeq	r0, r1, r1, lsl #2
     8d4:	00010000 	andeq	r0, r1, r0
     8d8:	656d0100 	strbvs	r0, [sp, #-256]!	; 0xffffff00
     8dc:	6e69006d 	cdpvs	0, 6, cr0, cr9, cr13, {3}
     8e0:	64756c63 	ldrbtvs	r6, [r5], #-3171	; 0xfffff39d
     8e4:	656d2f65 	strbvs	r2, [sp, #-3941]!	; 0xfffff09b
     8e8:	552f006d 	strpl	r0, [pc, #-109]!	; 883 <SCTLR_ENABLE_BRANCH_PREDICTION+0x83>
     8ec:	73726573 	cmnvc	r2, #482344960	; 0x1cc00000
     8f0:	6172702f 	cmnvs	r2, pc, lsr #32
     8f4:	6873616b 	ldmdavs	r3!, {r0, r1, r3, r5, r6, r8, sp, lr}^
     8f8:	6b726f62 	blvs	1c9c688 <__kernel_end+0x1b3a688>
     8fc:	442f7261 	strtmi	r7, [pc], #-609	; 904 <SCTLR_ENABLE_BRANCH_PREDICTION+0x104>
     900:	746b7365 	strbtvc	r7, [fp], #-869	; 0xfffffc9b
     904:	522f706f 	eorpl	r7, pc, #111	; 0x6f
     908:	746f6d65 	strbtvc	r6, [pc], #-3429	; 910 <SCTLR_ENABLE_BRANCH_PREDICTION+0x110>
     90c:	65525f65 	ldrbvs	r5, [r2, #-3941]	; 0xfffff09b
     910:	722f6f70 	eorvc	r6, pc, #112, 30	; 0x1c0
     914:	6f2d6970 	svcvs	0x002d6970
     918:	61752d73 	cmnvs	r5, r3, ror sp
     91c:	722f7472 	eorvc	r7, pc, #1912602624	; 0x72000000
     920:	62336970 	eorsvs	r6, r3, #112, 18	; 0x1c0000
     924:	61656d2d 	cmnvs	r5, sp, lsr #26
     928:	732d7974 			; <UNDEFINED> instruction: 0x732d7974
     92c:	656c656b 	strbvs	r6, [ip, #-1387]!	; 0xfffffa95
     930:	2f6e6f74 	svccs	0x006e6f74
     934:	72737973 	rsbsvc	r7, r3, #1884160	; 0x1cc000
     938:	2f746f6f 	svccs	0x00746f6f
     93c:	2f727375 	svccs	0x00727375
     940:	6c636e69 	stclvs	14, cr6, [r3], #-420	; 0xfffffe5c
     944:	2f656475 	svccs	0x00656475
     948:	62696c70 	rsbvs	r6, r9, #112, 24	; 0x7000
     94c:	552f0063 	strpl	r0, [pc, #-99]!	; 8f1 <SCTLR_ENABLE_BRANCH_PREDICTION+0xf1>
     950:	73726573 	cmnvc	r2, #482344960	; 0x1cc00000
     954:	6172702f 	cmnvs	r2, pc, lsr #32
     958:	6873616b 	ldmdavs	r3!, {r0, r1, r3, r5, r6, r8, sp, lr}^
     95c:	6b726f62 	blvs	1c9c6ec <__kernel_end+0x1b3a6ec>
     960:	672f7261 	strvs	r7, [pc, -r1, ror #4]!
     964:	612d6363 			; <UNDEFINED> instruction: 0x612d6363
     968:	6e2d6d72 	mcrvs	13, 1, r6, cr13, cr2, {3}
     96c:	2d656e6f 	stclcs	14, cr6, [r5, #-444]!	; 0xfffffe44
     970:	69626165 	stmdbvs	r2!, {r0, r2, r5, r6, r8, sp, lr}^
     974:	62696c2f 	rsbvs	r6, r9, #12032	; 0x2f00
     978:	6363672f 	cmnvs	r3, #12320768	; 0xbc0000
     97c:	6d72612f 	ldfvse	f6, [r2, #-188]!	; 0xffffff44
     980:	6e6f6e2d 	cdpvs	14, 6, cr6, cr15, cr13, {1}
     984:	61652d65 	cmnvs	r5, r5, ror #26
     988:	352f6962 	strcc	r6, [pc, #-2402]!	; 2e <CPSR_THUMB+0xe>
     98c:	312e342e 			; <UNDEFINED> instruction: 0x312e342e
     990:	636e692f 	cmnvs	lr, #770048	; 0xbc000
     994:	6564756c 	strbvs	r7, [r4, #-1388]!	; 0xfffffa94
     998:	69760000 	ldmdbvs	r6!, {}^	; <UNPREDICTABLE>
     99c:	656d7472 	strbvs	r7, [sp, #-1138]!	; 0xfffffb8e
     9a0:	00632e6d 	rsbeq	r2, r3, sp, ror #28
     9a4:	76000001 	strvc	r0, [r0], -r1
     9a8:	6d747269 	lfmvs	f7, 2, [r4, #-420]!	; 0xfffffe5c
     9ac:	682e6d65 	stmdavs	lr!, {r0, r2, r5, r6, r8, sl, fp, sp, lr}
     9b0:	00000200 	andeq	r0, r0, r0, lsl #4
     9b4:	69647473 	stmdbvs	r4!, {r0, r1, r4, r5, r6, sl, ip, sp, lr}^
     9b8:	00682e6f 	rsbeq	r2, r8, pc, ror #28
     9bc:	73000003 	movwvc	r0, #3
     9c0:	6e696474 	mcrvs	4, 3, r6, cr9, cr4, {3}
     9c4:	63672d74 	cmnvs	r7, #116, 26	; 0x1d00
     9c8:	00682e63 	rsbeq	r2, r8, r3, ror #28
     9cc:	00000004 	andeq	r0, r0, r4
     9d0:	c0020500 	andgt	r0, r2, r0, lsl #10
     9d4:	0300008d 	movweq	r0, #141	; 0x8d
     9d8:	0903011f 	stmdbeq	r3, {r0, r1, r2, r3, r4, r8}
     9dc:	0d033101 	stfeqs	f3, [r3, #-4]
     9e0:	4a70032e 	bmi	1c016a0 <__kernel_end+0x1a9f6a0>
     9e4:	032e1003 			; <UNDEFINED> instruction: 0x032e1003
     9e8:	74032e73 	strvc	r2, [r3], #-3699	; 0xfffff18d
     9ec:	2e19032e 	cdpcs	3, 1, cr0, cr9, cr14, {1}
     9f0:	664f0384 	strbvs	r0, [pc], -r4, lsl #7
     9f4:	2f2e2d2f 	svccs	0x002e2d2f
     9f8:	836b2b69 	cmnhi	fp, #107520	; 0x1a400
     9fc:	8335312b 	teqhi	r5, #-1073741814	; 0xc000000a
     a00:	2d6767a0 	stclcs	7, cr6, [r7, #-640]!	; 0xfffffd80
     a04:	01001002 	tsteq	r0, r2
     a08:	0001eb01 	andeq	lr, r1, r1, lsl #22
     a0c:	31000200 	mrscc	r0, R8_usr
     a10:	02000001 	andeq	r0, r0, #1
     a14:	0d0efb01 	vstreq	d15, [lr, #-4]
     a18:	01010100 	mrseq	r0, (UNDEF: 17)
     a1c:	00000001 	andeq	r0, r0, r1
     a20:	01000001 	tsteq	r0, r1
     a24:	006d656d 	rsbeq	r6, sp, sp, ror #10
     a28:	6573552f 	ldrbvs	r5, [r3, #-1327]!	; 0xfffffad1
     a2c:	702f7372 	eorvc	r7, pc, r2, ror r3	; <UNPREDICTABLE>
     a30:	616b6172 	smcvs	46610	; 0xb612
     a34:	6f626873 	svcvs	0x00626873
     a38:	72616b72 	rsbvc	r6, r1, #116736	; 0x1c800
     a3c:	6363672f 	cmnvs	r3, #12320768	; 0xbc0000
     a40:	6d72612d 	ldfvse	f6, [r2, #-180]!	; 0xffffff4c
     a44:	6e6f6e2d 	cdpvs	14, 6, cr6, cr15, cr13, {1}
     a48:	61652d65 	cmnvs	r5, r5, ror #26
     a4c:	6c2f6962 	stcvs	9, cr6, [pc], #-392	; 8cc <SCTLR_ENABLE_BRANCH_PREDICTION+0xcc>
     a50:	672f6269 	strvs	r6, [pc, -r9, ror #4]!
     a54:	612f6363 			; <UNDEFINED> instruction: 0x612f6363
     a58:	6e2d6d72 	mcrvs	13, 1, r6, cr13, cr2, {3}
     a5c:	2d656e6f 	stclcs	14, cr6, [r5, #-444]!	; 0xfffffe44
     a60:	69626165 	stmdbvs	r2!, {r0, r2, r5, r6, r8, sp, lr}^
     a64:	342e352f 	strtcc	r3, [lr], #-1327	; 0xfffffad1
     a68:	692f312e 	stmdbvs	pc!, {r1, r2, r3, r5, r8, ip, sp}	; <UNPREDICTABLE>
     a6c:	756c636e 	strbvc	r6, [ip, #-878]!	; 0xfffffc92
     a70:	69006564 	stmdbvs	r0, {r2, r5, r6, r8, sl, sp, lr}
     a74:	756c636e 	strbvc	r6, [ip, #-878]!	; 0xfffffc92
     a78:	6d2f6564 	cfstr32vs	mvfx6, [pc, #-400]!	; 8f0 <SCTLR_ENABLE_BRANCH_PREDICTION+0xf0>
     a7c:	69006d65 	stmdbvs	r0, {r0, r2, r5, r6, r8, sl, fp, sp, lr}
     a80:	756c636e 	strbvc	r6, [ip, #-878]!	; 0xfffffc92
     a84:	6b2f6564 	blvs	bda01c <__kernel_end+0xa7801c>
     a88:	656e7265 	strbvs	r7, [lr, #-613]!	; 0xfffffd9b
     a8c:	552f006c 	strpl	r0, [pc, #-108]!	; a28 <SCTLR_ENABLE_BRANCH_PREDICTION+0x228>
     a90:	73726573 	cmnvc	r2, #482344960	; 0x1cc00000
     a94:	6172702f 	cmnvs	r2, pc, lsr #32
     a98:	6873616b 	ldmdavs	r3!, {r0, r1, r3, r5, r6, r8, sp, lr}^
     a9c:	6b726f62 	blvs	1c9c82c <__kernel_end+0x1b3a82c>
     aa0:	442f7261 	strtmi	r7, [pc], #-609	; aa8 <SCTLR_ENABLE_BRANCH_PREDICTION+0x2a8>
     aa4:	746b7365 	strbtvc	r7, [fp], #-869	; 0xfffffc9b
     aa8:	522f706f 	eorpl	r7, pc, #111	; 0x6f
     aac:	746f6d65 	strbtvc	r6, [pc], #-3429	; ab4 <SCTLR_ENABLE_BRANCH_PREDICTION+0x2b4>
     ab0:	65525f65 	ldrbvs	r5, [r2, #-3941]	; 0xfffff09b
     ab4:	722f6f70 	eorvc	r6, pc, #112, 30	; 0x1c0
     ab8:	6f2d6970 	svcvs	0x002d6970
     abc:	61752d73 	cmnvs	r5, r3, ror sp
     ac0:	722f7472 	eorvc	r7, pc, #1912602624	; 0x72000000
     ac4:	62336970 	eorsvs	r6, r3, #112, 18	; 0x1c0000
     ac8:	61656d2d 	cmnvs	r5, sp, lsr #26
     acc:	732d7974 			; <UNDEFINED> instruction: 0x732d7974
     ad0:	656c656b 	strbvs	r6, [ip, #-1387]!	; 0xfffffa95
     ad4:	2f6e6f74 	svccs	0x006e6f74
     ad8:	72737973 	rsbsvc	r7, r3, #1884160	; 0x1cc000
     adc:	2f746f6f 	svccs	0x00746f6f
     ae0:	2f727375 	svccs	0x00727375
     ae4:	6c636e69 	stclvs	14, cr6, [r3], #-420	; 0xfffffe5c
     ae8:	2f656475 	svccs	0x00656475
     aec:	62696c70 	rsbvs	r6, r9, #112, 24	; 0x7000
     af0:	70000063 	andvc	r0, r0, r3, rrx
     af4:	6d737968 	ldclvs	9, cr7, [r3, #-416]!	; 0xfffffe60
     af8:	632e6d65 			; <UNDEFINED> instruction: 0x632e6d65
     afc:	00000100 	andeq	r0, r0, r0, lsl #2
     b00:	69647473 	stmdbvs	r4!, {r0, r1, r4, r5, r6, sl, ip, sp, lr}^
     b04:	672d746e 	strvs	r7, [sp, -lr, ror #8]!
     b08:	682e6363 	stmdavs	lr!, {r0, r1, r5, r6, r8, r9, sp, lr}
     b0c:	00000200 	andeq	r0, r0, r0, lsl #4
     b10:	73796870 	cmnvc	r9, #112, 16	; 0x700000
     b14:	2e6d656d 	cdpcs	5, 6, cr6, cr13, cr13, {3}
     b18:	00030068 	andeq	r0, r3, r8, rrx
     b1c:	69707200 	ldmdbvs	r0!, {r9, ip, sp, lr}^
     b20:	69616d2d 	stmdbvs	r1!, {r0, r2, r3, r5, r8, sl, fp, sp, lr}^
     b24:	786f626c 	stmdavc	pc!, {r2, r3, r5, r6, r9, sp, lr}^	; <UNPREDICTABLE>
     b28:	746e692d 	strbtvc	r6, [lr], #-2349	; 0xfffff6d3
     b2c:	61667265 	cmnvs	r6, r5, ror #4
     b30:	682e6563 	stmdavs	lr!, {r0, r1, r5, r6, r8, sl, sp, lr}
     b34:	00000400 	andeq	r0, r0, r0, lsl #8
     b38:	69647473 	stmdbvs	r4!, {r0, r1, r4, r5, r6, sl, ip, sp, lr}^
     b3c:	00682e6f 	rsbeq	r2, r8, pc, ror #28
     b40:	00000005 	andeq	r0, r0, r5
     b44:	a4020500 	strge	r0, [r2], #-1280	; 0xfffffb00
     b48:	0300008e 	movweq	r0, #142	; 0x8e
     b4c:	0801010e 	stmdaeq	r1, {r1, r2, r3, r8}
     b50:	20080120 	andcs	r0, r8, r0, lsr #2
     b54:	08014a01 	stmdaeq	r1, {r0, r9, fp, lr}
     b58:	014a0158 	cmpeq	sl, r8, asr r1
     b5c:	2d2f0150 	stfcss	f0, [pc, #-320]!	; a24 <SCTLR_ENABLE_BRANCH_PREDICTION+0x224>
     b60:	8225032f 	eorhi	r0, r5, #-1140850688	; 0xbc000000
     b64:	4fbe324a 	svcmi	0x00be324a
     b68:	2b2b352a 	blcs	ace018 <__kernel_end+0x96c018>
     b6c:	2f4c694d 	svccs	0x004c694d
     b70:	32461685 	subcc	r1, r6, #139460608	; 0x8500000
     b74:	2e780332 	mrccs	3, 3, r0, cr8, cr2, {1}
     b78:	672d4e32 			; <UNDEFINED> instruction: 0x672d4e32
     b7c:	2fa32fa2 	svccs	0x00a32fa2
     b80:	30683167 	rsbcc	r3, r8, r7, ror #2
     b84:	03322b31 	teqeq	r2, #50176	; 0xc400
     b88:	324a7faa 	subcc	r7, sl, #680	; 0x2a8
     b8c:	2f2f2d2f 	svccs	0x002f2d2f
     b90:	2f2d2f2d 	svccs	0x002d2f2d
     b94:	4a79032f 	bmi	1e41858 <__kernel_end+0x1cdf858>
     b98:	7a032d35 	bvc	cc074 <__first_lvl_tbl_end+0xab074>
     b9c:	2d32352e 	cfldr32cs	mvfx3, [r2, #-184]!	; 0xffffff48
     ba0:	2f2d2f2f 	svccs	0x002d2f2f
     ba4:	a329334b 			; <UNDEFINED> instruction: 0xa329334b
     ba8:	03040200 	movweq	r0, #16896	; 0x4200
     bac:	04020068 	streq	r0, [r2], #-104	; 0xffffff98
     bb0:	02004803 	andeq	r4, r0, #196608	; 0x30000
     bb4:	00310304 	eorseq	r0, r1, r4, lsl #6
     bb8:	2b030402 	blcs	c1bc8 <__first_lvl_tbl_end+0xa0bc8>
     bbc:	03040200 	movweq	r0, #16896	; 0x4200
     bc0:	0402004e 	streq	r0, [r2], #-78	; 0xffffffb2
     bc4:	02004603 	andeq	r4, r0, #3145728	; 0x300000
     bc8:	00350104 	eorseq	r0, r5, r4, lsl #2
     bcc:	bc020402 	cfstrslt	mvf0, [r2], {2}
     bd0:	02040200 	andeq	r0, r4, #0, 4
     bd4:	0402002f 	streq	r0, [r2], #-47	; 0xffffffd1
     bd8:	02002b02 	andeq	r2, r0, #2048	; 0x800
     bdc:	00300204 	eorseq	r0, r0, r4, lsl #4
     be0:	2f020402 	svccs	0x00020402
     be4:	02040200 	andeq	r0, r4, #0, 4
     be8:	04020049 	streq	r0, [r2], #-73	; 0xffffffb7
     bec:	02006702 	andeq	r6, r0, #524288	; 0x80000
     bf0:	022b0204 	eoreq	r0, fp, #4, 4	; 0x40000000
     bf4:	01010016 	tsteq	r1, r6, lsl r0
     bf8:	00000129 	andeq	r0, r0, r9, lsr #2
     bfc:	00a60002 	adceq	r0, r6, r2
     c00:	01020000 	mrseq	r0, (UNDEF: 2)
     c04:	000d0efb 	strdeq	r0, [sp], -fp
     c08:	01010101 	tsteq	r1, r1, lsl #2
     c0c:	01000000 	mrseq	r0, (UNDEF: 0)
     c10:	64010000 	strvs	r0, [r1], #-0
     c14:	63697665 	cmnvs	r9, #105906176	; 0x6500000
     c18:	552f0065 	strpl	r0, [pc, #-101]!	; bbb <SCTLR_ENABLE_BRANCH_PREDICTION+0x3bb>
     c1c:	73726573 	cmnvc	r2, #482344960	; 0x1cc00000
     c20:	6172702f 	cmnvs	r2, pc, lsr #32
     c24:	6873616b 	ldmdavs	r3!, {r0, r1, r3, r5, r6, r8, sp, lr}^
     c28:	6b726f62 	blvs	1c9c9b8 <__kernel_end+0x1b3a9b8>
     c2c:	672f7261 	strvs	r7, [pc, -r1, ror #4]!
     c30:	612d6363 			; <UNDEFINED> instruction: 0x612d6363
     c34:	6e2d6d72 	mcrvs	13, 1, r6, cr13, cr2, {3}
     c38:	2d656e6f 	stclcs	14, cr6, [r5, #-444]!	; 0xfffffe44
     c3c:	69626165 	stmdbvs	r2!, {r0, r2, r5, r6, r8, sp, lr}^
     c40:	62696c2f 	rsbvs	r6, r9, #12032	; 0x2f00
     c44:	6363672f 	cmnvs	r3, #12320768	; 0xbc0000
     c48:	6d72612f 	ldfvse	f6, [r2, #-188]!	; 0xffffff44
     c4c:	6e6f6e2d 	cdpvs	14, 6, cr6, cr15, cr13, {1}
     c50:	61652d65 	cmnvs	r5, r5, ror #26
     c54:	352f6962 	strcc	r6, [pc, #-2402]!	; 2fa <ARM_I_BIT+0x27a>
     c58:	312e342e 			; <UNDEFINED> instruction: 0x312e342e
     c5c:	636e692f 	cmnvs	lr, #770048	; 0xbc000
     c60:	6564756c 	strbvs	r7, [r4, #-1388]!	; 0xfffffa94
     c64:	636e6900 	cmnvs	lr, #0, 18
     c68:	6564756c 	strbvs	r7, [r4, #-1388]!	; 0xfffffa94
     c6c:	7665642f 	strbtvc	r6, [r5], -pc, lsr #8
     c70:	00656369 	rsbeq	r6, r5, r9, ror #6
     c74:	72617500 	rsbvc	r7, r1, #0, 10
     c78:	632e3074 			; <UNDEFINED> instruction: 0x632e3074
     c7c:	00000100 	andeq	r0, r0, r0, lsl #2
     c80:	69647473 	stmdbvs	r4!, {r0, r1, r4, r5, r6, sl, ip, sp, lr}^
     c84:	672d746e 	strvs	r7, [sp, -lr, ror #8]!
     c88:	682e6363 	stmdavs	lr!, {r0, r1, r5, r6, r8, r9, sp, lr}
     c8c:	00000200 	andeq	r0, r0, r0, lsl #4
     c90:	64647473 	strbtvs	r7, [r4], #-1139	; 0xfffffb8d
     c94:	682e6665 	stmdavs	lr!, {r0, r2, r5, r6, r9, sl, sp, lr}
     c98:	00000200 	andeq	r0, r0, r0, lsl #4
     c9c:	74726175 	ldrbtvc	r6, [r2], #-373	; 0xfffffe8b
     ca0:	00682e30 	rsbeq	r2, r8, r0, lsr lr
     ca4:	00000003 	andeq	r0, r0, r3
     ca8:	64020500 	strvs	r0, [r2], #-1280	; 0xfffffb00
     cac:	03000091 	movweq	r0, #145	; 0x91
     cb0:	69030123 	stmdbvs	r3, {r0, r1, r5, r8}
     cb4:	820c0301 	andhi	r0, ip, #67108864	; 0x4000000
     cb8:	032e7403 			; <UNDEFINED> instruction: 0x032e7403
     cbc:	74032e0c 	strvc	r2, [r3], #-3596	; 0xfffff1f4
     cc0:	4a0c032e 	bmi	301980 <__kernel_end+0x19f980>
     cc4:	034a7403 	movteq	r7, #41987	; 0xa403
     cc8:	74034a0c 	strvc	r4, [r3], #-2572	; 0xfffff5f4
     ccc:	00c0034a 	sbceq	r0, r0, sl, asr #6
     cd0:	4603ac08 	strmi	sl, [r3], -r8, lsl #24
     cd4:	04020001 	streq	r0, [r2], #-1
     cd8:	004a0601 	subeq	r0, sl, r1, lsl #12
     cdc:	06010402 	streq	r0, [r1], -r2, lsl #8
     ce0:	03663c03 	cmneq	r6, #768	; 0x300
     ce4:	034a7fbe 	movteq	r7, #44990	; 0xafbe
     ce8:	034a00c9 	movteq	r0, #41161	; 0xa0c9
     cec:	00017fbd 			; <UNDEFINED> instruction: 0x00017fbd
     cf0:	06010402 	streq	r0, [r1], -r2, lsl #8
     cf4:	0402004a 	streq	r0, [r2], #-74	; 0xffffffb6
     cf8:	c5030601 	strgt	r0, [r3, #-1537]	; 0xfffff9ff
     cfc:	bb036600 	bllt	da504 <__first_lvl_tbl_end+0xb9504>
     d00:	c9034a7f 	stmdbgt	r3, {r0, r1, r2, r3, r4, r5, r6, r9, fp, lr}
     d04:	2e4d2e00 	cdpcs	14, 4, cr2, cr13, cr0, {0}
     d08:	0402002f 	streq	r0, [r2], #-47	; 0xffffffd1
     d0c:	02006703 	andeq	r6, r0, #786432	; 0xc0000
     d10:	872d0304 	strhi	r0, [sp, -r4, lsl #6]!
     d14:	2f31332e 	svccs	0x0031332e
     d18:	312c314b 			; <UNDEFINED> instruction: 0x312c314b
     d1c:	2d2f4d4b 	stccs	13, cr4, [pc, #-300]!	; bf8 <SCTLR_ENABLE_BRANCH_PREDICTION+0x3f8>
     d20:	01000202 	tsteq	r0, r2, lsl #4
     d24:	0001eb01 	andeq	lr, r1, r1, lsl #22
     d28:	33000200 	movwcc	r0, #512	; 0x200
     d2c:	02000001 	andeq	r0, r0, #1
     d30:	0d0efb01 	vstreq	d15, [lr, #-4]
     d34:	01010100 	mrseq	r0, (UNDEF: 17)
     d38:	00000001 	andeq	r0, r0, r1
     d3c:	01000001 	tsteq	r0, r1
     d40:	69766564 	ldmdbvs	r6!, {r2, r5, r6, r8, sl, sp, lr}^
     d44:	69006563 	stmdbvs	r0, {r0, r1, r5, r6, r8, sl, sp, lr}
     d48:	756c636e 	strbvc	r6, [ip, #-878]!	; 0xfffffc92
     d4c:	642f6564 	strtvs	r6, [pc], #-1380	; d54 <SCTLR_ENABLE_BRANCH_PREDICTION+0x554>
     d50:	63697665 	cmnvs	r9, #105906176	; 0x6500000
     d54:	552f0065 	strpl	r0, [pc, #-101]!	; cf7 <SCTLR_ENABLE_BRANCH_PREDICTION+0x4f7>
     d58:	73726573 	cmnvc	r2, #482344960	; 0x1cc00000
     d5c:	6172702f 	cmnvs	r2, pc, lsr #32
     d60:	6873616b 	ldmdavs	r3!, {r0, r1, r3, r5, r6, r8, sp, lr}^
     d64:	6b726f62 	blvs	1c9caf4 <__kernel_end+0x1b3aaf4>
     d68:	442f7261 	strtmi	r7, [pc], #-609	; d70 <SCTLR_ENABLE_BRANCH_PREDICTION+0x570>
     d6c:	746b7365 	strbtvc	r7, [fp], #-869	; 0xfffffc9b
     d70:	522f706f 	eorpl	r7, pc, #111	; 0x6f
     d74:	746f6d65 	strbtvc	r6, [pc], #-3429	; d7c <SCTLR_ENABLE_BRANCH_PREDICTION+0x57c>
     d78:	65525f65 	ldrbvs	r5, [r2, #-3941]	; 0xfffff09b
     d7c:	722f6f70 	eorvc	r6, pc, #112, 30	; 0x1c0
     d80:	6f2d6970 	svcvs	0x002d6970
     d84:	61752d73 	cmnvs	r5, r3, ror sp
     d88:	722f7472 	eorvc	r7, pc, #1912602624	; 0x72000000
     d8c:	62336970 	eorsvs	r6, r3, #112, 18	; 0x1c0000
     d90:	61656d2d 	cmnvs	r5, sp, lsr #26
     d94:	732d7974 			; <UNDEFINED> instruction: 0x732d7974
     d98:	656c656b 	strbvs	r6, [ip, #-1387]!	; 0xfffffa95
     d9c:	2f6e6f74 	svccs	0x006e6f74
     da0:	72737973 	rsbsvc	r7, r3, #1884160	; 0x1cc000
     da4:	2f746f6f 	svccs	0x00746f6f
     da8:	2f727375 	svccs	0x00727375
     dac:	6c636e69 	stclvs	14, cr6, [r3], #-420	; 0xfffffe5c
     db0:	2f656475 	svccs	0x00656475
     db4:	62696c70 	rsbvs	r6, r9, #112, 24	; 0x7000
     db8:	6e690063 	cdpvs	0, 6, cr0, cr9, cr3, {3}
     dbc:	64756c63 	ldrbtvs	r6, [r5], #-3171	; 0xfffff39d
     dc0:	656b2f65 	strbvs	r2, [fp, #-3941]!	; 0xfffff09b
     dc4:	6c656e72 	stclvs	14, cr6, [r5], #-456	; 0xfffffe38
     dc8:	73552f00 	cmpvc	r5, #0, 30
     dcc:	2f737265 	svccs	0x00737265
     dd0:	6b617270 	blvs	185d798 <__kernel_end+0x16fb798>
     dd4:	62687361 	rsbvs	r7, r8, #-2080374783	; 0x84000001
     dd8:	616b726f 	cmnvs	fp, pc, ror #4
     ddc:	63672f72 	cmnvs	r7, #456	; 0x1c8
     de0:	72612d63 	rsbvc	r2, r1, #6336	; 0x18c0
     de4:	6f6e2d6d 	svcvs	0x006e2d6d
     de8:	652d656e 	strvs	r6, [sp, #-1390]!	; 0xfffffa92
     dec:	2f696261 	svccs	0x00696261
     df0:	2f62696c 	svccs	0x0062696c
     df4:	2f636367 	svccs	0x00636367
     df8:	2d6d7261 	sfmcs	f7, 2, [sp, #-388]!	; 0xfffffe7c
     dfc:	656e6f6e 	strbvs	r6, [lr, #-3950]!	; 0xfffff092
     e00:	6261652d 	rsbvs	r6, r1, #188743680	; 0xb400000
     e04:	2e352f69 	cdpcs	15, 3, cr2, cr5, cr9, {3}
     e08:	2f312e34 	svccs	0x00312e34
     e0c:	6c636e69 	stclvs	14, cr6, [r3], #-420	; 0xfffffe5c
     e10:	00656475 	rsbeq	r6, r5, r5, ror r4
     e14:	616d6400 	cmnvs	sp, r0, lsl #8
     e18:	0100632e 	tsteq	r0, lr, lsr #6
     e1c:	6d640000 	stclvs	0, cr0, [r4, #-0]
     e20:	00682e61 	rsbeq	r2, r8, r1, ror #28
     e24:	73000002 	movwvc	r0, #2
     e28:	6f696474 	svcvs	0x00696474
     e2c:	0300682e 	movweq	r6, #2094	; 0x82e
     e30:	61750000 	cmnvs	r5, r0
     e34:	2e307472 	mrccs	4, 1, r7, cr0, cr2, {3}
     e38:	00020068 	andeq	r0, r2, r8, rrx
     e3c:	69707200 	ldmdbvs	r0!, {r9, ip, sp, lr}^
     e40:	746e692d 	strbtvc	r6, [lr], #-2349	; 0xfffff6d3
     e44:	75727265 	ldrbvc	r7, [r2, #-613]!	; 0xfffffd9b
     e48:	2e737470 	mrccs	4, 3, r7, cr3, cr0, {3}
     e4c:	00040068 	andeq	r0, r4, r8, rrx
     e50:	64747300 	ldrbtvs	r7, [r4], #-768	; 0xfffffd00
     e54:	2d746e69 	ldclcs	14, cr6, [r4, #-420]!	; 0xfffffe5c
     e58:	2e636367 	cdpcs	3, 6, cr6, cr3, cr7, {3}
     e5c:	00050068 	andeq	r0, r5, r8, rrx
     e60:	05000000 	streq	r0, [r0, #-0]
     e64:	00928c02 	addseq	r8, r2, r2, lsl #24
     e68:	01310300 	teqeq	r1, r0, lsl #6
     e6c:	2c2d3101 	stfcss	f3, [sp], #-4
     e70:	2f9f4832 	svccs	0x009f4832
     e74:	13827703 	orrne	r7, r2, #786432	; 0xc0000
     e78:	2e826203 	cdpcs	2, 8, cr6, cr2, cr3, {0}
     e7c:	4b2f2d2f 	blmi	bcc340 <__kernel_end+0xa6a340>
     e80:	03040200 	movweq	r0, #16896	; 0x4200
     e84:	04020068 	streq	r0, [r2], #-104	; 0xffffff98
     e88:	2f4e4803 	svccs	0x004e4803
     e8c:	8413862d 	ldrhi	r8, [r3], #-1581	; 0xfffff9d3
     e90:	660a0348 	strvs	r0, [sl], -r8, asr #6
     e94:	2f672f13 	svccs	0x00672f13
     e98:	304a1103 	subcc	r1, sl, r3, lsl #2
     e9c:	302c3064 	eorcc	r3, ip, r4, rrx
     ea0:	032e1d03 			; <UNDEFINED> instruction: 0x032e1d03
     ea4:	46302e63 	ldrtmi	r2, [r0], -r3, ror #28
     ea8:	2e0e0332 	mcrcs	3, 0, r0, cr14, cr2, {1}
     eac:	032e1d03 			; <UNDEFINED> instruction: 0x032e1d03
     eb0:	48032e1b 	stmdami	r3, {r0, r1, r3, r4, r9, sl, fp, sp}
     eb4:	2e72032e 	cdpcs	3, 7, cr0, cr2, cr14, {1}
     eb8:	2e00c603 	cfmadd32cs	mvax0, mvfx12, mvfx0, mvfx3
     ebc:	2e7fba03 	vaddcs.f32	s23, s30, s6
     ec0:	84a0696a 	strthi	r6, [r0], #2410	; 0x96a
     ec4:	a04b6867 	subge	r6, fp, r7, ror #16
     ec8:	0e03a44b 	cdpeq	4, 0, cr10, cr3, cr11, {2}
     ecc:	2e79032e 	cdpcs	3, 7, cr0, cr9, cr14, {1}
     ed0:	032e7903 			; <UNDEFINED> instruction: 0x032e7903
     ed4:	76034a0e 	strvc	r4, [r3], -lr, lsl #20
     ed8:	352b312e 	strcc	r3, [fp, #-302]!	; 0xfffffed2
     edc:	2e75032f 	cdpcs	3, 7, cr0, cr5, cr15, {1}
     ee0:	03292b35 			; <UNDEFINED> instruction: 0x03292b35
     ee4:	74032e0e 	strvc	r2, [r3], #-3598	; 0xfffff1f2
     ee8:	2c2a352e 	cfstr32cs	mvfx3, [sl], #-184	; 0xffffff48
     eec:	862f3235 			; <UNDEFINED> instruction: 0x862f3235
     ef0:	2e0903f5 	mcrcs	3, 0, r0, cr9, cr5, {7}
     ef4:	2d2e7803 	stccs	8, cr7, [lr, #-12]!
     ef8:	032e0903 			; <UNDEFINED> instruction: 0x032e0903
     efc:	364b2e77 			; <UNDEFINED> instruction: 0x364b2e77
     f00:	4c4b2d31 	mcrrmi	13, 3, r2, fp, cr1
     f04:	2d4c2f2d 	stclcs	15, cr2, [ip, #-180]	; 0xffffff4c
     f08:	4b67512f 	blmi	19d53cc <__kernel_end+0x18733cc>
     f0c:	02674b68 	rsbeq	r4, r7, #104, 22	; 0x1a000
     f10:	0101002c 	tsteq	r1, ip, lsr #32
     f14:	00000158 	andeq	r0, r0, r8, asr r1
     f18:	01170002 	tsteq	r7, r2
     f1c:	01020000 	mrseq	r0, (UNDEF: 2)
     f20:	000d0efb 	strdeq	r0, [sp], -fp
     f24:	01010101 	tsteq	r1, r1, lsl #2
     f28:	01000000 	mrseq	r0, (UNDEF: 0)
     f2c:	64010000 	strvs	r0, [r1], #-0
     f30:	63697665 	cmnvs	r9, #105906176	; 0x6500000
     f34:	552f0065 	strpl	r0, [pc, #-101]!	; ed7 <SCTLR_ENABLE_BRANCH_PREDICTION+0x6d7>
     f38:	73726573 	cmnvc	r2, #482344960	; 0x1cc00000
     f3c:	6172702f 	cmnvs	r2, pc, lsr #32
     f40:	6873616b 	ldmdavs	r3!, {r0, r1, r3, r5, r6, r8, sp, lr}^
     f44:	6b726f62 	blvs	1c9ccd4 <__kernel_end+0x1b3acd4>
     f48:	672f7261 	strvs	r7, [pc, -r1, ror #4]!
     f4c:	612d6363 			; <UNDEFINED> instruction: 0x612d6363
     f50:	6e2d6d72 	mcrvs	13, 1, r6, cr13, cr2, {3}
     f54:	2d656e6f 	stclcs	14, cr6, [r5, #-444]!	; 0xfffffe44
     f58:	69626165 	stmdbvs	r2!, {r0, r2, r5, r6, r8, sp, lr}^
     f5c:	62696c2f 	rsbvs	r6, r9, #12032	; 0x2f00
     f60:	6363672f 	cmnvs	r3, #12320768	; 0xbc0000
     f64:	6d72612f 	ldfvse	f6, [r2, #-188]!	; 0xffffff44
     f68:	6e6f6e2d 	cdpvs	14, 6, cr6, cr15, cr13, {1}
     f6c:	61652d65 	cmnvs	r5, r5, ror #26
     f70:	352f6962 	strcc	r6, [pc, #-2402]!	; 616 <ARM_I_BIT+0x596>
     f74:	312e342e 			; <UNDEFINED> instruction: 0x312e342e
     f78:	636e692f 	cmnvs	lr, #770048	; 0xbc000
     f7c:	6564756c 	strbvs	r7, [r4, #-1388]!	; 0xfffffa94
     f80:	636e6900 	cmnvs	lr, #0, 18
     f84:	6564756c 	strbvs	r7, [r4, #-1388]!	; 0xfffffa94
     f88:	72656b2f 	rsbvc	r6, r5, #48128	; 0xbc00
     f8c:	006c656e 	rsbeq	r6, ip, lr, ror #10
     f90:	6573552f 	ldrbvs	r5, [r3, #-1327]!	; 0xfffffad1
     f94:	702f7372 	eorvc	r7, pc, r2, ror r3	; <UNPREDICTABLE>
     f98:	616b6172 	smcvs	46610	; 0xb612
     f9c:	6f626873 	svcvs	0x00626873
     fa0:	72616b72 	rsbvc	r6, r1, #116736	; 0x1c800
     fa4:	7365442f 	cmnvc	r5, #788529152	; 0x2f000000
     fa8:	706f746b 	rsbvc	r7, pc, fp, ror #8
     fac:	6d65522f 	sfmvs	f5, 2, [r5, #-188]!	; 0xffffff44
     fb0:	5f65746f 	svcpl	0x0065746f
     fb4:	6f706552 	svcvs	0x00706552
     fb8:	6970722f 	ldmdbvs	r0!, {r0, r1, r2, r3, r5, r9, ip, sp, lr}^
     fbc:	2d736f2d 	ldclcs	15, cr6, [r3, #-180]!	; 0xffffff4c
     fc0:	74726175 	ldrbtvc	r6, [r2], #-373	; 0xfffffe8b
     fc4:	6970722f 	ldmdbvs	r0!, {r0, r1, r2, r3, r5, r9, ip, sp, lr}^
     fc8:	6d2d6233 	sfmvs	f6, 4, [sp, #-204]!	; 0xffffff34
     fcc:	79746165 	ldmdbvc	r4!, {r0, r2, r5, r6, r8, sp, lr}^
     fd0:	656b732d 	strbvs	r7, [fp, #-813]!	; 0xfffffcd3
     fd4:	6f74656c 	svcvs	0x0074656c
     fd8:	79732f6e 	ldmdbvc	r3!, {r1, r2, r3, r5, r6, r8, r9, sl, fp, sp}^
     fdc:	6f6f7273 	svcvs	0x006f7273
     fe0:	73752f74 	cmnvc	r5, #116, 30	; 0x1d0
     fe4:	6e692f72 	mcrvs	15, 3, r2, cr9, cr2, {3}
     fe8:	64756c63 	ldrbtvs	r6, [r5], #-3171	; 0xfffff39d
     fec:	6c702f65 	ldclvs	15, cr2, [r0], #-404	; 0xfffffe6c
     ff0:	00636269 	rsbeq	r6, r3, r9, ror #4
     ff4:	62737500 	rsbsvs	r7, r3, #0, 10
     ff8:	0100632e 	tsteq	r0, lr, lsr #6
     ffc:	74730000 	ldrbtvc	r0, [r3], #-0
    1000:	746e6964 	strbtvc	r6, [lr], #-2404	; 0xfffff69c
    1004:	6363672d 	cmnvs	r3, #11796480	; 0xb40000
    1008:	0200682e 	andeq	r6, r0, #3014656	; 0x2e0000
    100c:	70720000 	rsbsvc	r0, r2, r0
    1010:	616d2d69 	cmnvs	sp, r9, ror #26
    1014:	6f626c69 	svcvs	0x00626c69
    1018:	6e692d78 	mcrvs	13, 3, r2, cr9, cr8, {3}
    101c:	66726574 			; <UNDEFINED> instruction: 0x66726574
    1020:	2e656361 	cdpcs	3, 6, cr6, cr5, cr1, {3}
    1024:	00030068 	andeq	r0, r3, r8, rrx
    1028:	64747300 	ldrbtvs	r7, [r4], #-768	; 0xfffffd00
    102c:	682e6f69 	stmdavs	lr!, {r0, r3, r5, r6, r8, r9, sl, fp, sp, lr}
    1030:	00000400 	andeq	r0, r0, r0, lsl #8
    1034:	02050000 	andeq	r0, r5, #0
    1038:	000095b0 			; <UNDEFINED> instruction: 0x000095b0
    103c:	312c301a 			; <UNDEFINED> instruction: 0x312c301a
    1040:	2f9f3163 	svccs	0x009f3163
    1044:	306a2d2f 	rsbcc	r2, sl, pc, lsr #26
    1048:	3163312c 	cmncc	r3, ip, lsr #2
    104c:	2d2f2f9f 	stccs	15, cr2, [pc, #-636]!	; dd8 <SCTLR_ENABLE_BRANCH_PREDICTION+0x5d8>
    1050:	312c306a 			; <UNDEFINED> instruction: 0x312c306a
    1054:	30833163 	addcc	r3, r3, r3, ror #2
    1058:	2d678368 	stclcs	3, cr8, [r7, #-416]!	; 0xfffffe60
    105c:	2f2f2ea2 	svccs	0x002f2ea2
    1060:	302f322c 	eorcc	r3, pc, ip, lsr #4
    1064:	d92f312f 	stmdble	pc!, {r0, r1, r2, r3, r5, r8, ip, sp}	; <UNPREDICTABLE>
    1068:	02136a2d 	andseq	r6, r3, #184320	; 0x2d000
    106c:	01010002 	tsteq	r1, r2
    1070:	0000013a 	andeq	r0, r0, sl, lsr r1
    1074:	01130002 	tsteq	r3, r2
    1078:	01020000 	mrseq	r0, (UNDEF: 2)
    107c:	000d0efb 	strdeq	r0, [sp], -fp
    1080:	01010101 	tsteq	r1, r1, lsl #2
    1084:	01000000 	mrseq	r0, (UNDEF: 0)
    1088:	6b010000 	blvs	41090 <__first_lvl_tbl_end+0x20090>
    108c:	656e7265 	strbvs	r7, [lr, #-613]!	; 0xfffffd9b
    1090:	552f006c 	strpl	r0, [pc, #-108]!	; 102c <SCTLR_ENABLE_INSTRUCTION_CACHE+0x2c>
    1094:	73726573 	cmnvc	r2, #482344960	; 0x1cc00000
    1098:	6172702f 	cmnvs	r2, pc, lsr #32
    109c:	6873616b 	ldmdavs	r3!, {r0, r1, r3, r5, r6, r8, sp, lr}^
    10a0:	6b726f62 	blvs	1c9ce30 <__kernel_end+0x1b3ae30>
    10a4:	442f7261 	strtmi	r7, [pc], #-609	; 10ac <SCTLR_ENABLE_INSTRUCTION_CACHE+0xac>
    10a8:	746b7365 	strbtvc	r7, [fp], #-869	; 0xfffffc9b
    10ac:	522f706f 	eorpl	r7, pc, #111	; 0x6f
    10b0:	746f6d65 	strbtvc	r6, [pc], #-3429	; 10b8 <SCTLR_ENABLE_INSTRUCTION_CACHE+0xb8>
    10b4:	65525f65 	ldrbvs	r5, [r2, #-3941]	; 0xfffff09b
    10b8:	722f6f70 	eorvc	r6, pc, #112, 30	; 0x1c0
    10bc:	6f2d6970 	svcvs	0x002d6970
    10c0:	61752d73 	cmnvs	r5, r3, ror sp
    10c4:	722f7472 	eorvc	r7, pc, #1912602624	; 0x72000000
    10c8:	62336970 	eorsvs	r6, r3, #112, 18	; 0x1c0000
    10cc:	61656d2d 	cmnvs	r5, sp, lsr #26
    10d0:	732d7974 			; <UNDEFINED> instruction: 0x732d7974
    10d4:	656c656b 	strbvs	r6, [ip, #-1387]!	; 0xfffffa95
    10d8:	2f6e6f74 	svccs	0x006e6f74
    10dc:	72737973 	rsbsvc	r7, r3, #1884160	; 0x1cc000
    10e0:	2f746f6f 	svccs	0x00746f6f
    10e4:	2f727375 	svccs	0x00727375
    10e8:	6c636e69 	stclvs	14, cr6, [r3], #-420	; 0xfffffe5c
    10ec:	2f656475 	svccs	0x00656475
    10f0:	62696c70 	rsbvs	r6, r9, #112, 24	; 0x7000
    10f4:	6e690063 	cdpvs	0, 6, cr0, cr9, cr3, {3}
    10f8:	64756c63 	ldrbtvs	r6, [r5], #-3171	; 0xfffff39d
    10fc:	65642f65 	strbvs	r2, [r4, #-3941]!	; 0xfffff09b
    1100:	65636976 	strbvs	r6, [r3, #-2422]!	; 0xfffff68a
    1104:	73552f00 	cmpvc	r5, #0, 30
    1108:	2f737265 	svccs	0x00737265
    110c:	6b617270 	blvs	185dad4 <__kernel_end+0x16fbad4>
    1110:	62687361 	rsbvs	r7, r8, #-2080374783	; 0x84000001
    1114:	616b726f 	cmnvs	fp, pc, ror #4
    1118:	63672f72 	cmnvs	r7, #456	; 0x1c8
    111c:	72612d63 	rsbvc	r2, r1, #6336	; 0x18c0
    1120:	6f6e2d6d 	svcvs	0x006e2d6d
    1124:	652d656e 	strvs	r6, [sp, #-1390]!	; 0xfffffa92
    1128:	2f696261 	svccs	0x00696261
    112c:	2f62696c 	svccs	0x0062696c
    1130:	2f636367 	svccs	0x00636367
    1134:	2d6d7261 	sfmcs	f7, 2, [sp, #-388]!	; 0xfffffe7c
    1138:	656e6f6e 	strbvs	r6, [lr, #-3950]!	; 0xfffff092
    113c:	6261652d 	rsbvs	r6, r1, #188743680	; 0xb400000
    1140:	2e352f69 	cdpcs	15, 3, cr2, cr5, cr9, {3}
    1144:	2f312e34 	svccs	0x00312e34
    1148:	6c636e69 	stclvs	14, cr6, [r3], #-420	; 0xfffffe5c
    114c:	00656475 	rsbeq	r6, r5, r5, ror r4
    1150:	72656b00 	rsbvc	r6, r5, #0, 22
    1154:	2e6c656e 	cdpcs	5, 6, cr6, cr12, cr14, {3}
    1158:	00010063 	andeq	r0, r1, r3, rrx
    115c:	64747300 	ldrbtvs	r7, [r4], #-768	; 0xfffffd00
    1160:	682e6f69 	stmdavs	lr!, {r0, r3, r5, r6, r8, r9, sl, fp, sp, lr}
    1164:	00000200 	andeq	r0, r0, r0, lsl #4
    1168:	74726175 	ldrbtvc	r6, [r2], #-373	; 0xfffffe8b
    116c:	00682e30 	rsbeq	r2, r8, r0, lsr lr
    1170:	75000003 	strvc	r0, [r0, #-3]
    1174:	682e6273 	stmdavs	lr!, {r0, r1, r4, r5, r6, r9, sp, lr}
    1178:	00000300 	andeq	r0, r0, r0, lsl #6
    117c:	69647473 	stmdbvs	r4!, {r0, r1, r4, r5, r6, sl, ip, sp, lr}^
    1180:	672d746e 	strvs	r7, [sp, -lr, ror #8]!
    1184:	682e6363 	stmdavs	lr!, {r0, r1, r5, r6, r8, r9, sp, lr}
    1188:	00000400 	andeq	r0, r0, r0, lsl #8
    118c:	02050000 	andeq	r0, r5, #0
    1190:	00009708 	andeq	r9, r0, r8, lsl #14
    1194:	18011003 	stmdane	r1, {r0, r1, ip}
    1198:	2e2e7a03 	vmulcs.f32	s14, s28, s6
    119c:	4a7a0334 	bmi	1e81e74 <__kernel_end+0x1d1fe74>
    11a0:	75033235 	strvc	r3, [r3, #-565]	; 0xfffffdcb
    11a4:	2e0b032e 	cdpcs	3, 0, cr0, cr11, cr14, {1}
    11a8:	000c0288 	andeq	r0, ip, r8, lsl #5
    11ac:	00ef0101 	rsceq	r0, pc, r1, lsl #2
    11b0:	00020000 	andeq	r0, r2, r0
    11b4:	000000c6 	andeq	r0, r0, r6, asr #1
    11b8:	0efb0102 	cdpeq	1, 15, cr0, cr11, cr2, {0}
    11bc:	0101000d 	tsteq	r1, sp
    11c0:	00000101 	andeq	r0, r0, r1, lsl #2
    11c4:	00000100 	andeq	r0, r0, r0, lsl #2
    11c8:	72747301 	rsbsvc	r7, r4, #67108864	; 0x4000000
    11cc:	00676e69 	rsbeq	r6, r7, r9, ror #28
    11d0:	6573552f 	ldrbvs	r5, [r3, #-1327]!	; 0xfffffad1
    11d4:	702f7372 	eorvc	r7, pc, r2, ror r3	; <UNPREDICTABLE>
    11d8:	616b6172 	smcvs	46610	; 0xb612
    11dc:	6f626873 	svcvs	0x00626873
    11e0:	72616b72 	rsbvc	r6, r1, #116736	; 0x1c800
    11e4:	6363672f 	cmnvs	r3, #12320768	; 0xbc0000
    11e8:	6d72612d 	ldfvse	f6, [r2, #-180]!	; 0xffffff4c
    11ec:	6e6f6e2d 	cdpvs	14, 6, cr6, cr15, cr13, {1}
    11f0:	61652d65 	cmnvs	r5, r5, ror #26
    11f4:	6c2f6962 	stcvs	9, cr6, [pc], #-392	; 1074 <SCTLR_ENABLE_INSTRUCTION_CACHE+0x74>
    11f8:	672f6269 	strvs	r6, [pc, -r9, ror #4]!
    11fc:	612f6363 			; <UNDEFINED> instruction: 0x612f6363
    1200:	6e2d6d72 	mcrvs	13, 1, r6, cr13, cr2, {3}
    1204:	2d656e6f 	stclcs	14, cr6, [r5, #-444]!	; 0xfffffe44
    1208:	69626165 	stmdbvs	r2!, {r0, r2, r5, r6, r8, sp, lr}^
    120c:	342e352f 	strtcc	r3, [lr], #-1327	; 0xfffffad1
    1210:	692f312e 	stmdbvs	pc!, {r1, r2, r3, r5, r8, ip, sp}	; <UNPREDICTABLE>
    1214:	756c636e 	strbvc	r6, [ip, #-878]!	; 0xfffffc92
    1218:	2f006564 	svccs	0x00006564
    121c:	72657355 	rsbvc	r7, r5, #1409286145	; 0x54000001
    1220:	72702f73 	rsbsvc	r2, r0, #460	; 0x1cc
    1224:	73616b61 	cmnvc	r1, #99328	; 0x18400
    1228:	726f6268 	rsbvc	r6, pc, #104, 4	; 0x80000006
    122c:	2f72616b 	svccs	0x0072616b
    1230:	2d636367 	stclcs	3, cr6, [r3, #-412]!	; 0xfffffe64
    1234:	2d6d7261 	sfmcs	f7, 2, [sp, #-388]!	; 0xfffffe7c
    1238:	656e6f6e 	strbvs	r6, [lr, #-3950]!	; 0xfffff092
    123c:	6261652d 	rsbvs	r6, r1, #188743680	; 0xb400000
    1240:	72612f69 	rsbvc	r2, r1, #420	; 0x1a4
    1244:	6f6e2d6d 	svcvs	0x006e2d6d
    1248:	652d656e 	strvs	r6, [sp, #-1390]!	; 0xfffffa92
    124c:	2f696261 	svccs	0x00696261
    1250:	6c636e69 	stclvs	14, cr6, [r3], #-420	; 0xfffffe5c
    1254:	00656475 	rsbeq	r6, r5, r5, ror r4
    1258:	6d656d00 	stclvs	13, cr6, [r5, #-0]
    125c:	2e797063 	cdpcs	0, 7, cr7, cr9, cr3, {3}
    1260:	00010063 	andeq	r0, r1, r3, rrx
    1264:	64747300 	ldrbtvs	r7, [r4], #-768	; 0xfffffd00
    1268:	2e666564 	cdpcs	5, 6, cr6, cr6, cr4, {3}
    126c:	00020068 	andeq	r0, r2, r8, rrx
    1270:	72747300 	rsbsvc	r7, r4, #0, 6
    1274:	2e676e69 	cdpcs	14, 6, cr6, cr7, cr9, {3}
    1278:	00030068 	andeq	r0, r3, r8, rrx
    127c:	05000000 	streq	r0, [r0, #-0]
    1280:	00975402 	addseq	r5, r7, r2, lsl #8
    1284:	00151400 	andseq	r1, r5, r0, lsl #8
    1288:	83030402 	movwhi	r0, #13314	; 0x3402
    128c:	03040200 	movweq	r0, #16896	; 0x4200
    1290:	0402002d 	streq	r0, [r2], #-45	; 0xffffffd3
    1294:	02002f03 	andeq	r2, r0, #3, 30
    1298:	312d0304 			; <UNDEFINED> instruction: 0x312d0304
    129c:	01000202 	tsteq	r0, r2, lsl #4
    12a0:	00011701 	andeq	r1, r1, r1, lsl #14
    12a4:	fa000200 	blx	1aac <SCTLR_ENABLE_INSTRUCTION_CACHE+0xaac>
    12a8:	02000000 	andeq	r0, r0, #0
    12ac:	0d0efb01 	vstreq	d15, [lr, #-4]
    12b0:	01010100 	mrseq	r0, (UNDEF: 17)
    12b4:	00000001 	andeq	r0, r0, r1
    12b8:	01000001 	tsteq	r0, r1
    12bc:	69647473 	stmdbvs	r4!, {r0, r1, r4, r5, r6, sl, ip, sp, lr}^
    12c0:	552f006f 	strpl	r0, [pc, #-111]!	; 1259 <SCTLR_ENABLE_INSTRUCTION_CACHE+0x259>
    12c4:	73726573 	cmnvc	r2, #482344960	; 0x1cc00000
    12c8:	6172702f 	cmnvs	r2, pc, lsr #32
    12cc:	6873616b 	ldmdavs	r3!, {r0, r1, r3, r5, r6, r8, sp, lr}^
    12d0:	6b726f62 	blvs	1c9d060 <__kernel_end+0x1b3b060>
    12d4:	672f7261 	strvs	r7, [pc, -r1, ror #4]!
    12d8:	612d6363 			; <UNDEFINED> instruction: 0x612d6363
    12dc:	6e2d6d72 	mcrvs	13, 1, r6, cr13, cr2, {3}
    12e0:	2d656e6f 	stclcs	14, cr6, [r5, #-444]!	; 0xfffffe44
    12e4:	69626165 	stmdbvs	r2!, {r0, r2, r5, r6, r8, sp, lr}^
    12e8:	62696c2f 	rsbvs	r6, r9, #12032	; 0x2f00
    12ec:	6363672f 	cmnvs	r3, #12320768	; 0xbc0000
    12f0:	6d72612f 	ldfvse	f6, [r2, #-188]!	; 0xffffff44
    12f4:	6e6f6e2d 	cdpvs	14, 6, cr6, cr15, cr13, {1}
    12f8:	61652d65 	cmnvs	r5, r5, ror #26
    12fc:	352f6962 	strcc	r6, [pc, #-2402]!	; 9a2 <SCTLR_ENABLE_BRANCH_PREDICTION+0x1a2>
    1300:	312e342e 			; <UNDEFINED> instruction: 0x312e342e
    1304:	636e692f 	cmnvs	lr, #770048	; 0xbc000
    1308:	6564756c 	strbvs	r7, [r4, #-1388]!	; 0xfffffa94
    130c:	73552f00 	cmpvc	r5, #0, 30
    1310:	2f737265 	svccs	0x00737265
    1314:	6b617270 	blvs	185dcdc <__kernel_end+0x16fbcdc>
    1318:	62687361 	rsbvs	r7, r8, #-2080374783	; 0x84000001
    131c:	616b726f 	cmnvs	fp, pc, ror #4
    1320:	65442f72 	strbvs	r2, [r4, #-3954]	; 0xfffff08e
    1324:	6f746b73 	svcvs	0x00746b73
    1328:	65522f70 	ldrbvs	r2, [r2, #-3952]	; 0xfffff090
    132c:	65746f6d 	ldrbvs	r6, [r4, #-3949]!	; 0xfffff093
    1330:	7065525f 	rsbvc	r5, r5, pc, asr r2
    1334:	70722f6f 	rsbsvc	r2, r2, pc, ror #30
    1338:	736f2d69 	cmnvc	pc, #6720	; 0x1a40
    133c:	7261752d 	rsbvc	r7, r1, #188743680	; 0xb400000
    1340:	70722f74 	rsbsvc	r2, r2, r4, ror pc
    1344:	2d623369 	stclcs	3, cr3, [r2, #-420]!	; 0xfffffe5c
    1348:	7461656d 	strbtvc	r6, [r1], #-1389	; 0xfffffa93
    134c:	6b732d79 	blvs	1ccc938 <__kernel_end+0x1b6a938>
    1350:	74656c65 	strbtvc	r6, [r5], #-3173	; 0xfffff39b
    1354:	732f6e6f 			; <UNDEFINED> instruction: 0x732f6e6f
    1358:	6f727379 	svcvs	0x00727379
    135c:	752f746f 	strvc	r7, [pc, #-1135]!	; ef5 <SCTLR_ENABLE_BRANCH_PREDICTION+0x6f5>
    1360:	692f7273 	stmdbvs	pc!, {r0, r1, r4, r5, r6, r9, ip, sp, lr}	; <UNPREDICTABLE>
    1364:	756c636e 	strbvc	r6, [ip, #-878]!	; 0xfffffc92
    1368:	642f6564 	strtvs	r6, [pc], #-1380	; 1370 <SCTLR_ENABLE_INSTRUCTION_CACHE+0x370>
    136c:	63697665 	cmnvs	r9, #105906176	; 0x6500000
    1370:	70000065 	andvc	r0, r0, r5, rrx
    1374:	746e6972 	strbtvc	r6, [lr], #-2418	; 0xfffff68e
    1378:	00632e66 	rsbeq	r2, r3, r6, ror #28
    137c:	73000001 	movwvc	r0, #1
    1380:	72616474 	rsbvc	r6, r1, #116, 8	; 0x74000000
    1384:	00682e67 	rsbeq	r2, r8, r7, ror #28
    1388:	75000002 	strvc	r0, [r0, #-2]
    138c:	30747261 	rsbscc	r7, r4, r1, ror #4
    1390:	0300682e 	movweq	r6, #2094	; 0x82e
    1394:	623c0000 	eorsvs	r0, ip, #0
    1398:	746c6975 	strbtvc	r6, [ip], #-2421	; 0xfffff68b
    139c:	3e6e692d 	cdpcc	9, 6, cr6, cr14, cr13, {1}
    13a0:	00000000 	andeq	r0, r0, r0
    13a4:	02050000 	andeq	r0, r5, #0
    13a8:	00009778 	andeq	r9, r0, r8, ror r7
    13ac:	30011c03 	andcc	r1, r1, r3, lsl #24
    13b0:	2f6a6c4c 	svccs	0x006a6c4c
    13b4:	02322f81 	eorseq	r2, r2, #516	; 0x204
    13b8:	0101000a 	tsteq	r1, sl
    13bc:	0000029c 	muleq	r0, ip, r2
    13c0:	00d30002 	sbcseq	r0, r3, r2
    13c4:	01020000 	mrseq	r0, (UNDEF: 2)
    13c8:	000d0efb 	strdeq	r0, [sp], -fp
    13cc:	01010101 	tsteq	r1, r1, lsl #2
    13d0:	01000000 	mrseq	r0, (UNDEF: 0)
    13d4:	73010000 	movwvc	r0, #4096	; 0x1000
    13d8:	6f696474 	svcvs	0x00696474
    13dc:	73552f00 	cmpvc	r5, #0, 30
    13e0:	2f737265 	svccs	0x00737265
    13e4:	6b617270 	blvs	185ddac <__kernel_end+0x16fbdac>
    13e8:	62687361 	rsbvs	r7, r8, #-2080374783	; 0x84000001
    13ec:	616b726f 	cmnvs	fp, pc, ror #4
    13f0:	63672f72 	cmnvs	r7, #456	; 0x1c8
    13f4:	72612d63 	rsbvc	r2, r1, #6336	; 0x18c0
    13f8:	6f6e2d6d 	svcvs	0x006e2d6d
    13fc:	652d656e 	strvs	r6, [sp, #-1390]!	; 0xfffffa92
    1400:	2f696261 	svccs	0x00696261
    1404:	2f62696c 	svccs	0x0062696c
    1408:	2f636367 	svccs	0x00636367
    140c:	2d6d7261 	sfmcs	f7, 2, [sp, #-388]!	; 0xfffffe7c
    1410:	656e6f6e 	strbvs	r6, [lr, #-3950]!	; 0xfffff092
    1414:	6261652d 	rsbvs	r6, r1, #188743680	; 0xb400000
    1418:	2e352f69 	cdpcs	15, 3, cr2, cr5, cr9, {3}
    141c:	2f312e34 	svccs	0x00312e34
    1420:	6c636e69 	stclvs	14, cr6, [r3], #-420	; 0xfffffe5c
    1424:	00656475 	rsbeq	r6, r5, r5, ror r4
    1428:	6573552f 	ldrbvs	r5, [r3, #-1327]!	; 0xfffffad1
    142c:	702f7372 	eorvc	r7, pc, r2, ror r3	; <UNPREDICTABLE>
    1430:	616b6172 	smcvs	46610	; 0xb612
    1434:	6f626873 	svcvs	0x00626873
    1438:	72616b72 	rsbvc	r6, r1, #116736	; 0x1c800
    143c:	6363672f 	cmnvs	r3, #12320768	; 0xbc0000
    1440:	6d72612d 	ldfvse	f6, [r2, #-180]!	; 0xffffff4c
    1444:	6e6f6e2d 	cdpvs	14, 6, cr6, cr15, cr13, {1}
    1448:	61652d65 	cmnvs	r5, r5, ror #26
    144c:	612f6962 			; <UNDEFINED> instruction: 0x612f6962
    1450:	6e2d6d72 	mcrvs	13, 1, r6, cr13, cr2, {3}
    1454:	2d656e6f 	stclcs	14, cr6, [r5, #-444]!	; 0xfffffe44
    1458:	69626165 	stmdbvs	r2!, {r0, r2, r5, r6, r8, sp, lr}^
    145c:	636e692f 	cmnvs	lr, #770048	; 0xbc000
    1460:	6564756c 	strbvs	r7, [r4, #-1388]!	; 0xfffffa94
    1464:	6f640000 	svcvs	0x00640000
    1468:	746e7270 	strbtvc	r7, [lr], #-624	; 0xfffffd90
    146c:	0100632e 	tsteq	r0, lr, lsr #6
    1470:	74730000 	ldrbtvc	r0, [r3], #-0
    1474:	67726164 	ldrbvs	r6, [r2, -r4, ror #2]!
    1478:	0200682e 	andeq	r6, r0, #3014656	; 0x2e0000
    147c:	623c0000 	eorsvs	r0, ip, #0
    1480:	746c6975 	strbtvc	r6, [ip], #-2421	; 0xfffff68b
    1484:	3e6e692d 	cdpcc	9, 6, cr6, cr14, cr13, {1}
    1488:	00000000 	andeq	r0, r0, r0
    148c:	69727473 	ldmdbvs	r2!, {r0, r1, r4, r5, r6, sl, ip, sp, lr}^
    1490:	682e676e 	stmdavs	lr!, {r1, r2, r3, r5, r6, r8, r9, sl, sp, lr}
    1494:	00000300 	andeq	r0, r0, r0, lsl #6
    1498:	02050000 	andeq	r0, r5, #0
    149c:	000097cc 	andeq	r9, r0, ip, asr #15
    14a0:	0100dc03 	tsteq	r0, r3, lsl #24
    14a4:	03662d2f 	cmneq	r6, #3008	; 0xbc0
    14a8:	00844a1d 	addeq	r4, r4, sp, lsl sl
    14ac:	06010402 	streq	r0, [r1], -r2, lsl #8
    14b0:	1003064a 	andne	r0, r3, sl, asr #12
    14b4:	9e0a03f2 	mcrls	3, 0, r0, cr10, cr2, {7}
    14b8:	4e4a7603 	cdpmi	6, 4, cr7, cr10, cr3, {0}
    14bc:	6600f103 	strvs	pc, [r0], -r3, lsl #2
    14c0:	2e01d403 	cdpcs	4, 0, cr13, cr1, cr3, {0}
    14c4:	032f49a3 			; <UNDEFINED> instruction: 0x032f49a3
    14c8:	034a7dcb 	movteq	r7, #44491	; 0xadcb
    14cc:	2fbc4a0e 	svccs	0x00bc4a0e
    14d0:	820c032b 	andhi	r0, ip, #-1409286144	; 0xac000000
    14d4:	2e790389 	cdpcs	3, 7, cr0, cr9, cr9, {4}
    14d8:	1d032f34 	stcne	15, cr2, [r3, #-208]	; 0xffffff30
    14dc:	19034f2e 	stmdbne	r3, {r1, r2, r3, r5, r8, r9, sl, fp, lr}
    14e0:	0232034a 	eorseq	r0, r2, #671088641	; 0x28000001
    14e4:	4e03014a 	adfmism	f0, f3, #2.0
    14e8:	35032b2e 	strcc	r2, [r3, #-2862]	; 0xfffff4d2
    14ec:	2e16032e 	cdpcs	3, 1, cr0, cr6, cr14, {1}
    14f0:	6601b903 	strvs	fp, [r1], -r3, lsl #18
    14f4:	4a7edb03 	bmi	1fb8108 <__kernel_end+0x1e56108>
    14f8:	2e01a503 	cfsh32cs	mvfx10, mvfx1, #3
    14fc:	4a7edb03 	bmi	1fb8110 <__kernel_end+0x1e56110>
    1500:	2e01a603 	cfmadd32cs	mvax0, mvfx10, mvfx1, mvfx3
    1504:	2e7a0333 	mrccs	3, 3, r0, cr10, cr3, {1}
    1508:	1303332f 	movwne	r3, #13103	; 0x332f
    150c:	2c4c692e 	mcrrcs	9, 2, r6, ip, cr14
    1510:	324c6430 	subcc	r6, ip, #48, 8	; 0x30000000
    1514:	302e7a03 	eorcc	r7, lr, r3, lsl #20
    1518:	20080c03 	andcs	r0, r8, r3, lsl #24
    151c:	bd032f2d 	stclt	15, cr2, [r3, #-180]	; 0xffffff4c
    1520:	2d4b2e7e 	stclcs	14, cr2, [fp, #-504]	; 0xfffffe08
    1524:	2e10032f 	cdpcs	3, 1, cr0, cr0, cr15, {1}
    1528:	6e032c30 	mcrvs	12, 0, r2, cr3, cr0, {1}
    152c:	2e1d0301 	cdpcs	3, 1, cr0, cr13, cr1, {0}
    1530:	032f816a 			; <UNDEFINED> instruction: 0x032f816a
    1534:	02002e1d 	andeq	r2, r0, #464	; 0x1d0
    1538:	0b030104 	bleq	c1950 <__first_lvl_tbl_end+0xa0950>
    153c:	04020066 	streq	r0, [r2], #-102	; 0xffffff9a
    1540:	06820602 	streq	r0, [r2], r2, lsl #12
    1544:	032aa24c 			; <UNDEFINED> instruction: 0x032aa24c
    1548:	3f032e6c 	svccc	0x00032e6c
    154c:	7d9e032e 	ldcvc	3, cr0, [lr, #184]	; 0xb8
    1550:	4a2b0366 	bmi	ac22f0 <__kernel_end+0x9602f0>
    1554:	7a03334b 	bvc	ce288 <__first_lvl_tbl_end+0xad288>
    1558:	292d502e 	pushcs	{r1, r2, r3, r5, ip, lr}
    155c:	66370336 			; <UNDEFINED> instruction: 0x66370336
    1560:	034a6303 	movteq	r6, #41731	; 0xa303
    1564:	7503660a 	strvc	r6, [r3, #-1546]	; 0xfffff9f6
    1568:	2e0b0382 	cdpcs	3, 0, cr0, cr11, cr2, {4}
    156c:	032b2f4c 			; <UNDEFINED> instruction: 0x032b2f4c
    1570:	32659e18 	rsbcc	r9, r5, #24, 28	; 0x180
    1574:	674a1f03 	strbvs	r1, [sl, -r3, lsl #30]
    1578:	cf032f2d 	svcgt	0x00032f2d
    157c:	0c032e00 	stceq	14, cr2, [r3], {-0}
    1580:	2e74032e 	cdpcs	3, 7, cr0, cr4, cr14, {1}
    1584:	4b2e0c03 	blmi	b84598 <__kernel_end+0xa22598>
    1588:	1b03672d 	blne	db244 <__first_lvl_tbl_end+0xba244>
    158c:	2d4e5808 	stclcs	8, cr5, [lr, #-32]	; 0xffffffe0
    1590:	4d35302f 	ldcmi	0, cr3, [r5, #-188]!	; 0xffffff44
    1594:	0200352b 	andeq	r3, r0, #180355072	; 0xac00000
    1598:	00680104 	rsbeq	r0, r8, r4, lsl #2
    159c:	06020402 	streq	r0, [r2], -r2, lsl #8
    15a0:	4c065808 	stcmi	8, cr5, [r6], {8}
    15a4:	e4032aa2 	str	r2, [r3], #-2722	; 0xfffff55e
    15a8:	2d034a7e 	vstrcs	s8, [r3, #-504]	; 0xfffffe08
    15ac:	2e50032e 	cdpcs	3, 5, cr0, cr0, cr14, {1}
    15b0:	032e3003 			; <UNDEFINED> instruction: 0x032e3003
    15b4:	2d2f4a0a 	vstmdbcs	pc!, {s8-s17}
    15b8:	032e4603 			; <UNDEFINED> instruction: 0x032e4603
    15bc:	30322e3b 	eorscc	r2, r2, fp, lsr lr
    15c0:	322f2f2c 	eorcc	r2, pc, #44, 30	; 0xb0
    15c4:	bb032d2f 	bllt	cca88 <__first_lvl_tbl_end+0xaba88>
    15c8:	c6032e7f 			; <UNDEFINED> instruction: 0xc6032e7f
    15cc:	44032e00 	strmi	r2, [r3], #-3584	; 0xfffff200
    15d0:	2d832d2e 	stccs	13, cr2, [r3, #184]	; 0xb8
    15d4:	032e7603 			; <UNDEFINED> instruction: 0x032e7603
    15d8:	10032e0c 	andne	r2, r3, ip, lsl #28
    15dc:	6609032e 	strvs	r0, [r9], -lr, lsr #6
    15e0:	032e7703 			; <UNDEFINED> instruction: 0x032e7703
    15e4:	26036663 	strcs	r6, [r3], -r3, ror #12
    15e8:	2e3b032e 	cdpcs	3, 3, cr0, cr11, cr14, {1}
    15ec:	4a01a603 	bmi	6ae00 <__first_lvl_tbl_end+0x49e00>
    15f0:	0b032f65 	bleq	cd38c <__first_lvl_tbl_end+0xac38c>
    15f4:	2f49832e 	svccs	0x0049832e
    15f8:	8372082f 	cmnhi	r2, #3080192	; 0x2f0000
    15fc:	322f2f49 	eorcc	r2, pc, #292	; 0x124
    1600:	7fa1032a 	svcvc	0x00a1032a
    1604:	040200d6 	streq	r0, [r2], #-214	; 0xffffff2a
    1608:	2e0a0301 	cdpcs	3, 0, cr0, cr10, cr1, {0}
    160c:	02040200 	andeq	r0, r4, #0, 4
    1610:	4c069e06 	stcmi	14, cr9, [r6], {6}
    1614:	6b032aa2 	blvs	cc0a4 <__first_lvl_tbl_end+0xab0a4>
    1618:	be03be4a 	cdplt	14, 0, cr11, cr3, cr10, {2}
    161c:	d1039e7f 	tstle	r3, pc, ror lr
    1620:	0a039e00 	beq	e8e28 <__first_lvl_tbl_end+0xc7e28>
    1624:	0402002e 	streq	r0, [r2], #-46	; 0xffffffd2
    1628:	02006801 	andeq	r6, r0, #65536	; 0x10000
    162c:	9e060204 	cdpls	2, 0, cr0, cr6, cr4, {0}
    1630:	2aa24c06 	bcs	fe894650 <__kernel_end+0xfe732650>
    1634:	034a4003 	movteq	r4, #40963	; 0xa003
    1638:	9f827ec2 	svcls	0x00827ec2
    163c:	66019e03 	strvs	r9, [r1], -r3, lsl #28
    1640:	087fbb03 	ldmdaeq	pc!, {r0, r1, r8, r9, fp, ip, sp, pc}^	; <UNPREDICTABLE>
    1644:	2d2f49c8 	stccs	9, cr4, [pc, #-800]!	; 132c <SCTLR_ENABLE_INSTRUCTION_CACHE+0x32c>
    1648:	4a01e403 	bmi	7a65c <__first_lvl_tbl_end+0x5965c>
    164c:	827e8803 	rsbshi	r8, lr, #196608	; 0x30000
    1650:	4a029003 	bmi	a5664 <__first_lvl_tbl_end+0x84664>
    1654:	02666403 	rsbeq	r6, r6, #50331648	; 0x3000000
    1658:	01010008 	tsteq	r1, r8
    165c:	000000de 	ldrdeq	r0, [r0], -lr
    1660:	00c60002 	sbceq	r0, r6, r2
    1664:	01020000 	mrseq	r0, (UNDEF: 2)
    1668:	000d0efb 	strdeq	r0, [sp], -fp
    166c:	01010101 	tsteq	r1, r1, lsl #2
    1670:	01000000 	mrseq	r0, (UNDEF: 0)
    1674:	73010000 	movwvc	r0, #4096	; 0x1000
    1678:	6e697274 	mcrvs	2, 3, r7, cr9, cr4, {3}
    167c:	552f0067 	strpl	r0, [pc, #-103]!	; 161d <SCTLR_ENABLE_INSTRUCTION_CACHE+0x61d>
    1680:	73726573 	cmnvc	r2, #482344960	; 0x1cc00000
    1684:	6172702f 	cmnvs	r2, pc, lsr #32
    1688:	6873616b 	ldmdavs	r3!, {r0, r1, r3, r5, r6, r8, sp, lr}^
    168c:	6b726f62 	blvs	1c9d41c <__kernel_end+0x1b3b41c>
    1690:	672f7261 	strvs	r7, [pc, -r1, ror #4]!
    1694:	612d6363 			; <UNDEFINED> instruction: 0x612d6363
    1698:	6e2d6d72 	mcrvs	13, 1, r6, cr13, cr2, {3}
    169c:	2d656e6f 	stclcs	14, cr6, [r5, #-444]!	; 0xfffffe44
    16a0:	69626165 	stmdbvs	r2!, {r0, r2, r5, r6, r8, sp, lr}^
    16a4:	62696c2f 	rsbvs	r6, r9, #12032	; 0x2f00
    16a8:	6363672f 	cmnvs	r3, #12320768	; 0xbc0000
    16ac:	6d72612f 	ldfvse	f6, [r2, #-188]!	; 0xffffff44
    16b0:	6e6f6e2d 	cdpvs	14, 6, cr6, cr15, cr13, {1}
    16b4:	61652d65 	cmnvs	r5, r5, ror #26
    16b8:	352f6962 	strcc	r6, [pc, #-2402]!	; d5e <SCTLR_ENABLE_BRANCH_PREDICTION+0x55e>
    16bc:	312e342e 			; <UNDEFINED> instruction: 0x312e342e
    16c0:	636e692f 	cmnvs	lr, #770048	; 0xbc000
    16c4:	6564756c 	strbvs	r7, [r4, #-1388]!	; 0xfffffa94
    16c8:	73552f00 	cmpvc	r5, #0, 30
    16cc:	2f737265 	svccs	0x00737265
    16d0:	6b617270 	blvs	185e098 <__kernel_end+0x16fc098>
    16d4:	62687361 	rsbvs	r7, r8, #-2080374783	; 0x84000001
    16d8:	616b726f 	cmnvs	fp, pc, ror #4
    16dc:	63672f72 	cmnvs	r7, #456	; 0x1c8
    16e0:	72612d63 	rsbvc	r2, r1, #6336	; 0x18c0
    16e4:	6f6e2d6d 	svcvs	0x006e2d6d
    16e8:	652d656e 	strvs	r6, [sp, #-1390]!	; 0xfffffa92
    16ec:	2f696261 	svccs	0x00696261
    16f0:	2d6d7261 	sfmcs	f7, 2, [sp, #-388]!	; 0xfffffe7c
    16f4:	656e6f6e 	strbvs	r6, [lr, #-3950]!	; 0xfffff092
    16f8:	6261652d 	rsbvs	r6, r1, #188743680	; 0xb400000
    16fc:	6e692f69 	cdpvs	15, 6, cr2, cr9, cr9, {3}
    1700:	64756c63 	ldrbtvs	r6, [r5], #-3171	; 0xfffff39d
    1704:	73000065 	movwvc	r0, #101	; 0x65
    1708:	656c7274 	strbvs	r7, [ip, #-628]!	; 0xfffffd8c
    170c:	00632e6e 	rsbeq	r2, r3, lr, ror #28
    1710:	73000001 	movwvc	r0, #1
    1714:	65646474 	strbvs	r6, [r4, #-1140]!	; 0xfffffb8c
    1718:	00682e66 	rsbeq	r2, r8, r6, ror #28
    171c:	73000002 	movwvc	r0, #2
    1720:	6e697274 	mcrvs	2, 3, r7, cr9, cr4, {3}
    1724:	00682e67 	rsbeq	r2, r8, r7, ror #28
    1728:	00000003 	andeq	r0, r0, r3
    172c:	18020500 	stmdane	r2, {r8, sl}
    1730:	1400009f 	strne	r0, [r0], #-159	; 0xffffff61
    1734:	492dd714 	pushmi	{r2, r4, r8, r9, sl, ip, lr, pc}
    1738:	00020232 	andeq	r0, r2, r2, lsr r2
    173c:	Address 0x000000000000173c is out of bounds.


Disassembly of section .debug_info:

00000000 <.debug_info>:
       0:	00000085 	andeq	r0, r0, r5, lsl #1
       4:	00000002 	andeq	r0, r0, r2
       8:	01040000 	mrseq	r0, (UNDEF: 4)
       c:	00000000 	andeq	r0, r0, r0
      10:	00008000 	andeq	r8, r0, r0
      14:	00008208 	andeq	r8, r0, r8, lsl #4
      18:	68637261 	stmdavs	r3!, {r0, r5, r6, r9, ip, sp, lr}^
      1c:	6d72612f 	ldfvse	f6, [r2, #-188]!	; 0xffffff44
      20:	6f6f622f 	svcvs	0x006f622f
      24:	00532e74 	subseq	r2, r3, r4, ror lr
      28:	6573552f 	ldrbvs	r5, [r3, #-1327]!	; 0xfffffad1
      2c:	702f7372 	eorvc	r7, pc, r2, ror r3	; <UNPREDICTABLE>
      30:	616b6172 	smcvs	46610	; 0xb612
      34:	6f626873 	svcvs	0x00626873
      38:	72616b72 	rsbvc	r6, r1, #116736	; 0x1c800
      3c:	7365442f 	cmnvc	r5, #788529152	; 0x2f000000
      40:	706f746b 	rsbvc	r7, pc, fp, ror #8
      44:	6d65522f 	sfmvs	f5, 2, [r5, #-188]!	; 0xffffff44
      48:	5f65746f 	svcpl	0x0065746f
      4c:	6f706552 	svcvs	0x00706552
      50:	6970722f 	ldmdbvs	r0!, {r0, r1, r2, r3, r5, r9, ip, sp, lr}^
      54:	2d736f2d 	ldclcs	15, cr6, [r3, #-180]!	; 0xffffff4c
      58:	74726175 	ldrbtvc	r6, [r2], #-373	; 0xfffffe8b
      5c:	6970722f 	ldmdbvs	r0!, {r0, r1, r2, r3, r5, r9, ip, sp, lr}^
      60:	6d2d6233 	sfmvs	f6, 4, [sp, #-204]!	; 0xffffff34
      64:	79746165 	ldmdbvc	r4!, {r0, r2, r5, r6, r8, sp, lr}^
      68:	656b732d 	strbvs	r7, [fp, #-813]!	; 0xfffffcd3
      6c:	6f74656c 	svcvs	0x0074656c
      70:	656b2f6e 	strbvs	r2, [fp, #-3950]!	; 0xfffff092
      74:	6c656e72 	stclvs	14, cr6, [r5], #-456	; 0xfffffe38
      78:	554e4700 	strbpl	r4, [lr, #-1792]	; 0xfffff900
      7c:	20534120 	subscs	r4, r3, r0, lsr #2
      80:	36322e32 			; <UNDEFINED> instruction: 0x36322e32
      84:	0100322e 	tsteq	r0, lr, lsr #4
      88:	00010880 	andeq	r0, r1, r0, lsl #17
      8c:	14000400 	strne	r0, [r0], #-1024	; 0xfffffc00
      90:	04000000 	streq	r0, [r0], #-0
      94:	00006401 	andeq	r6, r0, r1, lsl #8
      98:	002c0c00 	eoreq	r0, ip, r0, lsl #24
      9c:	011a0000 	tsteq	sl, r0
      a0:	82080000 	andhi	r0, r8, #0
      a4:	00600000 	rsbeq	r0, r0, r0
      a8:	00be0000 	adcseq	r0, lr, r0
      ac:	01020000 	mrseq	r0, (UNDEF: 2)
      b0:	00000d06 	andeq	r0, r0, r6, lsl #26
      b4:	05020200 	streq	r0, [r2, #-512]	; 0xfffffe00
      b8:	0000016b 	andeq	r0, r0, fp, ror #2
      bc:	00017603 	andeq	r7, r1, r3, lsl #12
      c0:	3e280200 	cdpcc	2, 2, cr0, cr8, cr0, {0}
      c4:	02000000 	andeq	r0, r0, #0
      c8:	01110504 	tsteq	r1, r4, lsl #10
      cc:	08020000 	stmdaeq	r2, {}	; <UNPREDICTABLE>
      d0:	00010c05 	andeq	r0, r1, r5, lsl #24
      d4:	08010200 	stmdaeq	r1, {r9}
      d8:	0000000b 	andeq	r0, r0, fp
      dc:	19070202 	stmdbne	r7, {r1, r9}
      e0:	03000000 	movweq	r0, #0
      e4:	00000175 	andeq	r0, r0, r5, ror r1
      e8:	00653402 	rsbeq	r3, r5, r2, lsl #8
      ec:	04020000 	streq	r0, [r2], #-0
      f0:	00005207 	andeq	r5, r0, r7, lsl #4
      f4:	07080200 	streq	r0, [r8, -r0, lsl #4]
      f8:	0000004d 	andeq	r0, r0, sp, asr #32
      fc:	69050404 	stmdbvs	r5, {r2, sl}
     100:	0200746e 	andeq	r7, r0, #1845493760	; 0x6e000000
     104:	00570704 	subseq	r0, r7, r4, lsl #14
     108:	00050000 	andeq	r0, r5, r0
     10c:	01000000 	mrseq	r0, (UNDEF: 0)
     110:	00820807 	addeq	r0, r2, r7, lsl #16
     114:	00006000 	andeq	r6, r0, r0
     118:	e49c0100 	ldr	r0, [ip], #256	; 0x100
     11c:	06000000 	streq	r0, [r0], -r0
     120:	01003072 	tsteq	r0, r2, ror r0
     124:	00005a07 	andeq	r5, r0, r7, lsl #20
     128:	00000000 	andeq	r0, r0, r0
     12c:	31720600 	cmncc	r2, r0, lsl #12
     130:	5a070100 	bpl	1c0538 <__kernel_end+0x5e538>
     134:	21000000 	mrscs	r0, (UNDEF: 0)
     138:	06000000 	streq	r0, [r0], -r0
     13c:	01003272 	tsteq	r0, r2, ror r2
     140:	00005a07 	andeq	r5, r0, r7, lsl #20
     144:	00004200 	andeq	r4, r0, r0, lsl #4
     148:	73620700 	cmnvc	r2, #0, 14
     14c:	09010073 	stmdbeq	r1, {r0, r1, r4, r5, r6}
     150:	000000e4 	andeq	r0, r0, r4, ror #1
     154:	00000063 	andeq	r0, r0, r3, rrx
     158:	00010408 	andeq	r0, r1, r8, lsl #8
     15c:	e40a0100 	str	r0, [sl], #-256	; 0xffffff00
     160:	09000000 	stmdbeq	r0, {}	; <UNPREDICTABLE>
     164:	00008258 	andeq	r8, r0, r8, asr r2
     168:	00000100 	andeq	r0, r0, r0, lsl #2
     16c:	33040a00 	movwcc	r0, #18944	; 0x4a00
     170:	0b000000 	bleq	178 <ARM_I_BIT+0xf8>
     174:	00000041 	andeq	r0, r0, r1, asr #32
     178:	00330201 	eorseq	r0, r3, r1, lsl #4
     17c:	020b0000 	andeq	r0, fp, #0
     180:	01000001 	tsteq	r0, r1
     184:	00003303 	andeq	r3, r0, r3, lsl #6
     188:	017e0c00 	cmneq	lr, r0, lsl #24
     18c:	017e0000 	cmneq	lr, r0
     190:	05010000 	streq	r0, [r1, #-0]
     194:	0001a000 	andeq	sl, r1, r0
     198:	c6000400 	strgt	r0, [r0], -r0, lsl #8
     19c:	04000000 	streq	r0, [r0], #-0
     1a0:	00006401 	andeq	r6, r0, r1, lsl #8
     1a4:	027b0c00 	rsbseq	r0, fp, #0, 24
     1a8:	011a0000 	tsteq	sl, r0
     1ac:	82680000 	rsbhi	r0, r8, #0
     1b0:	00380000 	eorseq	r0, r8, r0
     1b4:	01610000 	cmneq	r1, r0
     1b8:	01020000 	mrseq	r0, (UNDEF: 2)
     1bc:	00000d06 	andeq	r0, r0, r6, lsl #26
     1c0:	05020200 	streq	r0, [r2, #-512]	; 0xfffffe00
     1c4:	0000016b 	andeq	r0, r0, fp, ror #2
     1c8:	11050402 	tstne	r5, r2, lsl #8
     1cc:	02000001 	andeq	r0, r0, #1
     1d0:	010c0508 	tsteq	ip, r8, lsl #10
     1d4:	01020000 	mrseq	r0, (UNDEF: 2)
     1d8:	00000b08 	andeq	r0, r0, r8, lsl #22
     1dc:	07020200 	streq	r0, [r2, -r0, lsl #4]
     1e0:	00000019 	andeq	r0, r0, r9, lsl r0
     1e4:	00017503 	andeq	r7, r1, r3, lsl #10
     1e8:	5a340300 	bpl	d00df0 <__kernel_end+0xb9edf0>
     1ec:	02000000 	andeq	r0, r0, #0
     1f0:	00520704 	subseq	r0, r2, r4, lsl #14
     1f4:	08020000 	stmdaeq	r2, {}	; <UNPREDICTABLE>
     1f8:	00004d07 	andeq	r4, r0, r7, lsl #26
     1fc:	05040400 	streq	r0, [r4, #-1024]	; 0xfffffc00
     200:	00746e69 	rsbseq	r6, r4, r9, ror #28
     204:	57070402 	strpl	r0, [r7, -r2, lsl #8]
     208:	05000000 	streq	r0, [r0, #-0]
     20c:	0000004f 	andeq	r0, r0, pc, asr #32
     210:	20022406 	andcs	r2, r2, r6, lsl #8
     214:	000000f0 	strdeq	r0, [r0], -r0	; <UNPREDICTABLE>
     218:	0002bc07 	andeq	fp, r2, r7, lsl #24
     21c:	76220200 	strtvc	r0, [r2], -r0, lsl #4
     220:	00000000 	andeq	r0, r0, r0
     224:	00022f07 	andeq	r2, r2, r7, lsl #30
     228:	76230200 	strtvc	r0, [r3], -r0, lsl #4
     22c:	04000000 	streq	r0, [r0], #-0
     230:	0001e507 	andeq	lr, r1, r7, lsl #10
     234:	76240200 	strtvc	r0, [r4], -r0, lsl #4
     238:	08000000 	stmdaeq	r0, {}	; <UNPREDICTABLE>
     23c:	0002c107 	andeq	ip, r2, r7, lsl #2
     240:	76250200 	strtvc	r0, [r5], -r0, lsl #4
     244:	0c000000 	stceq	0, cr0, [r0], {-0}
     248:	0001b207 	andeq	fp, r1, r7, lsl #4
     24c:	76260200 	strtvc	r0, [r6], -r0, lsl #4
     250:	10000000 	andne	r0, r0, r0
     254:	0002fc07 	andeq	pc, r2, r7, lsl #24
     258:	76270200 	strtvc	r0, [r7], -r0, lsl #4
     25c:	14000000 	strne	r0, [r0], #-0
     260:	0001ed07 	andeq	lr, r1, r7, lsl #26
     264:	76280200 	strtvc	r0, [r8], -r0, lsl #4
     268:	18000000 	stmdane	r0, {}	; <UNPREDICTABLE>
     26c:	00022407 	andeq	r2, r2, r7, lsl #8
     270:	76290200 	strtvc	r0, [r9], -r0, lsl #4
     274:	1c000000 	stcne	0, cr0, [r0], {-0}
     278:	0001f407 	andeq	pc, r1, r7, lsl #8
     27c:	762a0200 	strtvc	r0, [sl], -r0, lsl #4
     280:	20000000 	andcs	r0, r0, r0
     284:	01a20300 			; <UNDEFINED> instruction: 0x01a20300
     288:	2b020000 	blcs	80290 <__first_lvl_tbl_end+0x5f290>
     28c:	0000007b 	andeq	r0, r0, fp, ror r0
     290:	00410108 	subeq	r0, r1, r8, lsl #2
     294:	26040000 	strcs	r0, [r4], -r0
     298:	00000138 	andeq	r0, r0, r8, lsr r1
     29c:	00018a09 	andeq	r8, r1, r9, lsl #20
     2a0:	06090100 	streq	r0, [r9], -r0, lsl #2
     2a4:	02000003 	andeq	r0, r0, #3
     2a8:	00029309 	andeq	r9, r2, r9, lsl #6
     2ac:	c8090400 	stmdagt	r9, {sl}
     2b0:	08000001 	stmdaeq	r0, {r0}
     2b4:	00023509 	andeq	r3, r2, r9, lsl #10
     2b8:	50091000 	andpl	r1, r9, r0
     2bc:	20000002 	andcs	r0, r0, r2
     2c0:	00020709 	andeq	r0, r2, r9, lsl #14
     2c4:	ca094000 	bgt	2502cc <__kernel_end+0xee2cc>
     2c8:	80000002 	andhi	r0, r0, r2
     2cc:	026b0a00 	rsbeq	r0, fp, #0, 20
     2d0:	07010000 	streq	r0, [r1, -r0]
     2d4:	0000014d 	andeq	r0, r0, sp, asr #2
     2d8:	00008268 	andeq	r8, r0, r8, ror #4
     2dc:	0000000c 	andeq	r0, r0, ip
     2e0:	040b9c01 	streq	r9, [fp], #-3073	; 0xfffff3ff
     2e4:	000000f0 	strdeq	r0, [r0], -r0	; <UNPREDICTABLE>
     2e8:	0001b90c 	andeq	fp, r1, ip, lsl #18
     2ec:	740c0100 	strvc	r0, [ip], #-256	; 0xffffff00
     2f0:	2c000082 	stccs	0, cr0, [r0], {130}	; 0x82
     2f4:	01000000 	mrseq	r0, (UNDEF: 0)
     2f8:	0001849c 	muleq	r1, ip, r4
     2fc:	827c0d00 	rsbshi	r0, ip, #0, 26
     300:	01980000 	orrseq	r0, r8, r0
     304:	880d0000 	stmdahi	sp, {}	; <UNPREDICTABLE>
     308:	38000082 	stmdacc	r0, {r1, r7}
     30c:	0d000001 	stceq	0, cr0, [r0, #-4]
     310:	00008294 	muleq	r0, r4, r2
     314:	00000138 	andeq	r0, r0, r8, lsr r1
     318:	02b00e00 	adcseq	r0, r0, #0, 28
     31c:	05010000 	streq	r0, [r1, #-0]
     320:	00000193 	muleq	r0, r3, r1
     324:	3f00b400 	svccc	0x0000b400
     328:	00014d0f 	andeq	r4, r1, pc, lsl #26
     32c:	02e71000 	rsceq	r1, r7, #0
     330:	02e70000 	rsceq	r0, r7, #0
     334:	3f040000 	svccc	0x00040000
     338:	0005ab00 	andeq	sl, r5, r0, lsl #22
     33c:	a7000400 	strge	r0, [r0, -r0, lsl #8]
     340:	04000001 	streq	r0, [r0], #-1
     344:	00006401 	andeq	r6, r0, r1, lsl #8
     348:	04ac0c00 	strteq	r0, [ip], #3072	; 0xc00
     34c:	011a0000 	tsteq	sl, r0
     350:	82a00000 	adchi	r0, r0, #0
     354:	03b00000 	movseq	r0, #0
     358:	023b0000 	eorseq	r0, fp, #0
     35c:	01020000 	mrseq	r0, (UNDEF: 2)
     360:	00000d06 	andeq	r0, r0, r6, lsl #26
     364:	08010200 	stmdaeq	r1, {r9}
     368:	0000000b 	andeq	r0, r0, fp
     36c:	6b050202 	blvs	140b7c <dma_src_page_2+0xeb7c>
     370:	02000001 	andeq	r0, r0, #1
     374:	00190702 	andseq	r0, r9, r2, lsl #14
     378:	04020000 	streq	r0, [r2], #-0
     37c:	00011105 	andeq	r1, r1, r5, lsl #2
     380:	07040200 	streq	r0, [r4, -r0, lsl #4]
     384:	00000052 	andeq	r0, r0, r2, asr r0
     388:	0c050802 	stceq	8, cr0, [r5], {2}
     38c:	02000001 	andeq	r0, r0, #1
     390:	004d0708 	subeq	r0, sp, r8, lsl #14
     394:	04030000 	streq	r0, [r3], #-0
     398:	746e6905 	strbtvc	r6, [lr], #-2309	; 0xfffff6fb
     39c:	07040200 	streq	r0, [r4, -r0, lsl #4]
     3a0:	00000057 	andeq	r0, r0, r7, asr r0
     3a4:	00035004 	andeq	r5, r3, r4
     3a8:	64d80300 	ldrbvs	r0, [r8], #768	; 0x300
     3ac:	02000000 	andeq	r0, r0, #0
     3b0:	042e0408 	strteq	r0, [lr], #-1032	; 0xfffffbf8
     3b4:	76040000 	strvc	r0, [r4], -r0
     3b8:	04000001 	streq	r0, [r0], #-1
     3bc:	00004128 	andeq	r4, r0, r8, lsr #2
     3c0:	03720400 	cmneq	r2, #0, 8
     3c4:	2e040000 	cdpcs	0, 0, cr0, cr4, cr0, {0}
     3c8:	0000002c 	andeq	r0, r0, ip, lsr #32
     3cc:	00017504 	andeq	r7, r1, r4, lsl #10
     3d0:	48340400 	ldmdami	r4!, {sl}
     3d4:	05000000 	streq	r0, [r0, #-0]
     3d8:	00000093 	muleq	r0, r3, r0
     3dc:	00037a04 	andeq	r7, r3, r4, lsl #20
     3e0:	ae0a0200 	cdpge	2, 0, cr0, cr10, cr0, {0}
     3e4:	06000000 	streq	r0, [r0], -r0
     3e8:	0000b404 	andeq	fp, r0, r4, lsl #8
     3ec:	70040700 	andvc	r0, r4, r0, lsl #14
     3f0:	02000004 	andeq	r0, r0, #4
     3f4:	0000ae0b 	andeq	sl, r0, fp, lsl #28
     3f8:	2c010800 	stccs	8, cr0, [r1], {-0}
     3fc:	02000000 	andeq	r0, r0, #0
     400:	0000fd26 	andeq	pc, r0, r6, lsr #26
     404:	018a0900 	orreq	r0, sl, r0, lsl #18
     408:	09010000 	stmdbeq	r1, {}	; <UNPREDICTABLE>
     40c:	00000306 	andeq	r0, r0, r6, lsl #6
     410:	02930902 	addseq	r0, r3, #32768	; 0x8000
     414:	09040000 	stmdbeq	r4, {}	; <UNPREDICTABLE>
     418:	000001c8 	andeq	r0, r0, r8, asr #3
     41c:	02350908 	eorseq	r0, r5, #8, 18	; 0x20000
     420:	09100000 	ldmdbeq	r0, {}	; <UNPREDICTABLE>
     424:	00000250 	andeq	r0, r0, r0, asr r2
     428:	02070920 	andeq	r0, r7, #32, 18	; 0x80000
     42c:	09400000 	stmdbeq	r0, {}^	; <UNPREDICTABLE>
     430:	000002ca 	andeq	r0, r0, sl, asr #5
     434:	44040080 	strmi	r0, [r4], #-128	; 0xffffff80
     438:	02000005 	andeq	r0, r0, #5
     43c:	0000c02f 	andeq	ip, r0, pc, lsr #32
     440:	02280a00 	eoreq	r0, r8, #0, 20
     444:	00018931 	andeq	r8, r1, r1, lsr r9
     448:	05840b00 	streq	r0, [r4, #2816]	; 0xb00
     44c:	33020000 	movwcc	r0, #8192	; 0x2000
     450:	0000009e 	muleq	r0, lr, r0
     454:	05760b00 	ldrbeq	r0, [r6, #-2816]!	; 0xfffff500
     458:	34020000 	strcc	r0, [r2], #-0
     45c:	0000009e 	muleq	r0, lr, r0
     460:	04840b04 	streq	r0, [r4], #2820	; 0xb04
     464:	35020000 	strcc	r0, [r2, #-0]
     468:	0000009e 	muleq	r0, lr, r0
     46c:	03660b08 	cmneq	r6, #8, 22	; 0x2000
     470:	36020000 	strcc	r0, [r2], -r0
     474:	0000009e 	muleq	r0, lr, r0
     478:	04120b0c 	ldreq	r0, [r2], #-2828	; 0xfffff4f4
     47c:	37020000 	strcc	r0, [r2, -r0]
     480:	0000009e 	muleq	r0, lr, r0
     484:	04200b10 	strteq	r0, [r0], #-2832	; 0xfffff4f0
     488:	38020000 	stmdacc	r2, {}	; <UNPREDICTABLE>
     48c:	0000009e 	muleq	r0, lr, r0
     490:	04e80b14 	strbteq	r0, [r8], #2836	; 0xb14
     494:	39020000 	stmdbcc	r2, {}	; <UNPREDICTABLE>
     498:	0000009e 	muleq	r0, lr, r0
     49c:	04d90b18 	ldrbeq	r0, [r9], #2840	; 0xb18
     4a0:	3a020000 	bcc	804a8 <__first_lvl_tbl_end+0x5f4a8>
     4a4:	0000009e 	muleq	r0, lr, r0
     4a8:	03410b1c 	movteq	r0, #6940	; 0x1b1c
     4ac:	3b020000 	blcc	804b4 <__first_lvl_tbl_end+0x5f4b4>
     4b0:	0000009e 	muleq	r0, lr, r0
     4b4:	043a0b20 	ldrteq	r0, [sl], #-2848	; 0xfffff4e0
     4b8:	3c020000 	stccc	0, cr0, [r2], {-0}
     4bc:	0000009e 	muleq	r0, lr, r0
     4c0:	0c040024 	stceq	0, cr0, [r4], {36}	; 0x24
     4c4:	02000005 	andeq	r0, r0, #5
     4c8:	0001083d 	andeq	r0, r1, sp, lsr r8
     4cc:	05510c00 	ldrbeq	r0, [r1, #-3072]	; 0xfffff400
     4d0:	42020000 	andmi	r0, r2, #0
     4d4:	0000007d 	andeq	r0, r0, sp, ror r0
     4d8:	0001b003 	andeq	fp, r1, r3
     4dc:	65720d00 	ldrbvs	r0, [r2, #-3328]!	; 0xfffff300
     4e0:	44020073 	strmi	r0, [r2], #-115	; 0xffffff8d
     4e4:	0000007d 	andeq	r0, r0, sp, ror r0
     4e8:	04990e00 	ldreq	r0, [r9], #3584	; 0xe00
     4ec:	54020000 	strpl	r0, [r2], #-0
     4f0:	04fa0e03 	ldrbteq	r0, [sl], #3587	; 0xe03
     4f4:	4a020000 	bmi	804fc <__first_lvl_tbl_end+0x5f4fc>
     4f8:	02e70f03 	rsceq	r0, r7, #3, 30
     4fc:	21010000 	mrscs	r0, (UNDEF: 1)
     500:	000001d5 	ldrdeq	r0, [r0], -r5
     504:	000082a0 	andeq	r8, r0, r0, lsr #5
     508:	0000000c 	andeq	r0, r0, ip
     50c:	04069c01 	streq	r9, [r6], #-3073	; 0xfffff3ff
     510:	00000189 	andeq	r0, r0, r9, lsl #3
     514:	00046310 	andeq	r6, r4, r0, lsl r3
     518:	ac2d0100 	stfges	f0, [sp], #-0
     51c:	1c000082 	stcne	0, cr0, [r0], {130}	; 0x82
     520:	01000000 	mrseq	r0, (UNDEF: 0)
     524:	0001fa9c 	muleq	r1, ip, sl
     528:	82c01100 	sbchi	r1, r0, #0, 2
     52c:	058d0000 	streq	r0, [sp]
     530:	10000000 	andne	r0, r0, r0
     534:	000003d0 	ldrdeq	r0, [r0], -r0	; <UNPREDICTABLE>
     538:	82c83a01 	sbchi	r3, r8, #4096	; 0x1000
     53c:	00180000 	andseq	r0, r8, r0
     540:	9c010000 	stcls	0, cr0, [r1], {-0}
     544:	00000219 	andeq	r0, r0, r9, lsl r2
     548:	0082d811 	addeq	sp, r2, r1, lsl r8
     54c:	00058d00 	andeq	r8, r5, r0, lsl #26
     550:	b6100000 	ldrlt	r0, [r0], -r0
     554:	01000003 	tsteq	r0, r3
     558:	0082e047 	addeq	lr, r2, r7, asr #32
     55c:	00001800 	andeq	r1, r0, r0, lsl #16
     560:	389c0100 	ldmcc	ip, {r8}
     564:	11000002 	tstne	r0, r2
     568:	000082f0 	strdeq	r8, [r0], -r0
     56c:	0000058d 	andeq	r0, r0, sp, lsl #11
     570:	03201000 	nopeq	{0}	; <UNPREDICTABLE>
     574:	4c010000 	stcmi	0, cr0, [r1], {-0}
     578:	000082f8 	strdeq	r8, [r0], -r8	; <UNPREDICTABLE>
     57c:	0000001c 	andeq	r0, r0, ip, lsl r0
     580:	02579c01 	subseq	r9, r7, #256	; 0x100
     584:	0c110000 	ldceq	0, cr0, [r1], {-0}
     588:	8d000083 	stchi	0, cr0, [r0, #-524]	; 0xfffffdf4
     58c:	00000005 	andeq	r0, r0, r5
     590:	00056410 	andeq	r6, r5, r0, lsl r4
     594:	14530100 	ldrbne	r0, [r3], #-256	; 0xffffff00
     598:	1c000083 	stcne	0, cr0, [r0], {131}	; 0x83
     59c:	01000000 	mrseq	r0, (UNDEF: 0)
     5a0:	0002769c 	muleq	r2, ip, r6
     5a4:	83281100 			; <UNDEFINED> instruction: 0x83281100
     5a8:	058d0000 	streq	r0, [sp]
     5ac:	10000000 	andne	r0, r0, r0
     5b0:	000003f4 	strdeq	r0, [r0], -r4
     5b4:	83305a01 	teqhi	r0, #4096	; 0x1000
     5b8:	001c0000 	andseq	r0, ip, r0
     5bc:	9c010000 	stcls	0, cr0, [r1], {-0}
     5c0:	00000295 	muleq	r0, r5, r2
     5c4:	00834411 	addeq	r4, r3, r1, lsl r4
     5c8:	00058d00 	andeq	r8, r5, r0, lsl #26
     5cc:	be120000 	cdplt	0, 1, cr0, cr2, cr0, {0}
     5d0:	01000012 	tsteq	r0, r2, lsl r0
     5d4:	00834c6e 	addeq	r4, r3, lr, ror #24
     5d8:	0000e800 	andeq	lr, r0, r0, lsl #16
     5dc:	279c0100 	ldrcs	r0, [ip, r0, lsl #2]
     5e0:	13000003 	movwne	r0, #3
     5e4:	7101006a 	tstvc	r1, sl, rrx
     5e8:	0000007d 	andeq	r0, r0, sp, ror r0
     5ec:	00000076 	andeq	r0, r0, r6, ror r0
     5f0:	0001b814 	andeq	fp, r1, r4, lsl r8
     5f4:	0083cc00 	addeq	ip, r3, r0, lsl #24
     5f8:	00001000 	andeq	r1, r0, r0
     5fc:	ea780100 	b	1e00a04 <__kernel_end+0x1c9ea04>
     600:	15000002 	strne	r0, [r0, #-2]
     604:	00000194 	muleq	r0, r4, r1
     608:	000083cc 	andeq	r8, r0, ip, asr #7
     60c:	00000004 	andeq	r0, r0, r4
     610:	cc164c02 	ldcgt	12, cr4, [r6], {2}
     614:	04000083 	streq	r0, [r0], #-131	; 0xffffff7d
     618:	17000000 	strne	r0, [r0, -r0]
     61c:	000001a4 	andeq	r0, r0, r4, lsr #3
     620:	14000000 	strne	r0, [r0], #-0
     624:	000001b0 			; <UNDEFINED> instruction: 0x000001b0
     628:	000083ec 	andeq	r8, r0, ip, ror #7
     62c:	00000014 	andeq	r0, r0, r4, lsl r0
     630:	031d7a01 	tsteq	sp, #4096	; 0x1000
     634:	94150000 	ldrls	r0, [r5], #-0
     638:	ec000001 	stc	0, cr0, [r0], {1}
     63c:	04000083 	streq	r0, [r0], #-131	; 0xffffff7d
     640:	02000000 	andeq	r0, r0, #0
     644:	83ec1656 	mvnhi	r1, #90177536	; 0x5600000
     648:	00040000 	andeq	r0, r4, r0
     64c:	a4170000 	ldrge	r0, [r7], #-0
     650:	00000001 	andeq	r0, r0, r1
     654:	60110000 	andsvs	r0, r1, r0
     658:	98000083 	stmdals	r0, {r0, r1, r7}
     65c:	00000005 	andeq	r0, r0, r5
     660:	0003a110 	andeq	sl, r3, r0, lsl r1
     664:	34800100 	strcc	r0, [r0], #256	; 0x100
     668:	bc000084 	stclt	0, cr0, [r0], {132}	; 0x84
     66c:	01000000 	mrseq	r0, (UNDEF: 0)
     670:	0003759c 	muleq	r3, ip, r5
     674:	040a1800 	streq	r1, [sl], #-2048	; 0xfffff800
     678:	80010000 	andhi	r0, r1, r0
     67c:	000000fd 	strdeq	r0, [r0], -sp
     680:	00000095 	muleq	r0, r5, r0
     684:	0012c219 	andseq	ip, r2, r9, lsl r2
     688:	a3800100 	orrge	r0, r0, #0, 2
     68c:	01000000 	mrseq	r0, (UNDEF: 0)
     690:	120e1951 	andne	r1, lr, #1327104	; 0x144000
     694:	80010000 	andhi	r0, r1, r0
     698:	000000b5 	strheq	r0, [r0], -r5
     69c:	5b1a5201 	blpl	694ea8 <__kernel_end+0x532ea8>
     6a0:	01000004 	tsteq	r0, r4
     6a4:	00009382 	andeq	r9, r0, r2, lsl #7
     6a8:	0000c100 	andeq	ip, r0, r0, lsl #2
     6ac:	9f100000 	svcls	0x00100000
     6b0:	01000003 	tsteq	r0, r3
     6b4:	0084f09d 	umulleq	pc, r4, sp, r0	; <UNPREDICTABLE>
     6b8:	0000c800 	andeq	ip, r0, r0, lsl #16
     6bc:	a99c0100 	ldmibge	ip, {r8}
     6c0:	18000003 	stmdane	r0, {r0, r1}
     6c4:	0000040a 	andeq	r0, r0, sl, lsl #8
     6c8:	00fd9d01 	rscseq	r9, sp, r1, lsl #26
     6cc:	010f0000 	mrseq	r0, CPSR
     6d0:	5b1a0000 	blpl	6806d8 <__kernel_end+0x51e6d8>
     6d4:	01000004 	tsteq	r0, r4
     6d8:	0000939f 	muleq	r0, pc, r3	; <UNPREDICTABLE>
     6dc:	00013b00 	andeq	r3, r1, r0, lsl #22
     6e0:	ed1b0000 	ldc	0, cr0, [fp, #-0]
     6e4:	01000003 	tsteq	r0, r3
     6e8:	00040dbc 			; <UNDEFINED> instruction: 0x00040dbc
     6ec:	0085b800 	addeq	fp, r5, r0, lsl #16
     6f0:	00002400 	andeq	r2, r0, r0, lsl #8
     6f4:	0d9c0100 	ldfeqs	f0, [ip]
     6f8:	1c000004 	stcne	0, cr0, [r0], {4}
     6fc:	bc010073 	stclt	0, cr0, [r1], {115}	; 0x73
     700:	0000040d 	andeq	r0, r0, sp, lsl #8
     704:	631d5001 	tstvs	sp, #1
     708:	7dbc0100 	ldfvcs	f0, [ip]
     70c:	89000000 	stmdbhi	r0, {}	; <UNPREDICTABLE>
     710:	1d000001 	stcne	0, cr0, [r0, #-4]
     714:	bc01006e 	stclt	0, cr0, [r1], {110}	; 0x6e
     718:	0000006b 	andeq	r0, r0, fp, rrx
     71c:	000001aa 	andeq	r0, r0, sl, lsr #3
     720:	0100701e 	tsteq	r0, lr, lsl r0
     724:	00040fbe 			; <UNDEFINED> instruction: 0x00040fbe
     728:	1f500100 	svcne	0x00500100
     72c:	00000456 	andeq	r0, r0, r6, asr r4
     730:	0088bf01 	addeq	fp, r8, r1, lsl #30
     734:	51010000 	mrspl	r0, (UNDEF: 1)
     738:	01006913 	tsteq	r0, r3, lsl r9
     73c:	00006bc0 	andeq	r6, r0, r0, asr #23
     740:	0001cb00 	andeq	ip, r1, r0, lsl #22
     744:	04200000 	strteq	r0, [r0], #-0
     748:	00880406 	addeq	r0, r8, r6, lsl #8
     74c:	60100000 	andsvs	r0, r0, r0
     750:	01000003 	tsteq	r0, r3
     754:	0085dcc9 	addeq	sp, r5, r9, asr #25
     758:	00000c00 	andeq	r0, r0, r0, lsl #24
     75c:	629c0100 	addsvs	r0, ip, #0, 2
     760:	1d000004 	stcne	0, cr0, [r0, #-16]
     764:	c9010073 	stmdbgt	r1, {r0, r1, r4, r5, r6}
     768:	0000040d 	andeq	r0, r0, sp, lsl #8
     76c:	000001df 	ldrdeq	r0, [r0], -pc	; <UNPREDICTABLE>
     770:	01006e1d 	tsteq	r0, sp, lsl lr
     774:	00006bc9 	andeq	r6, r0, r9, asr #23
     778:	00020000 	andeq	r0, r2, r0
     77c:	85e82100 	strbhi	r2, [r8, #256]!	; 0x100
     780:	03a90000 			; <UNDEFINED> instruction: 0x03a90000
     784:	01220000 			; <UNDEFINED> instruction: 0x01220000
     788:	01f30350 	mvnseq	r0, r0, asr r3
     78c:	51012250 	tstpl	r1, r0, asr r2
     790:	01223001 			; <UNDEFINED> instruction: 0x01223001
     794:	01f30352 	mvnseq	r0, r2, asr r3
     798:	10000051 	andne	r0, r0, r1, asr r0
     79c:	0000052b 	andeq	r0, r0, fp, lsr #10
     7a0:	85e85f01 	strbhi	r5, [r8, #3841]!	; 0xf01
     7a4:	00680000 	rsbeq	r0, r8, r0
     7a8:	9c010000 	stcls	0, cr0, [r1], {-0}
     7ac:	0000051a 	andeq	r0, r0, sl, lsl r5
     7b0:	0001b014 	andeq	fp, r1, r4, lsl r0
     7b4:	0085f000 	addeq	pc, r5, r0
     7b8:	00001000 	andeq	r1, r0, r0
     7bc:	aa620100 	bge	1880bc4 <__kernel_end+0x171ebc4>
     7c0:	15000004 	strne	r0, [r0, #-4]
     7c4:	00000194 	muleq	r0, r4, r1
     7c8:	000085f0 	strdeq	r8, [r0], -r0
     7cc:	00000004 	andeq	r0, r0, r4
     7d0:	f0165602 			; <UNDEFINED> instruction: 0xf0165602
     7d4:	04000085 	streq	r0, [r0], #-133	; 0xffffff7b
     7d8:	17000000 	strne	r0, [r0, -r0]
     7dc:	000001a4 	andeq	r0, r0, r4, lsr #3
     7e0:	14000000 	strne	r0, [r0], #-0
     7e4:	000001b8 			; <UNDEFINED> instruction: 0x000001b8
     7e8:	00008638 	andeq	r8, r0, r8, lsr r6
     7ec:	00000018 	andeq	r0, r0, r8, lsl r0
     7f0:	04dd6801 	ldrbeq	r6, [sp], #2049	; 0x801
     7f4:	94150000 	ldrls	r0, [r5], #-0
     7f8:	38000001 	stmdacc	r0, {r0}
     7fc:	04000086 	streq	r0, [r0], #-134	; 0xffffff7a
     800:	02000000 	andeq	r0, r0, #0
     804:	8638164c 	ldrthi	r1, [r8], -ip, asr #12
     808:	00040000 	andeq	r0, r4, r0
     80c:	a4170000 	ldrge	r0, [r7], #-0
     810:	00000001 	andeq	r0, r0, r1
     814:	f0110000 			; <UNDEFINED> instruction: 0xf0110000
     818:	a3000085 	movwge	r0, #133	; 0x85
     81c:	23000005 	movwcs	r0, #5
     820:	00008614 	andeq	r8, r0, r4, lsl r6
     824:	00000415 	andeq	r0, r0, r5, lsl r4
     828:	00000501 	andeq	r0, r0, r1, lsl #10
     82c:	02500122 	subseq	r0, r0, #-2147483640	; 0x80000008
     830:	01220074 			; <UNDEFINED> instruction: 0x01220074
     834:	200a0351 	andcs	r0, sl, r1, asr r3
     838:	20240001 	eorcs	r0, r4, r1
     83c:	15000086 	strne	r0, [r0, #-134]	; 0xffffff7a
     840:	22000004 	andcs	r0, r0, #4
     844:	74035001 	strvc	r5, [r3], #-1
     848:	012202a0 	smulwbeq	r2, r0, r2
     84c:	200a0351 	andcs	r0, sl, r1, asr r3
     850:	25000001 	strcs	r0, [r0, #-1]
     854:	0000038e 	andeq	r0, r0, lr, lsl #7
     858:	05291401 	streq	r1, [r9, #-1025]!	; 0xfffffbff
     85c:	b2000000 	andlt	r0, r0, #0
     860:	d5263f00 	strle	r3, [r6, #-3840]!	; 0xfffff100
     864:	27000001 	strcs	r0, [r0, -r1]
     868:	000000a3 	andeq	r0, r0, r3, lsr #1
     86c:	0000053e 	andeq	r0, r0, lr, lsr r5
     870:	00053e28 	andeq	r3, r5, r8, lsr #28
     874:	02004700 	andeq	r4, r0, #0, 14
     878:	03570704 	cmpeq	r7, #4, 14	; 0x100000
     87c:	4d1f0000 	ldcmi	0, cr0, [pc, #-0]	; 884 <SCTLR_ENABLE_BRANCH_PREDICTION+0x84>
     880:	01000004 	tsteq	r0, r4
     884:	00052e17 	andeq	r2, r5, r7, lsl lr
     888:	00030500 	andeq	r0, r3, r0, lsl #10
     88c:	270000d0 			; <UNDEFINED> instruction: 0x270000d0
     890:	000000b5 	strheq	r0, [r0], -r5
     894:	00000566 	andeq	r0, r0, r6, ror #10
     898:	00053e28 	andeq	r3, r5, r8, lsr #28
     89c:	1f004700 	svcne	0x00004700
     8a0:	0000053b 	andeq	r0, r0, fp, lsr r5
     8a4:	05561801 	ldrbeq	r1, [r6, #-2049]	; 0xfffff7ff
     8a8:	03050000 	movweq	r0, #20480	; 0x5000
     8ac:	0000d120 	andeq	sp, r0, r0, lsr #2
     8b0:	00033629 	andeq	r3, r3, r9, lsr #12
     8b4:	881a0100 	ldmdahi	sl, {r8}
     8b8:	05000005 	streq	r0, [r0, #-5]
     8bc:	00d24003 	sbcseq	r4, r2, r3
     8c0:	007d0500 	rsbseq	r0, sp, r0, lsl #10
     8c4:	212a0000 			; <UNDEFINED> instruction: 0x212a0000
     8c8:	21000005 	tstcs	r0, r5
     8cc:	05000005 	streq	r0, [r0, #-5]
     8d0:	04922a2c 	ldreq	r2, [r2], #2604	; 0xa2c
     8d4:	04920000 	ldreq	r0, [r2], #0
     8d8:	0c060000 	stceq	0, cr0, [r6], {-0}
     8dc:	0004c62a 	andeq	ip, r4, sl, lsr #12
     8e0:	0004c600 	andeq	ip, r4, r0, lsl #12
     8e4:	00400200 	subeq	r0, r0, r0, lsl #4
     8e8:	00000212 	andeq	r0, r0, r2, lsl r2
     8ec:	03fc0004 	mvnseq	r0, #4
     8f0:	01040000 	mrseq	r0, (UNDEF: 4)
     8f4:	00000064 	andeq	r0, r0, r4, rrx
     8f8:	0006b40c 	andeq	fp, r6, ip, lsl #8
     8fc:	00011a00 	andeq	r1, r1, r0, lsl #20
     900:	00865000 	addeq	r5, r6, r0
     904:	00006c00 	andeq	r6, r0, r0, lsl #24
     908:	00047c00 	andeq	r7, r4, r0, lsl #24
     90c:	06010200 	streq	r0, [r1], -r0, lsl #4
     910:	0000000d 	andeq	r0, r0, sp
     914:	6b050202 	blvs	141124 <dma_src_page_2+0xf124>
     918:	03000001 	movweq	r0, #1
     91c:	00000176 	andeq	r0, r0, r6, ror r1
     920:	003e2802 	eorseq	r2, lr, r2, lsl #16
     924:	04020000 	streq	r0, [r2], #-0
     928:	00011105 	andeq	r1, r1, r5, lsl #2
     92c:	05080200 	streq	r0, [r8, #-512]	; 0xfffffe00
     930:	0000010c 	andeq	r0, r0, ip, lsl #2
     934:	0b080102 	bleq	200d44 <__kernel_end+0x9ed44>
     938:	02000000 	andeq	r0, r0, #0
     93c:	00190702 	andseq	r0, r9, r2, lsl #14
     940:	75030000 	strvc	r0, [r3, #-0]
     944:	02000001 	andeq	r0, r0, #1
     948:	00006534 	andeq	r6, r0, r4, lsr r5
     94c:	07040200 	streq	r0, [r4, -r0, lsl #4]
     950:	00000052 	andeq	r0, r0, r2, asr r0
     954:	4d070802 	stcmi	8, cr0, [r7, #-8]
     958:	04000000 	streq	r0, [r0], #-0
     95c:	6e690504 	cdpvs	5, 6, cr0, cr9, cr4, {0}
     960:	04020074 	streq	r0, [r2], #-116	; 0xffffff8c
     964:	00005707 	andeq	r5, r0, r7, lsl #14
     968:	005a0500 	subseq	r0, sl, r0, lsl #10
     96c:	01060000 	mrseq	r0, (UNDEF: 6)
     970:	0000004c 	andeq	r0, r0, ip, asr #32
     974:	00cf0d03 	sbceq	r0, pc, r3, lsl #26
     978:	7e070000 	cdpvc	0, 0, cr0, cr7, cr0, {0}
     97c:	00000006 	andeq	r0, r0, r6
     980:	00060a07 	andeq	r0, r6, r7, lsl #20
     984:	6d070100 	stfvss	f0, [r7, #-0]
     988:	02000006 	andeq	r0, r0, #6
     98c:	00062b07 	andeq	r2, r6, r7, lsl #22
     990:	ab070300 	blge	1c1598 <__kernel_end+0x5f598>
     994:	04000006 	streq	r0, [r0], #-6
     998:	0006f007 	andeq	pc, r6, r7
     99c:	35070500 	strcc	r0, [r7, #-1280]	; 0xfffffb00
     9a0:	06000006 	streq	r0, [r0], -r6
     9a4:	0005ff07 	andeq	pc, r5, r7, lsl #30
     9a8:	c2070700 	andgt	r0, r7, #0, 14
     9ac:	08000005 	stmdaeq	r0, {r0, r2}
     9b0:	0006cb07 	andeq	ip, r6, r7, lsl #22
     9b4:	03000900 	movweq	r0, #2304	; 0x900
     9b8:	00000698 	muleq	r0, r8, r6
     9bc:	00861803 	addeq	r1, r6, r3, lsl #16
     9c0:	a2080000 	andge	r0, r8, #0
     9c4:	04000005 	streq	r0, [r0], #-5
     9c8:	0000007a 	andeq	r0, r0, sl, ror r0
     9cc:	01061c03 	tsteq	r6, r3, lsl #24
     9d0:	96090000 	strls	r0, [r9], -r0
     9d4:	00000005 	andeq	r0, r0, r5
     9d8:	09800000 	stmibeq	r0, {}	; <UNPREDICTABLE>
     9dc:	00000645 	andeq	r0, r0, r5, asr #12
     9e0:	40000000 	andmi	r0, r0, r0
     9e4:	00065209 	andeq	r5, r6, r9, lsl #4
     9e8:	0000ff00 	andeq	pc, r0, r0, lsl #30
     9ec:	240a0040 	strcs	r0, [sl], #-64	; 0xffffffc0
     9f0:	01632503 	cmneq	r3, r3, lsl #10
     9f4:	260b0000 	strcs	r0, [fp], -r0
     9f8:	03000006 	movweq	r0, #6
     9fc:	00008127 	andeq	r8, r0, r7, lsr #2
     a00:	fc0b0000 	stc2	0, cr0, [fp], {-0}
     a04:	03000006 	movweq	r0, #6
     a08:	00017a28 	andeq	r7, r1, r8, lsr #20
     a0c:	930b0400 	movwls	r0, #46080	; 0xb400
     a10:	03000006 	movweq	r0, #6
     a14:	00008129 	andeq	r8, r0, r9, lsr #2
     a18:	f80b1000 			; <UNDEFINED> instruction: 0xf80b1000
     a1c:	03000005 	movweq	r0, #5
     a20:	0000812a 	andeq	r8, r0, sl, lsr #2
     a24:	db0b1400 	blle	2c5a2c <__kernel_end+0x163a2c>
     a28:	03000005 	movweq	r0, #5
     a2c:	0000812b 	andeq	r8, r0, fp, lsr #2
     a30:	5f0b1800 	svcpl	0x000b1800
     a34:	03000006 	movweq	r0, #6
     a38:	0000812c 	andeq	r8, r0, ip, lsr #2
     a3c:	ea0b1c00 	b	2c7a44 <__kernel_end+0x165a44>
     a40:	03000006 	movweq	r0, #6
     a44:	0000812d 	andeq	r8, r0, sp, lsr #2
     a48:	0c002000 	stceq	0, cr2, [r0], {-0}
     a4c:	00000081 	andeq	r0, r0, r1, lsl #1
     a50:	00000173 	andeq	r0, r0, r3, ror r1
     a54:	0001730d 	andeq	r7, r1, sp, lsl #6
     a58:	02000200 	andeq	r0, r0, #0, 4
     a5c:	03570704 	cmpeq	r7, #4, 14	; 0x100000
     a60:	63050000 	movwvs	r0, #20480	; 0x5000
     a64:	03000001 	movweq	r0, #1
     a68:	000005ee 	andeq	r0, r0, lr, ror #11
     a6c:	01062e03 	tsteq	r6, r3, lsl #28
     a70:	de0e0000 	cdple	0, 0, cr0, cr14, cr0, {0}
     a74:	01000006 	tsteq	r0, r6
     a78:	0086500a 	addeq	r5, r6, sl
     a7c:	00002c00 	andeq	r2, r0, r0, lsl #24
     a80:	be9c0100 	fmllte	f0, f4, f0
     a84:	0f000001 	svceq	0x00000001
     a88:	000005ba 			; <UNDEFINED> instruction: 0x000005ba
     a8c:	00cf0a01 	sbceq	r0, pc, r1, lsl #20
     a90:	022c0000 	eoreq	r0, ip, #0
     a94:	d50f0000 	strle	r0, [pc, #-0]	; a9c <SCTLR_ENABLE_BRANCH_PREDICTION+0x29c>
     a98:	01000005 	tsteq	r0, r5
     a9c:	0000330a 	andeq	r3, r0, sl, lsl #6
     aa0:	00024d00 	andeq	r4, r2, r0, lsl #26
     aa4:	1a100000 	bne	400aac <__kernel_end+0x29eaac>
     aa8:	01000006 	tsteq	r0, r6
     aac:	0000331d 	andeq	r3, r0, sp, lsl r3
     ab0:	00867c00 	addeq	r7, r6, r0, lsl #24
     ab4:	00004000 	andeq	r4, r0, r0
     ab8:	f69c0100 			; <UNDEFINED> instruction: 0xf69c0100
     abc:	0f000001 	svceq	0x00000001
     ac0:	000005ba 			; <UNDEFINED> instruction: 0x000005ba
     ac4:	00cf1d01 	sbceq	r1, pc, r1, lsl #26
     ac8:	02760000 	rsbseq	r0, r6, #0
     acc:	d5110000 	ldrle	r0, [r1, #-0]
     ad0:	01000005 	tsteq	r0, r5
     ad4:	00003321 	andeq	r3, r0, r1, lsr #6
     ad8:	0002b000 	andeq	fp, r2, r0
     adc:	e2120000 	ands	r0, r2, #0
     ae0:	01000005 	tsteq	r0, r5
     ae4:	00021008 	andeq	r1, r2, r8
     ae8:	00b88000 	adcseq	r8, r8, r0
     aec:	0b04133f 	bleq	1057f0 <__first_lvl_tbl_end+0xe47f0>
     af0:	05000002 	streq	r0, [r0, #-2]
     af4:	0000017f 	andeq	r0, r0, pc, ror r1
     af8:	00020514 	andeq	r0, r2, r4, lsl r5
     afc:	057a0000 	ldrbeq	r0, [sl, #-0]!
     b00:	00040000 	andeq	r0, r4, r0
     b04:	0000050d 	andeq	r0, r0, sp, lsl #10
     b08:	00640104 	rsbeq	r0, r4, r4, lsl #2
     b0c:	7a0c0000 	bvc	300b14 <__kernel_end+0x19eb14>
     b10:	1a00000c 	bne	b48 <SCTLR_ENABLE_BRANCH_PREDICTION+0x348>
     b14:	bc000001 	stclt	0, cr0, [r0], {1}
     b18:	d0000086 	andle	r0, r0, r6, lsl #1
     b1c:	54000005 	strpl	r0, [r0], #-5
     b20:	02000005 	andeq	r0, r0, #5
     b24:	00000a1e 	andeq	r0, r0, lr, lsl sl
     b28:	00302802 	eorseq	r2, r0, r2, lsl #16
     b2c:	6a030000 	bvs	c0b34 <__first_lvl_tbl_end+0x9fb34>
     b30:	04000008 	streq	r0, [r0], #-8
     b34:	00470007 	subeq	r0, r7, r7
     b38:	12040000 	andne	r0, r4, #0
     b3c:	4700000c 	strmi	r0, [r0, -ip]
     b40:	00000000 	andeq	r0, r0, r0
     b44:	02040500 	andeq	r0, r4, #0, 10
     b48:	0000086c 	andeq	r0, r0, ip, ror #16
     b4c:	00256202 	eoreq	r6, r5, r2, lsl #4
     b50:	01060000 	mrseq	r0, (UNDEF: 6)
     b54:	00000d06 	andeq	r0, r0, r6, lsl #26
     b58:	05020600 	streq	r0, [r2, #-1536]	; 0xfffffa00
     b5c:	0000016b 	andeq	r0, r0, fp, ror #2
     b60:	00017602 	andeq	r7, r1, r2, lsl #12
     b64:	6d280300 	stcvs	3, cr0, [r8, #-0]
     b68:	06000000 	streq	r0, [r0], -r0
     b6c:	01110504 	tsteq	r1, r4, lsl #10
     b70:	08060000 	stmdaeq	r6, {}	; <UNPREDICTABLE>
     b74:	00010c05 	andeq	r0, r1, r5, lsl #24
     b78:	03720200 	cmneq	r2, #0, 4
     b7c:	2e030000 	cdpcs	0, 0, cr0, cr3, cr0, {0}
     b80:	00000086 	andeq	r0, r0, r6, lsl #1
     b84:	0b080106 	bleq	200fa4 <__kernel_end+0x9efa4>
     b88:	06000000 	streq	r0, [r0], -r0
     b8c:	00190702 	andseq	r0, r9, r2, lsl #14
     b90:	75020000 	strvc	r0, [r2, #-0]
     b94:	03000001 	movweq	r0, #1
     b98:	00009f34 	andeq	r9, r0, r4, lsr pc
     b9c:	07040600 	streq	r0, [r4, -r0, lsl #12]
     ba0:	00000052 	andeq	r0, r0, r2, asr r0
     ba4:	4d070806 	stcmi	8, cr0, [r7, #-24]	; 0xffffffe8
     ba8:	07000000 	streq	r0, [r0, -r0]
     bac:	6e690504 	cdpvs	5, 6, cr0, cr9, cr4, {0}
     bb0:	04060074 	streq	r0, [r6], #-116	; 0xffffff8c
     bb4:	00005707 	andeq	r5, r0, r7, lsl #14
     bb8:	86010800 	strhi	r0, [r1], -r0, lsl #16
     bbc:	04000000 	streq	r0, [r0], #-0
     bc0:	0001040d 	andeq	r0, r1, sp, lsl #8
     bc4:	067e0900 	ldrbteq	r0, [lr], -r0, lsl #18
     bc8:	09000000 	stmdbeq	r0, {}	; <UNPREDICTABLE>
     bcc:	0000060a 	andeq	r0, r0, sl, lsl #12
     bd0:	066d0901 	strbteq	r0, [sp], -r1, lsl #18
     bd4:	09020000 	stmdbeq	r2, {}	; <UNPREDICTABLE>
     bd8:	0000062b 	andeq	r0, r0, fp, lsr #12
     bdc:	06ab0903 	strteq	r0, [fp], r3, lsl #18
     be0:	09040000 	stmdbeq	r4, {}	; <UNPREDICTABLE>
     be4:	000006f0 	strdeq	r0, [r0], -r0	; <UNPREDICTABLE>
     be8:	06350905 	ldrteq	r0, [r5], -r5, lsl #18
     bec:	09060000 	stmdbeq	r6, {}	; <UNPREDICTABLE>
     bf0:	000005ff 	strdeq	r0, [r0], -pc	; <UNPREDICTABLE>
     bf4:	05c20907 	strbeq	r0, [r2, #2311]	; 0x907
     bf8:	09080000 	stmdbeq	r8, {}	; <UNPREDICTABLE>
     bfc:	000006cb 	andeq	r0, r0, fp, asr #13
     c00:	04060009 	streq	r0, [r6], #-9
     c04:	00035707 	andeq	r5, r3, r7, lsl #14
     c08:	b4040800 	strlt	r0, [r4], #-2048	; 0xfffff800
     c0c:	05000000 	streq	r0, [r0, #-0]
     c10:	0003510d 	andeq	r5, r3, sp, lsl #2
     c14:	0adc0900 	beq	ff70301c <__kernel_end+0xff5a101c>
     c18:	0a010000 	beq	40c20 <__first_lvl_tbl_end+0x1fc20>
     c1c:	00000ac8 	andeq	r0, r0, r8, asr #21
     c20:	00010001 	andeq	r0, r1, r1
     c24:	00073d0a 	andeq	r3, r7, sl, lsl #26
     c28:	01000200 	mrseq	r0, R8_usr
     c2c:	0cad0a00 	vstmiaeq	sp!, {s0-s-1}
     c30:	00030000 	andeq	r0, r3, r0
     c34:	280a0001 	stmdacs	sl, {r0}
     c38:	04000007 	streq	r0, [r0], #-7
     c3c:	0a000100 	beq	1044 <SCTLR_ENABLE_INSTRUCTION_CACHE+0x44>
     c40:	00000970 	andeq	r0, r0, r0, ror r9
     c44:	00010005 	andeq	r0, r1, r5
     c48:	00081d0a 	andeq	r1, r8, sl, lsl #26
     c4c:	01000600 	tsteq	r0, r0, lsl #12
     c50:	0beb0a00 	bleq	ffac3458 <__kernel_end+0xff961458>
     c54:	00070000 	andeq	r0, r7, r0
     c58:	b30a0001 	movwlt	r0, #40961	; 0xa001
     c5c:	0100000a 	tsteq	r0, sl
     c60:	0a000500 	beq	2068 <SCTLR_ENABLE_INSTRUCTION_CACHE+0x1068>
     c64:	00000cd5 	ldrdeq	r0, [r0], -r5
     c68:	00060001 	andeq	r0, r6, r1
     c6c:	000d0d0a 	andeq	r0, sp, sl, lsl #26
     c70:	02000100 	andeq	r0, r0, #0, 2
     c74:	0d280a00 	vstmdbeq	r8!, {s0-s-1}
     c78:	00020000 	andeq	r0, r2, r0
     c7c:	b90a0002 	stmdblt	sl, {r1}
     c80:	01000009 	tsteq	r0, r9
     c84:	0a000280 	beq	168c <SCTLR_ENABLE_INSTRUCTION_CACHE+0x68c>
     c88:	00000b74 	andeq	r0, r0, r4, ror fp
     c8c:	00030001 	andeq	r0, r3, r1
     c90:	0008410a 	andeq	r4, r8, sl, lsl #2
     c94:	03800100 	orreq	r0, r0, #0, 2
     c98:	07ec0a00 	strbeq	r0, [ip, r0, lsl #20]!
     c9c:	00020000 	andeq	r0, r2, r0
     ca0:	610a0003 	tstvs	sl, r3
     ca4:	0200000b 	andeq	r0, r0, #11
     ca8:	0a000380 	beq	1ab0 <SCTLR_ENABLE_INSTRUCTION_CACHE+0xab0>
     cac:	000008af 	andeq	r0, r0, pc, lsr #17
     cb0:	00030004 	andeq	r0, r3, r4
     cb4:	0007540a 	andeq	r5, r7, sl, lsl #8
     cb8:	03000700 	movweq	r0, #1792	; 0x700
     cbc:	0cc70a00 	vstmiaeq	r7, {s1-s0}
     cc0:	00090000 	andeq	r0, r9, r0
     cc4:	880a0003 	stmdahi	sl, {r0, r1}
     cc8:	0900000b 	stmdbeq	r0, {r0, r1, r3}
     ccc:	0a000380 	beq	1ad4 <SCTLR_ENABLE_INSTRUCTION_CACHE+0xad4>
     cd0:	00000a43 	andeq	r0, r0, r3, asr #20
     cd4:	00030003 	andeq	r0, r3, r3
     cd8:	0007dc0a 	andeq	sp, r7, sl, lsl #24
     cdc:	03800300 	orreq	r0, r0, #0, 6
     ce0:	0b4d0a00 	bleq	13434e8 <__kernel_end+0x11e14e8>
     ce4:	00050000 	andeq	r0, r5, r0
     ce8:	d70a0003 	strle	r0, [sl, -r3]
     cec:	0800000b 	stmdaeq	r0, {r0, r1, r3}
     cf0:	0a000300 	beq	18f8 <SCTLR_ENABLE_INSTRUCTION_CACHE+0x8f8>
     cf4:	000007b5 			; <UNDEFINED> instruction: 0x000007b5
     cf8:	00030006 	andeq	r0, r3, r6
     cfc:	000aff0a 	andeq	pc, sl, sl, lsl #30
     d00:	03000a00 	movweq	r0, #2560	; 0xa00
     d04:	0b390a00 	bleq	e4350c <__kernel_end+0xce150c>
     d08:	000c0000 	andeq	r0, ip, r0
     d0c:	cd0a0003 	stcgt	0, cr0, [sl, #-12]
     d10:	0d000009 	stceq	0, cr0, [r0, #-36]	; 0xffffffdc
     d14:	0a000300 	beq	191c <SCTLR_ENABLE_INSTRUCTION_CACHE+0x91c>
     d18:	00000c9b 	muleq	r0, fp, ip
     d1c:	0003000e 	andeq	r0, r3, lr
     d20:	0009a60a 	andeq	sl, r9, sl, lsl #12
     d24:	03000f00 	movweq	r0, #3840	; 0xf00
     d28:	0a7c0a00 	beq	1f03530 <__kernel_end+0x1da1530>
     d2c:	00100000 	andseq	r0, r0, r0
     d30:	550a0003 	strpl	r0, [sl, #-3]
     d34:	1400000c 	strne	r0, [r0], #-12
     d38:	0a000300 	beq	1940 <SCTLR_ENABLE_INSTRUCTION_CACHE+0x940>
     d3c:	0000089c 	muleq	r0, ip, r8
     d40:	00030020 	andeq	r0, r3, r0, lsr #32
     d44:	000a0a0a 	andeq	r0, sl, sl, lsl #20
     d48:	04000100 	streq	r0, [r0], #-256	; 0xffffff00
     d4c:	07c90a00 	strbeq	r0, [r9, r0, lsl #20]
     d50:	80010000 	andhi	r0, r1, r0
     d54:	060a0004 	streq	r0, [sl], -r4
     d58:	02000007 	andeq	r0, r0, #7
     d5c:	0a000400 	beq	1d64 <SCTLR_ENABLE_INSTRUCTION_CACHE+0xd64>
     d60:	0000079a 	muleq	r0, sl, r7
     d64:	00040003 	andeq	r0, r4, r3
     d68:	000cf60a 	andeq	pc, ip, sl, lsl #12
     d6c:	04400300 	strbeq	r0, [r0], #-768	; 0xfffffd00
     d70:	0a2d0a00 	beq	b43578 <__kernel_end+0x9e1578>
     d74:	80030000 	andhi	r0, r3, r0
     d78:	910a0004 	tstls	sl, r4
     d7c:	04000009 	streq	r0, [r0], #-9
     d80:	0a000400 	beq	1d88 <SCTLR_ENABLE_INSTRUCTION_CACHE+0xd88>
     d84:	00000c20 	andeq	r0, r0, r0, lsr #24
     d88:	00044004 	andeq	r4, r4, r4
     d8c:	000a530a 	andeq	r5, sl, sl, lsl #6
     d90:	04800400 	streq	r0, [r0], #1024	; 0x400
     d94:	09830a00 	stmibeq	r3, {r9, fp}
     d98:	00050000 	andeq	r0, r5, r0
     d9c:	460a0004 	strmi	r0, [sl], -r4
     da0:	0500000c 	streq	r0, [r0, #-12]
     da4:	0a000440 	beq	1eac <SCTLR_ENABLE_INSTRUCTION_CACHE+0xeac>
     da8:	000007ff 	strdeq	r0, [r0], -pc	; <UNPREDICTABLE>
     dac:	00048005 	andeq	r8, r4, r5
     db0:	0008880a 	andeq	r8, r8, sl, lsl #16
     db4:	04000600 	streq	r0, [r0], #-1536	; 0xfffffa00
     db8:	08550a00 	ldmdaeq	r5, {r9, fp}^
     dbc:	40060000 	andmi	r0, r6, r0
     dc0:	250a0004 	strcs	r0, [sl, #-4]
     dc4:	0600000b 	streq	r0, [r0], -fp
     dc8:	0a000480 	beq	1fd0 <SCTLR_ENABLE_INSTRUCTION_CACHE+0xfd0>
     dcc:	000009e9 	andeq	r0, r0, r9, ror #19
     dd0:	00040007 	andeq	r0, r4, r7
     dd4:	0008c60a 	andeq	ip, r8, sl, lsl #12
     dd8:	04400700 	strbeq	r0, [r0], #-1792	; 0xfffff900
     ddc:	0baf0a00 	bleq	febc35e4 <__kernel_end+0xfea615e4>
     de0:	80070000 	andhi	r0, r7, r0
     de4:	fc0a0004 	stc2	0, cr0, [sl], {4}
     de8:	08000009 	stmdaeq	r0, {r0, r3}
     dec:	0a000400 	beq	1df4 <SCTLR_ENABLE_INSTRUCTION_CACHE+0xdf4>
     df0:	00000959 	andeq	r0, r0, r9, asr r9
     df4:	00040009 	andeq	r0, r4, r9
     df8:	00076b0a 	andeq	r6, r7, sl, lsl #22
     dfc:	04400900 	strbeq	r0, [r0], #-2304	; 0xfffff700
     e00:	07830a00 	streq	r0, [r3, r0, lsl #20]
     e04:	80090000 	andhi	r0, r9, r0
     e08:	170a0004 	strne	r0, [sl, -r4]
     e0c:	0a000007 	beq	e30 <SCTLR_ENABLE_BRANCH_PREDICTION+0x630>
     e10:	0a000400 	beq	1e18 <SCTLR_ENABLE_INSTRUCTION_CACHE+0xe18>
     e14:	00000947 	andeq	r0, r0, r7, asr #18
     e18:	0004400a 	andeq	r4, r4, sl
     e1c:	000bfa0a 	andeq	pc, fp, sl, lsl #20
     e20:	04800a00 	streq	r0, [r0], #2560	; 0xa00
     e24:	080d0a00 	stmdaeq	sp, {r9, fp}
     e28:	000b0000 	andeq	r0, fp, r0
     e2c:	f40a0004 	vst4.8	{d0-d3}, [sl], r4
     e30:	0b000008 	bleq	e58 <SCTLR_ENABLE_BRANCH_PREDICTION+0x658>
     e34:	0a000440 	beq	1f3c <SCTLR_ENABLE_INSTRUCTION_CACHE+0xf3c>
     e38:	00000b9f 	muleq	r0, pc, fp	; <UNPREDICTABLE>
     e3c:	0004800b 	andeq	r8, r4, fp
     e40:	0008740b 	andeq	r7, r8, fp, lsl #8
     e44:	0b801100 	bleq	fe00524c <__kernel_end+0xfdea324c>
     e48:	00000bc2 	andeq	r0, r0, r2, asr #23
     e4c:	02008010 	andeq	r8, r0, #16
     e50:	00000a8d 	andeq	r0, r0, sp, lsl #21
     e54:	010b5e05 	tsteq	fp, r5, lsl #28
     e58:	01080000 	mrseq	r0, (UNDEF: 8)
     e5c:	00000086 	andeq	r0, r0, r6, lsl #1
     e60:	03756705 	cmneq	r5, #1310720	; 0x140000
     e64:	eb090000 	bl	240e6c <__kernel_end+0xdee6c>
     e68:	00000008 	andeq	r0, r0, r8
     e6c:	00092f09 	andeq	r2, r9, r9, lsl #30
     e70:	08000100 	stmdaeq	r0, {r8}
     e74:	00008601 	andeq	r8, r0, r1, lsl #12
     e78:	9a6d0500 	bls	1b42280 <__kernel_end+0x19e0280>
     e7c:	09000003 	stmdbeq	r0, {r0, r1}
     e80:	00000aaa 	andeq	r0, r0, sl, lsr #21
     e84:	0b170900 	bleq	5c328c <__kernel_end+0x46128c>
     e88:	09010000 	stmdbeq	r1, {}	; <UNPREDICTABLE>
     e8c:	00000cea 	andeq	r0, r0, sl, ror #25
     e90:	0b960902 	bleq	fe5832a0 <__kernel_end+0xfe4212a0>
     e94:	00030000 	andeq	r0, r3, r0
     e98:	0501000c 	streq	r0, [r1, #-12]
     e9c:	0003c578 	andeq	ip, r3, r8, ror r5
     ea0:	0c170d00 	ldceq	13, cr0, [r7], {-0}
     ea4:	79050000 	stmdbvc	r5, {}	; <UNPREDICTABLE>
     ea8:	00000062 	andeq	r0, r0, r2, rrx
     eac:	00082f0d 	andeq	r2, r8, sp, lsl #30
     eb0:	c57a0500 	ldrbgt	r0, [sl, #-1280]!	; 0xfffffb00
     eb4:	0d000003 	stceq	0, cr0, [r0, #-12]
     eb8:	00000af5 	strdeq	r0, [r0], -r5
     ebc:	03d57b05 	bicseq	r7, r5, #5120	; 0x1400
     ec0:	0e000000 	cdpeq	0, 0, cr0, cr0, cr0, {0}
     ec4:	0000007b 	andeq	r0, r0, fp, ror r0
     ec8:	000003d5 	ldrdeq	r0, [r0], -r5
     ecc:	0001040f 	andeq	r0, r1, pc, lsl #8
     ed0:	0e00ff00 	cdpeq	15, 0, cr15, cr0, cr0, {0}
     ed4:	00000062 	andeq	r0, r0, r2, rrx
     ed8:	000003e5 	andeq	r0, r0, r5, ror #7
     edc:	0001040f 	andeq	r0, r1, pc, lsl #8
     ee0:	10003f00 	andne	r3, r0, r0, lsl #30
     ee4:	74050108 	strvc	r0, [r5], #-264	; 0xfffffef8
     ee8:	00000413 	andeq	r0, r0, r3, lsl r4
     eec:	67617411 			; <UNDEFINED> instruction: 0x67617411
     ef0:	62760500 	rsbsvs	r0, r6, #0, 10
     ef4:	00000000 	andeq	r0, r0, r0
     ef8:	0009dd12 	andeq	sp, r9, r2, lsl sp
     efc:	62770500 	rsbsvs	r0, r7, #0, 10
     f00:	04000000 	streq	r0, [r0], #-0
     f04:	0007b012 	andeq	fp, r7, r2, lsl r0
     f08:	9a7c0500 	bls	1f02310 <__kernel_end+0x1da0310>
     f0c:	08000003 	stmdaeq	r0, {r0, r1}
     f10:	09180200 	ldmdbeq	r8, {r9}
     f14:	7d050000 	stcvc	0, cr0, [r5, #-0]
     f18:	000003e5 	andeq	r0, r0, r5, ror #7
     f1c:	2e040806 	cdpcs	8, 0, cr0, cr4, cr6, {0}
     f20:	06000004 	streq	r0, [r0], -r4
     f24:	00140801 	andseq	r0, r4, r1, lsl #16
     f28:	da130000 	ble	4c0f30 <__kernel_end+0x35ef30>
     f2c:	01000008 	tsteq	r0, r8
     f30:	0086bc18 	addeq	fp, r6, r8, lsl ip
     f34:	00003800 	andeq	r3, r0, r0, lsl #16
     f38:	149c0100 	ldrne	r0, [ip], #256	; 0x100
     f3c:	00000905 	andeq	r0, r0, r5, lsl #18
     f40:	86f42b01 	ldrbthi	r2, [r4], r1, lsl #22
     f44:	04a00000 	strteq	r0, [r0], #0
     f48:	9c010000 	stcls	0, cr0, [r1], {-0}
     f4c:	0000046f 	andeq	r0, r0, pc, ror #8
     f50:	67617415 			; <UNDEFINED> instruction: 0x67617415
     f54:	512b0100 			; <UNDEFINED> instruction: 0x512b0100
     f58:	02000003 	andeq	r0, r0, #3
     f5c:	17167091 			; <UNDEFINED> instruction: 0x17167091
     f60:	01006c76 	tsteq	r0, r6, ror ip
     f64:	0000492d 	andeq	r4, r0, sp, lsr #18
     f68:	54910200 	ldrpl	r0, [r1], #512	; 0x200
     f6c:	0a681800 	beq	1a06f74 <__kernel_end+0x18a4f74>
     f70:	b3010000 	movwlt	r0, #4096	; 0x1000
     f74:	00000062 	andeq	r0, r0, r2, rrx
     f78:	00008b94 	muleq	r0, r4, fp
     f7c:	0000004c 	andeq	r0, r0, ip, asr #32
     f80:	04b69c01 	ldrteq	r9, [r6], #3073	; 0xc01
     f84:	21190000 	tstcs	r9, r0
     f88:	0100000d 	tsteq	r0, sp
     f8c:	000062b5 			; <UNDEFINED> instruction: 0x000062b5
     f90:	8bcc1a00 	blhi	ff307798 <__kernel_end+0xff1a5798>
     f94:	055c0000 	ldrbeq	r0, [ip, #-0]
     f98:	04a60000 	strteq	r0, [r6], #0
     f9c:	011b0000 	tsteq	fp, r0
     fa0:	00380150 	eorseq	r0, r8, r0, asr r1
     fa4:	008bd81c 	addeq	sp, fp, ip, lsl r8
     fa8:	00056700 	andeq	r6, r5, r0, lsl #14
     fac:	50011b00 	andpl	r1, r1, r0, lsl #22
     fb0:	00003801 	andeq	r3, r0, r1, lsl #16
     fb4:	000c3618 	andeq	r3, ip, r8, lsl r6
     fb8:	1ec00100 	polnes	f0, f0, f0
     fbc:	e0000005 	and	r0, r0, r5
     fc0:	ac00008b 	stcge	0, cr0, [r0], {139}	; 0x8b
     fc4:	01000000 	mrseq	r0, (UNDEF: 0)
     fc8:	00051e9c 	muleq	r5, ip, lr
     fcc:	61741d00 	cmnvs	r4, r0, lsl #26
     fd0:	c0010067 	andgt	r0, r1, r7, rrx
     fd4:	00000351 	andeq	r0, r0, r1, asr r3
     fd8:	000002dd 	ldrdeq	r0, [r0], -sp
     fdc:	0008381e 	andeq	r3, r8, lr, lsl r8
     fe0:	13c20100 	bicne	r0, r2, #0, 2
     fe4:	05000004 	streq	r0, [r0, #-4]
     fe8:	01525403 	cmpeq	r2, r3, lsl #8
     fec:	0a9f1f00 	beq	fe7c8bf4 <__kernel_end+0xfe666bf4>
     ff0:	c3010000 	movwgt	r0, #4096	; 0x1000
     ff4:	00000524 	andeq	r0, r0, r4, lsr #10
     ff8:	00000327 	andeq	r0, r0, r7, lsr #6
     ffc:	000c741f 	andeq	r7, ip, pc, lsl r4
    1000:	62c80100 	sbcvs	r0, r8, #0, 2
    1004:	46000000 	strmi	r0, [r0], -r0
    1008:	20000003 	andcs	r0, r0, r3
    100c:	00008c74 	andeq	r8, r0, r4, ror ip
    1010:	00000572 	andeq	r0, r0, r2, ror r5
    1014:	0250011b 	subseq	r0, r0, #-1073741818	; 0xc0000006
    1018:	00000874 	andeq	r0, r0, r4, ror r8
    101c:	04130421 	ldreq	r0, [r3], #-1057	; 0xfffffbdf
    1020:	04210000 	strteq	r0, [r1], #-0
    1024:	00000062 	andeq	r0, r0, r2, rrx
    1028:	0000620e 	andeq	r6, r0, lr, lsl #4
    102c:	00053b00 	andeq	r3, r5, r0, lsl #22
    1030:	01042200 	mrseq	r2, R12_usr
    1034:	1fff0000 	svcne	0x00ff0000
    1038:	74701700 	ldrbtvc	r1, [r0], #-1792	; 0xfffff900
    103c:	2a0c0100 	bcs	301444 <__kernel_end+0x19f444>
    1040:	05000005 	streq	r0, [r0, #-5]
    1044:	00d25003 	sbcseq	r5, r2, r3
    1048:	0c711e00 	ldcleq	14, cr1, [r1], #-0
    104c:	0d010000 	stceq	0, cr0, [r1, #-0]
    1050:	00000062 	andeq	r0, r0, r2, rrx
    1054:	52500305 	subspl	r0, r0, #335544320	; 0x14000000
    1058:	de230001 	cdple	0, 2, cr0, cr3, cr1, {0}
    105c:	de000006 	cdple	0, 0, cr0, cr0, cr6, {0}
    1060:	04000006 	streq	r0, [r0], #-6
    1064:	061a2330 			; <UNDEFINED> instruction: 0x061a2330
    1068:	061a0000 	ldreq	r0, [sl], -r0
    106c:	31040000 	mrscc	r0, (UNDEF: 4)
    1070:	000c0b23 	andeq	r0, ip, r3, lsr #22
    1074:	000c0b00 	andeq	r0, ip, r0, lsl #22
    1078:	001b0600 	andseq	r0, fp, r0, lsl #12
    107c:	00000282 	andeq	r0, r0, r2, lsl #5
    1080:	06e80004 	strbteq	r0, [r8], r4
    1084:	01040000 	mrseq	r0, (UNDEF: 4)
    1088:	00000064 	andeq	r0, r0, r4, rrx
    108c:	000ddf0c 	andeq	sp, sp, ip, lsl #30
    1090:	00011a00 	andeq	r1, r1, r0, lsl #20
    1094:	008c8c00 	addeq	r8, ip, r0, lsl #24
    1098:	00013400 	andeq	r3, r1, r0, lsl #8
    109c:	0007bf00 	andeq	fp, r7, r0, lsl #30
    10a0:	06010200 	streq	r0, [r1], -r0, lsl #4
    10a4:	0000000d 	andeq	r0, r0, sp
    10a8:	6b050202 	blvs	1418b8 <dma_src_page_2+0xf8b8>
    10ac:	02000001 	andeq	r0, r0, #1
    10b0:	01110504 	tsteq	r1, r4, lsl #10
    10b4:	08020000 	stmdaeq	r2, {}	; <UNPREDICTABLE>
    10b8:	00010c05 	andeq	r0, r1, r5, lsl #24
    10bc:	03720300 	cmneq	r2, #0, 6
    10c0:	2e020000 	cdpcs	0, 0, cr0, cr2, cr0, {0}
    10c4:	0000004c 	andeq	r0, r0, ip, asr #32
    10c8:	0b080102 	bleq	2014d8 <__kernel_end+0x9f4d8>
    10cc:	02000000 	andeq	r0, r0, #0
    10d0:	00190702 	andseq	r0, r9, r2, lsl #14
    10d4:	75030000 	strvc	r0, [r3, #-0]
    10d8:	02000001 	andeq	r0, r0, #1
    10dc:	00006534 	andeq	r6, r0, r4, lsr r5
    10e0:	07040200 	streq	r0, [r4, -r0, lsl #4]
    10e4:	00000052 	andeq	r0, r0, r2, asr r0
    10e8:	4d070802 	stcmi	8, cr0, [r7, #-8]
    10ec:	04000000 	streq	r0, [r0], #-0
    10f0:	6e690504 	cdpvs	5, 6, cr0, cr9, cr4, {0}
    10f4:	04020074 	streq	r0, [r2], #-116	; 0xffffff8c
    10f8:	00005707 	andeq	r5, r0, r7, lsl #14
    10fc:	005a0500 	subseq	r0, sl, r0, lsl #10
    1100:	04060000 	streq	r0, [r6], #-0
    1104:	00da0f03 	sbcseq	r0, sl, r3, lsl #30
    1108:	65070000 	strvs	r0, [r7, #-0]
    110c:	0300000d 	movweq	r0, #13
    1110:	00004111 	andeq	r4, r0, r1, lsl r1
    1114:	07010100 	streq	r0, [r1, -r0, lsl #2]
    1118:	0e270700 	cdpeq	7, 2, cr0, cr7, cr0, {0}
    111c:	12030000 	andne	r0, r3, #0
    1120:	00000041 	andeq	r0, r0, r1, asr #32
    1124:	00060101 	andeq	r0, r6, r1, lsl #2
    1128:	000db507 	andeq	fp, sp, r7, lsl #10
    112c:	41130300 	tstmi	r3, r0, lsl #6
    1130:	01000000 	mrseq	r0, (UNDEF: 0)
    1134:	07000501 	streq	r0, [r0, -r1, lsl #10]
    1138:	00000dc4 	andeq	r0, r0, r4, asr #27
    113c:	00411403 	subeq	r1, r1, r3, lsl #8
    1140:	01010000 	mrseq	r0, (UNDEF: 1)
    1144:	1e070004 	cdpne	0, 0, cr0, cr7, cr4, {0}
    1148:	0300000e 	movweq	r0, #14
    114c:	00005a15 	andeq	r5, r0, r5, lsl sl
    1150:	001c0400 	andseq	r0, ip, r0, lsl #8
    1154:	0a030000 	beq	c115c <__first_lvl_tbl_end+0xa015c>
    1158:	0300000e 	movweq	r0, #14
    115c:	00008616 	andeq	r8, r0, r6, lsl r6
    1160:	031c0600 	tsteq	ip, #0, 12
    1164:	00014218 	andeq	r4, r1, r8, lsl r2
    1168:	036a0800 	cmneq	sl, #0, 16
    116c:	1a030000 	bne	c1174 <__first_lvl_tbl_end+0xa0174>
    1170:	000000da 	ldrdeq	r0, [r0], -sl
    1174:	0dd30800 	ldcleq	8, cr0, [r3]
    1178:	1b030000 	blne	c1180 <__first_lvl_tbl_end+0xa0180>
    117c:	0000005a 	andeq	r0, r0, sl, asr r0
    1180:	0d900804 	ldceq	8, cr0, [r0, #16]
    1184:	1c030000 	stcne	0, cr0, [r3], {-0}
    1188:	0000005a 	andeq	r0, r0, sl, asr r0
    118c:	0d370808 	ldceq	8, cr0, [r7, #-32]!	; 0xffffffe0
    1190:	1d030000 	stcne	0, cr0, [r3, #-0]
    1194:	0000005a 	andeq	r0, r0, sl, asr r0
    1198:	0d3e080c 	ldceq	8, cr0, [lr, #-48]!	; 0xffffffd0
    119c:	1e030000 	cdpne	0, 0, cr0, cr3, cr0, {0}
    11a0:	0000005a 	andeq	r0, r0, sl, asr r0
    11a4:	0d450810 	stcleq	8, cr0, [r5, #-64]	; 0xffffffc0
    11a8:	1f030000 	svcne	0x00030000
    11ac:	0000005a 	andeq	r0, r0, sl, asr r0
    11b0:	0d4c0814 	stcleq	8, cr0, [ip, #-80]	; 0xffffffb0
    11b4:	20030000 	andcs	r0, r3, r0
    11b8:	0000005a 	andeq	r0, r0, sl, asr r0
    11bc:	f8030018 			; <UNDEFINED> instruction: 0xf8030018
    11c0:	0300000d 	movweq	r0, #13
    11c4:	0000e521 	andeq	lr, r0, r1, lsr #10
    11c8:	4c010900 	stcmi	9, cr0, [r1], {-0}
    11cc:	05000000 	streq	r0, [r0, #-0]
    11d0:	00018a26 	andeq	r8, r1, r6, lsr #20
    11d4:	018a0a00 	orreq	r0, sl, r0, lsl #20
    11d8:	0a010000 	beq	411e0 <__first_lvl_tbl_end+0x201e0>
    11dc:	00000306 	andeq	r0, r0, r6, lsl #6
    11e0:	02930a02 	addseq	r0, r3, #8192	; 0x2000
    11e4:	0a040000 	beq	1011ec <__first_lvl_tbl_end+0xe01ec>
    11e8:	000001c8 	andeq	r0, r0, r8, asr #3
    11ec:	02350a08 	eorseq	r0, r5, #8, 20	; 0x8000
    11f0:	0a100000 	beq	4011f8 <__kernel_end+0x29f1f8>
    11f4:	00000250 	andeq	r0, r0, r0, asr r2
    11f8:	02070a20 	andeq	r0, r7, #32, 20	; 0x20000
    11fc:	0a400000 	beq	1001204 <__kernel_end+0xe9f204>
    1200:	000002ca 	andeq	r0, r0, sl, asr #5
    1204:	9d0b0080 	stcls	0, cr0, [fp, #-512]	; 0xfffffe00
    1208:	0100000d 	tsteq	r0, sp
    120c:	008c8c07 	addeq	r8, ip, r7, lsl #24
    1210:	00002400 	andeq	r2, r0, r0, lsl #8
    1214:	b29c0100 	addslt	r0, ip, #0, 2
    1218:	0c000001 	stceq	0, cr0, [r0], {1}
    121c:	00008c9c 	muleq	r0, ip, ip
    1220:	0000026f 	andeq	r0, r0, pc, ror #4
    1224:	008cac0d 	addeq	sl, ip, sp, lsl #24
    1228:	0001f600 	andeq	pc, r1, r0, lsl #12
    122c:	530b0000 	movwpl	r0, #45056	; 0xb000
    1230:	0100000d 	tsteq	r0, sp
    1234:	008cb00d 	addeq	fp, ip, sp
    1238:	00003000 	andeq	r3, r0, r0
    123c:	d19c0100 	orrsle	r0, ip, r0, lsl #2
    1240:	0d000001 	stceq	0, cr0, [r0, #-4]
    1244:	00008cd8 	ldrdeq	r8, [r0], -r8	; <UNPREDICTABLE>
    1248:	0000026f 	andeq	r0, r0, pc, ror #4
    124c:	01bd0e00 			; <UNDEFINED> instruction: 0x01bd0e00
    1250:	13010000 	movwne	r0, #4096	; 0x1000
    1254:	00008ce0 	andeq	r8, r0, r0, ror #25
    1258:	00000038 	andeq	r0, r0, r8, lsr r0
    125c:	01f69c01 	mvnseq	r9, r1, lsl #24
    1260:	0c0f0000 	stceq	0, cr0, [pc], {-0}
    1264:	7a00008d 	bvc	14a0 <SCTLR_ENABLE_INSTRUCTION_CACHE+0x4a0>
    1268:	10000002 	andne	r0, r0, r2
    126c:	31015001 	tstcc	r1, r1
    1270:	740e0000 	strvc	r0, [lr], #-0
    1274:	0100000d 	tsteq	r0, sp
    1278:	008d1819 	addeq	r1, sp, r9, lsl r8
    127c:	00001c00 	andeq	r1, r0, r0, lsl #24
    1280:	1b9c0100 	blne	fe701688 <__kernel_end+0xfe59f688>
    1284:	11000002 	tstne	r0, r2
    1288:	00000daf 	andeq	r0, r0, pc, lsr #27
    128c:	005a1901 	subseq	r1, sl, r1, lsl #18
    1290:	03700000 	cmneq	r0, #0
    1294:	0e000000 	cdpeq	0, 0, cr0, cr0, cr0, {0}
    1298:	00000d7e 	andeq	r0, r0, lr, ror sp
    129c:	8d341e01 	ldchi	14, cr1, [r4, #-4]!
    12a0:	008c0000 	addeq	r0, ip, r0
    12a4:	9c010000 	stcls	0, cr0, [r1], {-0}
    12a8:	00000258 	andeq	r0, r0, r8, asr r2
    12ac:	000daf12 	andeq	sl, sp, r2, lsl pc
    12b0:	5a1e0100 	bpl	7816b8 <__kernel_end+0x61f6b8>
    12b4:	01000000 	mrseq	r0, (UNDEF: 0)
    12b8:	0df31350 	ldcleq	3, cr1, [r3, #320]!	; 0x140
    12bc:	20010000 	andcs	r0, r1, r0
    12c0:	00000081 	andeq	r0, r0, r1, lsl #1
    12c4:	14749102 	ldrbtne	r9, [r4], #-258	; 0xfffffefe
    12c8:	21010078 	tstcs	r1, r8, ror r0
    12cc:	00000081 	andeq	r0, r0, r1, lsl #1
    12d0:	00709102 	rsbseq	r9, r0, r2, lsl #2
    12d4:	000d8513 	andeq	r8, sp, r3, lsl r5
    12d8:	69050100 	stmdbvs	r5, {r8}
    12dc:	05000002 	streq	r0, [r0, #-2]
    12e0:	01535c03 	cmpeq	r3, r3, lsl #24
    12e4:	42041500 	andmi	r1, r4, #0, 10
    12e8:	16000001 	strne	r0, [r0], -r1
    12ec:	00000521 	andeq	r0, r0, r1, lsr #10
    12f0:	00000521 	andeq	r0, r0, r1, lsr #10
    12f4:	a1162c04 	tstge	r6, r4, lsl #24
    12f8:	a1000003 	tstge	r0, r3
    12fc:	05000003 	streq	r0, [r0, #-3]
    1300:	01e4005d 	mvneq	r0, sp, asr r0
    1304:	00040000 	andeq	r0, r4, r0
    1308:	0000082a 	andeq	r0, r0, sl, lsr #16
    130c:	00640104 	rsbeq	r0, r4, r4, lsl #2
    1310:	830c0000 	movwhi	r0, #49152	; 0xc000
    1314:	1a00000e 	bne	1354 <SCTLR_ENABLE_INSTRUCTION_CACHE+0x354>
    1318:	c0000001 	andgt	r0, r0, r1
    131c:	e400008d 	str	r0, [r0], #-141	; 0xffffff73
    1320:	bf000000 	svclt	0x00000000
    1324:	02000008 	andeq	r0, r0, #8
    1328:	000d0601 	andeq	r0, sp, r1, lsl #12
    132c:	02020000 	andeq	r0, r2, #0
    1330:	00016b05 	andeq	r6, r1, r5, lsl #22
    1334:	05040200 	streq	r0, [r4, #-512]	; 0xfffffe00
    1338:	00000111 	andeq	r0, r0, r1, lsl r1
    133c:	0c050802 	stceq	8, cr0, [r5], {2}
    1340:	02000001 	andeq	r0, r0, #1
    1344:	000b0801 	andeq	r0, fp, r1, lsl #16
    1348:	02020000 	andeq	r0, r2, #0
    134c:	00001907 	andeq	r1, r0, r7, lsl #18
    1350:	01750300 	cmneq	r5, r0, lsl #6
    1354:	34040000 	strcc	r0, [r4], #-0
    1358:	0000005a 	andeq	r0, r0, sl, asr r0
    135c:	52070402 	andpl	r0, r7, #33554432	; 0x2000000
    1360:	02000000 	andeq	r0, r0, #0
    1364:	004d0708 	subeq	r0, sp, r8, lsl #14
    1368:	04040000 	streq	r0, [r4], #-0
    136c:	746e6905 	strbtvc	r6, [lr], #-2309	; 0xfffff6fb
    1370:	07040200 	streq	r0, [r4, -r0, lsl #4]
    1374:	00000057 	andeq	r0, r0, r7, asr r0
    1378:	2e040802 	cdpcs	8, 0, cr0, cr4, cr2, {0}
    137c:	05000004 	streq	r0, [r0, #-4]
    1380:	00000ea4 	andeq	r0, r0, r4, lsr #29
    1384:	004f1f01 	subeq	r1, pc, r1, lsl #30
    1388:	8dc00000 	stclhi	0, cr0, [r0]
    138c:	003c0000 	eorseq	r0, ip, r0
    1390:	9c010000 	stcls	0, cr0, [r1], {-0}
    1394:	0000010e 	andeq	r0, r0, lr, lsl #2
    1398:	000eb006 	andeq	fp, lr, r6
    139c:	4f1f0100 	svcmi	0x001f0100
    13a0:	91000000 	mrsls	r0, (UNDEF: 0)
    13a4:	06000003 	streq	r0, [r0], -r3
    13a8:	00000ee4 	andeq	r0, r0, r4, ror #29
    13ac:	004f1f01 	subeq	r1, pc, r1, lsl #30
    13b0:	03b20000 			; <UNDEFINED> instruction: 0x03b20000
    13b4:	40060000 	andmi	r0, r6, r0
    13b8:	0100000e 	tsteq	r0, lr
    13bc:	00004f1f 	andeq	r4, r0, pc, lsl pc
    13c0:	0003d300 	andeq	sp, r3, r0, lsl #6
    13c4:	0e600700 	cdpeq	7, 6, cr0, cr0, cr0, {0}
    13c8:	21010000 	mrscs	r0, (UNDEF: 1)
    13cc:	0000004f 	andeq	r0, r0, pc, asr #32
    13d0:	000003f4 	strdeq	r0, [r0], -r4
    13d4:	000e9107 	andeq	r9, lr, r7, lsl #2
    13d8:	4f220100 	svcmi	0x00220100
    13dc:	1f000000 	svcne	0x00000000
    13e0:	07000004 	streq	r0, [r0, -r4]
    13e4:	00000e72 	andeq	r0, r0, r2, ror lr
    13e8:	004f2301 	subeq	r2, pc, r1, lsl #6
    13ec:	04630000 	strbteq	r0, [r3], #-0
    13f0:	f0080000 			; <UNDEFINED> instruction: 0xf0080000
    13f4:	c600008d 	strgt	r0, [r0], -sp, lsl #1
    13f8:	09000001 	stmdbeq	r0, {r0}
    13fc:	f30f5101 	vrhadd.u8	d5, d15, d1
    1400:	25445101 	strbcs	r5, [r4, #-257]	; 0xfffffeff
    1404:	01f32444 	mvnseq	r2, r4, asr #8
    1408:	020a2152 	andeq	r2, sl, #-2147483628	; 0x80000014
    140c:	0000210c 	andeq	r2, r0, ip, lsl #2
    1410:	000e460a 	andeq	r4, lr, sl, lsl #12
    1414:	fc090100 	stc2	1, cr0, [r9], {-0}
    1418:	a800008d 	stmdage	r0, {r0, r2, r3, r7}
    141c:	01000000 	mrseq	r0, (UNDEF: 0)
    1420:	00019f9c 	muleq	r1, ip, pc	; <UNPREDICTABLE>
    1424:	61720b00 	cmnvs	r2, r0, lsl #22
    1428:	4f0d0100 	svcmi	0x000d0100
    142c:	9a000000 	bls	1434 <SCTLR_ENABLE_INSTRUCTION_CACHE+0x434>
    1430:	0c000004 	stceq	0, cr0, [r0], {4}
    1434:	00008e38 	andeq	r8, r0, r8, lsr lr
    1438:	0000007d 	andeq	r0, r0, sp, ror r0
    143c:	00000150 	andeq	r0, r0, r0, asr r1
    1440:	02500109 	subseq	r0, r0, #1073741826	; 0x40000002
    1444:	01090074 	tsteq	r9, r4, ror r0
    1448:	00740251 	rsbseq	r0, r4, r1, asr r2
    144c:	01520109 	cmpeq	r2, r9, lsl #2
    1450:	540c0030 	strpl	r0, [ip], #-48	; 0xffffffd0
    1454:	7d00008e 	stcvc	0, cr0, [r0, #-568]	; 0xfffffdc8
    1458:	73000000 	movwvc	r0, #0
    145c:	09000001 	stmdbeq	r0, {r0}
    1460:	08045001 	stmdaeq	r4, {r0, ip, lr}
    1464:	092446fc 	stmdbeq	r4!, {r2, r3, r4, r5, r6, r7, r9, sl, lr}
    1468:	08045101 	stmdaeq	r4, {r0, r8, ip, lr}
    146c:	092446fc 	stmdbeq	r4!, {r2, r3, r4, r5, r6, r7, r9, sl, lr}
    1470:	30015201 	andcc	r5, r1, r1, lsl #4
    1474:	8e680c00 	cdphi	12, 6, cr0, cr8, cr0, {0}
    1478:	007d0000 	rsbseq	r0, sp, r0
    147c:	01860000 	orreq	r0, r6, r0
    1480:	01090000 	mrseq	r0, (UNDEF: 9)
    1484:	00300152 	eorseq	r0, r0, r2, asr r1
    1488:	008e740d 	addeq	r7, lr, sp, lsl #8
    148c:	0001d100 	andeq	sp, r1, r0, lsl #2
    1490:	8e8c0e00 	cdphi	14, 8, cr0, cr12, cr0, {0}
    1494:	01dc0000 	bicseq	r0, ip, r0
    1498:	01090000 	mrseq	r0, (UNDEF: 9)
    149c:	00350151 	eorseq	r0, r5, r1, asr r1
    14a0:	0ec20f00 	cdpeq	15, 12, cr0, cr2, cr0, {0}
    14a4:	08010000 	stmdaeq	r1, {}	; <UNPREDICTABLE>
    14a8:	0000004f 	andeq	r0, r0, pc, asr #32
    14ac:	53600305 	cmnpl	r0, #335544320	; 0x14000000
    14b0:	b5100001 	ldrlt	r0, [r0, #-1]
    14b4:	0100000e 	tsteq	r0, lr
    14b8:	00004f06 	andeq	r4, r0, r6, lsl #30
    14bc:	0ecf1000 	cdpeq	0, 12, cr1, cr15, cr0, {0}
    14c0:	07010000 	streq	r0, [r1, -r0]
    14c4:	0000004f 	andeq	r0, r0, pc, asr #32
    14c8:	000e7d11 	andeq	r7, lr, r1, lsl sp
    14cc:	000e7d00 	andeq	r7, lr, r0, lsl #26
    14d0:	11050200 	mrsne	r0, SP_usr
    14d4:	00000492 	muleq	r0, r2, r4
    14d8:	00000492 	muleq	r0, r2, r4
    14dc:	36110c03 	ldrcc	r0, [r1], -r3, lsl #24
    14e0:	3600000e 	strcc	r0, [r0], -lr
    14e4:	0200000e 	andeq	r0, r0, #14
    14e8:	07be0006 	ldreq	r0, [lr, r6]!
    14ec:	00040000 	andeq	r0, r4, r0
    14f0:	00000932 	andeq	r0, r0, r2, lsr r9
    14f4:	00640104 	rsbeq	r0, r4, r4, lsl #2
    14f8:	af0c0000 	svcge	0x000c0000
    14fc:	1a00000f 	bne	1540 <SCTLR_ENABLE_INSTRUCTION_CACHE+0x540>
    1500:	a4000001 	strge	r0, [r0], #-1
    1504:	c000008e 	andgt	r0, r0, lr, lsl #1
    1508:	09000002 	stmdbeq	r0, {r1}
    150c:	0200000a 	andeq	r0, r0, #10
    1510:	000d0601 	andeq	r0, sp, r1, lsl #12
    1514:	01020000 	mrseq	r0, (UNDEF: 2)
    1518:	00000b08 	andeq	r0, r0, r8, lsl #22
    151c:	05020200 	streq	r0, [r2, #-512]	; 0xfffffe00
    1520:	0000016b 	andeq	r0, r0, fp, ror #2
    1524:	19070202 	stmdbne	r7, {r1, r9}
    1528:	02000000 	andeq	r0, r0, #0
    152c:	01110504 	tsteq	r1, r4, lsl #10
    1530:	04020000 	streq	r0, [r2], #-0
    1534:	00005207 	andeq	r5, r0, r7, lsl #4
    1538:	05080200 	streq	r0, [r8, #-512]	; 0xfffffe00
    153c:	0000010c 	andeq	r0, r0, ip, lsl #2
    1540:	4d070802 	stcmi	8, cr0, [r7, #-8]
    1544:	03000000 	movweq	r0, #0
    1548:	6e690504 	cdpvs	5, 6, cr0, cr9, cr4, {0}
    154c:	04020074 	streq	r0, [r2], #-116	; 0xffffff8c
    1550:	00005707 	andeq	r5, r0, r7, lsl #14
    1554:	04080200 	streq	r0, [r8], #-512	; 0xfffffe00
    1558:	0000042e 	andeq	r0, r0, lr, lsr #8
    155c:	00017604 	andeq	r7, r1, r4, lsl #12
    1560:	41280200 			; <UNDEFINED> instruction: 0x41280200
    1564:	04000000 	streq	r0, [r0], #-0
    1568:	00000372 	andeq	r0, r0, r2, ror r3
    156c:	002c2e02 	eoreq	r2, ip, r2, lsl #28
    1570:	75040000 	strvc	r0, [r4, #-0]
    1574:	02000001 	andeq	r0, r0, #1
    1578:	00004834 	andeq	r4, r0, r4, lsr r8
    157c:	03040500 	movweq	r0, #17664	; 0x4500
    1580:	0000c909 	andeq	ip, r0, r9, lsl #18
    1584:	10000600 	andne	r0, r0, r0, lsl #12
    1588:	0b030000 	bleq	c1590 <__first_lvl_tbl_end+0xa0590>
    158c:	0000007d 	andeq	r0, r0, sp, ror r0
    1590:	00070101 	andeq	r0, r7, r1, lsl #2
    1594:	000f8b06 	andeq	r8, pc, r6, lsl #22
    1598:	7d0c0300 	stcvc	3, cr0, [ip, #-0]
    159c:	01000000 	mrseq	r0, (UNDEF: 0)
    15a0:	06000601 	streq	r0, [r0], -r1, lsl #12
    15a4:	00000e1e 	andeq	r0, r0, lr, lsl lr
    15a8:	00880d03 	addeq	r0, r8, r3, lsl #26
    15ac:	1e040000 	cdpne	0, 0, cr0, cr4, cr0, {0}
    15b0:	04000000 	streq	r0, [r0], #-0
    15b4:	00000f4b 	andeq	r0, r0, fp, asr #30
    15b8:	00930e03 	addseq	r0, r3, r3, lsl #28
    15bc:	2c070000 	stccs	0, cr0, [r7], {-0}
    15c0:	10000012 	andne	r0, r0, r2, lsl r0
    15c4:	01111003 	tsteq	r1, r3
    15c8:	f3080000 	vhadd.u8	d0, d8, d0
    15cc:	0300000f 	movweq	r0, #15
    15d0:	00008812 	andeq	r8, r0, r2, lsl r8
    15d4:	40080000 	andmi	r0, r8, r0
    15d8:	0300000e 	movweq	r0, #14
    15dc:	0000c913 	andeq	ip, r0, r3, lsl r9
    15e0:	5f080400 	svcpl	0x00080400
    15e4:	0300000f 	movweq	r0, #15
    15e8:	00011114 	andeq	r1, r1, r4, lsl r1
    15ec:	33080800 	movwcc	r0, #34816	; 0x8800
    15f0:	03000010 	movweq	r0, #16
    15f4:	00011114 	andeq	r1, r1, r4, lsl r1
    15f8:	09000c00 	stmdbeq	r0, {sl, fp}
    15fc:	0000d404 	andeq	sp, r0, r4, lsl #8
    1600:	0f580400 	svceq	0x00580400
    1604:	15030000 	strne	r0, [r3, #-0]
    1608:	000000d4 	ldrdeq	r0, [r0], -r4
    160c:	0064040a 	rsbeq	r0, r4, sl, lsl #8
    1610:	0d040000 	stceq	0, cr0, [r4, #-0]
    1614:	00000368 	andeq	r0, r0, r8, ror #6
    1618:	000adc0b 	andeq	sp, sl, fp, lsl #24
    161c:	c80c0100 	stmdagt	ip, {r8}
    1620:	0100000a 	tsteq	r0, sl
    1624:	0c000100 	stfeqs	f0, [r0], {-0}
    1628:	0000073d 	andeq	r0, r0, sp, lsr r7
    162c:	00010002 	andeq	r0, r1, r2
    1630:	000cad0c 	andeq	sl, ip, ip, lsl #26
    1634:	01000300 	mrseq	r0, LR_irq
    1638:	07280c00 	streq	r0, [r8, -r0, lsl #24]!
    163c:	00040000 	andeq	r0, r4, r0
    1640:	700c0001 	andvc	r0, ip, r1
    1644:	05000009 	streq	r0, [r0, #-9]
    1648:	0c000100 	stfeqs	f0, [r0], {-0}
    164c:	0000081d 	andeq	r0, r0, sp, lsl r8
    1650:	00010006 	andeq	r0, r1, r6
    1654:	000beb0c 	andeq	lr, fp, ip, lsl #22
    1658:	01000700 	tsteq	r0, r0, lsl #14
    165c:	0ab30c00 	beq	fecc4664 <__kernel_end+0xfeb62664>
    1660:	00010000 	andeq	r0, r1, r0
    1664:	d50c0005 	strle	r0, [ip, #-5]
    1668:	0100000c 	tsteq	r0, ip
    166c:	0c000600 	stceq	6, cr0, [r0], {-0}
    1670:	00000d0d 	andeq	r0, r0, sp, lsl #26
    1674:	00020001 	andeq	r0, r2, r1
    1678:	000d280c 	andeq	r2, sp, ip, lsl #16
    167c:	02000200 	andeq	r0, r0, #0, 4
    1680:	09b90c00 	ldmibeq	r9!, {sl, fp}
    1684:	80010000 	andhi	r0, r1, r0
    1688:	740c0002 	strvc	r0, [ip], #-2
    168c:	0100000b 	tsteq	r0, fp
    1690:	0c000300 	stceq	3, cr0, [r0], {-0}
    1694:	00000841 	andeq	r0, r0, r1, asr #16
    1698:	00038001 	andeq	r8, r3, r1
    169c:	0007ec0c 	andeq	lr, r7, ip, lsl #24
    16a0:	03000200 	movweq	r0, #512	; 0x200
    16a4:	0b610c00 	bleq	18446ac <__kernel_end+0x16e26ac>
    16a8:	80020000 	andhi	r0, r2, r0
    16ac:	af0c0003 	svcge	0x000c0003
    16b0:	04000008 	streq	r0, [r0], #-8
    16b4:	0c000300 	stceq	3, cr0, [r0], {-0}
    16b8:	00000754 	andeq	r0, r0, r4, asr r7
    16bc:	00030007 	andeq	r0, r3, r7
    16c0:	000cc70c 	andeq	ip, ip, ip, lsl #14
    16c4:	03000900 	movweq	r0, #2304	; 0x900
    16c8:	0b880c00 	bleq	fe2046d0 <__kernel_end+0xfe0a26d0>
    16cc:	80090000 	andhi	r0, r9, r0
    16d0:	430c0003 	movwmi	r0, #49155	; 0xc003
    16d4:	0300000a 	movweq	r0, #10
    16d8:	0c000300 	stceq	3, cr0, [r0], {-0}
    16dc:	000007dc 	ldrdeq	r0, [r0], -ip
    16e0:	00038003 	andeq	r8, r3, r3
    16e4:	000b4d0c 	andeq	r4, fp, ip, lsl #26
    16e8:	03000500 	movweq	r0, #1280	; 0x500
    16ec:	0bd70c00 	bleq	ff5c46f4 <__kernel_end+0xff4626f4>
    16f0:	00080000 	andeq	r0, r8, r0
    16f4:	b50c0003 	strlt	r0, [ip, #-3]
    16f8:	06000007 	streq	r0, [r0], -r7
    16fc:	0c000300 	stceq	3, cr0, [r0], {-0}
    1700:	00000aff 	strdeq	r0, [r0], -pc	; <UNPREDICTABLE>
    1704:	0003000a 	andeq	r0, r3, sl
    1708:	000b390c 	andeq	r3, fp, ip, lsl #18
    170c:	03000c00 	movweq	r0, #3072	; 0xc00
    1710:	09cd0c00 	stmibeq	sp, {sl, fp}^
    1714:	000d0000 	andeq	r0, sp, r0
    1718:	9b0c0003 	blls	30172c <__kernel_end+0x19f72c>
    171c:	0e00000c 	cdpeq	0, 0, cr0, cr0, cr12, {0}
    1720:	0c000300 	stceq	3, cr0, [r0], {-0}
    1724:	000009a6 	andeq	r0, r0, r6, lsr #19
    1728:	0003000f 	andeq	r0, r3, pc
    172c:	000a7c0c 	andeq	r7, sl, ip, lsl #24
    1730:	03001000 	movweq	r1, #0
    1734:	0c550c00 	mrrceq	12, 0, r0, r5, cr0
    1738:	00140000 	andseq	r0, r4, r0
    173c:	9c0c0003 	stcls	0, cr0, [ip], {3}
    1740:	20000008 	andcs	r0, r0, r8
    1744:	0c000300 	stceq	3, cr0, [r0], {-0}
    1748:	00000a0a 	andeq	r0, r0, sl, lsl #20
    174c:	00040001 	andeq	r0, r4, r1
    1750:	0007c90c 	andeq	ip, r7, ip, lsl #18
    1754:	04800100 	streq	r0, [r0], #256	; 0x100
    1758:	07060c00 	streq	r0, [r6, -r0, lsl #24]
    175c:	00020000 	andeq	r0, r2, r0
    1760:	9a0c0004 	bls	301778 <__kernel_end+0x19f778>
    1764:	03000007 	movweq	r0, #7
    1768:	0c000400 	cfstrseq	mvf0, [r0], {-0}
    176c:	00000cf6 	strdeq	r0, [r0], -r6
    1770:	00044003 	andeq	r4, r4, r3
    1774:	000a2d0c 	andeq	r2, sl, ip, lsl #26
    1778:	04800300 	streq	r0, [r0], #768	; 0x300
    177c:	09910c00 	ldmibeq	r1, {sl, fp}
    1780:	00040000 	andeq	r0, r4, r0
    1784:	200c0004 	andcs	r0, ip, r4
    1788:	0400000c 	streq	r0, [r0], #-12
    178c:	0c000440 	cfstrseq	mvf0, [r0], {64}	; 0x40
    1790:	00000a53 	andeq	r0, r0, r3, asr sl
    1794:	00048004 	andeq	r8, r4, r4
    1798:	0009830c 	andeq	r8, r9, ip, lsl #6
    179c:	04000500 	streq	r0, [r0], #-1280	; 0xfffffb00
    17a0:	0c460c00 	mcrreq	12, 0, r0, r6, cr0
    17a4:	40050000 	andmi	r0, r5, r0
    17a8:	ff0c0004 			; <UNDEFINED> instruction: 0xff0c0004
    17ac:	05000007 	streq	r0, [r0, #-7]
    17b0:	0c000480 	cfstrseq	mvf0, [r0], {128}	; 0x80
    17b4:	00000888 	andeq	r0, r0, r8, lsl #17
    17b8:	00040006 	andeq	r0, r4, r6
    17bc:	0008550c 	andeq	r5, r8, ip, lsl #10
    17c0:	04400600 	strbeq	r0, [r0], #-1536	; 0xfffffa00
    17c4:	0b250c00 	bleq	9447cc <__kernel_end+0x7e27cc>
    17c8:	80060000 	andhi	r0, r6, r0
    17cc:	e90c0004 	stmdb	ip, {r2}
    17d0:	07000009 	streq	r0, [r0, -r9]
    17d4:	0c000400 	cfstrseq	mvf0, [r0], {-0}
    17d8:	000008c6 	andeq	r0, r0, r6, asr #17
    17dc:	00044007 	andeq	r4, r4, r7
    17e0:	000baf0c 	andeq	sl, fp, ip, lsl #30
    17e4:	04800700 	streq	r0, [r0], #1792	; 0x700
    17e8:	09fc0c00 	ldmibeq	ip!, {sl, fp}^
    17ec:	00080000 	andeq	r0, r8, r0
    17f0:	590c0004 	stmdbpl	ip, {r2}
    17f4:	09000009 	stmdbeq	r0, {r0, r3}
    17f8:	0c000400 	cfstrseq	mvf0, [r0], {-0}
    17fc:	0000076b 	andeq	r0, r0, fp, ror #14
    1800:	00044009 	andeq	r4, r4, r9
    1804:	0007830c 	andeq	r8, r7, ip, lsl #6
    1808:	04800900 	streq	r0, [r0], #2304	; 0x900
    180c:	07170c00 	ldreq	r0, [r7, -r0, lsl #24]
    1810:	000a0000 	andeq	r0, sl, r0
    1814:	470c0004 	strmi	r0, [ip, -r4]
    1818:	0a000009 	beq	1844 <SCTLR_ENABLE_INSTRUCTION_CACHE+0x844>
    181c:	0c000440 	cfstrseq	mvf0, [r0], {64}	; 0x40
    1820:	00000bfa 	strdeq	r0, [r0], -sl
    1824:	0004800a 	andeq	r8, r4, sl
    1828:	00080d0c 	andeq	r0, r8, ip, lsl #26
    182c:	04000b00 	streq	r0, [r0], #-2816	; 0xfffff500
    1830:	08f40c00 	ldmeq	r4!, {sl, fp}^
    1834:	400b0000 	andmi	r0, fp, r0
    1838:	9f0c0004 	svcls	0x000c0004
    183c:	0b00000b 	bleq	1870 <SCTLR_ENABLE_INSTRUCTION_CACHE+0x870>
    1840:	0d000480 	cfstrseq	mvf0, [r0, #-512]	; 0xfffffe00
    1844:	00000874 	andeq	r0, r0, r4, ror r8
    1848:	c20d8011 	andgt	r8, sp, #17
    184c:	1000000b 	andne	r0, r0, fp
    1850:	000e0080 	andeq	r0, lr, r0, lsl #1
    1854:	93780401 	cmnls	r8, #16777216	; 0x1000000
    1858:	0f000003 	svceq	0x00000003
    185c:	00000c17 	andeq	r0, r0, r7, lsl ip
    1860:	00727904 	rsbseq	r7, r2, r4, lsl #18
    1864:	2f0f0000 	svccs	0x000f0000
    1868:	04000008 	streq	r0, [r0], #-8
    186c:	0003937a 	andeq	r9, r3, sl, ror r3
    1870:	0af50f00 	beq	ffd45478 <__kernel_end+0xffbe3478>
    1874:	7b040000 	blvc	10187c <__first_lvl_tbl_end+0xe087c>
    1878:	000003aa 	andeq	r0, r0, sl, lsr #7
    187c:	007d1000 	rsbseq	r1, sp, r0
    1880:	03a30000 			; <UNDEFINED> instruction: 0x03a30000
    1884:	a3110000 	tstge	r1, #0
    1888:	ff000003 			; <UNDEFINED> instruction: 0xff000003
    188c:	07040200 	streq	r0, [r4, -r0, lsl #4]
    1890:	00000357 	andeq	r0, r0, r7, asr r3
    1894:	00007210 	andeq	r7, r0, r0, lsl r2
    1898:	0003ba00 	andeq	fp, r3, r0, lsl #20
    189c:	03a31100 			; <UNDEFINED> instruction: 0x03a31100
    18a0:	003f0000 	eorseq	r0, pc, r0
    18a4:	04010812 	streq	r0, [r1], #-2066	; 0xfffff7ee
    18a8:	0003e874 	andeq	lr, r3, r4, ror r8
    18ac:	61741300 	cmnvs	r4, r0, lsl #6
    18b0:	76040067 	strvc	r0, [r4], -r7, rrx
    18b4:	00000072 	andeq	r0, r0, r2, ror r0
    18b8:	09dd0800 	ldmibeq	sp, {fp}^
    18bc:	77040000 	strvc	r0, [r4, -r0]
    18c0:	00000072 	andeq	r0, r0, r2, ror r0
    18c4:	07b00804 	ldreq	r0, [r0, r4, lsl #16]!
    18c8:	7c040000 	stcvc	0, cr0, [r4], {-0}
    18cc:	00000368 	andeq	r0, r0, r8, ror #6
    18d0:	18040008 	stmdane	r4, {r3}
    18d4:	04000009 	streq	r0, [r0], #-9
    18d8:	0003ba7d 	andeq	fp, r3, sp, ror sl
    18dc:	0eff0700 	cdpeq	7, 15, cr0, cr15, cr0, {0}
    18e0:	010c0000 	mrseq	r0, (UNDEF: 12)
    18e4:	0004240e 	andeq	r2, r4, lr, lsl #8
    18e8:	0fcb0800 	svceq	0x00cb0800
    18ec:	0e010000 	cdpeq	0, 0, cr0, cr1, cr0, {0}
    18f0:	00000111 	andeq	r0, r0, r1, lsl r1
    18f4:	0f720800 	svceq	0x00720800
    18f8:	0e010000 	cdpeq	0, 0, cr0, cr1, cr0, {0}
    18fc:	00000111 	andeq	r0, r0, r1, lsl r1
    1900:	0fee0804 	svceq	0x00ee0804
    1904:	0e010000 	cdpeq	0, 0, cr0, cr1, cr0, {0}
    1908:	00000088 	andeq	r0, r0, r8, lsl #1
    190c:	d0040008 	andle	r0, r4, r8
    1910:	0100000f 	tsteq	r0, pc
    1914:	0003f30e 	andeq	pc, r3, lr, lsl #6
    1918:	0f3e1400 	svceq	0x003e1400
    191c:	5c010000 	stcpl	0, cr0, [r1], {-0}
    1920:	00000088 	andeq	r0, r0, r8, lsl #1
    1924:	00044a01 	andeq	r4, r4, r1, lsl #20
    1928:	706d1500 	rsbvc	r1, sp, r0, lsl #10
    192c:	4a670100 	bmi	19c1d34 <__kernel_end+0x185fd34>
    1930:	00000004 	andeq	r0, r0, r4
    1934:	03e80409 	mvneq	r0, #150994944	; 0x9000000
    1938:	19160000 	ldmdbne	r6, {}	; <UNPREDICTABLE>
    193c:	01000010 	tsteq	r0, r0, lsl r0
    1940:	008ea40f 	addeq	sl, lr, pc, lsl #8
    1944:	00002400 	andeq	r2, r0, r0, lsl #8
    1948:	809c0100 	addshi	r0, ip, r0, lsl #2
    194c:	17000004 	strne	r0, [r0, -r4]
    1950:	0000086f 	andeq	r0, r0, pc, ror #16
    1954:	04800f01 	streq	r0, [r0], #3841	; 0xf01
    1958:	50010000 	andpl	r0, r1, r0
    195c:	000f8617 	andeq	r8, pc, r7, lsl r6	; <UNPREDICTABLE>
    1960:	110f0100 	mrsne	r0, (UNDEF: 31)
    1964:	01000001 	tsteq	r0, r1
    1968:	04090051 	streq	r0, [r9], #-81	; 0xffffffaf
    196c:	00000424 	andeq	r0, r0, r4, lsr #8
    1970:	000f9716 	andeq	r9, pc, r6, lsl r7	; <UNPREDICTABLE>
    1974:	c80f0100 	stmdagt	pc, {r8}	; <UNPREDICTABLE>
    1978:	2400008e 	strcs	r0, [r0], #-142	; 0xffffff72
    197c:	01000000 	mrseq	r0, (UNDEF: 0)
    1980:	0004b69c 	muleq	r4, ip, r6
    1984:	086f1700 	stmdaeq	pc!, {r8, r9, sl, ip}^	; <UNPREDICTABLE>
    1988:	0f010000 	svceq	0x00010000
    198c:	00000480 	andeq	r0, r0, r0, lsl #9
    1990:	86175001 	ldrhi	r5, [r7], -r1
    1994:	0100000f 	tsteq	r0, pc
    1998:	0001110f 	andeq	r1, r1, pc, lsl #2
    199c:	00510100 	subseq	r0, r1, r0, lsl #2
    19a0:	000f2f18 	andeq	r2, pc, r8, lsl pc	; <UNPREDICTABLE>
    19a4:	110f0100 	mrsne	r0, (UNDEF: 31)
    19a8:	ec000001 	stc	0, cr0, [r0], {1}
    19ac:	0800008e 	stmdaeq	r0, {r1, r2, r3, r7}
    19b0:	01000000 	mrseq	r0, (UNDEF: 0)
    19b4:	0004df9c 	muleq	r4, ip, pc	; <UNPREDICTABLE>
    19b8:	086f1900 	stmdaeq	pc!, {r8, fp, ip}^	; <UNPREDICTABLE>
    19bc:	0f010000 	svceq	0x00010000
    19c0:	00000480 	andeq	r0, r0, r0, lsl #9
    19c4:	000004b9 			; <UNDEFINED> instruction: 0x000004b9
    19c8:	0fbd1800 	svceq	0x00bd1800
    19cc:	0f010000 	svceq	0x00010000
    19d0:	00000111 	andeq	r0, r0, r1, lsl r1
    19d4:	00008ef4 	strdeq	r8, [r0], -r4
    19d8:	0000002c 	andeq	r0, r0, ip, lsr #32
    19dc:	05179c01 	ldreq	r9, [r7, #-3073]	; 0xfffff3ff
    19e0:	6f190000 	svcvs	0x00190000
    19e4:	01000008 	tsteq	r0, r8
    19e8:	0004800f 	andeq	r8, r4, pc
    19ec:	0004da00 	andeq	sp, r4, r0, lsl #20
    19f0:	65721a00 	ldrbvs	r1, [r2, #-2560]!	; 0xfffff600
    19f4:	0f010073 	svceq	0x00010073
    19f8:	00000111 	andeq	r0, r0, r1, lsl r1
    19fc:	000004f8 	strdeq	r0, [r0], -r8
    1a00:	100a1800 	andne	r1, sl, r0, lsl #16
    1a04:	0f010000 	svceq	0x00010000
    1a08:	00000088 	andeq	r0, r0, r8, lsl #1
    1a0c:	00008f20 	andeq	r8, r0, r0, lsr #30
    1a10:	00000008 	andeq	r0, r0, r8
    1a14:	05409c01 	strbeq	r9, [r0, #-3073]	; 0xfffff3ff
    1a18:	6f190000 	svcvs	0x00190000
    1a1c:	01000008 	tsteq	r0, r8
    1a20:	0004800f 	andeq	r8, r4, pc
    1a24:	00051600 	andeq	r1, r5, r0, lsl #12
    1a28:	77180000 	ldrvc	r0, [r8, -r0]
    1a2c:	0100000f 	tsteq	r0, pc
    1a30:	0001110f 	andeq	r1, r1, pc, lsl #2
    1a34:	008f2800 	addeq	r2, pc, r0, lsl #16
    1a38:	00000800 	andeq	r0, r0, r0, lsl #16
    1a3c:	699c0100 	ldmibvs	ip, {r8}
    1a40:	19000005 	stmdbne	r0, {r0, r2}
    1a44:	00000f86 	andeq	r0, r0, r6, lsl #31
    1a48:	01110f01 	tsteq	r1, r1, lsl #30
    1a4c:	05370000 	ldreq	r0, [r7, #-0]!
    1a50:	1b000000 	blne	1a58 <SCTLR_ENABLE_INSTRUCTION_CACHE+0xa58>
    1a54:	00000ee9 	andeq	r0, r0, r9, ror #29
    1a58:	00881401 	addeq	r1, r8, r1, lsl #8
    1a5c:	8f300000 	svchi	0x00300000
    1a60:	001c0000 	andseq	r0, ip, r0
    1a64:	9c010000 	stcls	0, cr0, [r1], {-0}
    1a68:	0000058c 	andeq	r0, r0, ip, lsl #11
    1a6c:	008f441c 	addeq	r4, pc, ip, lsl r4	; <UNPREDICTABLE>
    1a70:	00051700 	andeq	r1, r5, r0, lsl #14
    1a74:	08180000 	ldmdaeq	r8, {}	; <UNPREDICTABLE>
    1a78:	0100000f 	tsteq	r0, pc
    1a7c:	0006013a 	andeq	r0, r6, sl, lsr r1
    1a80:	008f4c00 	addeq	r4, pc, r0, lsl #24
    1a84:	00006c00 	andeq	r6, r0, r0, lsl #24
    1a88:	019c0100 	orrseq	r0, ip, r0, lsl #2
    1a8c:	1d000006 	stcne	0, cr0, [r0, #-24]	; 0xffffffe8
    1a90:	0000122c 	andeq	r1, r0, ip, lsr #4
    1a94:	06033c01 	streq	r3, [r3], -r1, lsl #24
    1a98:	05580000 	ldrbeq	r0, [r8, #-0]
    1a9c:	2a1e0000 	bcs	781aa4 <__kernel_end+0x61faa4>
    1aa0:	01000010 	tsteq	r0, r0, lsl r0
    1aa4:	0006013d 	andeq	r0, r6, sp, lsr r1
    1aa8:	1f540100 	svcne	0x00540100
    1aac:	00008f68 	andeq	r8, r0, r8, ror #30
    1ab0:	00000517 	andeq	r0, r0, r7, lsl r5
    1ab4:	000005d5 	ldrdeq	r0, [r0], -r5
    1ab8:	02500120 	subseq	r0, r0, #32, 2
    1abc:	1f000074 	svcne	0x00000074
    1ac0:	00008f78 	andeq	r8, r0, r8, ror pc
    1ac4:	000004df 	ldrdeq	r0, [r0], -pc	; <UNPREDICTABLE>
    1ac8:	000005e9 	andeq	r0, r0, r9, ror #11
    1acc:	02500120 	subseq	r0, r0, #32, 2
    1ad0:	21000074 	tstcs	r0, r4, ror r0
    1ad4:	00008fa4 	andeq	r8, r0, r4, lsr #31
    1ad8:	0000077f 	andeq	r0, r0, pc, ror r7
    1adc:	02500120 	subseq	r0, r0, #32, 2
    1ae0:	01200074 			; <UNDEFINED> instruction: 0x01200074
    1ae4:	000a0351 	andeq	r0, sl, r1, asr r3
    1ae8:	22000010 	andcs	r0, r0, #16
    1aec:	17040904 	strne	r0, [r4, -r4, lsl #18]
    1af0:	16000001 	strne	r0, [r0], -r1
    1af4:	00000f68 	andeq	r0, r0, r8, ror #30
    1af8:	8fb85001 	svchi	0x00b85001
    1afc:	00440000 	subeq	r0, r4, r0
    1b00:	9c010000 	stcls	0, cr0, [r1], {-0}
    1b04:	00000646 	andeq	r0, r0, r6, asr #12
    1b08:	72747023 	rsbsvc	r7, r4, #35	; 0x23
    1b0c:	01500100 	cmpeq	r0, r0, lsl #2
    1b10:	6b000006 	blvs	1b30 <SCTLR_ENABLE_INSTRUCTION_CACHE+0xb30>
    1b14:	1d000005 	stcne	0, cr0, [r0, #-20]	; 0xffffffec
    1b18:	0000122c 	andeq	r1, r0, ip, lsr #4
    1b1c:	06035201 	streq	r5, [r3], -r1, lsl #4
    1b20:	058c0000 	streq	r0, [ip]
    1b24:	f01c0000 			; <UNDEFINED> instruction: 0xf01c0000
    1b28:	5000008f 	andpl	r0, r0, pc, lsl #1
    1b2c:	00000004 	andeq	r0, r0, r4
    1b30:	00042f24 	andeq	r2, r4, r4, lsr #30
    1b34:	008ffc00 	addeq	pc, pc, r0, lsl #24
    1b38:	00005000 	andeq	r5, r0, r0
    1b3c:	969c0100 	ldrls	r0, [ip], r0, lsl #2
    1b40:	25000006 	strcs	r0, [r0, #-6]
    1b44:	0000043f 	andeq	r0, r0, pc, lsr r4
    1b48:	00901426 	addseq	r1, r0, r6, lsr #8
    1b4c:	00003000 	andeq	r3, r0, r0
    1b50:	043f2700 	ldrteq	r2, [pc], #-1792	; 1b58 <SCTLR_ENABLE_INSTRUCTION_CACHE+0xb58>
    1b54:	05aa0000 	streq	r0, [sl, #0]!
    1b58:	18280000 	stmdane	r8!, {}	; <UNPREDICTABLE>
    1b5c:	8a000090 	bhi	1da4 <SCTLR_ENABLE_INSTRUCTION_CACHE+0xda4>
    1b60:	28000007 	stmdacs	r0, {r0, r1, r2}
    1b64:	00009024 	andeq	r9, r0, r4, lsr #32
    1b68:	00000795 	muleq	r0, r5, r7
    1b6c:	00902828 	addseq	r2, r0, r8, lsr #16
    1b70:	0007a000 	andeq	sl, r7, r0
    1b74:	90342800 	eorsls	r2, r4, r0, lsl #16
    1b78:	07ab0000 	streq	r0, [fp, r0]!
    1b7c:	00000000 	andeq	r0, r0, r0
    1b80:	000fa629 	andeq	sl, pc, r9, lsr #12
    1b84:	4c190100 	ldfmis	f0, [r9], {-0}
    1b88:	18000090 	stmdane	r0, {r4, r7}
    1b8c:	01000001 	tsteq	r0, r1
    1b90:	0007309c 	muleq	r7, ip, r0
    1b94:	0fea1d00 	svceq	0x00ea1d00
    1b98:	1b010000 	blne	41ba0 <__first_lvl_tbl_end+0x20ba0>
    1b9c:	00000088 	andeq	r0, r0, r8, lsl #1
    1ba0:	000005bd 			; <UNDEFINED> instruction: 0x000005bd
    1ba4:	000f201d 	andeq	r2, pc, sp, lsl r0	; <UNPREDICTABLE>
    1ba8:	881b0100 	ldmdahi	fp, {r8}
    1bac:	db000000 	blle	1bb4 <SCTLR_ENABLE_INSTRUCTION_CACHE+0xbb4>
    1bb0:	1d000005 	stcne	0, cr0, [r0, #-20]	; 0xffffffec
    1bb4:	00000f13 	andeq	r0, r0, r3, lsl pc
    1bb8:	00881b01 	addeq	r1, r8, r1, lsl #22
    1bbc:	05fd0000 	ldrbeq	r0, [sp, #0]!
    1bc0:	691a0000 	ldmdbvs	sl, {}	; <UNPREDICTABLE>
    1bc4:	881b0100 	ldmdahi	fp, {r8}
    1bc8:	1f000000 	svcne	0x00000000
    1bcc:	28000006 	stmdacs	r0, {r1, r2}
    1bd0:	00009054 	andeq	r9, r0, r4, asr r0
    1bd4:	0000042f 	andeq	r0, r0, pc, lsr #8
    1bd8:	00907028 	addseq	r7, r0, r8, lsr #32
    1bdc:	0007b600 	andeq	fp, r7, r0, lsl #12
    1be0:	90901f00 	addsls	r1, r0, r0, lsl #30
    1be4:	07b60000 	ldreq	r0, [r6, r0]!
    1be8:	070b0000 	streq	r0, [fp, -r0]
    1bec:	01200000 			; <UNDEFINED> instruction: 0x01200000
    1bf0:	00740251 	rsbseq	r0, r4, r1, asr r2
    1bf4:	90ac1f00 	adcls	r1, ip, r0, lsl #30
    1bf8:	077f0000 	ldrbeq	r0, [pc, -r0]!
    1bfc:	071f0000 	ldreq	r0, [pc, -r0]
    1c00:	01200000 			; <UNDEFINED> instruction: 0x01200000
    1c04:	00740250 	rsbseq	r0, r4, r0, asr r2
    1c08:	91382100 	teqls	r8, r0, lsl #2
    1c0c:	04500000 	ldrbeq	r0, [r0], #-0
    1c10:	01200000 			; <UNDEFINED> instruction: 0x01200000
    1c14:	00750250 	rsbseq	r0, r5, r0, asr r2
    1c18:	e61e0000 	ldr	r0, [lr], -r0
    1c1c:	0100000f 	tsteq	r0, pc
    1c20:	00008807 	andeq	r8, r0, r7, lsl #16
    1c24:	68030500 	stmdavs	r3, {r8, sl}
    1c28:	1e000153 	mcrne	1, 0, r0, cr0, cr3, {2}
    1c2c:	00000fdc 	ldrdeq	r0, [r0], -ip
    1c30:	00880c01 	addeq	r0, r8, r1, lsl #24
    1c34:	03050000 	movweq	r0, #20480	; 0x5000
    1c38:	0001536c 	andeq	r5, r1, ip, ror #6
    1c3c:	00103c1e 	andseq	r3, r0, lr, lsl ip
    1c40:	03110100 	tsteq	r1, #0, 2
    1c44:	05000006 	streq	r0, [r0, #-6]
    1c48:	01536403 	cmpeq	r3, r3, lsl #8
    1c4c:	0eb52a00 	vmoveq.f32	s4, #80	; 0x3e800000  0.250
    1c50:	09010000 	stmdbeq	r1, {}	; <UNPREDICTABLE>
    1c54:	0000007d 	andeq	r0, r0, sp, ror r0
    1c58:	000ef42b 	andeq	pc, lr, fp, lsr #8
    1c5c:	24120100 	ldrcs	r0, [r2], #-256	; 0xffffff00
    1c60:	05000004 	streq	r0, [r0, #-4]
    1c64:	01537003 	cmpeq	r3, r3
    1c68:	03602c00 	cmneq	r0, #0, 24
    1c6c:	03600000 	cmneq	r0, #0
    1c70:	0a010000 	beq	41c78 <__first_lvl_tbl_end+0x20c78>
    1c74:	0008da2c 	andeq	sp, r8, ip, lsr #20
    1c78:	0008da00 	andeq	sp, r8, r0, lsl #20
    1c7c:	2c8e0400 	cfstrscs	mvf0, [lr], {0}
    1c80:	00000905 	andeq	r0, r0, r5, lsl #18
    1c84:	00000905 	andeq	r0, r0, r5, lsl #18
    1c88:	682c8f04 	stmdavs	ip!, {r2, r8, r9, sl, fp, pc}
    1c8c:	6800000a 	stmdavs	r0, {r1, r3}
    1c90:	0400000a 	streq	r0, [r0], #-10
    1c94:	0c362c90 	ldceq	12, cr2, [r6], #-576	; 0xfffffdc0
    1c98:	0c360000 	ldceq	0, cr0, [r6], #-0
    1c9c:	91040000 	mrsls	r0, (UNDEF: 4)
    1ca0:	0004922c 	andeq	r9, r4, ip, lsr #4
    1ca4:	00049200 	andeq	r9, r4, r0, lsl #4
    1ca8:	000c0500 	andeq	r0, ip, r0, lsl #10
    1cac:	0000050e 	andeq	r0, r0, lr, lsl #10
    1cb0:	0ba80004 	bleq	fea01cc8 <__kernel_end+0xfe89fcc8>
    1cb4:	01040000 	mrseq	r0, (UNDEF: 4)
    1cb8:	00000064 	andeq	r0, r0, r4, rrx
    1cbc:	0010e70c 	andseq	lr, r0, ip, lsl #14
    1cc0:	00011a00 	andeq	r1, r1, r0, lsl #20
    1cc4:	00916400 	addseq	r6, r1, r0, lsl #8
    1cc8:	00012800 	andeq	r2, r1, r0, lsl #16
    1ccc:	000bf800 	andeq	pc, fp, r0, lsl #16
    1cd0:	06010200 	streq	r0, [r1], -r0, lsl #4
    1cd4:	0000000d 	andeq	r0, r0, sp
    1cd8:	6b050202 	blvs	1424e8 <dma_dest_page_1+0x4e8>
    1cdc:	03000001 	movweq	r0, #1
    1ce0:	00000176 	andeq	r0, r0, r6, ror r1
    1ce4:	003e2802 	eorseq	r2, lr, r2, lsl #16
    1ce8:	04020000 	streq	r0, [r2], #-0
    1cec:	00011105 	andeq	r1, r1, r5, lsl #2
    1cf0:	05080200 	streq	r0, [r8, #-512]	; 0xfffffe00
    1cf4:	0000010c 	andeq	r0, r0, ip, lsl #2
    1cf8:	0b080102 	bleq	202108 <__kernel_end+0xa0108>
    1cfc:	02000000 	andeq	r0, r0, #0
    1d00:	00190702 	andseq	r0, r9, r2, lsl #14
    1d04:	75030000 	strvc	r0, [r3, #-0]
    1d08:	02000001 	andeq	r0, r0, #1
    1d0c:	00006534 	andeq	r6, r0, r4, lsr r5
    1d10:	07040200 	streq	r0, [r4, -r0, lsl #4]
    1d14:	00000052 	andeq	r0, r0, r2, asr r0
    1d18:	4d070802 	stcmi	8, cr0, [r7, #-8]
    1d1c:	04000000 	streq	r0, [r0], #-0
    1d20:	6e690504 	cdpvs	5, 6, cr0, cr9, cr4, {0}
    1d24:	04020074 	streq	r0, [r2], #-116	; 0xffffff8c
    1d28:	00005707 	andeq	r5, r0, r7, lsl #14
    1d2c:	7a040500 	bvc	103134 <__first_lvl_tbl_end+0xe2134>
    1d30:	04000000 	streq	r0, [r0], #-0
    1d34:	00015405 	andeq	r5, r1, r5, lsl #8
    1d38:	11300600 	teqne	r0, r0, lsl #12
    1d3c:	00000000 	andeq	r0, r0, r0
    1d40:	a4063f20 	strge	r3, [r6], #-3872	; 0xfffff0e0
    1d44:	94000010 	strls	r0, [r0], #-16
    1d48:	063f2000 	ldrteq	r2, [pc], -r0
    1d4c:	00001090 	muleq	r0, r0, r0
    1d50:	3f200098 	svccc	0x00200098
    1d54:	00107406 	andseq	r7, r0, r6, lsl #8
    1d58:	20100000 	andscs	r0, r0, r0
    1d5c:	106b063f 	rsbne	r0, fp, pc, lsr r6
    1d60:	10000000 	andne	r0, r0, r0
    1d64:	f6063f20 			; <UNDEFINED> instruction: 0xf6063f20
    1d68:	04000010 	streq	r0, [r0], #-16
    1d6c:	063f2010 			; <UNDEFINED> instruction: 0x063f2010
    1d70:	000010bf 	strheq	r1, [r0], -pc	; <UNPREDICTABLE>
    1d74:	3f201018 	svccc	0x00201018
    1d78:	00116306 	andseq	r6, r1, r6, lsl #6
    1d7c:	20102000 	andscs	r2, r0, r0
    1d80:	10b4063f 	adcsne	r0, r4, pc, lsr r6
    1d84:	10240000 	eorne	r0, r4, r0
    1d88:	58063f20 	stmdapl	r6, {r5, r8, r9, sl, fp, ip, sp}
    1d8c:	28000011 	stmdacs	r0, {r0, r4}
    1d90:	063f2010 			; <UNDEFINED> instruction: 0x063f2010
    1d94:	000010c8 	andeq	r1, r0, r8, asr #1
    1d98:	3f20102c 	svccc	0x0020102c
    1d9c:	00113a06 	andseq	r3, r1, r6, lsl #20
    1da0:	20103000 	andscs	r3, r0, r0
    1da4:	111a063f 	tstne	sl, pc, lsr r6
    1da8:	10340000 	eorsne	r0, r4, r0
    1dac:	0f063f20 	svceq	0x00063f20
    1db0:	38000011 	stmdacc	r0, {r0, r4}
    1db4:	063f2010 			; <UNDEFINED> instruction: 0x063f2010
    1db8:	000010d3 	ldrdeq	r1, [r0], -r3
    1dbc:	3f20103c 	svccc	0x0020103c
    1dc0:	00106106 	andseq	r6, r0, r6, lsl #2
    1dc4:	20104000 	andscs	r4, r0, r0
    1dc8:	10dd063f 	sbcsne	r0, sp, pc, lsr r6
    1dcc:	10440000 	subne	r0, r4, r0
    1dd0:	03063f20 	movweq	r3, #28448	; 0x6f20
    1dd4:	48000011 	stmdami	r0, {r0, r4}
    1dd8:	063f2010 			; <UNDEFINED> instruction: 0x063f2010
    1ddc:	00001143 	andeq	r1, r0, r3, asr #2
    1de0:	3f201080 	svccc	0x00201080
    1de4:	00117806 	andseq	r7, r1, r6, lsl #16
    1de8:	20108400 	andscs	r8, r0, r0, lsl #8
    1dec:	1085063f 	addne	r0, r5, pc, lsr r6
    1df0:	10880000 	addne	r0, r8, r0
    1df4:	4e063f20 	cdpmi	15, 0, cr3, cr6, cr0, {1}
    1df8:	8c000011 	stchi	0, cr0, [r0], {17}
    1dfc:	003f2010 	eorseq	r2, pc, r0, lsl r0	; <UNPREDICTABLE>
    1e00:	00035003 	andeq	r5, r3, r3
    1e04:	7ad80300 	bvc	ff602a0c <__kernel_end+0xff4a0a0c>
    1e08:	02000000 	andeq	r0, r0, #0
    1e0c:	042e0408 	strteq	r0, [lr], #-1032	; 0xfffffbf8
    1e10:	4c070000 	stcmi	0, cr0, [r7], {-0}
    1e14:	01000010 	tsteq	r0, r0, lsl r0
    1e18:	0189030b 	orreq	r0, r9, fp, lsl #6
    1e1c:	72080000 	andvc	r0, r8, #0
    1e20:	01006765 	tsteq	r0, r5, ror #14
    1e24:	00005a0b 	andeq	r5, r0, fp, lsl #20
    1e28:	07b00900 	ldreq	r0, [r0, r0, lsl #18]!
    1e2c:	0b010000 	bleq	41e34 <__first_lvl_tbl_end+0x20e34>
    1e30:	0000005a 	andeq	r0, r0, sl, asr r0
    1e34:	0d7f0700 	ldcleq	7, cr0, [pc, #-0]	; 1e3c <SCTLR_ENABLE_INSTRUCTION_CACHE+0xe3c>
    1e38:	17010000 	strne	r0, [r1, -r0]
    1e3c:	0001a103 	andeq	sl, r1, r3, lsl #2
    1e40:	107f0900 	rsbsne	r0, pc, r0, lsl #18
    1e44:	17010000 	strne	r0, [r1, -r0]
    1e48:	00000033 	andeq	r0, r0, r3, lsr r0
    1e4c:	10570a00 	subsne	r0, r7, r0, lsl #20
    1e50:	11010000 	mrsne	r0, (UNDEF: 1)
    1e54:	0000005a 	andeq	r0, r0, sl, asr r0
    1e58:	0001bd03 	andeq	fp, r1, r3, lsl #26
    1e5c:	65720800 	ldrbvs	r0, [r2, #-2048]!	; 0xfffff800
    1e60:	11010067 	tstne	r1, r7, rrx
    1e64:	0000005a 	andeq	r0, r0, sl, asr r0
    1e68:	109a0b00 	addsne	r0, sl, r0, lsl #22
    1e6c:	23010000 	movwcs	r0, #4096	; 0x1000
    1e70:	00009164 	andeq	r9, r0, r4, ror #2
    1e74:	00000074 	andeq	r0, r0, r4, ror r0
    1e78:	03859c01 	orreq	r9, r5, #256	; 0x100
    1e7c:	660c0000 	strvs	r0, [ip], -r0
    1e80:	64000001 	strvs	r0, [r0], #-1
    1e84:	00000091 	muleq	r0, r1, r0
    1e88:	01000000 	mrseq	r0, (UNDEF: 0)
    1e8c:	0001f826 	andeq	pc, r1, r6, lsr #16
    1e90:	017d0d00 	cmneq	sp, r0, lsl #26
    1e94:	06610000 	strbteq	r0, [r1], -r0
    1e98:	720d0000 	andvc	r0, sp, #0
    1e9c:	75000001 	strvc	r0, [r0, #-1]
    1ea0:	00000006 	andeq	r0, r0, r6
    1ea4:	0001660c 	andeq	r6, r1, ip, lsl #12
    1ea8:	00916c00 	addseq	r6, r1, r0, lsl #24
    1eac:	00002000 	andeq	r2, r0, r0
    1eb0:	1e2a0100 	sufnee	f0, f2, f0
    1eb4:	0d000002 	stceq	0, cr0, [r0, #-8]
    1eb8:	0000017d 	andeq	r0, r0, sp, ror r1
    1ebc:	0000068d 	andeq	r0, r0, sp, lsl #13
    1ec0:	0001720d 	andeq	r7, r1, sp, lsl #4
    1ec4:	0006a100 	andeq	sl, r6, r0, lsl #2
    1ec8:	890c0000 	stmdbhi	ip, {}	; <UNPREDICTABLE>
    1ecc:	74000001 	strvc	r0, [r0], #-1
    1ed0:	38000091 	stmdacc	r0, {r0, r4, r7}
    1ed4:	01000000 	mrseq	r0, (UNDEF: 0)
    1ed8:	00023b2b 	andeq	r3, r2, fp, lsr #22
    1edc:	01950d00 	orrseq	r0, r5, r0, lsl #26
    1ee0:	06b90000 	ldrteq	r0, [r9], r0
    1ee4:	0e000000 	cdpeq	0, 0, cr0, cr0, cr0, {0}
    1ee8:	00000166 	andeq	r0, r0, r6, ror #2
    1eec:	00009190 	muleq	r0, r0, r1
    1ef0:	00000008 	andeq	r0, r0, r8
    1ef4:	02612e01 	rsbeq	r2, r1, #1, 28
    1ef8:	7d0d0000 	stcvc	0, cr0, [sp, #-0]
    1efc:	ce000001 	cdpgt	0, 0, cr0, cr0, cr1, {0}
    1f00:	0d000006 	stceq	0, cr0, [r0, #-24]	; 0xffffffe8
    1f04:	00000172 	andeq	r0, r0, r2, ror r1
    1f08:	000006e4 	andeq	r0, r0, r4, ror #13
    1f0c:	01890e00 	orreq	r0, r9, r0, lsl #28
    1f10:	91980000 	orrsls	r0, r8, r0
    1f14:	00080000 	andeq	r0, r8, r0
    1f18:	2f010000 	svccs	0x00010000
    1f1c:	0000027e 	andeq	r0, r0, lr, ror r2
    1f20:	0001950d 	andeq	r9, r1, sp, lsl #10
    1f24:	0006fc00 	andeq	pc, r6, r0, lsl #24
    1f28:	660c0000 	strvs	r0, [ip], -r0
    1f2c:	a0000001 	andge	r0, r0, r1
    1f30:	58000091 	stmdapl	r0, {r0, r4, r7}
    1f34:	01000000 	mrseq	r0, (UNDEF: 0)
    1f38:	0002a43d 	andeq	sl, r2, sp, lsr r4
    1f3c:	017d0d00 	cmneq	sp, r0, lsl #26
    1f40:	07110000 	ldreq	r0, [r1, -r0]
    1f44:	720d0000 	andvc	r0, sp, #0
    1f48:	25000001 	strcs	r0, [r0, #-1]
    1f4c:	00000007 	andeq	r0, r0, r7
    1f50:	0001660e 	andeq	r6, r1, lr, lsl #12
    1f54:	0091a400 	addseq	sl, r1, r0, lsl #8
    1f58:	00000400 	andeq	r0, r0, r0, lsl #8
    1f5c:	ca320100 	bgt	c82364 <__kernel_end+0xb20364>
    1f60:	0d000002 	stceq	0, cr0, [r0, #-8]
    1f64:	0000017d 	andeq	r0, r0, sp, ror r1
    1f68:	0000073d 	andeq	r0, r0, sp, lsr r7
    1f6c:	0001720d 	andeq	r7, r1, sp, lsl #4
    1f70:	00075100 	andeq	r5, r7, r0, lsl #2
    1f74:	660c0000 	strvs	r0, [ip], -r0
    1f78:	a8000001 	stmdage	r0, {r0}
    1f7c:	70000091 	mulvc	r0, r1, r0
    1f80:	01000000 	mrseq	r0, (UNDEF: 0)
    1f84:	0002f035 	andeq	pc, r2, r5, lsr r0	; <UNPREDICTABLE>
    1f88:	017d0d00 	cmneq	sp, r0, lsl #26
    1f8c:	07690000 	strbeq	r0, [r9, -r0]!
    1f90:	720d0000 	andvc	r0, sp, #0
    1f94:	7f000001 	svcvc	0x00000001
    1f98:	00000007 	andeq	r0, r0, r7
    1f9c:	0001660c 	andeq	r6, r1, ip, lsl #12
    1fa0:	0091ac00 	addseq	sl, r1, r0, lsl #24
    1fa4:	00008800 	andeq	r8, r0, r0, lsl #16
    1fa8:	163f0100 	ldrtne	r0, [pc], -r0, lsl #2
    1fac:	0d000003 	stceq	0, cr0, [r0, #-12]
    1fb0:	0000017d 	andeq	r0, r0, sp, ror r1
    1fb4:	00000797 	muleq	r0, r7, r7
    1fb8:	0001720d 	andeq	r7, r1, sp, lsl #4
    1fbc:	0007ac00 	andeq	sl, r7, r0, lsl #24
    1fc0:	660c0000 	strvs	r0, [ip], -r0
    1fc4:	b8000001 	stmdalt	r0, {r0}
    1fc8:	a0000091 	mulge	r0, r1, r0
    1fcc:	01000000 	mrseq	r0, (UNDEF: 0)
    1fd0:	00033c42 	andeq	r3, r3, r2, asr #24
    1fd4:	017d0d00 	cmneq	sp, r0, lsl #26
    1fd8:	07c40000 	strbeq	r0, [r4, r0]
    1fdc:	720d0000 	andvc	r0, sp, #0
    1fe0:	d9000001 	stmdble	r0, {r0}
    1fe4:	00000007 	andeq	r0, r0, r7
    1fe8:	0001660c 	andeq	r6, r1, ip, lsl #12
    1fec:	0091c000 	addseq	ip, r1, r0
    1ff0:	0000b800 	andeq	fp, r0, r0, lsl #16
    1ff4:	62450100 	subvs	r0, r5, #0, 2
    1ff8:	0d000003 	stceq	0, cr0, [r0, #-12]
    1ffc:	0000017d 	andeq	r0, r0, sp, ror r1
    2000:	000007f1 	strdeq	r0, [r0], -r1
    2004:	0001720d 	andeq	r7, r1, sp, lsl #4
    2008:	00080700 	andeq	r0, r8, r0, lsl #14
    200c:	660f0000 	strvs	r0, [pc], -r0
    2010:	c8000001 	stmdagt	r0, {r0}
    2014:	d0000091 	mulle	r0, r1, r0
    2018:	01000000 	mrseq	r0, (UNDEF: 0)
    201c:	017d0d49 	cmneq	sp, r9, asr #26
    2020:	081f0000 	ldmdaeq	pc, {}	; <UNPREDICTABLE>
    2024:	720d0000 	andvc	r0, sp, #0
    2028:	35000001 	strcc	r0, [r0, #-1]
    202c:	00000008 	andeq	r0, r0, r8
    2030:	116e1000 	cmnne	lr, r0
    2034:	4c010000 	stcmi	0, cr0, [r1], {-0}
    2038:	000091d8 	ldrdeq	r9, [r0], -r8
    203c:	00000024 	andeq	r0, r0, r4, lsr #32
    2040:	03e59c01 	mvneq	r9, #256	; 0x100
    2044:	63110000 	tstvs	r1, #0
    2048:	4c4c0100 	stfmie	f0, [ip], {-0}
    204c:	01000000 	mrseq	r0, (UNDEF: 0)
    2050:	01a10e50 			; <UNDEFINED> instruction: 0x01a10e50
    2054:	91d80000 	bicsls	r0, r8, r0
    2058:	00140000 	andseq	r0, r4, r0
    205c:	4f010000 	svcmi	0x00010000
    2060:	000003c2 	andeq	r0, r0, r2, asr #7
    2064:	0001b10d 	andeq	fp, r1, sp, lsl #2
    2068:	00084d00 	andeq	r4, r8, r0, lsl #26
    206c:	66120000 	ldrvs	r0, [r2], -r0
    2070:	f4000001 	vst4.8	{d0-d3}, [r0], r1
    2074:	08000091 	stmdaeq	r0, {r0, r4, r7}
    2078:	01000000 	mrseq	r0, (UNDEF: 0)
    207c:	017d0d52 	cmneq	sp, r2, asr sp
    2080:	08650000 	stmdaeq	r5!, {}^	; <UNPREDICTABLE>
    2084:	720d0000 	andvc	r0, sp, #0
    2088:	78000001 	stmdavc	r0, {r0}
    208c:	00000008 	andeq	r0, r0, r8
    2090:	10aa1300 	adcne	r1, sl, r0, lsl #6
    2094:	55010000 	strpl	r0, [r1, #-0]
    2098:	0000004c 	andeq	r0, r0, ip, asr #32
    209c:	000091fc 	strdeq	r9, [r0], -ip
    20a0:	00000028 	andeq	r0, r0, r8, lsr #32
    20a4:	04359c01 	ldrteq	r9, [r5], #-3073	; 0xfffff3ff
    20a8:	a10e0000 	mrsge	r0, (UNDEF: 14)
    20ac:	fc000001 	stc2	0, cr0, [r0], {1}
    20b0:	14000091 	strne	r0, [r0], #-145	; 0xffffff6f
    20b4:	01000000 	mrseq	r0, (UNDEF: 0)
    20b8:	00041b58 	andeq	r1, r4, r8, asr fp
    20bc:	01b10d00 			; <UNDEFINED> instruction: 0x01b10d00
    20c0:	08900000 	ldmeq	r0, {}	; <UNPREDICTABLE>
    20c4:	12000000 	andne	r0, r0, #0
    20c8:	000001a1 	andeq	r0, r0, r1, lsr #3
    20cc:	00009218 	andeq	r9, r0, r8, lsl r2
    20d0:	00000004 	andeq	r0, r0, r4
    20d4:	b10d5b01 	tstlt	sp, r1, lsl #22
    20d8:	a8000001 	stmdage	r0, {r0}
    20dc:	00000008 	andeq	r0, r0, r8
    20e0:	05211000 	streq	r1, [r1, #-0]!
    20e4:	5e010000 	cdppl	0, 0, cr0, cr1, cr0, {0}
    20e8:	00009224 	andeq	r9, r0, r4, lsr #4
    20ec:	00000028 	andeq	r0, r0, r8, lsr #32
    20f0:	047a9c01 	ldrbteq	r9, [sl], #-3073	; 0xfffff3ff
    20f4:	73140000 	tstvc	r4, #0
    20f8:	01007274 	tsteq	r0, r4, ror r2
    20fc:	00047a5e 	andeq	r7, r4, lr, asr sl
    2100:	0008c000 	andeq	ip, r8, r0
    2104:	922c1500 	eorls	r1, ip, #0, 10
    2108:	00200000 	eoreq	r0, r0, r0
    210c:	69160000 	ldmdbvs	r6, {}	; <UNPREDICTABLE>
    2110:	54600100 	strbtpl	r0, [r0], #-256	; 0xffffff00
    2114:	ec000001 	stc	0, cr0, [r0], {1}
    2118:	17000008 	strne	r0, [r0, -r8]
    211c:	0000923c 	andeq	r9, r0, ip, lsr r2
    2120:	00000385 	andeq	r0, r0, r5, lsl #7
    2124:	04180000 	ldreq	r0, [r8], #-0
    2128:	00000487 	andeq	r0, r0, r7, lsl #9
    212c:	14080102 	strne	r0, [r8], #-258	; 0xfffffefe
    2130:	19000000 	stmdbne	r0, {}	; <UNPREDICTABLE>
    2134:	00000480 	andeq	r0, r0, r0, lsl #9
    2138:	0011251a 	andseq	r2, r1, sl, lsl r5
    213c:	4c640100 	stfmie	f0, [r4], #-0
    2140:	40000092 	mulmi	r0, r2, r0
    2144:	01000000 	mrseq	r0, (UNDEF: 0)
    2148:	0064149c 	mlseq	r4, ip, r4, r1
    214c:	005a6401 	subseq	r6, sl, r1, lsl #8
    2150:	09350000 	ldmdbeq	r5!, {}	; <UNPREDICTABLE>
    2154:	72160000 	andsvc	r0, r6, #0
    2158:	67010062 	strvs	r0, [r1, -r2, rrx]
    215c:	0000005a 	andeq	r0, r0, sl, asr r0
    2160:	00000961 	andeq	r0, r0, r1, ror #18
    2164:	00637216 	rsbeq	r7, r3, r6, lsl r2
    2168:	005a6801 	subseq	r6, sl, r1, lsl #16
    216c:	09810000 	stmibeq	r1, {}	; <UNPREDICTABLE>
    2170:	781b0000 	ldmdavc	fp, {}	; <UNPREDICTABLE>
    2174:	85000092 	strhi	r0, [r0, #-146]	; 0xffffff6e
    2178:	00000003 	andeq	r0, r0, r3
    217c:	1c000005 	stcne	0, cr0, [r0], {5}
    2180:	75285001 	strvc	r5, [r8, #-1]!
    2184:	25007400 	strcs	r7, [r0, #-1024]	; 0xfffffc00
    2188:	37231a3f 			; <UNDEFINED> instruction: 0x37231a3f
    218c:	00740075 	rsbseq	r0, r4, r5, ror r0
    2190:	231a3f25 	tstcs	sl, #37, 30	; 0x94
    2194:	74007530 	strvc	r7, [r0], #-1328	; 0xfffffad0
    2198:	1a3f2500 	bne	fcb5a0 <__kernel_end+0xe695a0>
    219c:	22244b40 	eorcs	r4, r4, #64, 22	; 0x10000
    21a0:	0000090c 	andeq	r0, r0, ip, lsl #18
    21a4:	01282b80 	smlawbeq	r8, r0, fp, r2
    21a8:	00131600 	andseq	r1, r3, r0, lsl #12
    21ac:	00928c1d 	addseq	r8, r2, sp, lsl ip
    21b0:	00038500 	andeq	r8, r3, r0, lsl #10
    21b4:	50011c00 	andpl	r1, r1, r0, lsl #24
    21b8:	00200802 	eoreq	r0, r0, r2, lsl #16
    21bc:	05880000 	streq	r0, [r8]
    21c0:	00040000 	andeq	r0, r4, r0
    21c4:	00000d5a 	andeq	r0, r0, sl, asr sp
    21c8:	00640104 	rsbeq	r0, r4, r4, lsl #2
    21cc:	d40c0000 	strle	r0, [ip], #-0
    21d0:	1a000011 	bne	221c <SCTLR_ENABLE_INSTRUCTION_CACHE+0x121c>
    21d4:	8c000001 	stchi	0, cr0, [r0], {1}
    21d8:	24000092 	strcs	r0, [r0], #-146	; 0xffffff6e
    21dc:	25000003 	strcs	r0, [r0, #-3]
    21e0:	0200000d 	andeq	r0, r0, #13
    21e4:	000d0601 	andeq	r0, sp, r1, lsl #12
    21e8:	02020000 	andeq	r0, r2, #0
    21ec:	00016b05 	andeq	r6, r1, r5, lsl #22
    21f0:	05040200 	streq	r0, [r4, #-512]	; 0xfffffe00
    21f4:	00000111 	andeq	r0, r0, r1, lsl r1
    21f8:	0c050802 	stceq	8, cr0, [r5], {2}
    21fc:	02000001 	andeq	r0, r0, #1
    2200:	000b0801 	andeq	r0, fp, r1, lsl #16
    2204:	02020000 	andeq	r0, r2, #0
    2208:	00001907 	andeq	r1, r0, r7, lsl #18
    220c:	01750300 	cmneq	r5, r0, lsl #6
    2210:	34060000 	strcc	r0, [r6], #-0
    2214:	0000005a 	andeq	r0, r0, sl, asr r0
    2218:	52070402 	andpl	r0, r7, #33554432	; 0x2000000
    221c:	02000000 	andeq	r0, r0, #0
    2220:	004d0708 	subeq	r0, sp, r8, lsl #14
    2224:	04040000 	streq	r0, [r4], #-0
    2228:	746e6905 	strbtvc	r6, [lr], #-2309	; 0xfffff6fb
    222c:	07040200 	streq	r0, [r4, -r0, lsl #4]
    2230:	00000057 	andeq	r0, r0, r7, asr r0
    2234:	00004f05 	andeq	r4, r0, r5, lsl #30
    2238:	126d0600 	rsbne	r0, sp, #0, 12
    223c:	02200000 	eoreq	r0, r0, #0
    2240:	0000dc0b 	andeq	sp, r0, fp, lsl #24
    2244:	12b30700 	adcsne	r0, r3, #0, 14
    2248:	0d020000 	stceq	0, cr0, [r2, #-0]
    224c:	0000004f 	andeq	r0, r0, pc, asr #32
    2250:	72730800 	rsbsvc	r0, r3, #0, 16
    2254:	0e020063 	cdpeq	0, 0, cr0, cr2, cr3, {3}
    2258:	0000004f 	andeq	r0, r0, pc, asr #32
    225c:	73640804 	cmnvc	r4, #4, 16	; 0x40000
    2260:	0f020074 	svceq	0x00020074
    2264:	0000004f 	andeq	r0, r0, pc, asr #32
    2268:	12960708 	addsne	r0, r6, #8, 14	; 0x200000
    226c:	10020000 	andne	r0, r2, r0
    2270:	0000004f 	andeq	r0, r0, pc, asr #32
    2274:	125c070c 	subsne	r0, ip, #12, 14	; 0x300000
    2278:	11020000 	mrsne	r0, (UNDEF: 2)
    227c:	0000004f 	andeq	r0, r0, pc, asr #32
    2280:	11880710 	orrne	r0, r8, r0, lsl r7
    2284:	12020000 	andne	r0, r2, #0
    2288:	0000004f 	andeq	r0, r0, pc, asr #32
    228c:	61700814 	cmnvs	r0, r4, lsl r8
    2290:	13020064 	movwne	r0, #8292	; 0x2064
    2294:	000000dc 	ldrdeq	r0, [r0], -ip
    2298:	4f090018 	svcmi	0x00090018
    229c:	ec000000 	stc	0, cr0, [r0], {-0}
    22a0:	0a000000 	beq	22a8 <SCTLR_ENABLE_INSTRUCTION_CACHE+0x12a8>
    22a4:	000000ec 	andeq	r0, r0, ip, ror #1
    22a8:	04020001 	streq	r0, [r2], #-1
    22ac:	00035707 	andeq	r5, r3, r7, lsl #14
    22b0:	7b040b00 	blvc	104eb8 <__first_lvl_tbl_end+0xe3eb8>
    22b4:	06000000 	streq	r0, [r0], -r0
    22b8:	0000129d 	muleq	r0, sp, r2
    22bc:	701e0224 	andsvc	r0, lr, r4, lsr #4
    22c0:	08000001 	stmdaeq	r0, {r0}
    22c4:	02005343 	andeq	r5, r0, #201326593	; 0xc000001
    22c8:	00004f20 	andeq	r4, r0, r0, lsr #30
    22cc:	7c070000 	stcvc	0, cr0, [r7], {-0}
    22d0:	02000012 	andeq	r0, r0, #18
    22d4:	00004f32 	andeq	r4, r0, r2, lsr pc
    22d8:	54080400 	strpl	r0, [r8], #-1024	; 0xfffffc00
    22dc:	33020049 	movwcc	r0, #8265	; 0x2049
    22e0:	0000004f 	andeq	r0, r0, pc, asr #32
    22e4:	11ca0708 	bicne	r0, sl, r8, lsl #14
    22e8:	34020000 	strcc	r0, [r2], #-0
    22ec:	0000004f 	andeq	r0, r0, pc, asr #32
    22f0:	121d070c 	andsne	r0, sp, #12, 14	; 0x300000
    22f4:	35020000 	strcc	r0, [r2, #-0]
    22f8:	0000004f 	andeq	r0, r0, pc, asr #32
    22fc:	12400710 	subne	r0, r0, #16, 14	; 0x400000
    2300:	36020000 	strcc	r0, [r2], -r0
    2304:	0000004f 	andeq	r0, r0, pc, asr #32
    2308:	12160714 	andsne	r0, r6, #20, 14	; 0x500000
    230c:	37020000 	strcc	r0, [r2, -r0]
    2310:	0000004f 	andeq	r0, r0, pc, asr #32
    2314:	12490718 	subne	r0, r9, #24, 14	; 0x600000
    2318:	38020000 	stmdacc	r2, {}	; <UNPREDICTABLE>
    231c:	0000004f 	andeq	r0, r0, pc, asr #32
    2320:	118d071c 	orrne	r0, sp, ip, lsl r7
    2324:	39020000 	stmdbcc	r2, {}	; <UNPREDICTABLE>
    2328:	0000004f 	andeq	r0, r0, pc, asr #32
    232c:	08020020 	stmdaeq	r2, {r5}
    2330:	00042e04 	andeq	r2, r4, r4, lsl #28
    2334:	12040c00 	andne	r0, r4, #0, 24
    2338:	31010000 	mrscc	r0, (UNDEF: 1)
    233c:	0000928c 	andeq	r9, r0, ip, lsl #5
    2340:	00000040 	andeq	r0, r0, r0, asr #32
    2344:	01b49c01 			; <UNDEFINED> instruction: 0x01b49c01
    2348:	860d0000 	strhi	r0, [sp], -r0
    234c:	01000012 	tsteq	r0, r2, lsl r0
    2350:	0001b433 	andeq	fp, r1, r3, lsr r4
    2354:	00700000 	rsbseq	r0, r0, r0
    2358:	12630e3f 	rsbne	r0, r3, #1008	; 0x3f0
    235c:	34010000 	strcc	r0, [r1], #-0
    2360:	000001ba 			; <UNDEFINED> instruction: 0x000001ba
    2364:	000009d2 	ldrdeq	r0, [r0], -r2
    2368:	0092c00f 	addseq	ip, r2, pc
    236c:	00055f00 	andeq	r5, r5, r0, lsl #30
    2370:	040b0000 	streq	r0, [fp], #-0
    2374:	0000004f 	andeq	r0, r0, pc, asr #32
    2378:	01c0040b 	biceq	r0, r0, fp, lsl #8
    237c:	f9050000 			; <UNDEFINED> instruction: 0xf9050000
    2380:	0c000000 	stceq	0, cr0, [r0], {-0}
    2384:	000012b8 			; <UNDEFINED> instruction: 0x000012b8
    2388:	92cc2c01 	sbcls	r2, ip, #256	; 0x100
    238c:	00100000 	andseq	r0, r0, r0
    2390:	9c010000 	stcls	0, cr0, [r1], {-0}
    2394:	000001e4 	andeq	r0, r0, r4, ror #3
    2398:	0092d80f 	addseq	sp, r2, pc, lsl #16
    239c:	00055f00 	andeq	r5, r5, r0, lsl #30
    23a0:	e1100000 	tst	r0, r0
    23a4:	01000011 	tsteq	r0, r1, lsl r0
    23a8:	0092dc0f 	addseq	sp, r2, pc, lsl #24
    23ac:	00004c00 	andeq	r4, r0, r0, lsl #24
    23b0:	4e9c0100 	fmlmie	f0, f4, f0
    23b4:	11000002 	tstne	r0, r2
    23b8:	000011ec 	andeq	r1, r0, ip, ror #3
    23bc:	024e0f01 	subeq	r0, lr, #1, 30
    23c0:	09e50000 	stmibeq	r5!, {}^	; <UNPREDICTABLE>
    23c4:	96110000 	ldrls	r0, [r1], -r0
    23c8:	01000012 	tsteq	r0, r2, lsl r0
    23cc:	0000680f 	andeq	r6, r0, pc, lsl #16
    23d0:	000a1b00 	andeq	r1, sl, r0, lsl #22
    23d4:	92f41200 	rscsls	r1, r4, #0, 4
    23d8:	001c0000 	andseq	r0, ip, r0
    23dc:	023b0000 	eorseq	r0, fp, #0
    23e0:	69130000 	ldmdbvs	r3, {}	; <UNPREDICTABLE>
    23e4:	68120100 	ldmdavs	r2, {r8}
    23e8:	47000000 	strmi	r0, [r0, -r0]
    23ec:	1400000a 	strne	r0, [r0], #-10
    23f0:	00009308 	andeq	r9, r0, r8, lsl #6
    23f4:	0000056a 	andeq	r0, r0, sl, ror #10
    23f8:	92f41400 	rscsls	r1, r4, #0, 8
    23fc:	05750000 	ldrbeq	r0, [r5, #-0]!
    2400:	200f0000 	andcs	r0, pc, r0
    2404:	75000093 	strvc	r0, [r0, #-147]	; 0xffffff6d
    2408:	00000005 	andeq	r0, r0, r5
    240c:	0254040b 	subseq	r0, r4, #184549376	; 0xb000000
    2410:	01020000 	mrseq	r0, (UNDEF: 2)
    2414:	00001408 	andeq	r1, r0, r8, lsl #8
    2418:	12ca1000 	sbcne	r1, sl, #0
    241c:	19010000 	stmdbne	r1, {}	; <UNPREDICTABLE>
    2420:	00009328 	andeq	r9, r0, r8, lsr #6
    2424:	00000024 	andeq	r0, r0, r4, lsr #32
    2428:	029e9c01 	addseq	r9, lr, #256	; 0x100
    242c:	ec110000 	ldc	0, cr0, [r1], {-0}
    2430:	01000011 	tsteq	r0, r1, lsl r0
    2434:	00024e19 	andeq	r4, r2, r9, lsl lr
    2438:	000a5b00 	andeq	r5, sl, r0, lsl #22
    243c:	11a11100 			; <UNDEFINED> instruction: 0x11a11100
    2440:	19010000 	stmdbne	r1, {}	; <UNPREDICTABLE>
    2444:	0000024e 	andeq	r0, r0, lr, asr #4
    2448:	00000a93 	muleq	r0, r3, sl
    244c:	00129611 	andseq	r9, r2, r1, lsl r6
    2450:	68190100 	ldmdavs	r9, {r8}
    2454:	b1000000 	mrslt	r0, (UNDEF: 0)
    2458:	0000000a 	andeq	r0, r0, sl
    245c:	00123110 	andseq	r3, r2, r0, lsl r1
    2460:	4c240100 	stfmis	f0, [r4], #-0
    2464:	1c000093 	stcne	0, cr0, [r0], {147}	; 0x93
    2468:	01000000 	mrseq	r0, (UNDEF: 0)
    246c:	0002fb9c 	muleq	r2, ip, fp
    2470:	11831500 	orrne	r1, r3, r0, lsl #10
    2474:	24010000 	strcs	r0, [r1], #-0
    2478:	000002fb 	strdeq	r0, [r0], -fp
    247c:	ae115001 	cdpge	0, 1, cr5, cr1, cr1, {0}
    2480:	01000012 	tsteq	r0, r2, lsl r0
    2484:	00004f24 	andeq	r4, r0, r4, lsr #30
    2488:	000b0500 	andeq	r0, fp, r0, lsl #10
    248c:	05d51100 	ldrbeq	r1, [r5, #256]	; 0x100
    2490:	24010000 	strcs	r0, [r1], #-0
    2494:	0000004f 	andeq	r0, r0, pc, asr #32
    2498:	00000b26 	andeq	r0, r0, r6, lsr #22
    249c:	72756313 	rsbsvc	r6, r5, #1275068416	; 0x4c000000
    24a0:	4f260100 	svcmi	0x00260100
    24a4:	47000000 	strmi	r0, [r0, -r0]
    24a8:	1600000b 	strne	r0, [r0], -fp
    24ac:	0077656e 	rsbseq	r6, r7, lr, ror #10
    24b0:	004f2701 	subeq	r2, pc, r1, lsl #14
    24b4:	53010000 	movwpl	r0, #4096	; 0x1000
    24b8:	76040b00 	strvc	r0, [r4], -r0, lsl #22
    24bc:	17000000 	strne	r0, [r0, -r0]
    24c0:	00001193 	muleq	r0, r3, r1
    24c4:	93683901 	cmnls	r8, #16384	; 0x4000
    24c8:	02480000 	subeq	r0, r8, #0
    24cc:	9c010000 	stcls	0, cr0, [r1], {-0}
    24d0:	00000512 	andeq	r0, r0, r2, lsl r5
    24d4:	0012d718 	andseq	sp, r2, r8, lsl r7
    24d8:	123e0100 	eorsne	r0, lr, #0, 2
    24dc:	02000005 	andeq	r0, r0, #5
    24e0:	91194c91 			; <UNDEFINED> instruction: 0x91194c91
    24e4:	01000012 	tsteq	r0, r2, lsl r0
    24e8:	00006840 	andeq	r6, r0, r0, asr #16
    24ec:	cf1a0c00 	svcgt	0x001a0c00
    24f0:	01000012 	tsteq	r0, r2, lsl r0
    24f4:	00024e43 	andeq	r4, r2, r3, asr #28
    24f8:	62631b00 	rsbvs	r1, r3, #0, 22
    24fc:	52010031 	andpl	r0, r1, #49	; 0x31
    2500:	000000f3 	strdeq	r0, [r0], -r3
    2504:	3262631b 	rsbcc	r6, r2, #1811939328	; 0x6c000000
    2508:	f3540100 	vrhadd.u16	d16, d4, d0
    250c:	0d000000 	stceq	0, cr0, [r0, #-0]
    2510:	00001286 	andeq	r1, r0, r6, lsl #5
    2514:	01b46701 			; <UNDEFINED> instruction: 0x01b46701
    2518:	70000000 	andvc	r0, r0, r0
    251c:	630e3f00 	movwvs	r3, #61184	; 0xef00
    2520:	01000012 	tsteq	r0, r2, lsl r0
    2524:	0001ba6c 	andeq	fp, r1, ip, ror #20
    2528:	000b5a00 	andeq	r5, fp, r0, lsl #20
    252c:	31611c00 	cmncc	r1, r0, lsl #24
    2530:	6f700100 	svcvs	0x00700100
    2534:	d8000000 	stmdale	r0, {}	; <UNPREDICTABLE>
    2538:	00611cd6 	ldrdeq	r1, [r1], #-198	; 0xffffff3a	; <UNPREDICTABLE>
    253c:	006f7e01 	rsbeq	r7, pc, r1, lsl #28
    2540:	d6d80000 	ldrble	r0, [r8], r0
    2544:	0093901d 	addseq	r9, r3, sp, lsl r0
    2548:	00058000 	andeq	r8, r5, r0
    254c:	00039900 	andeq	r9, r3, r0, lsl #18
    2550:	50011e00 	andpl	r1, r1, r0, lsl #28
    2554:	14004401 	strne	r4, [r0], #-1025	; 0xfffffbff
    2558:	000093d0 	ldrdeq	r9, [r0], -r0
    255c:	00000575 	andeq	r0, r0, r5, ror r5
    2560:	0093e41d 	addseq	lr, r3, sp, lsl r4
    2564:	0001e400 	andeq	lr, r1, r0, lsl #8
    2568:	0003bc00 	andeq	fp, r3, r0, lsl #24
    256c:	50011e00 	andpl	r1, r1, r0, lsl #28
    2570:	1e007b02 	vmlane.f64	d7, d0, d2
    2574:	76025101 	strvc	r5, [r2], -r1, lsl #2
    2578:	f41d0000 			; <UNDEFINED> instruction: 0xf41d0000
    257c:	5b000093 	blpl	27d0 <SCTLR_ENABLE_INSTRUCTION_CACHE+0x17d0>
    2580:	dc000002 	stcle	0, cr0, [r0], {2}
    2584:	1e000003 	cdpne	0, 0, cr0, cr0, cr3, {0}
    2588:	91025001 	tstls	r2, r1
    258c:	51011e44 	tstpl	r1, r4, asr #28
    2590:	1e007b02 	vmlane.f64	d7, d0, d2
    2594:	76025201 	strvc	r5, [r2], -r1, lsl #4
    2598:	00140000 	andseq	r0, r4, r0
    259c:	75000094 	strvc	r0, [r0, #-148]	; 0xffffff6c
    25a0:	1d000005 	stcne	0, cr0, [r0, #-20]	; 0xffffffec
    25a4:	0000940c 	andeq	r9, r0, ip, lsl #8
    25a8:	000001e4 	andeq	r0, r0, r4, ror #3
    25ac:	000003ff 	strdeq	r0, [r0], -pc	; <UNPREDICTABLE>
    25b0:	0250011e 	subseq	r0, r0, #-2147483641	; 0x80000007
    25b4:	011e007b 	tsteq	lr, fp, ror r0
    25b8:	00760251 	rsbseq	r0, r6, r1, asr r2
    25bc:	94141d00 	ldrls	r1, [r4], #-3328	; 0xfffff300
    25c0:	05750000 	ldrbeq	r0, [r5, #-0]!
    25c4:	04130000 	ldreq	r0, [r3], #-0
    25c8:	011e0000 	tsteq	lr, r0
    25cc:	00740250 	rsbseq	r0, r4, r0, asr r2
    25d0:	94281d00 	strtls	r1, [r8], #-3328	; 0xfffff300
    25d4:	01e40000 	mvneq	r0, r0
    25d8:	042d0000 	strteq	r0, [sp], #-0
    25dc:	011e0000 	tsteq	lr, r0
    25e0:	00780250 	rsbseq	r0, r8, r0, asr r2
    25e4:	0251011e 	subseq	r0, r1, #-2147483641	; 0x80000007
    25e8:	1d000076 	stcne	0, cr0, [r0, #-472]	; 0xfffffe28
    25ec:	00009430 	andeq	r9, r0, r0, lsr r4
    25f0:	00000575 	andeq	r0, r0, r5, ror r5
    25f4:	00000441 	andeq	r0, r0, r1, asr #8
    25f8:	0250011e 	subseq	r0, r0, #-2147483641	; 0x80000007
    25fc:	1d000074 	stcne	0, cr0, [r0, #-464]	; 0xfffffe30
    2600:	00009444 	andeq	r9, r0, r4, asr #8
    2604:	000001e4 	andeq	r0, r0, r4, ror #3
    2608:	0000045b 	andeq	r0, r0, fp, asr r4
    260c:	0250011e 	subseq	r0, r0, #-2147483641	; 0x80000007
    2610:	011e0077 	tsteq	lr, r7, ror r0
    2614:	00760251 	rsbseq	r0, r6, r1, asr r2
    2618:	949c1d00 	ldrls	r1, [ip], #3328	; 0xd00
    261c:	055f0000 	ldrbeq	r0, [pc, #-0]	; 2624 <SCTLR_ENABLE_INSTRUCTION_CACHE+0x1624>
    2620:	046f0000 	strbteq	r0, [pc], #-0	; 2628 <SCTLR_ENABLE_INSTRUCTION_CACHE+0x1628>
    2624:	011e0000 	tsteq	lr, r0
    2628:	00740251 	rsbseq	r0, r4, r1, asr r2
    262c:	94ac1d00 	strtls	r1, [ip], #3328	; 0xd00
    2630:	055f0000 	ldrbeq	r0, [pc, #-0]	; 2638 <SCTLR_ENABLE_INSTRUCTION_CACHE+0x1638>
    2634:	04830000 	streq	r0, [r3], #0
    2638:	011e0000 	tsteq	lr, r0
    263c:	007b0251 	rsbseq	r0, fp, r1, asr r2
    2640:	94cc1400 	strbls	r1, [ip], #1024	; 0x400
    2644:	029e0000 	addseq	r0, lr, #0
    2648:	f0140000 			; <UNDEFINED> instruction: 0xf0140000
    264c:	75000094 	strvc	r0, [r0, #-148]	; 0xffffff6c
    2650:	14000005 	strne	r0, [r0], #-5
    2654:	00009504 	andeq	r9, r0, r4, lsl #10
    2658:	00000575 	andeq	r0, r0, r5, ror r5
    265c:	00951414 	addseq	r1, r5, r4, lsl r4
    2660:	00057500 	andeq	r7, r5, r0, lsl #10
    2664:	95241400 	strls	r1, [r4, #-1024]!	; 0xfffffc00
    2668:	05750000 	ldrbeq	r0, [r5, #-0]!
    266c:	30140000 	andscc	r0, r4, r0
    2670:	75000095 	strvc	r0, [r0, #-149]	; 0xffffff6b
    2674:	1d000005 	stcne	0, cr0, [r0, #-20]	; 0xffffffec
    2678:	00009538 	andeq	r9, r0, r8, lsr r5
    267c:	00000575 	andeq	r0, r0, r5, ror r5
    2680:	000004cd 	andeq	r0, r0, sp, asr #9
    2684:	0250011e 	subseq	r0, r0, #-2147483641	; 0x80000007
    2688:	1d00007a 	stcne	0, cr0, [r0, #-488]	; 0xfffffe18
    268c:	00009544 	andeq	r9, r0, r4, asr #10
    2690:	000001e4 	andeq	r0, r0, r4, ror #3
    2694:	000004e7 	andeq	r0, r0, r7, ror #9
    2698:	0250011e 	subseq	r0, r0, #-2147483641	; 0x80000007
    269c:	011e0078 	tsteq	lr, r8, ror r0
    26a0:	00760251 	rsbseq	r0, r6, r1, asr r2
    26a4:	954c1d00 	strbls	r1, [ip, #-3328]	; 0xfffff300
    26a8:	05750000 	ldrbeq	r0, [r5, #-0]!
    26ac:	04fb0000 	ldrbteq	r0, [fp], #0
    26b0:	011e0000 	tsteq	lr, r0
    26b4:	007a0250 	rsbseq	r0, sl, r0, asr r2
    26b8:	95581f00 	ldrbls	r1, [r8, #-3840]	; 0xfffff100
    26bc:	01e40000 	mvneq	r0, r0
    26c0:	011e0000 	tsteq	lr, r0
    26c4:	00770250 	rsbseq	r0, r7, r0, asr r2
    26c8:	0251011e 	subseq	r0, r1, #-2147483641	; 0x80000007
    26cc:	00000076 	andeq	r0, r0, r6, ror r0
    26d0:	00025409 	andeq	r5, r2, r9, lsl #8
    26d4:	00052200 	andeq	r2, r5, r0, lsl #4
    26d8:	00ec0a00 	rsceq	r0, ip, r0, lsl #20
    26dc:	000b0000 	andeq	r0, fp, r0
    26e0:	0011f520 	andseq	pc, r1, r0, lsr #10
    26e4:	68060100 	stmdavs	r6, {r8}
    26e8:	20000000 	andcs	r0, r0, r0
    26ec:	000011aa 	andeq	r1, r0, sl, lsr #3
    26f0:	00680701 	rsbeq	r0, r8, r1, lsl #14
    26f4:	ba200000 	blt	8026fc <__kernel_end+0x6a06fc>
    26f8:	01000011 	tsteq	r0, r1, lsl r0
    26fc:	00006808 	andeq	r6, r0, r8, lsl #16
    2700:	12252000 	eorne	r2, r5, #0
    2704:	09010000 	stmdbeq	r1, {}	; <UNPREDICTABLE>
    2708:	00000068 	andeq	r0, r0, r8, rrx
    270c:	00125321 	andseq	r5, r2, r1, lsr #6
    2710:	680d0100 	stmdavs	sp, {r8}
    2714:	05000000 	streq	r0, [r0, #-0]
    2718:	00c00003 	sbceq	r0, r0, r3
    271c:	04922200 	ldreq	r2, [r2], #512	; 0x200
    2720:	04920000 	ldreq	r0, [r2], #0
    2724:	0c030000 	stceq	0, cr0, [r3], {-0}
    2728:	00116e22 	andseq	r6, r1, r2, lsr #28
    272c:	00116e00 	andseq	r6, r1, r0, lsl #28
    2730:	222a0400 	eorcs	r0, sl, #0, 8
    2734:	00000521 	andeq	r0, r0, r1, lsr #10
    2738:	00000521 	andeq	r0, r0, r1, lsr #10
    273c:	a1222c04 			; <UNDEFINED> instruction: 0xa1222c04
    2740:	a1000003 	tstge	r0, r3
    2744:	05000003 	streq	r0, [r0, #-3]
    2748:	0567005d 	strbeq	r0, [r7, #-93]!	; 0xffffffa3
    274c:	00040000 	andeq	r0, r4, r0
    2750:	00000f46 	andeq	r0, r0, r6, asr #30
    2754:	00640104 	rsbeq	r0, r4, r4, lsl #2
    2758:	260c0000 	strcs	r0, [ip], -r0
    275c:	1a000013 	bne	27b0 <SCTLR_ENABLE_INSTRUCTION_CACHE+0x17b0>
    2760:	b0000001 	andlt	r0, r0, r1
    2764:	58000095 	stmdapl	r0, {r0, r2, r4, r7}
    2768:	14000001 	strne	r0, [r0], #-1
    276c:	0200000f 	andeq	r0, r0, #15
    2770:	000d0601 	andeq	r0, sp, r1, lsl #12
    2774:	01020000 	mrseq	r0, (UNDEF: 2)
    2778:	00000b08 	andeq	r0, r0, r8, lsl #22
    277c:	05020200 	streq	r0, [r2, #-512]	; 0xfffffe00
    2780:	0000016b 	andeq	r0, r0, fp, ror #2
    2784:	19070202 	stmdbne	r7, {r1, r9}
    2788:	02000000 	andeq	r0, r0, #0
    278c:	01110504 	tsteq	r1, r4, lsl #10
    2790:	04020000 	streq	r0, [r2], #-0
    2794:	00005207 	andeq	r5, r0, r7, lsl #4
    2798:	05080200 	streq	r0, [r8, #-512]	; 0xfffffe00
    279c:	0000010c 	andeq	r0, r0, ip, lsl #2
    27a0:	4d070802 	stcmi	8, cr0, [r7, #-8]
    27a4:	03000000 	movweq	r0, #0
    27a8:	6e690504 	cdpvs	5, 6, cr0, cr9, cr4, {0}
    27ac:	04020074 	streq	r0, [r2], #-116	; 0xffffff8c
    27b0:	00005707 	andeq	r5, r0, r7, lsl #14
    27b4:	04080200 	streq	r0, [r8], #-512	; 0xfffffe00
    27b8:	0000042e 	andeq	r0, r0, lr, lsr #8
    27bc:	00017604 	andeq	r7, r1, r4, lsl #12
    27c0:	41280200 			; <UNDEFINED> instruction: 0x41280200
    27c4:	04000000 	streq	r0, [r0], #-0
    27c8:	00000372 	andeq	r0, r0, r2, ror r3
    27cc:	002c2e02 	eoreq	r2, ip, r2, lsl #28
    27d0:	75040000 	strvc	r0, [r4, #-0]
    27d4:	02000001 	andeq	r0, r0, #1
    27d8:	00004834 	andeq	r4, r0, r4, lsr r8
    27dc:	64040500 	strvs	r0, [r4], #-1280	; 0xfffffb00
    27e0:	03000000 	movweq	r0, #0
    27e4:	0002d90d 	andeq	sp, r2, sp, lsl #18
    27e8:	0adc0600 	beq	ff703ff0 <__kernel_end+0xff5a1ff0>
    27ec:	07010000 	streq	r0, [r1, -r0]
    27f0:	00000ac8 	andeq	r0, r0, r8, asr #21
    27f4:	00010001 	andeq	r0, r1, r1
    27f8:	00073d07 	andeq	r3, r7, r7, lsl #26
    27fc:	01000200 	mrseq	r0, R8_usr
    2800:	0cad0700 	stceq	7, cr0, [sp]
    2804:	00030000 	andeq	r0, r3, r0
    2808:	28070001 	stmdacs	r7, {r0}
    280c:	04000007 	streq	r0, [r0], #-7
    2810:	07000100 	streq	r0, [r0, -r0, lsl #2]
    2814:	00000970 	andeq	r0, r0, r0, ror r9
    2818:	00010005 	andeq	r0, r1, r5
    281c:	00081d07 	andeq	r1, r8, r7, lsl #26
    2820:	01000600 	tsteq	r0, r0, lsl #12
    2824:	0beb0700 	bleq	ffac442c <__kernel_end+0xff96242c>
    2828:	00070000 	andeq	r0, r7, r0
    282c:	b3070001 	movwlt	r0, #28673	; 0x7001
    2830:	0100000a 	tsteq	r0, sl
    2834:	07000500 	streq	r0, [r0, -r0, lsl #10]
    2838:	00000cd5 	ldrdeq	r0, [r0], -r5
    283c:	00060001 	andeq	r0, r6, r1
    2840:	000d0d07 	andeq	r0, sp, r7, lsl #26
    2844:	02000100 	andeq	r0, r0, #0, 2
    2848:	0d280700 	stceq	7, cr0, [r8, #-0]
    284c:	00020000 	andeq	r0, r2, r0
    2850:	b9070002 	stmdblt	r7, {r1}
    2854:	01000009 	tsteq	r0, r9
    2858:	07000280 	streq	r0, [r0, -r0, lsl #5]
    285c:	00000b74 	andeq	r0, r0, r4, ror fp
    2860:	00030001 	andeq	r0, r3, r1
    2864:	00084107 	andeq	r4, r8, r7, lsl #2
    2868:	03800100 	orreq	r0, r0, #0, 2
    286c:	07ec0700 	strbeq	r0, [ip, r0, lsl #14]!
    2870:	00020000 	andeq	r0, r2, r0
    2874:	61070003 	tstvs	r7, r3
    2878:	0200000b 	andeq	r0, r0, #11
    287c:	07000380 	streq	r0, [r0, -r0, lsl #7]
    2880:	000008af 	andeq	r0, r0, pc, lsr #17
    2884:	00030004 	andeq	r0, r3, r4
    2888:	00075407 	andeq	r5, r7, r7, lsl #8
    288c:	03000700 	movweq	r0, #1792	; 0x700
    2890:	0cc70700 	stcleq	7, cr0, [r7], {0}
    2894:	00090000 	andeq	r0, r9, r0
    2898:	88070003 	stmdahi	r7, {r0, r1}
    289c:	0900000b 	stmdbeq	r0, {r0, r1, r3}
    28a0:	07000380 	streq	r0, [r0, -r0, lsl #7]
    28a4:	00000a43 	andeq	r0, r0, r3, asr #20
    28a8:	00030003 	andeq	r0, r3, r3
    28ac:	0007dc07 	andeq	sp, r7, r7, lsl #24
    28b0:	03800300 	orreq	r0, r0, #0, 6
    28b4:	0b4d0700 	bleq	13444bc <__kernel_end+0x11e24bc>
    28b8:	00050000 	andeq	r0, r5, r0
    28bc:	d7070003 	strle	r0, [r7, -r3]
    28c0:	0800000b 	stmdaeq	r0, {r0, r1, r3}
    28c4:	07000300 	streq	r0, [r0, -r0, lsl #6]
    28c8:	000007b5 			; <UNDEFINED> instruction: 0x000007b5
    28cc:	00030006 	andeq	r0, r3, r6
    28d0:	000aff07 	andeq	pc, sl, r7, lsl #30
    28d4:	03000a00 	movweq	r0, #2560	; 0xa00
    28d8:	0b390700 	bleq	e444e0 <__kernel_end+0xce24e0>
    28dc:	000c0000 	andeq	r0, ip, r0
    28e0:	cd070003 	stcgt	0, cr0, [r7, #-12]
    28e4:	0d000009 	stceq	0, cr0, [r0, #-36]	; 0xffffffdc
    28e8:	07000300 	streq	r0, [r0, -r0, lsl #6]
    28ec:	00000c9b 	muleq	r0, fp, ip
    28f0:	0003000e 	andeq	r0, r3, lr
    28f4:	0009a607 	andeq	sl, r9, r7, lsl #12
    28f8:	03000f00 	movweq	r0, #3840	; 0xf00
    28fc:	0a7c0700 	beq	1f04504 <__kernel_end+0x1da2504>
    2900:	00100000 	andseq	r0, r0, r0
    2904:	55070003 	strpl	r0, [r7, #-3]
    2908:	1400000c 	strne	r0, [r0], #-12
    290c:	07000300 	streq	r0, [r0, -r0, lsl #6]
    2910:	0000089c 	muleq	r0, ip, r8
    2914:	00030020 	andeq	r0, r3, r0, lsr #32
    2918:	000a0a07 	andeq	r0, sl, r7, lsl #20
    291c:	04000100 	streq	r0, [r0], #-256	; 0xffffff00
    2920:	07c90700 	strbeq	r0, [r9, r0, lsl #14]
    2924:	80010000 	andhi	r0, r1, r0
    2928:	06070004 	streq	r0, [r7], -r4
    292c:	02000007 	andeq	r0, r0, #7
    2930:	07000400 	streq	r0, [r0, -r0, lsl #8]
    2934:	0000079a 	muleq	r0, sl, r7
    2938:	00040003 	andeq	r0, r4, r3
    293c:	000cf607 	andeq	pc, ip, r7, lsl #12
    2940:	04400300 	strbeq	r0, [r0], #-768	; 0xfffffd00
    2944:	0a2d0700 	beq	b4454c <__kernel_end+0x9e254c>
    2948:	80030000 	andhi	r0, r3, r0
    294c:	91070004 	tstls	r7, r4
    2950:	04000009 	streq	r0, [r0], #-9
    2954:	07000400 	streq	r0, [r0, -r0, lsl #8]
    2958:	00000c20 	andeq	r0, r0, r0, lsr #24
    295c:	00044004 	andeq	r4, r4, r4
    2960:	000a5307 	andeq	r5, sl, r7, lsl #6
    2964:	04800400 	streq	r0, [r0], #1024	; 0x400
    2968:	09830700 	stmibeq	r3, {r8, r9, sl}
    296c:	00050000 	andeq	r0, r5, r0
    2970:	46070004 	strmi	r0, [r7], -r4
    2974:	0500000c 	streq	r0, [r0, #-12]
    2978:	07000440 	streq	r0, [r0, -r0, asr #8]
    297c:	000007ff 	strdeq	r0, [r0], -pc	; <UNPREDICTABLE>
    2980:	00048005 	andeq	r8, r4, r5
    2984:	00088807 	andeq	r8, r8, r7, lsl #16
    2988:	04000600 	streq	r0, [r0], #-1536	; 0xfffffa00
    298c:	08550700 	ldmdaeq	r5, {r8, r9, sl}^
    2990:	40060000 	andmi	r0, r6, r0
    2994:	25070004 	strcs	r0, [r7, #-4]
    2998:	0600000b 	streq	r0, [r0], -fp
    299c:	07000480 	streq	r0, [r0, -r0, lsl #9]
    29a0:	000009e9 	andeq	r0, r0, r9, ror #19
    29a4:	00040007 	andeq	r0, r4, r7
    29a8:	0008c607 	andeq	ip, r8, r7, lsl #12
    29ac:	04400700 	strbeq	r0, [r0], #-1792	; 0xfffff900
    29b0:	0baf0700 	bleq	febc45b8 <__kernel_end+0xfea625b8>
    29b4:	80070000 	andhi	r0, r7, r0
    29b8:	fc070004 	stc2	0, cr0, [r7], {4}
    29bc:	08000009 	stmdaeq	r0, {r0, r3}
    29c0:	07000400 	streq	r0, [r0, -r0, lsl #8]
    29c4:	00000959 	andeq	r0, r0, r9, asr r9
    29c8:	00040009 	andeq	r0, r4, r9
    29cc:	00076b07 	andeq	r6, r7, r7, lsl #22
    29d0:	04400900 	strbeq	r0, [r0], #-2304	; 0xfffff700
    29d4:	07830700 	streq	r0, [r3, r0, lsl #14]
    29d8:	80090000 	andhi	r0, r9, r0
    29dc:	17070004 	strne	r0, [r7, -r4]
    29e0:	0a000007 	beq	2a04 <SCTLR_ENABLE_INSTRUCTION_CACHE+0x1a04>
    29e4:	07000400 	streq	r0, [r0, -r0, lsl #8]
    29e8:	00000947 	andeq	r0, r0, r7, asr #18
    29ec:	0004400a 	andeq	r4, r4, sl
    29f0:	000bfa07 	andeq	pc, fp, r7, lsl #20
    29f4:	04800a00 	streq	r0, [r0], #2560	; 0xa00
    29f8:	080d0700 	stmdaeq	sp, {r8, r9, sl}
    29fc:	000b0000 	andeq	r0, fp, r0
    2a00:	f4070004 	vst4.8	{d0-d3}, [r7], r4
    2a04:	0b000008 	bleq	2a2c <SCTLR_ENABLE_INSTRUCTION_CACHE+0x1a2c>
    2a08:	07000440 	streq	r0, [r0, -r0, asr #8]
    2a0c:	00000b9f 	muleq	r0, pc, fp	; <UNPREDICTABLE>
    2a10:	0004800b 	andeq	r8, r4, fp
    2a14:	00087408 	andeq	r7, r8, r8, lsl #8
    2a18:	08801100 	stmeq	r0, {r8, ip}
    2a1c:	00000bc2 	andeq	r0, r0, r2, asr #23
    2a20:	09008010 	stmdbeq	r0, {r4, pc}
    2a24:	78030100 	stmdavc	r3, {r8}
    2a28:	00000304 	andeq	r0, r0, r4, lsl #6
    2a2c:	000c170a 	andeq	r1, ip, sl, lsl #14
    2a30:	72790300 	rsbsvc	r0, r9, #0, 6
    2a34:	0a000000 	beq	2a3c <SCTLR_ENABLE_INSTRUCTION_CACHE+0x1a3c>
    2a38:	0000082f 	andeq	r0, r0, pc, lsr #16
    2a3c:	03047a03 	movweq	r7, #18947	; 0x4a03
    2a40:	f50a0000 			; <UNDEFINED> instruction: 0xf50a0000
    2a44:	0300000a 	movweq	r0, #10
    2a48:	00031b7b 	andeq	r1, r3, fp, ror fp
    2a4c:	7d0b0000 	stcvc	0, cr0, [fp, #-0]
    2a50:	14000000 	strne	r0, [r0], #-0
    2a54:	0c000003 	stceq	0, cr0, [r0], {3}
    2a58:	00000314 	andeq	r0, r0, r4, lsl r3
    2a5c:	040200ff 	streq	r0, [r2], #-255	; 0xffffff01
    2a60:	00035707 	andeq	r5, r3, r7, lsl #14
    2a64:	00720b00 	rsbseq	r0, r2, r0, lsl #22
    2a68:	032b0000 			; <UNDEFINED> instruction: 0x032b0000
    2a6c:	140c0000 	strne	r0, [ip], #-0
    2a70:	3f000003 	svccc	0x00000003
    2a74:	01080d00 	tsteq	r8, r0, lsl #26
    2a78:	03597403 	cmpeq	r9, #50331648	; 0x3000000
    2a7c:	740e0000 	strvc	r0, [lr], #-0
    2a80:	03006761 	movweq	r6, #1889	; 0x761
    2a84:	00007276 	andeq	r7, r0, r6, ror r2
    2a88:	dd0f0000 	stcle	0, cr0, [pc, #-0]	; 2a90 <SCTLR_ENABLE_INSTRUCTION_CACHE+0x1a90>
    2a8c:	03000009 	movweq	r0, #9
    2a90:	00007277 	andeq	r7, r0, r7, ror r2
    2a94:	b00f0400 	andlt	r0, pc, r0, lsl #8
    2a98:	03000007 	movweq	r0, #7
    2a9c:	0002d97c 	andeq	sp, r2, ip, ror r9
    2aa0:	04000800 	streq	r0, [r0], #-2048	; 0xfffff800
    2aa4:	00000918 	andeq	r0, r0, r8, lsl r9
    2aa8:	032b7d03 			; <UNDEFINED> instruction: 0x032b7d03
    2aac:	e2100000 	ands	r0, r0, #0
    2ab0:	01000012 	tsteq	r0, r2, lsl r0
    2ab4:	0095b008 	addseq	fp, r5, r8
    2ab8:	00004800 	andeq	r4, r0, r0, lsl #16
    2abc:	ba9c0100 	blt	fe702ec4 <__kernel_end+0xfe5a0ec4>
    2ac0:	11000003 	tstne	r0, r3
    2ac4:	000012e2 	andeq	r1, r0, r2, ror #5
    2ac8:	00880a01 	addeq	r0, r8, r1, lsl #20
    2acc:	12000000 	andne	r0, r0, #0
    2ad0:	000095b8 			; <UNDEFINED> instruction: 0x000095b8
    2ad4:	00000533 	andeq	r0, r0, r3, lsr r5
    2ad8:	0095e013 	addseq	lr, r5, r3, lsl r0
    2adc:	00053e00 	andeq	r3, r5, r0, lsl #28
    2ae0:	0003a700 	andeq	sl, r3, r0, lsl #14
    2ae4:	50011400 	andpl	r1, r1, r0, lsl #8
    2ae8:	14007402 	strne	r7, [r0], #-1026	; 0xfffffbfe
    2aec:	30015201 	andcc	r5, r1, r1, lsl #4
    2af0:	95e41200 	strbls	r1, [r4, #512]!	; 0x200
    2af4:	05490000 	strbeq	r0, [r9, #-0]
    2af8:	f0150000 			; <UNDEFINED> instruction: 0xf0150000
    2afc:	54000095 	strpl	r0, [r0], #-149	; 0xffffff6b
    2b00:	00000005 	andeq	r0, r0, r5
    2b04:	00134c10 	andseq	r4, r3, r0, lsl ip
    2b08:	f8110100 			; <UNDEFINED> instruction: 0xf8110100
    2b0c:	48000095 	stmdami	r0, {r0, r2, r4, r7}
    2b10:	01000000 	mrseq	r0, (UNDEF: 0)
    2b14:	0004109c 	muleq	r4, ip, r0
    2b18:	134c1100 	movtne	r1, #49408	; 0xc100
    2b1c:	13010000 	movwne	r0, #4096	; 0x1000
    2b20:	00000088 	andeq	r0, r0, r8, lsl #1
    2b24:	96001201 	strls	r1, [r0], -r1, lsl #4
    2b28:	05330000 	ldreq	r0, [r3, #-0]!
    2b2c:	28130000 	ldmdacs	r3, {}	; <UNPREDICTABLE>
    2b30:	3e000096 	mcrcc	0, 0, r0, cr0, cr6, {4}
    2b34:	fd000005 	stc2	0, cr0, [r0, #-20]	; 0xffffffec
    2b38:	14000003 	strne	r0, [r0], #-3
    2b3c:	74025001 	strvc	r5, [r2], #-1
    2b40:	52011400 	andpl	r1, r1, #0, 8
    2b44:	12003101 	andne	r3, r0, #1073741824	; 0x40000000
    2b48:	0000962c 	andeq	r9, r0, ip, lsr #12
    2b4c:	00000549 	andeq	r0, r0, r9, asr #10
    2b50:	00963815 	addseq	r3, r6, r5, lsl r8
    2b54:	00055400 	andeq	r5, r5, r0, lsl #8
    2b58:	10100000 	andsne	r0, r0, r0
    2b5c:	01000013 	tsteq	r0, r3, lsl r0
    2b60:	0096401a 	addseq	r4, r6, sl, lsl r0
    2b64:	00007000 	andeq	r7, r0, r0
    2b68:	809c0100 	addshi	r0, ip, r0, lsl #2
    2b6c:	16000004 	strne	r0, [r0], -r4
    2b70:	0100706d 	tsteq	r0, sp, rrx
    2b74:	00048021 	andeq	r8, r4, r1, lsr #32
    2b78:	000b6d00 	andeq	r6, fp, r0, lsl #26
    2b7c:	96481200 	strbls	r1, [r8], -r0, lsl #4
    2b80:	05330000 	ldreq	r0, [r3, #-0]!
    2b84:	6c130000 	ldcvs	0, cr0, [r3], {-0}
    2b88:	3e000096 	mcrcc	0, 0, r0, cr0, cr6, {4}
    2b8c:	50000005 	andpl	r0, r0, r5
    2b90:	14000004 	strne	r0, [r0], #-4
    2b94:	74025001 	strvc	r5, [r2], #-1
    2b98:	70120000 	andsvc	r0, r2, r0
    2b9c:	49000096 	stmdbmi	r0, {r1, r2, r4, r7}
    2ba0:	13000005 	movwne	r0, #5
    2ba4:	00009678 	andeq	r9, r0, r8, ror r6
    2ba8:	00000554 	andeq	r0, r0, r4, asr r5
    2bac:	0000046d 	andeq	r0, r0, sp, ror #8
    2bb0:	02500114 	subseq	r0, r0, #20, 2
    2bb4:	12000074 	andne	r0, r0, #116	; 0x74
    2bb8:	0000968c 	andeq	r9, r0, ip, lsl #13
    2bbc:	0000055f 	andeq	r0, r0, pc, asr r5
    2bc0:	0096a015 	addseq	sl, r6, r5, lsl r0
    2bc4:	00055f00 	andeq	r5, r5, r0, lsl #30
    2bc8:	04170000 	ldreq	r0, [r7], #-0
    2bcc:	00000359 	andeq	r0, r0, r9, asr r3
    2bd0:	00133310 	andseq	r3, r3, r0, lsl r3
    2bd4:	b0270100 	eorlt	r0, r7, r0, lsl #2
    2bd8:	54000096 	strpl	r0, [r0], #-150	; 0xffffff6a
    2bdc:	01000000 	mrseq	r0, (UNDEF: 0)
    2be0:	0005039c 	muleq	r5, ip, r3
    2be4:	134c1100 	movtne	r1, #49408	; 0xc100
    2be8:	32010000 	andcc	r0, r1, #0
    2bec:	00000088 	andeq	r0, r0, r8, lsl #1
    2bf0:	96bc1201 	ldrtls	r1, [ip], r1, lsl #4
    2bf4:	03640000 	cmneq	r4, #0
    2bf8:	c0120000 	andsgt	r0, r2, r0
    2bfc:	10000096 	mulne	r0, r6, r0
    2c00:	12000004 	andne	r0, r0, #4
    2c04:	000096c8 	andeq	r9, r0, r8, asr #13
    2c08:	000003ba 			; <UNDEFINED> instruction: 0x000003ba
    2c0c:	0096cc12 	addseq	ip, r6, r2, lsl ip
    2c10:	00041000 	andeq	r1, r4, r0
    2c14:	96d01200 	ldrbls	r1, [r0], r0, lsl #4
    2c18:	03640000 	cmneq	r4, #0
    2c1c:	d4120000 	ldrle	r0, [r2], #-0
    2c20:	10000096 	mulne	r0, r6, r0
    2c24:	12000004 	andne	r0, r0, #4
    2c28:	000096d8 	ldrdeq	r9, [r0], -r8
    2c2c:	00000533 	andeq	r0, r0, r3, lsr r5
    2c30:	0096f413 	addseq	pc, r6, r3, lsl r4	; <UNPREDICTABLE>
    2c34:	00053e00 	andeq	r3, r5, r0, lsl #28
    2c38:	0004f900 	andeq	pc, r4, r0, lsl #18
    2c3c:	52011400 	andpl	r1, r1, #0, 8
    2c40:	15003101 	strne	r3, [r0, #-257]	; 0xfffffeff
    2c44:	000096fc 	strdeq	r9, [r0], -ip
    2c48:	00000410 	andeq	r0, r0, r0, lsl r4
    2c4c:	13011000 	movwne	r1, #4096	; 0x1000
    2c50:	39010000 	stmdbcc	r1, {}	; <UNPREDICTABLE>
    2c54:	00009704 	andeq	r9, r0, r4, lsl #14
    2c58:	00000004 	andeq	r0, r0, r4
    2c5c:	05229c01 	streq	r9, [r2, #-3073]!	; 0xfffff3ff
    2c60:	08150000 	ldmdaeq	r5, {}	; <UNPREDICTABLE>
    2c64:	86000097 			; <UNDEFINED> instruction: 0x86000097
    2c68:	00000004 	andeq	r0, r0, r4
    2c6c:	0012ef18 	andseq	lr, r2, r8, lsl pc
    2c70:	88060100 	stmdahi	r6, {r8}
    2c74:	05000000 	streq	r0, [r0, #-0]
    2c78:	00c00403 	sbceq	r0, r0, r3, lsl #8
    2c7c:	08da1900 	ldmeq	sl, {r8, fp, ip}^
    2c80:	08da0000 	ldmeq	sl, {}^	; <UNPREDICTABLE>
    2c84:	8e030000 	cdphi	0, 0, cr0, cr3, cr0, {0}
    2c88:	00090519 	andeq	r0, r9, r9, lsl r5
    2c8c:	00090500 	andeq	r0, r9, r0, lsl #10
    2c90:	198f0300 	stmibne	pc, {r8, r9}	; <UNPREDICTABLE>
    2c94:	00000a68 	andeq	r0, r0, r8, ror #20
    2c98:	00000a68 	andeq	r0, r0, r8, ror #20
    2c9c:	36199003 	ldrcc	r9, [r9], -r3
    2ca0:	3600000c 	strcc	r0, [r0], -ip
    2ca4:	0300000c 	movweq	r0, #12
    2ca8:	04921991 	ldreq	r1, [r2], #2449	; 0x991
    2cac:	04920000 	ldreq	r0, [r2], #0
    2cb0:	0c040000 	stceq	0, cr0, [r4], {-0}
    2cb4:	00011200 	andeq	r1, r1, r0, lsl #4
    2cb8:	91000400 	tstls	r0, r0, lsl #8
    2cbc:	04000010 	streq	r0, [r0], #-16
    2cc0:	00006401 	andeq	r6, r0, r1, lsl #8
    2cc4:	13580c00 	cmpne	r8, #0, 24
    2cc8:	011a0000 	tsteq	sl, r0
    2ccc:	97080000 	strls	r0, [r8, -r0]
    2cd0:	004c0000 	subeq	r0, ip, r0
    2cd4:	10700000 	rsbsne	r0, r0, r0
    2cd8:	04020000 	streq	r0, [r2], #-0
    2cdc:	746e6905 	strbtvc	r6, [lr], #-2309	; 0xfffff6fb
    2ce0:	07040300 	streq	r0, [r4, -r0, lsl #6]
    2ce4:	00000057 	andeq	r0, r0, r7, asr r0
    2ce8:	0c050803 	stceq	8, cr0, [r5], {3}
    2cec:	03000001 	movweq	r0, #1
    2cf0:	042e0408 	strteq	r0, [lr], #-1032	; 0xfffffbf8
    2cf4:	01030000 	mrseq	r0, (UNDEF: 3)
    2cf8:	00000d06 	andeq	r0, r0, r6, lsl #26
    2cfc:	05020300 	streq	r0, [r2, #-768]	; 0xfffffd00
    2d00:	0000016b 	andeq	r0, r0, fp, ror #2
    2d04:	11050403 	tstne	r5, r3, lsl #8
    2d08:	03000001 	movweq	r0, #1
    2d0c:	000b0801 	andeq	r0, fp, r1, lsl #16
    2d10:	02030000 	andeq	r0, r3, #0
    2d14:	00001907 	andeq	r1, r0, r7, lsl #18
    2d18:	01750400 	cmneq	r5, r0, lsl #8
    2d1c:	34050000 	strcc	r0, [r5], #-0
    2d20:	0000006f 	andeq	r0, r0, pc, rrx
    2d24:	52070403 	andpl	r0, r7, #50331648	; 0x3000000
    2d28:	03000000 	movweq	r0, #0
    2d2c:	004d0708 	subeq	r0, sp, r8, lsl #14
    2d30:	04030000 	streq	r0, [r3], #-0
    2d34:	00035707 	andeq	r5, r3, r7, lsl #14
    2d38:	017e0500 	cmneq	lr, r0, lsl #10
    2d3c:	10010000 	andne	r0, r1, r0
    2d40:	00009708 	andeq	r9, r0, r8, lsl #14
    2d44:	0000004c 	andeq	r0, r0, ip, asr #32
    2d48:	00e99c01 	rsceq	r9, r9, r1, lsl #24
    2d4c:	72060000 	andvc	r0, r6, #0
    2d50:	10010030 	andne	r0, r1, r0, lsr r0
    2d54:	00000064 	andeq	r0, r0, r4, rrx
    2d58:	00000b8b 	andeq	r0, r0, fp, lsl #23
    2d5c:	00317206 	eorseq	r7, r1, r6, lsl #4
    2d60:	00641001 	rsbeq	r1, r4, r1
    2d64:	0bac0000 	bleq	feb02d6c <__kernel_end+0xfe9a0d6c>
    2d68:	68070000 	stmdavs	r7, {}	; <UNPREDICTABLE>
    2d6c:	01000013 	tsteq	r0, r3, lsl r0
    2d70:	00006410 	andeq	r6, r0, r0, lsl r4
    2d74:	000bcd00 	andeq	ip, fp, r0, lsl #26
    2d78:	971c0800 	ldrls	r0, [ip, -r0, lsl #16]
    2d7c:	00f40000 	rscseq	r0, r4, r0
    2d80:	24080000 	strcs	r0, [r8], #-0
    2d84:	ff000097 			; <UNDEFINED> instruction: 0xff000097
    2d88:	08000000 	stmdaeq	r0, {}	; <UNPREDICTABLE>
    2d8c:	0000973c 	andeq	r9, r0, ip, lsr r7
    2d90:	000000f4 	strdeq	r0, [r0], -r4
    2d94:	00974008 	addseq	r4, r7, r8
    2d98:	00010a00 	andeq	r0, r1, r0, lsl #20
    2d9c:	b5090000 	strlt	r0, [r9, #-0]
    2da0:	0100000e 	tsteq	r0, lr
    2da4:	0000640e 	andeq	r6, r0, lr, lsl #8
    2da8:	04920a00 	ldreq	r0, [r2], #2560	; 0xa00
    2dac:	04920000 	ldreq	r0, [r2], #0
    2db0:	0c020000 	stceq	0, cr0, [r2], {-0}
    2db4:	00109a0a 	andseq	r9, r0, sl, lsl #20
    2db8:	00109a00 	andseq	r9, r0, r0, lsl #20
    2dbc:	0a290300 	beq	a439c4 <__kernel_end+0x8e19c4>
    2dc0:	00001301 	andeq	r1, r0, r1, lsl #6
    2dc4:	00001301 	andeq	r1, r0, r1, lsl #6
    2dc8:	24000404 	strcs	r0, [r0], #-1028	; 0xfffffbfc
    2dcc:	04000001 	streq	r0, [r0], #-1
    2dd0:	00112d00 	andseq	r2, r1, r0, lsl #26
    2dd4:	6e010400 	cfcpysvs	mvf0, mvf1
    2dd8:	0c000013 	stceq	0, cr0, [r0], {19}
    2ddc:	00001435 	andeq	r1, r0, r5, lsr r4
    2de0:	000013e6 	andeq	r1, r0, r6, ror #7
    2de4:	00009754 	andeq	r9, r0, r4, asr r7
    2de8:	00000024 	andeq	r0, r0, r4, lsr #32
    2dec:	000011ae 	andeq	r1, r0, lr, lsr #3
    2df0:	69050402 	stmdbvs	r5, {r1, sl}
    2df4:	0300746e 	movweq	r7, #1134	; 0x46e
    2df8:	00000350 	andeq	r0, r0, r0, asr r3
    2dfc:	0037d802 	eorseq	sp, r7, r2, lsl #16
    2e00:	04040000 	streq	r0, [r4], #-0
    2e04:	00005707 	andeq	r5, r0, r7, lsl #14
    2e08:	05080400 	streq	r0, [r8, #-1024]	; 0xfffffc00
    2e0c:	0000010c 	andeq	r0, r0, ip, lsl #2
    2e10:	2e040804 	cdpcs	8, 0, cr0, cr4, cr4, {0}
    2e14:	04000004 	streq	r0, [r0], #-4
    2e18:	000d0601 	andeq	r0, sp, r1, lsl #12
    2e1c:	01040000 	mrseq	r0, (UNDEF: 4)
    2e20:	00000b08 	andeq	r0, r0, r8, lsl #22
    2e24:	05020400 	streq	r0, [r2, #-1024]	; 0xfffffc00
    2e28:	0000016b 	andeq	r0, r0, fp, ror #2
    2e2c:	19070204 	stmdbne	r7, {r2, r9}
    2e30:	04000000 	streq	r0, [r0], #-0
    2e34:	01110504 	tsteq	r1, r4, lsl #10
    2e38:	04040000 	streq	r0, [r4], #-0
    2e3c:	00005207 	andeq	r5, r0, r7, lsl #4
    2e40:	07080400 	streq	r0, [r8, -r0, lsl #8]
    2e44:	0000004d 	andeq	r0, r0, sp, asr #32
    2e48:	57070404 	strpl	r0, [r7, -r4, lsl #8]
    2e4c:	05000003 	streq	r0, [r0, #-3]
    2e50:	08010404 	stmdaeq	r1, {r2, sl}
    2e54:	00000014 	andeq	r0, r0, r4, lsl r0
    2e58:	00530406 	subseq	r0, r3, r6, lsl #8
    2e5c:	0b070000 	bleq	1c2e64 <__kernel_end+0x60e64>
    2e60:	0300000c 	movweq	r0, #12
    2e64:	0000841b 	andeq	r8, r0, fp, lsl r4
    2e68:	00975400 	addseq	r5, r7, r0, lsl #8
    2e6c:	00002400 	andeq	r2, r0, r0, lsl #8
    2e70:	0b9c0100 	bleq	fe703278 <__kernel_end+0xfe5a1278>
    2e74:	08000001 	stmdaeq	r0, {r0}
    2e78:	000013d8 	ldrdeq	r1, [r0], -r8
    2e7c:	010b0301 	tsteq	fp, r1, lsl #6
    2e80:	50010000 	andpl	r0, r1, r0
    2e84:	0013df09 	andseq	sp, r3, r9, lsl #30
    2e88:	17030100 	strne	r0, [r3, -r0, lsl #2]
    2e8c:	ee000001 	cdp	0, 0, cr0, cr0, cr1, {0}
    2e90:	0900000b 	stmdbeq	r0, {r0, r1, r3}
    2e94:	00000fee 	andeq	r0, r0, lr, ror #31
    2e98:	002c0301 	eoreq	r0, ip, r1, lsl #6
    2e9c:	0c0f0000 	stceq	0, cr0, [pc], {-0}
    2ea0:	640a0000 	strvs	r0, [sl], #-0
    2ea4:	01007473 	tsteq	r0, r3, ror r4
    2ea8:	00008d04 	andeq	r8, r0, r4, lsl #26
    2eac:	0b500100 	bleq	14032b4 <__kernel_end+0x12a12b4>
    2eb0:	00637273 	rsbeq	r7, r3, r3, ror r2
    2eb4:	011c0501 	tsteq	ip, r1, lsl #10
    2eb8:	0c300000 	ldceq	0, cr0, [r0], #-0
    2ebc:	540c0000 	strpl	r0, [ip], #-0
    2ec0:	20000097 	mulcs	r0, r7, r0
    2ec4:	0b000000 	bleq	2ecc <SCTLR_ENABLE_INSTRUCTION_CACHE+0x1ecc>
    2ec8:	06010069 	streq	r0, [r1], -r9, rrx
    2ecc:	0000002c 	andeq	r0, r0, ip, lsr #32
    2ed0:	00000c51 	andeq	r0, r0, r1, asr ip
    2ed4:	840d0000 	strhi	r0, [sp], #-0
    2ed8:	06000000 	streq	r0, [r0], -r0
    2edc:	00011604 	andeq	r1, r1, r4, lsl #12
    2ee0:	100d0e00 	andne	r0, sp, r0, lsl #28
    2ee4:	06000001 	streq	r0, [r0], -r1
    2ee8:	00012204 	andeq	r2, r1, r4, lsl #4
    2eec:	00530f00 	subseq	r0, r3, r0, lsl #30
    2ef0:	71000000 	mrsvc	r0, (UNDEF: 0)
    2ef4:	04000001 	streq	r0, [r0], #-1
    2ef8:	0011e800 	andseq	lr, r1, r0, lsl #16
    2efc:	6e010400 	cfcpysvs	mvf0, mvf1
    2f00:	0c000013 	stceq	0, cr0, [r0], {19}
    2f04:	00001445 	andeq	r1, r0, r5, asr #8
    2f08:	000013e6 	andeq	r1, r0, r6, ror #7
    2f0c:	00009778 	andeq	r9, r0, r8, ror r7
    2f10:	00000054 	andeq	r0, r0, r4, asr r0
    2f14:	000012a1 	andeq	r1, r0, r1, lsr #5
    2f18:	000a1e02 	andeq	r1, sl, r2, lsl #28
    2f1c:	30280200 	eorcc	r0, r8, r0, lsl #4
    2f20:	03000000 	movweq	r0, #0
    2f24:	0000086a 	andeq	r0, r0, sl, ror #16
    2f28:	47000404 	strmi	r0, [r0, -r4, lsl #8]
    2f2c:	04000000 	streq	r0, [r0], #-0
    2f30:	00000c12 	andeq	r0, r0, r2, lsl ip
    2f34:	00000047 	andeq	r0, r0, r7, asr #32
    2f38:	04050000 	streq	r0, [r5], #-0
    2f3c:	00086c02 	andeq	r6, r8, r2, lsl #24
    2f40:	25620200 	strbcs	r0, [r2, #-512]!	; 0xfffffe00
    2f44:	06000000 	streq	r0, [r0], -r0
    2f48:	000d0601 	andeq	r0, sp, r1, lsl #12
    2f4c:	02060000 	andeq	r0, r6, #0
    2f50:	00016b05 	andeq	r6, r1, r5, lsl #22
    2f54:	05040600 	streq	r0, [r4, #-1536]	; 0xfffffa00
    2f58:	00000111 	andeq	r0, r0, r1, lsl r1
    2f5c:	0c050806 	stceq	8, cr0, [r5], {6}
    2f60:	06000001 	streq	r0, [r0], -r1
    2f64:	000b0801 	andeq	r0, fp, r1, lsl #16
    2f68:	02060000 	andeq	r0, r6, #0
    2f6c:	00001907 	andeq	r1, r0, r7, lsl #18
    2f70:	07040600 	streq	r0, [r4, -r0, lsl #12]
    2f74:	00000052 	andeq	r0, r0, r2, asr r0
    2f78:	4d070806 	stcmi	8, cr0, [r7, #-24]	; 0xffffffe8
    2f7c:	07000000 	streq	r0, [r0, -r0]
    2f80:	6e690504 	cdpvs	5, 6, cr0, cr9, cr4, {0}
    2f84:	04060074 	streq	r0, [r6], #-116	; 0xffffff8c
    2f88:	00005707 	andeq	r5, r0, r7, lsl #14
    2f8c:	14540800 	ldrbne	r0, [r4], #-2048	; 0xfffff800
    2f90:	1c010000 	stcne	0, cr0, [r1], {-0}
    2f94:	0000008c 	andeq	r0, r0, ip, lsl #1
    2f98:	00009778 	andeq	r9, r0, r8, ror r7
    2f9c:	00000018 	andeq	r0, r0, r8, lsl r0
    2fa0:	00e49c01 	rsceq	r9, r4, r1, lsl #24
    2fa4:	63090000 	movwvs	r0, #36864	; 0x9000
    2fa8:	8c1c0100 	ldfhis	f0, [ip], {-0}
    2fac:	99000000 	stmdbls	r0, {}	; <UNPREDICTABLE>
    2fb0:	0900000c 	stmdbeq	r0, {r2, r3}
    2fb4:	00766564 	rsbseq	r6, r6, r4, ror #10
    2fb8:	008c1c01 	addeq	r1, ip, r1, lsl #24
    2fbc:	0cba0000 	ldceq	0, cr0, [sl]
    2fc0:	840a0000 	strhi	r0, [sl], #-0
    2fc4:	5e000097 	mcrpl	0, 0, r0, cr0, cr7, {4}
    2fc8:	0b000001 	bleq	2fd4 <SCTLR_ENABLE_INSTRUCTION_CACHE+0x1fd4>
    2fcc:	f3065001 	vhadd.u8	d5, d6, d1
    2fd0:	ff085001 			; <UNDEFINED> instruction: 0xff085001
    2fd4:	0800001a 	stmdaeq	r0, {r1, r3, r4}
    2fd8:	00000492 	muleq	r0, r2, r4
    2fdc:	008c2601 	addeq	r2, ip, r1, lsl #12
    2fe0:	97900000 	ldrls	r0, [r0, r0]
    2fe4:	003c0000 	eorseq	r0, ip, r0
    2fe8:	9c010000 	stcls	0, cr0, [r1], {-0}
    2fec:	0000014c 	andeq	r0, r0, ip, asr #2
    2ff0:	00145a0c 	andseq	r5, r4, ip, lsl #20
    2ff4:	4c260100 	stfmis	f0, [r6], #-0
    2ff8:	02000001 	andeq	r0, r0, #1
    2ffc:	0e0d7091 	mcreq	0, 0, r7, cr13, cr1, {4}
    3000:	01007061 	tsteq	r0, r1, rrx
    3004:	00004928 	andeq	r4, r0, r8, lsr #18
    3008:	64910200 	ldrvs	r0, [r1], #512	; 0x200
    300c:	7465720e 	strbtvc	r7, [r5], #-526	; 0xfffffdf2
    3010:	8c290100 	stfhis	f0, [r9], #-0
    3014:	01000000 	mrseq	r0, (UNDEF: 0)
    3018:	97b80a50 	sbfxls	r0, r0, #20, #25
    301c:	01690000 	cmneq	r9, r0
    3020:	010b0000 	mrseq	r0, (UNDEF: 11)
    3024:	48910350 	ldmmi	r1, {r4, r6, r8, r9}
    3028:	51010b06 	tstpl	r1, r6, lsl #22
    302c:	0b4c9102 	bleq	132743c <__kernel_end+0x11c543c>
    3030:	03055201 	movweq	r5, #20993	; 0x5201
    3034:	00009778 	andeq	r9, r0, r8, ror r7
    3038:	0153010b 	cmpeq	r3, fp, lsl #2
    303c:	0f000031 	svceq	0x00000031
    3040:	00015904 	andeq	r5, r1, r4, lsl #18
    3044:	08010600 	stmdaeq	r1, {r9, sl}
    3048:	00000014 	andeq	r0, r0, r4, lsl r0
    304c:	00015210 	andeq	r5, r1, r0, lsl r2
    3050:	116e1100 	cmnne	lr, r0, lsl #2
    3054:	116e0000 	cmnne	lr, r0
    3058:	2a030000 	bcs	c3060 <__first_lvl_tbl_end+0xa2060>
    305c:	00146111 	andseq	r6, r4, r1, lsl r1
    3060:	00146100 	andseq	r6, r4, r0, lsl #2
    3064:	00230100 	eoreq	r0, r3, r0, lsl #2
    3068:	000004bc 			; <UNDEFINED> instruction: 0x000004bc
    306c:	12c80004 	sbcne	r0, r8, #4
    3070:	01040000 	mrseq	r0, (UNDEF: 4)
    3074:	0000136e 	andeq	r1, r0, lr, ror #6
    3078:	0015500c 	andseq	r5, r5, ip
    307c:	0013e600 	andseq	lr, r3, r0, lsl #12
    3080:	0097cc00 	addseq	ip, r7, r0, lsl #24
    3084:	00074c00 	andeq	r4, r7, r0, lsl #24
    3088:	0013bc00 	andseq	fp, r3, r0, lsl #24
    308c:	05040200 	streq	r0, [r4, #-512]	; 0xfffffe00
    3090:	00746e69 	rsbseq	r6, r4, r9, ror #28
    3094:	57070403 	strpl	r0, [r7, -r3, lsl #8]
    3098:	03000000 	movweq	r0, #0
    309c:	010c0508 	tsteq	ip, r8, lsl #10
    30a0:	08030000 	stmdaeq	r3, {}	; <UNPREDICTABLE>
    30a4:	00042e04 	andeq	r2, r4, r4, lsl #28
    30a8:	06010300 	streq	r0, [r1], -r0, lsl #6
    30ac:	0000000d 	andeq	r0, r0, sp
    30b0:	0b080103 	bleq	2034c4 <__kernel_end+0xa14c4>
    30b4:	03000000 	movweq	r0, #0
    30b8:	016b0502 	cmneq	fp, r2, lsl #10
    30bc:	02030000 	andeq	r0, r3, #0
    30c0:	00001907 	andeq	r1, r0, r7, lsl #18
    30c4:	05040300 	streq	r0, [r4, #-768]	; 0xfffffd00
    30c8:	00000111 	andeq	r0, r0, r1, lsl r1
    30cc:	52070403 	andpl	r0, r7, #50331648	; 0x3000000
    30d0:	03000000 	movweq	r0, #0
    30d4:	004d0708 	subeq	r0, sp, r8, lsl #14
    30d8:	04030000 	streq	r0, [r3], #-0
    30dc:	00035707 	andeq	r5, r3, r7, lsl #14
    30e0:	05040400 	streq	r0, [r4, #-1024]	; 0xfffffc00
    30e4:	00008104 	andeq	r8, r0, r4, lsl #2
    30e8:	08010300 	stmdaeq	r1, {r8, r9}
    30ec:	00000014 	andeq	r0, r0, r4, lsl r0
    30f0:	008e0405 	addeq	r0, lr, r5, lsl #8
    30f4:	81060000 	mrshi	r0, (UNDEF: 6)
    30f8:	07000000 	streq	r0, [r0, -r0]
    30fc:	00000a1e 	andeq	r0, r0, lr, lsl sl
    3100:	009e2802 	addseq	r2, lr, r2, lsl #16
    3104:	6a080000 	bvs	20310c <__kernel_end+0xa110c>
    3108:	04000008 	streq	r0, [r0], #-8
    310c:	00b50003 	adcseq	r0, r5, r3
    3110:	12090000 	andne	r0, r9, #0
    3114:	7900000c 	stmdbvc	r0, {r2, r3}
    3118:	00000000 	andeq	r0, r0, r0
    311c:	086c0700 	stmdaeq	ip!, {r8, r9, sl}^
    3120:	62020000 	andvs	r0, r2, #0
    3124:	00000093 	muleq	r0, r3, r0
    3128:	0014f70a 	andseq	pc, r4, sl, lsl #14
    312c:	00480100 	subeq	r0, r8, r0, lsl #2
    3130:	13010000 	movwne	r0, #4096	; 0x1000
    3134:	000000e9 	andeq	r0, r0, r9, ror #1
    3138:	0014b90b 	andseq	fp, r4, fp, lsl #18
    313c:	bf0b0000 	svclt	0x000b0000
    3140:	01000014 	tsteq	r0, r4, lsl r0
    3144:	0015430b 	andseq	r4, r5, fp, lsl #6
    3148:	640b0200 	strvs	r0, [fp], #-512	; 0xfffffe00
    314c:	03000015 	movweq	r0, #21
    3150:	14e70c00 	strbtne	r0, [r7], #3072	; 0xc00
    3154:	f9010000 			; <UNDEFINED> instruction: 0xf9010000
    3158:	01630101 	cmneq	r3, r1, lsl #2
    315c:	6e0d0000 	cdpvs	0, 0, cr0, cr13, cr0, {0}
    3160:	01006d75 	tsteq	r0, r5, ror sp
    3164:	006401f9 	strdeq	r0, [r4], #-25	; 0xffffffe7	; <UNPREDICTABLE>
    3168:	730d0000 	movwvc	r0, #53248	; 0xd000
    316c:	01007274 	tsteq	r0, r4, ror r2
    3170:	007b01f9 	ldrshteq	r0, [fp], #-25	; 0xffffffe7
    3174:	df0e0000 	svcle	0x000e0000
    3178:	0100000e 	tsteq	r0, lr
    317c:	002c01fa 	strdeq	r0, [ip], -sl	; <UNPREDICTABLE>
    3180:	7c0e0000 	stcvc	0, cr0, [lr], {-0}
    3184:	01000015 	tsteq	r0, r5, lsl r0
    3188:	002501fa 	strdeq	r0, [r5], -sl	; <UNPREDICTABLE>
    318c:	800f0000 	andhi	r0, pc, r0
    3190:	01000015 	tsteq	r0, r5, lsl r0
    3194:	008801fc 	strdeq	r0, [r8], ip
    3198:	d80f0000 	stmdale	pc, {}	; <UNPREDICTABLE>
    319c:	01000014 	tsteq	r0, r4, lsl r0
    31a0:	016301fd 	strdeq	r0, [r3, #-29]!	; 0xffffffe3
    31a4:	69100000 	ldmdbvs	r0, {}	; <UNPREDICTABLE>
    31a8:	01fe0100 	mvnseq	r0, r0, lsl #2
    31ac:	00000025 	andeq	r0, r0, r5, lsr #32
    31b0:	14720f11 	ldrbtne	r0, [r2], #-3857	; 0xfffff0ef
    31b4:	1a010000 	bne	431bc <__first_lvl_tbl_end+0x221bc>
    31b8:	00004802 	andeq	r4, r0, r2, lsl #16
    31bc:	12ae0f00 	adcne	r0, lr, #0, 30
    31c0:	1b010000 	blne	431c8 <__first_lvl_tbl_end+0x221c8>
    31c4:	00006402 	andeq	r6, r0, r2, lsl #8
    31c8:	12000000 	andne	r0, r0, #0
    31cc:	00000081 	andeq	r0, r0, r1, lsl #1
    31d0:	00000173 	andeq	r0, r0, r3, ror r1
    31d4:	00007213 	andeq	r7, r0, r3, lsl r2
    31d8:	14002000 	strne	r2, [r0], #-0
    31dc:	00001461 	andeq	r1, r0, r1, ror #8
    31e0:	00255b01 	eoreq	r5, r5, r1, lsl #22
    31e4:	97cc0000 	strbls	r0, [ip, r0]
    31e8:	074c0000 	strbeq	r0, [ip, -r0]
    31ec:	9c010000 	stcls	0, cr0, [r1], {-0}
    31f0:	0000040f 	andeq	r0, r0, pc, lsl #8
    31f4:	746d6615 	strbtvc	r6, [sp], #-1557	; 0xfffff9eb
    31f8:	885b0100 	ldmdahi	fp, {r8}^
    31fc:	db000000 	blle	3204 <SCTLR_ENABLE_INSTRUCTION_CACHE+0x2204>
    3200:	1500000c 	strne	r0, [r0, #-12]
    3204:	01007061 	tsteq	r0, r1, rrx
    3208:	0000b55b 	andeq	fp, r0, fp, asr r5
    320c:	000eaf00 	andeq	sl, lr, r0, lsl #30
    3210:	15291600 	strne	r1, [r9, #-1536]!	; 0xfffffa00
    3214:	5c010000 	stcpl	0, cr0, [r1], {-0}
    3218:	00000423 	andeq	r0, r0, r3, lsr #8
    321c:	00000eee 	andeq	r0, r0, lr, ror #29
    3220:	00149016 	andseq	r9, r4, r6, lsl r0
    3224:	255c0100 	ldrbcs	r0, [ip, #-256]	; 0xffffff00
    3228:	0f000000 	svceq	0x00000000
    322c:	1700000f 	strne	r0, [r0, -pc]
    3230:	0000156e 	andeq	r1, r0, lr, ror #10
    3234:	00255e01 	eoreq	r5, r5, r1, lsl #28
    3238:	0f460000 	svceq	0x00460000
    323c:	69180000 	ldmdbvs	r8, {}	; <UNPREDICTABLE>
    3240:	25600100 	strbcs	r0, [r0, #-256]!	; 0xffffff00
    3244:	f5000000 			; <UNDEFINED> instruction: 0xf5000000
    3248:	1800000f 	stmdane	r0, {r0, r1, r2, r3}
    324c:	00727473 	rsbseq	r7, r2, r3, ror r4
    3250:	007b6101 	rsbseq	r6, fp, r1, lsl #2
    3254:	10450000 	subne	r0, r5, r0
    3258:	f0190000 			; <UNDEFINED> instruction: 0xf0190000
    325c:	01000014 	tsteq	r0, r4, lsl r0
    3260:	00016362 	andeq	r6, r1, r2, ror #6
    3264:	90910300 	addsls	r0, r1, r0, lsl #6
    3268:	149e177f 	ldrne	r1, [lr], #1919	; 0x77f
    326c:	64010000 	strvs	r0, [r1], #-0
    3270:	00000025 	andeq	r0, r0, r5, lsr #32
    3274:	00001112 	andeq	r1, r0, r2, lsl r1
    3278:	00146917 	andseq	r6, r4, r7, lsl r9
    327c:	81660100 	cmnhi	r6, r0, lsl #2
    3280:	7e000000 	cdpvc	0, 0, cr0, cr0, cr0, {0}
    3284:	17000011 	smladne	r0, r1, r0, r0
    3288:	00001499 	muleq	r0, r9, r4
    328c:	00256701 	eoreq	r6, r5, r1, lsl #14
    3290:	11fb0000 	mvnsne	r0, r0
    3294:	5f170000 	svcpl	0x00170000
    3298:	01000015 	tsteq	r0, r5, lsl r0
    329c:	00002568 	andeq	r2, r0, r8, ror #10
    32a0:	00128400 	andseq	r8, r2, r0, lsl #8
    32a4:	0fee1700 	svceq	0x00ee1700
    32a8:	69010000 	stmdbvs	r1, {}	; <UNPREDICTABLE>
    32ac:	000000c0 	andeq	r0, r0, r0, asr #1
    32b0:	00001331 	andeq	r1, r0, r1, lsr r3
    32b4:	00158717 	andseq	r8, r5, r7, lsl r7
    32b8:	816a0100 	cmnhi	sl, r0, lsl #2
    32bc:	5d000000 	stcpl	0, cr0, [r0, #-0]
    32c0:	17000013 	smladne	r0, r3, r0, r0
    32c4:	00001479 	andeq	r1, r0, r9, ror r4
    32c8:	005d6c01 	subseq	r6, sp, r1, lsl #24
    32cc:	13c70000 	bicne	r0, r7, #0
    32d0:	78170000 	ldmdavc	r7, {}	; <UNPREDICTABLE>
    32d4:	01000014 	tsteq	r0, r4, lsl r0
    32d8:	0000646d 	andeq	r6, r0, sp, ror #8
    32dc:	0013f300 	andseq	pc, r3, r0, lsl #6
    32e0:	157c1700 	ldrbne	r1, [ip, #-1792]!	; 0xfffff900
    32e4:	6e010000 	cdpvs	0, 0, cr0, cr1, cr0, {0}
    32e8:	00000025 	andeq	r0, r0, r5, lsr #32
    32ec:	00001427 	andeq	r1, r0, r7, lsr #8
    32f0:	000edf17 	andeq	sp, lr, r7, lsl pc
    32f4:	2c6f0100 	stfcse	f0, [pc], #-0	; 32fc <SCTLR_ENABLE_INSTRUCTION_CACHE+0x22fc>
    32f8:	a6000000 	strge	r0, [r0], -r0
    32fc:	17000014 	smladne	r0, r4, r0, r0
    3300:	00001512 	andeq	r1, r0, r2, lsl r5
    3304:	00257101 	eoreq	r7, r5, r1, lsl #2
    3308:	15590000 	ldrbne	r0, [r9, #-0]
    330c:	ae170000 	cdpge	0, 1, cr0, cr7, cr0, {0}
    3310:	01000014 	tsteq	r0, r4, lsl r0
    3314:	00002572 	andeq	r2, r0, r2, ror r5
    3318:	0015bd00 	andseq	fp, r5, r0, lsl #26
    331c:	151a1700 	ldrne	r1, [sl, #-1792]	; 0xfffff900
    3320:	74010000 	strvc	r0, [r1], #-0
    3324:	00000025 	andeq	r0, r0, r5, lsr #32
    3328:	00001637 	andeq	r1, r0, r7, lsr r6
    332c:	00159717 	andseq	r9, r5, r7, lsl r7
    3330:	25760100 	ldrbcs	r0, [r6, #-256]!	; 0xffffff00
    3334:	60000000 	andvs	r0, r0, r0
    3338:	1a000016 	bne	3398 <SCTLR_ENABLE_INSTRUCTION_CACHE+0x2398>
    333c:	0000158c 	andeq	r1, r0, ip, lsl #11
    3340:	00887801 	addeq	r7, r8, r1, lsl #16
    3344:	041b0000 	ldreq	r0, [fp], #-0
    3348:	01000015 	tsteq	r0, r5, lsl r0
    334c:	00987c9f 	umullseq	r7, r8, pc, ip	; <UNPREDICTABLE>
    3350:	15331c00 	ldrne	r1, [r3, #-3072]!	; 0xfffff400
    3354:	46010000 	strmi	r0, [r1], -r0
    3358:	00998801 	addseq	r8, r9, r1, lsl #16
    335c:	147e1c00 	ldrbtne	r1, [lr], #-3072	; 0xfffff400
    3360:	d3010000 	movwle	r0, #4096	; 0x1000
    3364:	00985401 	addseq	r5, r8, r1, lsl #8
    3368:	00e91d00 	rsceq	r1, r9, r0, lsl #26
    336c:	99940000 	ldmibls	r4, {}	; <UNPREDICTABLE>
    3370:	00e80000 	rsceq	r0, r8, r0
    3374:	63010000 	movwvs	r0, #4096	; 0x1000
    3378:	00036f01 	andeq	r6, r3, r1, lsl #30
    337c:	011a1e00 	tsteq	sl, r0, lsl #28
    3380:	16c30000 	strbne	r0, [r3], r0
    3384:	0e1e0000 	cdpeq	0, 1, cr0, cr14, cr0, {0}
    3388:	e2000001 	and	r0, r0, #1
    338c:	1e000016 	mcrne	0, 0, r0, cr0, cr6, {0}
    3390:	00000102 	andeq	r0, r0, r2, lsl #2
    3394:	0000171d 	andeq	r1, r0, sp, lsl r7
    3398:	0000f61e 	andeq	pc, r0, lr, lsl r6	; <UNPREDICTABLE>
    339c:	00178400 	andseq	r8, r7, r0, lsl #8
    33a0:	00e81f00 	rsceq	r1, r8, r0, lsl #30
    33a4:	26200000 	strtcs	r0, [r0], -r0
    33a8:	f4000001 	vst4.8	{d0-d3}, [r0], r1
    33ac:	21000017 	tstcs	r0, r7, lsl r0
    33b0:	00000132 	andeq	r0, r0, r2, lsr r1
    33b4:	7fb49103 	svcvc	0x00b49103
    33b8:	00013e20 	andeq	r3, r1, r0, lsr #28
    33bc:	00184e00 	andseq	r4, r8, r0, lsl #28
    33c0:	01201f00 			; <UNDEFINED> instruction: 0x01201f00
    33c4:	49220000 	stmdbmi	r2!, {}	; <UNPREDICTABLE>
    33c8:	20000001 	andcs	r0, r0, r1
    33cc:	00000155 	andeq	r0, r0, r5, asr r1
    33d0:	000018c1 	andeq	r1, r0, r1, asr #17
    33d4:	23000000 	movwcs	r0, #0
    33d8:	00009860 	andeq	r9, r0, r0, ror #16
    33dc:	0000037f 	andeq	r0, r0, pc, ror r3
    33e0:	02510124 	subseq	r0, r1, #36, 2
    33e4:	2500007a 	strcs	r0, [r0, #-122]	; 0xffffff86
    33e8:	00009a34 	andeq	r9, r0, r4, lsr sl
    33ec:	000004b4 			; <UNDEFINED> instruction: 0x000004b4
    33f0:	00000394 	muleq	r0, r4, r3
    33f4:	03500124 	cmpeq	r0, #36, 2
    33f8:	007f8891 			; <UNDEFINED> instruction: 0x007f8891
    33fc:	009aa423 	addseq	sl, sl, r3, lsr #8
    3400:	0003aa00 	andeq	sl, r3, r0, lsl #20
    3404:	50012400 	andpl	r2, r1, r0, lsl #8
    3408:	24300802 	ldrtcs	r0, [r0], #-2050	; 0xfffff7fe
    340c:	7a025101 	bvc	97818 <__first_lvl_tbl_end+0x76818>
    3410:	84250000 	strthi	r0, [r5], #-0
    3414:	b400009b 	strlt	r0, [r0], #-155	; 0xffffff65
    3418:	be000004 	cdplt	0, 0, cr0, cr0, cr4, {0}
    341c:	24000003 	strcs	r0, [r0], #-3
    3420:	79025001 	stmdbvc	r2, {r0, ip, lr}
    3424:	3c230000 	stccc	0, cr0, [r3], #-0
    3428:	d400009c 	strle	r0, [r0], #-156	; 0xffffff64
    342c:	24000003 	strcs	r0, [r0], #-3
    3430:	74025001 	strvc	r5, [r2], #-1
    3434:	51012400 	tstpl	r1, r0, lsl #8
    3438:	00007a02 	andeq	r7, r0, r2, lsl #20
    343c:	009dc423 	addseq	ip, sp, r3, lsr #8
    3440:	0003e400 	andeq	lr, r3, r0, lsl #8
    3444:	51012400 	tstpl	r1, r0, lsl #8
    3448:	00007a02 	andeq	r7, r0, r2, lsl #20
    344c:	009de423 	addseq	lr, sp, r3, lsr #8
    3450:	0003fc00 	andeq	pc, r3, r0, lsl #24
    3454:	50012400 	andpl	r2, r1, r0, lsl #8
    3458:	7ef89104 	nrmvce	f1, f4
    345c:	51012406 	tstpl	r1, r6, lsl #8
    3460:	00007a02 	andeq	r7, r0, r2, lsl #20
    3464:	009e5026 	addseq	r5, lr, r6, lsr #32
    3468:	50012400 	andpl	r2, r1, r0, lsl #8
    346c:	24007402 	strcs	r7, [r0], #-1026	; 0xfffffbfe
    3470:	7a025101 	bvc	9787c <__first_lvl_tbl_end+0x7687c>
    3474:	27000000 	strcs	r0, [r0, -r0]
    3478:	00000025 	andeq	r0, r0, r5, lsr #32
    347c:	00000423 	andeq	r0, r0, r3, lsr #8
    3480:	00002528 	andeq	r2, r0, r8, lsr #10
    3484:	00252800 	eoreq	r2, r5, r0, lsl #16
    3488:	05000000 	streq	r0, [r0, #-0]
    348c:	00040f04 	andeq	r0, r4, r4, lsl #30
    3490:	008e1200 	addeq	r1, lr, r0, lsl #4
    3494:	04390000 	ldrteq	r0, [r9], #-0
    3498:	72130000 	andsvc	r0, r3, #0
    349c:	0f000000 	svceq	0x00000000
    34a0:	14dd2900 	ldrbne	r2, [sp], #2304	; 0x900
    34a4:	e0010000 	and	r0, r1, r0
    34a8:	00044b01 	andeq	r4, r4, r1, lsl #22
    34ac:	5c030500 	cfstr32pl	mvfx0, [r3], {-0}
    34b0:	060000b0 			; <UNDEFINED> instruction: 0x060000b0
    34b4:	00000429 	andeq	r0, r0, r9, lsr #8
    34b8:	00148629 	andseq	r8, r4, r9, lsr #12
    34bc:	01e10100 	mvneq	r0, r0, lsl #2
    34c0:	00000462 	andeq	r0, r0, r2, ror #8
    34c4:	b04c0305 	sublt	r0, ip, r5, lsl #6
    34c8:	29060000 	stmdbcs	r6, {}	; <UNPREDICTABLE>
    34cc:	12000004 	andne	r0, r0, #4
    34d0:	00000477 	andeq	r0, r0, r7, ror r4
    34d4:	00000477 	andeq	r0, r0, r7, ror r4
    34d8:	00007213 	andeq	r7, r0, r3, lsl r2
    34dc:	06001000 	streq	r1, [r0], -r0
    34e0:	00000048 	andeq	r0, r0, r8, asr #32
    34e4:	0014ca2a 	andseq	ip, r4, sl, lsr #20
    34e8:	01e20100 	mvneq	r0, r0, lsl #2
    34ec:	0000049a 	muleq	r0, sl, r4
    34f0:	01000011 	tsteq	r0, r1, lsl r0
    34f4:	00000200 	andeq	r0, r0, r0, lsl #4
    34f8:	00000300 	andeq	r0, r0, r0, lsl #6
    34fc:	00000000 	andeq	r0, r0, r0
    3500:	67060400 	strvs	r0, [r6, -r0, lsl #8]
    3504:	2b000004 	blcs	351c <SCTLR_ENABLE_INSTRUCTION_CACHE+0x251c>
    3508:	30119e13 	andscc	r9, r1, r3, lsl lr
    350c:	34333231 	ldrtcc	r3, [r3], #-561	; 0xfffffdcf
    3510:	38373635 	ldmdacc	r7!, {r0, r2, r4, r5, r9, sl, ip, sp}
    3514:	63626139 	cmnvs	r2, #1073741838	; 0x4000000e
    3518:	00666564 	rsbeq	r6, r6, r4, ror #10
    351c:	0014a72c 	andseq	sl, r4, ip, lsr #14
    3520:	0014a700 	andseq	sl, r4, r0, lsl #14
    3524:	00250400 	eoreq	r0, r5, r0, lsl #8
    3528:	000000c7 	andeq	r0, r0, r7, asr #1
    352c:	14e50004 	strbtne	r0, [r5], #4
    3530:	01040000 	mrseq	r0, (UNDEF: 4)
    3534:	0000136e 	andeq	r1, r0, lr, ror #6
    3538:	0015a30c 	andseq	sl, r5, ip, lsl #6
    353c:	0013e600 	andseq	lr, r3, r0, lsl #12
    3540:	009f1800 	addseq	r1, pc, r0, lsl #16
    3544:	00003000 	andeq	r3, r0, r0
    3548:	00165c00 	andseq	r5, r6, r0, lsl #24
    354c:	05040200 	streq	r0, [r4, #-512]	; 0xfffffe00
    3550:	00746e69 	rsbseq	r6, r4, r9, ror #28
    3554:	00035003 	andeq	r5, r3, r3
    3558:	37d80200 	ldrbcc	r0, [r8, r0, lsl #4]
    355c:	04000000 	streq	r0, [r0], #-0
    3560:	00570704 	subseq	r0, r7, r4, lsl #14
    3564:	08040000 	stmdaeq	r4, {}	; <UNPREDICTABLE>
    3568:	00010c05 	andeq	r0, r1, r5, lsl #24
    356c:	04080400 	streq	r0, [r8], #-1024	; 0xfffffc00
    3570:	0000042e 	andeq	r0, r0, lr, lsr #8
    3574:	0d060104 	stfeqs	f0, [r6, #-16]
    3578:	04000000 	streq	r0, [r0], #-0
    357c:	000b0801 	andeq	r0, fp, r1, lsl #16
    3580:	02040000 	andeq	r0, r4, #0
    3584:	00016b05 	andeq	r6, r1, r5, lsl #22
    3588:	07020400 	streq	r0, [r2, -r0, lsl #8]
    358c:	00000019 	andeq	r0, r0, r9, lsl r0
    3590:	11050404 	tstne	r5, r4, lsl #8
    3594:	04000001 	streq	r0, [r0], #-1
    3598:	00520704 	subseq	r0, r2, r4, lsl #14
    359c:	08040000 	stmdaeq	r4, {}	; <UNPREDICTABLE>
    35a0:	00004d07 	andeq	r4, r0, r7, lsl #26
    35a4:	07040400 	streq	r0, [r4, -r0, lsl #8]
    35a8:	00000357 	andeq	r0, r0, r7, asr r3
    35ac:	14080104 	strne	r0, [r8], #-260	; 0xfffffefc
    35b0:	05000000 	streq	r0, [r0, #-0]
    35b4:	00009104 	andeq	r9, r0, r4, lsl #2
    35b8:	00840600 	addeq	r0, r4, r0, lsl #12
    35bc:	a7070000 	strge	r0, [r7, -r0]
    35c0:	03000014 	movweq	r0, #20
    35c4:	00002c25 	andeq	r2, r0, r5, lsr #24
    35c8:	009f1800 	addseq	r1, pc, r0, lsl #16
    35cc:	00003000 	andeq	r3, r0, r0
    35d0:	089c0100 	ldmeq	ip, {r8}
    35d4:	00727473 	rsbseq	r7, r2, r3, ror r4
    35d8:	008b0301 	addeq	r0, fp, r1, lsl #6
    35dc:	18df0000 	ldmne	pc, {}^	; <UNPREDICTABLE>
    35e0:	6c090000 	stcvs	0, cr0, [r9], {-0}
    35e4:	01006e65 	tsteq	r0, r5, ror #28
    35e8:	00002c04 	andeq	r2, r0, r4, lsl #24
    35ec:	00191900 	andseq	r1, r9, r0, lsl #18
    35f0:	Address 0x00000000000035f0 is out of bounds.


Disassembly of section .debug_abbrev:

00000000 <.debug_abbrev>:
       0:	10001101 	andne	r1, r0, r1, lsl #2
       4:	12011106 	andne	r1, r1, #-2147483647	; 0x80000001
       8:	1b080301 	blne	200c14 <__kernel_end+0x9ec14>
       c:	13082508 	movwne	r2, #34056	; 0x8508
      10:	00000005 	andeq	r0, r0, r5
      14:	25011101 	strcs	r1, [r1, #-257]	; 0xfffffeff
      18:	030b130e 	movweq	r1, #45838	; 0xb30e
      1c:	110e1b0e 	tstne	lr, lr, lsl #22
      20:	10061201 	andne	r1, r6, r1, lsl #4
      24:	02000017 	andeq	r0, r0, #23
      28:	0b0b0024 	bleq	2c00c0 <__kernel_end+0x15e0c0>
      2c:	0e030b3e 	vmoveq.16	d3[0], r0
      30:	16030000 	strne	r0, [r3], -r0
      34:	3a0e0300 	bcc	380c3c <__kernel_end+0x21ec3c>
      38:	490b3b0b 	stmdbmi	fp, {r0, r1, r3, r8, r9, fp, ip, sp}
      3c:	04000013 	streq	r0, [r0], #-19	; 0xffffffed
      40:	0b0b0024 	bleq	2c00d8 <__kernel_end+0x15e0d8>
      44:	08030b3e 	stmdaeq	r3, {r1, r2, r3, r4, r5, r8, r9, fp}
      48:	2e050000 	cdpcs	0, 0, cr0, cr5, cr0, {0}
      4c:	03193f01 	tsteq	r9, #1, 30
      50:	3b0b3a0e 	blcc	2ce890 <__kernel_end+0x16c890>
      54:	1119270b 	tstne	r9, fp, lsl #14
      58:	40061201 	andmi	r1, r6, r1, lsl #4
      5c:	19429718 	stmdbne	r2, {r3, r4, r8, r9, sl, ip, pc}^
      60:	00001301 	andeq	r1, r0, r1, lsl #6
      64:	03000506 	movweq	r0, #1286	; 0x506
      68:	3b0b3a08 	blcc	2ce890 <__kernel_end+0x16c890>
      6c:	0213490b 	andseq	r4, r3, #180224	; 0x2c000
      70:	07000017 	smladeq	r0, r7, r0, r0
      74:	08030034 	stmdaeq	r3, {r2, r4, r5}
      78:	0b3b0b3a 	bleq	ec2d68 <__kernel_end+0xd60d68>
      7c:	17021349 	strne	r1, [r2, -r9, asr #6]
      80:	34080000 	strcc	r0, [r8], #-0
      84:	3a0e0300 	bcc	380c8c <__kernel_end+0x21ec8c>
      88:	490b3b0b 	stmdbmi	fp, {r0, r1, r3, r8, r9, fp, ip, sp}
      8c:	09000013 	stmdbeq	r0, {r0, r1, r4}
      90:	00018289 	andeq	r8, r1, r9, lsl #5
      94:	13310111 	teqne	r1, #1073741828	; 0x40000004
      98:	0f0a0000 	svceq	0x000a0000
      9c:	490b0b00 	stmdbmi	fp, {r8, r9, fp}
      a0:	0b000013 	bleq	f4 <ARM_I_BIT+0x74>
      a4:	0e030034 	mcreq	0, 0, r0, cr3, cr4, {1}
      a8:	0b3b0b3a 	bleq	ec2d98 <__kernel_end+0xd60d98>
      ac:	193f1349 	ldmdbne	pc!, {r0, r3, r6, r8, r9, ip}	; <UNPREDICTABLE>
      b0:	0000193c 	andeq	r1, r0, ip, lsr r9
      b4:	3f002e0c 	svccc	0x00002e0c
      b8:	6e193c19 	mrcvs	12, 0, r3, cr9, cr9, {0}
      bc:	3a0e030e 	bcc	380cfc <__kernel_end+0x21ecfc>
      c0:	000b3b0b 	andeq	r3, fp, fp, lsl #22
      c4:	11010000 	mrsne	r0, (UNDEF: 1)
      c8:	130e2501 	movwne	r2, #58625	; 0xe501
      cc:	1b0e030b 	blne	380d00 <__kernel_end+0x21ed00>
      d0:	1201110e 	andne	r1, r1, #-2147483645	; 0x80000003
      d4:	00171006 	andseq	r1, r7, r6
      d8:	00240200 	eoreq	r0, r4, r0, lsl #4
      dc:	0b3e0b0b 	bleq	f82d10 <__kernel_end+0xe20d10>
      e0:	00000e03 	andeq	r0, r0, r3, lsl #28
      e4:	03001603 	movweq	r1, #1539	; 0x603
      e8:	3b0b3a0e 	blcc	2ce928 <__kernel_end+0x16c928>
      ec:	0013490b 	andseq	r4, r3, fp, lsl #18
      f0:	00240400 	eoreq	r0, r4, r0, lsl #8
      f4:	0b3e0b0b 	bleq	f82d28 <__kernel_end+0xe20d28>
      f8:	00000803 	andeq	r0, r0, r3, lsl #16
      fc:	49003505 	stmdbmi	r0, {r0, r2, r8, sl, ip, sp}
     100:	06000013 			; <UNDEFINED> instruction: 0x06000013
     104:	0b0b0113 	bleq	2c0558 <__kernel_end+0x15e558>
     108:	0b3b0b3a 	bleq	ec2df8 <__kernel_end+0xd60df8>
     10c:	00001301 	andeq	r1, r0, r1, lsl #6
     110:	03000d07 	movweq	r0, #3335	; 0xd07
     114:	3b0b3a0e 	blcc	2ce954 <__kernel_end+0x16c954>
     118:	3813490b 	ldmdacc	r3, {r0, r1, r3, r8, fp, lr}
     11c:	0800000b 	stmdaeq	r0, {r0, r1, r3}
     120:	0b0b0104 	bleq	2c0538 <__kernel_end+0x15e538>
     124:	0b3a1349 	bleq	e84e50 <__kernel_end+0xd22e50>
     128:	13010b3b 	movwne	r0, #6971	; 0x1b3b
     12c:	28090000 	stmdacs	r9, {}	; <UNPREDICTABLE>
     130:	1c0e0300 	stcne	3, cr0, [lr], {-0}
     134:	0a00000b 	beq	168 <ARM_I_BIT+0xe8>
     138:	193f002e 	ldmdbne	pc!, {r1, r2, r3, r5}	; <UNPREDICTABLE>
     13c:	0b3a0e03 	bleq	e83950 <__kernel_end+0xd21950>
     140:	19270b3b 	stmdbne	r7!, {r0, r1, r3, r4, r5, r8, r9, fp}
     144:	01111349 	tsteq	r1, r9, asr #6
     148:	18400612 	stmdane	r0, {r1, r4, r9, sl}^
     14c:	00194297 	mulseq	r9, r7, r2
     150:	000f0b00 	andeq	r0, pc, r0, lsl #22
     154:	13490b0b 	movtne	r0, #39691	; 0x9b0b
     158:	2e0c0000 	cdpcs	0, 0, cr0, cr12, cr0, {0}
     15c:	03193f01 	tsteq	r9, #1, 30
     160:	3b0b3a0e 	blcc	2ce9a0 <__kernel_end+0x16c9a0>
     164:	1119270b 	tstne	r9, fp, lsl #14
     168:	40061201 	andmi	r1, r6, r1, lsl #4
     16c:	19429718 	stmdbne	r2, {r3, r4, r8, r9, sl, ip, pc}^
     170:	00001301 	andeq	r1, r0, r1, lsl #6
     174:	0182890d 	orreq	r8, r2, sp, lsl #18
     178:	31011100 	mrscc	r1, (UNDEF: 17)
     17c:	0e000013 	mcreq	0, 0, r0, cr0, cr3, {0}
     180:	0e030034 	mcreq	0, 0, r0, cr3, cr4, {1}
     184:	0b3b0b3a 	bleq	ec2e74 <__kernel_end+0xd60e74>
     188:	061c1349 	ldreq	r1, [ip], -r9, asr #6
     18c:	260f0000 	strcs	r0, [pc], -r0
     190:	00134900 	andseq	r4, r3, r0, lsl #18
     194:	002e1000 	eoreq	r1, lr, r0
     198:	193c193f 	ldmdbne	ip!, {r0, r1, r2, r3, r4, r5, r8, fp, ip}
     19c:	0e030e6e 	cdpeq	14, 0, cr0, cr3, cr14, {3}
     1a0:	0b3b0b3a 	bleq	ec2e90 <__kernel_end+0xd60e90>
     1a4:	01000000 	mrseq	r0, (UNDEF: 0)
     1a8:	0e250111 	mcreq	1, 1, r0, cr5, cr1, {0}
     1ac:	0e030b13 	vmoveq.32	d3[0], r0
     1b0:	01110e1b 	tsteq	r1, fp, lsl lr
     1b4:	17100612 			; <UNDEFINED> instruction: 0x17100612
     1b8:	24020000 	strcs	r0, [r2], #-0
     1bc:	3e0b0b00 	vmlacc.f64	d0, d11, d0
     1c0:	000e030b 	andeq	r0, lr, fp, lsl #6
     1c4:	00240300 	eoreq	r0, r4, r0, lsl #6
     1c8:	0b3e0b0b 	bleq	f82dfc <__kernel_end+0xe20dfc>
     1cc:	00000803 	andeq	r0, r0, r3, lsl #16
     1d0:	03001604 	movweq	r1, #1540	; 0x604
     1d4:	3b0b3a0e 	blcc	2cea14 <__kernel_end+0x16ca14>
     1d8:	0013490b 	andseq	r4, r3, fp, lsl #18
     1dc:	00350500 	eorseq	r0, r5, r0, lsl #10
     1e0:	00001349 	andeq	r1, r0, r9, asr #6
     1e4:	0b000f06 	bleq	3e04 <SCTLR_ENABLE_INSTRUCTION_CACHE+0x2e04>
     1e8:	0013490b 	andseq	r4, r3, fp, lsl #18
     1ec:	00150700 	andseq	r0, r5, r0, lsl #14
     1f0:	00001927 	andeq	r1, r0, r7, lsr #18
     1f4:	0b010408 	bleq	4121c <__first_lvl_tbl_end+0x2021c>
     1f8:	3a13490b 	bcc	4d262c <__kernel_end+0x37062c>
     1fc:	010b3b0b 	tsteq	fp, fp, lsl #22
     200:	09000013 	stmdbeq	r0, {r0, r1, r4}
     204:	0e030028 	cdpeq	0, 0, cr0, cr3, cr8, {1}
     208:	00000b1c 	andeq	r0, r0, ip, lsl fp
     20c:	0b01130a 	bleq	44e3c <__first_lvl_tbl_end+0x23e3c>
     210:	3b0b3a0b 	blcc	2cea44 <__kernel_end+0x16ca44>
     214:	0013010b 	andseq	r0, r3, fp, lsl #2
     218:	000d0b00 	andeq	r0, sp, r0, lsl #22
     21c:	0b3a0e03 	bleq	e83a30 <__kernel_end+0xd21a30>
     220:	13490b3b 	movtne	r0, #39739	; 0x9b3b
     224:	00000b38 	andeq	r0, r0, r8, lsr fp
     228:	3f012e0c 	svccc	0x00012e0c
     22c:	3a0e0319 	bcc	380e98 <__kernel_end+0x21ee98>
     230:	270b3b0b 	strcs	r3, [fp, -fp, lsl #22]
     234:	20134919 	andscs	r4, r3, r9, lsl r9
     238:	0013010b 	andseq	r0, r3, fp, lsl #2
     23c:	00340d00 	eorseq	r0, r4, r0, lsl #26
     240:	0b3a0803 	bleq	e82254 <__kernel_end+0xd20254>
     244:	13490b3b 	movtne	r0, #39739	; 0x9b3b
     248:	2e0e0000 	cdpcs	0, 0, cr0, cr14, cr0, {0}
     24c:	03193f00 	tsteq	r9, #0, 30
     250:	3b0b3a0e 	blcc	2cea90 <__kernel_end+0x16ca90>
     254:	2019270b 	andscs	r2, r9, fp, lsl #14
     258:	0f00000b 	svceq	0x0000000b
     25c:	193f002e 	ldmdbne	pc!, {r1, r2, r3, r5}	; <UNPREDICTABLE>
     260:	0b3a0e03 	bleq	e83a74 <__kernel_end+0xd21a74>
     264:	19270b3b 	stmdbne	r7!, {r0, r1, r3, r4, r5, r8, r9, fp}
     268:	01111349 	tsteq	r1, r9, asr #6
     26c:	18400612 	stmdane	r0, {r1, r4, r9, sl}^
     270:	00194297 	mulseq	r9, r7, r2
     274:	012e1000 			; <UNDEFINED> instruction: 0x012e1000
     278:	0e03193f 	mcreq	9, 0, r1, cr3, cr15, {1}
     27c:	0b3b0b3a 	bleq	ec2f6c <__kernel_end+0xd60f6c>
     280:	01111927 	tsteq	r1, r7, lsr #18
     284:	18400612 	stmdane	r0, {r1, r4, r9, sl}^
     288:	01194297 			; <UNDEFINED> instruction: 0x01194297
     28c:	11000013 	tstne	r0, r3, lsl r0
     290:	00018289 	andeq	r8, r1, r9, lsl #5
     294:	13310111 	teqne	r1, #1073741828	; 0x40000004
     298:	2e120000 	cdpcs	0, 1, cr0, cr2, cr0, {0}
     29c:	03193f01 	tsteq	r9, #1, 30
     2a0:	3b0b3a0e 	blcc	2ceae0 <__kernel_end+0x16cae0>
     2a4:	1119270b 	tstne	r9, fp, lsl #14
     2a8:	40061201 	andmi	r1, r6, r1, lsl #4
     2ac:	19429618 	stmdbne	r2, {r3, r4, r9, sl, ip, pc}^
     2b0:	00001301 	andeq	r1, r0, r1, lsl #6
     2b4:	03003413 	movweq	r3, #1043	; 0x413
     2b8:	3b0b3a08 	blcc	2ceae0 <__kernel_end+0x16cae0>
     2bc:	0213490b 	andseq	r4, r3, #180224	; 0x2c000
     2c0:	14000017 	strne	r0, [r0], #-23	; 0xffffffe9
     2c4:	1331011d 	teqne	r1, #1073741831	; 0x40000007
     2c8:	06120111 			; <UNDEFINED> instruction: 0x06120111
     2cc:	0b590b58 	bleq	1643034 <__kernel_end+0x14e1034>
     2d0:	00001301 	andeq	r1, r0, r1, lsl #6
     2d4:	31011d15 	tstcc	r1, r5, lsl sp
     2d8:	12011113 	andne	r1, r1, #-1073741820	; 0xc0000004
     2dc:	590b5806 	stmdbpl	fp, {r1, r2, fp, ip, lr}
     2e0:	1600000b 	strne	r0, [r0], -fp
     2e4:	0111010b 	tsteq	r1, fp, lsl #2
     2e8:	00000612 	andeq	r0, r0, r2, lsl r6
     2ec:	31003417 	tstcc	r0, r7, lsl r4
     2f0:	18000013 	stmdane	r0, {r0, r1, r4}
     2f4:	0e030005 	cdpeq	0, 0, cr0, cr3, cr5, {0}
     2f8:	0b3b0b3a 	bleq	ec2fe8 <__kernel_end+0xd60fe8>
     2fc:	17021349 	strne	r1, [r2, -r9, asr #6]
     300:	05190000 	ldreq	r0, [r9, #-0]
     304:	3a0e0300 	bcc	380f0c <__kernel_end+0x21ef0c>
     308:	490b3b0b 	stmdbmi	fp, {r0, r1, r3, r8, r9, fp, ip, sp}
     30c:	00180213 	andseq	r0, r8, r3, lsl r2
     310:	00341a00 	eorseq	r1, r4, r0, lsl #20
     314:	0b3a0e03 	bleq	e83b28 <__kernel_end+0xd21b28>
     318:	13490b3b 	movtne	r0, #39739	; 0x9b3b
     31c:	00001702 	andeq	r1, r0, r2, lsl #14
     320:	3f012e1b 	svccc	0x00012e1b
     324:	3a0e0319 	bcc	380f90 <__kernel_end+0x21ef90>
     328:	270b3b0b 	strcs	r3, [fp, -fp, lsl #22]
     32c:	11134919 	tstne	r3, r9, lsl r9
     330:	40061201 	andmi	r1, r6, r1, lsl #4
     334:	19429718 	stmdbne	r2, {r3, r4, r8, r9, sl, ip, pc}^
     338:	00001301 	andeq	r1, r0, r1, lsl #6
     33c:	0300051c 	movweq	r0, #1308	; 0x51c
     340:	3b0b3a08 	blcc	2ceb68 <__kernel_end+0x16cb68>
     344:	0213490b 	andseq	r4, r3, #180224	; 0x2c000
     348:	1d000018 	stcne	0, cr0, [r0, #-96]	; 0xffffffa0
     34c:	08030005 	stmdaeq	r3, {r0, r2}
     350:	0b3b0b3a 	bleq	ec3040 <__kernel_end+0xd61040>
     354:	17021349 	strne	r1, [r2, -r9, asr #6]
     358:	341e0000 	ldrcc	r0, [lr], #-0
     35c:	3a080300 	bcc	200f64 <__kernel_end+0x9ef64>
     360:	490b3b0b 	stmdbmi	fp, {r0, r1, r3, r8, r9, fp, ip, sp}
     364:	00180213 	andseq	r0, r8, r3, lsl r2
     368:	00341f00 	eorseq	r1, r4, r0, lsl #30
     36c:	0b3a0e03 	bleq	e83b80 <__kernel_end+0xd21b80>
     370:	13490b3b 	movtne	r0, #39739	; 0x9b3b
     374:	00001802 	andeq	r1, r0, r2, lsl #16
     378:	0b000f20 	bleq	4000 <SCTLR_ENABLE_INSTRUCTION_CACHE+0x3000>
     37c:	2100000b 	tstcs	r0, fp
     380:	01018289 	smlabbeq	r1, r9, r2, r8
     384:	42950111 	addsmi	r0, r5, #1073741828	; 0x40000004
     388:	00133119 	andseq	r3, r3, r9, lsl r1
     38c:	828a2200 	addhi	r2, sl, #0, 4
     390:	18020001 	stmdane	r2, {r0}
     394:	00184291 	mulseq	r8, r1, r2
     398:	82892300 	addhi	r2, r9, #0, 6
     39c:	01110101 	tsteq	r1, r1, lsl #2
     3a0:	13011331 	movwne	r1, #4913	; 0x1331
     3a4:	89240000 	stmdbhi	r4!, {}	; <UNPREDICTABLE>
     3a8:	11010182 	smlabbne	r1, r2, r1, r0
     3ac:	00133101 	andseq	r3, r3, r1, lsl #2
     3b0:	00342500 	eorseq	r2, r4, r0, lsl #10
     3b4:	0b3a0e03 	bleq	e83bc8 <__kernel_end+0xd21bc8>
     3b8:	13490b3b 	movtne	r0, #39739	; 0x9b3b
     3bc:	0000061c 	andeq	r0, r0, ip, lsl r6
     3c0:	49002626 	stmdbmi	r0, {r1, r2, r5, r9, sl, sp}
     3c4:	27000013 	smladcs	r0, r3, r0, r0
     3c8:	13490101 	movtne	r0, #37121	; 0x9101
     3cc:	00001301 	andeq	r1, r0, r1, lsl #6
     3d0:	49002128 	stmdbmi	r0, {r3, r5, r8, sp}
     3d4:	000b2f13 	andeq	r2, fp, r3, lsl pc
     3d8:	00342900 	eorseq	r2, r4, r0, lsl #18
     3dc:	0b3a0e03 	bleq	e83bf0 <__kernel_end+0xd21bf0>
     3e0:	13490b3b 	movtne	r0, #39739	; 0x9b3b
     3e4:	1802193f 	stmdane	r2, {r0, r1, r2, r3, r4, r5, r8, fp, ip}
     3e8:	2e2a0000 	cdpcs	0, 2, cr0, cr10, cr0, {0}
     3ec:	3c193f00 	ldccc	15, cr3, [r9], {-0}
     3f0:	030e6e19 	movweq	r6, #60953	; 0xee19
     3f4:	3b0b3a0e 	blcc	2cec34 <__kernel_end+0x16cc34>
     3f8:	0000000b 	andeq	r0, r0, fp
     3fc:	25011101 	strcs	r1, [r1, #-257]	; 0xfffffeff
     400:	030b130e 	movweq	r1, #45838	; 0xb30e
     404:	110e1b0e 	tstne	lr, lr, lsl #22
     408:	10061201 	andne	r1, r6, r1, lsl #4
     40c:	02000017 	andeq	r0, r0, #23
     410:	0b0b0024 	bleq	2c04a8 <__kernel_end+0x15e4a8>
     414:	0e030b3e 	vmoveq.16	d3[0], r0
     418:	16030000 	strne	r0, [r3], -r0
     41c:	3a0e0300 	bcc	381024 <__kernel_end+0x21f024>
     420:	490b3b0b 	stmdbmi	fp, {r0, r1, r3, r8, r9, fp, ip, sp}
     424:	04000013 	streq	r0, [r0], #-19	; 0xffffffed
     428:	0b0b0024 	bleq	2c04c0 <__kernel_end+0x15e4c0>
     42c:	08030b3e 	stmdaeq	r3, {r1, r2, r3, r4, r5, r8, r9, fp}
     430:	35050000 	strcc	r0, [r5, #-0]
     434:	00134900 	andseq	r4, r3, r0, lsl #18
     438:	01040600 	tsteq	r4, r0, lsl #12
     43c:	13490b0b 	movtne	r0, #39691	; 0x9b0b
     440:	0b3b0b3a 	bleq	ec3130 <__kernel_end+0xd61130>
     444:	00001301 	andeq	r1, r0, r1, lsl #6
     448:	03002807 	movweq	r2, #2055	; 0x807
     44c:	000b1c0e 	andeq	r1, fp, lr, lsl #24
     450:	01040800 	tsteq	r4, r0, lsl #16
     454:	0b0b0e03 	bleq	2c3c68 <__kernel_end+0x161c68>
     458:	0b3a1349 	bleq	e85184 <__kernel_end+0xd23184>
     45c:	13010b3b 	movwne	r0, #6971	; 0x1b3b
     460:	28090000 	stmdacs	r9, {}	; <UNPREDICTABLE>
     464:	1c0e0300 	stcne	3, cr0, [lr], {-0}
     468:	0a000006 	beq	488 <ARM_I_BIT+0x408>
     46c:	0b0b0113 	bleq	2c08c0 <__kernel_end+0x15e8c0>
     470:	0b3b0b3a 	bleq	ec3160 <__kernel_end+0xd61160>
     474:	00001301 	andeq	r1, r0, r1, lsl #6
     478:	03000d0b 	movweq	r0, #3339	; 0xd0b
     47c:	3b0b3a0e 	blcc	2cecbc <__kernel_end+0x16ccbc>
     480:	3813490b 	ldmdacc	r3, {r0, r1, r3, r8, fp, lr}
     484:	0c00000b 	stceq	0, cr0, [r0], {11}
     488:	13490101 	movtne	r0, #37121	; 0x9101
     48c:	00001301 	andeq	r1, r0, r1, lsl #6
     490:	4900210d 	stmdbmi	r0, {r0, r2, r3, r8, sp}
     494:	000b2f13 	andeq	r2, fp, r3, lsl pc
     498:	012e0e00 			; <UNDEFINED> instruction: 0x012e0e00
     49c:	0e03193f 	mcreq	9, 0, r1, cr3, cr15, {1}
     4a0:	0b3b0b3a 	bleq	ec3190 <__kernel_end+0xd61190>
     4a4:	01111927 	tsteq	r1, r7, lsr #18
     4a8:	18400612 	stmdane	r0, {r1, r4, r9, sl}^
     4ac:	01194297 			; <UNDEFINED> instruction: 0x01194297
     4b0:	0f000013 	svceq	0x00000013
     4b4:	0e030005 	cdpeq	0, 0, cr0, cr3, cr5, {0}
     4b8:	0b3b0b3a 	bleq	ec31a8 <__kernel_end+0xd611a8>
     4bc:	17021349 	strne	r1, [r2, -r9, asr #6]
     4c0:	2e100000 	cdpcs	0, 1, cr0, cr0, cr0, {0}
     4c4:	03193f01 	tsteq	r9, #1, 30
     4c8:	3b0b3a0e 	blcc	2ced08 <__kernel_end+0x16cd08>
     4cc:	4919270b 	ldmdbmi	r9, {r0, r1, r3, r8, r9, sl, sp}
     4d0:	12011113 	andne	r1, r1, #-1073741820	; 0xc0000004
     4d4:	97184006 	ldrls	r4, [r8, -r6]
     4d8:	13011942 	movwne	r1, #6466	; 0x1942
     4dc:	34110000 	ldrcc	r0, [r1], #-0
     4e0:	3a0e0300 	bcc	3810e8 <__kernel_end+0x21f0e8>
     4e4:	490b3b0b 	stmdbmi	fp, {r0, r1, r3, r8, r9, fp, ip, sp}
     4e8:	00170213 	andseq	r0, r7, r3, lsl r2
     4ec:	00341200 	eorseq	r1, r4, r0, lsl #4
     4f0:	0b3a0e03 	bleq	e83d04 <__kernel_end+0xd21d04>
     4f4:	13490b3b 	movtne	r0, #39739	; 0x9b3b
     4f8:	0000061c 	andeq	r0, r0, ip, lsl r6
     4fc:	0b000f13 	bleq	4150 <SCTLR_ENABLE_INSTRUCTION_CACHE+0x3150>
     500:	0013490b 	andseq	r4, r3, fp, lsl #18
     504:	00261400 	eoreq	r1, r6, r0, lsl #8
     508:	00001349 	andeq	r1, r0, r9, asr #6
     50c:	01110100 	tsteq	r1, r0, lsl #2
     510:	0b130e25 	bleq	4c3dac <__kernel_end+0x361dac>
     514:	0e1b0e03 	cdpeq	14, 1, cr0, cr11, cr3, {0}
     518:	06120111 			; <UNDEFINED> instruction: 0x06120111
     51c:	00001710 	andeq	r1, r0, r0, lsl r7
     520:	03001602 	movweq	r1, #1538	; 0x602
     524:	3b0b3a0e 	blcc	2ced64 <__kernel_end+0x16cd64>
     528:	0013490b 	andseq	r4, r3, fp, lsl #18
     52c:	01130300 	tsteq	r3, r0, lsl #6
     530:	0b0b0e03 	bleq	2c3d44 <__kernel_end+0x161d44>
     534:	0b3b0b3a 	bleq	ec3224 <__kernel_end+0xd61224>
     538:	00001301 	andeq	r1, r0, r1, lsl #6
     53c:	03000d04 	movweq	r0, #3332	; 0xd04
     540:	3813490e 	ldmdacc	r3, {r1, r2, r3, r8, fp, lr}
     544:	0019340b 	andseq	r3, r9, fp, lsl #8
     548:	000f0500 	andeq	r0, pc, r0, lsl #10
     54c:	00000b0b 	andeq	r0, r0, fp, lsl #22
     550:	0b002406 	bleq	9570 <show_dma_demo+0x208>
     554:	030b3e0b 	movweq	r3, #48651	; 0xbe0b
     558:	0700000e 	streq	r0, [r0, -lr]
     55c:	0b0b0024 	bleq	2c05f4 <__kernel_end+0x15e5f4>
     560:	08030b3e 	stmdaeq	r3, {r1, r2, r3, r4, r5, r8, r9, fp}
     564:	04080000 	streq	r0, [r8], #-0
     568:	490b0b01 	stmdbmi	fp, {r0, r8, r9, fp}
     56c:	3b0b3a13 	blcc	2cedc0 <__kernel_end+0x16cdc0>
     570:	0013010b 	andseq	r0, r3, fp, lsl #2
     574:	00280900 	eoreq	r0, r8, r0, lsl #18
     578:	0b1c0e03 	bleq	703d8c <__kernel_end+0x5a1d8c>
     57c:	280a0000 	stmdacs	sl, {}	; <UNPREDICTABLE>
     580:	1c0e0300 	stcne	3, cr0, [lr], {-0}
     584:	0b000006 	bleq	5a4 <ARM_I_BIT+0x524>
     588:	0e030028 	cdpeq	0, 0, cr0, cr3, cr8, {1}
     58c:	0000051c 	andeq	r0, r0, ip, lsl r5
     590:	0b01170c 	bleq	461c8 <__first_lvl_tbl_end+0x251c8>
     594:	3b0b3a05 	blcc	2cedb0 <__kernel_end+0x16cdb0>
     598:	0013010b 	andseq	r0, r3, fp, lsl #2
     59c:	000d0d00 	andeq	r0, sp, r0, lsl #26
     5a0:	0b3a0e03 	bleq	e83db4 <__kernel_end+0xd21db4>
     5a4:	13490b3b 	movtne	r0, #39739	; 0x9b3b
     5a8:	010e0000 	mrseq	r0, (UNDEF: 14)
     5ac:	01134901 	tsteq	r3, r1, lsl #18
     5b0:	0f000013 	svceq	0x00000013
     5b4:	13490021 	movtne	r0, #36897	; 0x9021
     5b8:	00000b2f 	andeq	r0, r0, pc, lsr #22
     5bc:	0b011310 	bleq	45204 <__first_lvl_tbl_end+0x24204>
     5c0:	3b0b3a05 	blcc	2ceddc <__kernel_end+0x16cddc>
     5c4:	0013010b 	andseq	r0, r3, fp, lsl #2
     5c8:	000d1100 	andeq	r1, sp, r0, lsl #2
     5cc:	0b3a0803 	bleq	e825e0 <__kernel_end+0xd205e0>
     5d0:	13490b3b 	movtne	r0, #39739	; 0x9b3b
     5d4:	00000b38 	andeq	r0, r0, r8, lsr fp
     5d8:	03000d12 	movweq	r0, #3346	; 0xd12
     5dc:	3b0b3a0e 	blcc	2cee1c <__kernel_end+0x16ce1c>
     5e0:	3813490b 	ldmdacc	r3, {r0, r1, r3, r8, fp, lr}
     5e4:	1300000b 	movwne	r0, #11
     5e8:	193f002e 	ldmdbne	pc!, {r1, r2, r3, r5}	; <UNPREDICTABLE>
     5ec:	0b3a0e03 	bleq	e83e00 <__kernel_end+0xd21e00>
     5f0:	19270b3b 	stmdbne	r7!, {r0, r1, r3, r4, r5, r8, r9, fp}
     5f4:	06120111 			; <UNDEFINED> instruction: 0x06120111
     5f8:	42971840 	addsmi	r1, r7, #64, 16	; 0x400000
     5fc:	14000019 	strne	r0, [r0], #-25	; 0xffffffe7
     600:	193f012e 	ldmdbne	pc!, {r1, r2, r3, r5, r8}	; <UNPREDICTABLE>
     604:	0b3a0e03 	bleq	e83e18 <__kernel_end+0xd21e18>
     608:	19270b3b 	stmdbne	r7!, {r0, r1, r3, r4, r5, r8, r9, fp}
     60c:	06120111 			; <UNDEFINED> instruction: 0x06120111
     610:	42971840 	addsmi	r1, r7, #64, 16	; 0x400000
     614:	00130119 	andseq	r0, r3, r9, lsl r1
     618:	00051500 	andeq	r1, r5, r0, lsl #10
     61c:	0b3a0803 	bleq	e82630 <__kernel_end+0xd20630>
     620:	13490b3b 	movtne	r0, #39739	; 0x9b3b
     624:	00001802 	andeq	r1, r0, r2, lsl #16
     628:	00001816 	andeq	r1, r0, r6, lsl r8
     62c:	00341700 	eorseq	r1, r4, r0, lsl #14
     630:	0b3a0803 	bleq	e82644 <__kernel_end+0xd20644>
     634:	13490b3b 	movtne	r0, #39739	; 0x9b3b
     638:	00001802 	andeq	r1, r0, r2, lsl #16
     63c:	3f012e18 	svccc	0x00012e18
     640:	3a0e0319 	bcc	3812ac <__kernel_end+0x21f2ac>
     644:	270b3b0b 	strcs	r3, [fp, -fp, lsl #22]
     648:	11134919 	tstne	r3, r9, lsl r9
     64c:	40061201 	andmi	r1, r6, r1, lsl #4
     650:	19429718 	stmdbne	r2, {r3, r4, r8, r9, sl, ip, pc}^
     654:	00001301 	andeq	r1, r0, r1, lsl #6
     658:	03003419 	movweq	r3, #1049	; 0x419
     65c:	3b0b3a0e 	blcc	2cee9c <__kernel_end+0x16ce9c>
     660:	0013490b 	andseq	r4, r3, fp, lsl #18
     664:	82891a00 	addhi	r1, r9, #0, 20
     668:	01110101 	tsteq	r1, r1, lsl #2
     66c:	13011331 	movwne	r1, #4913	; 0x1331
     670:	8a1b0000 	bhi	6c0678 <__kernel_end+0x55e678>
     674:	02000182 	andeq	r0, r0, #-2147483616	; 0x80000020
     678:	18429118 	stmdane	r2, {r3, r4, r8, ip, pc}^
     67c:	891c0000 	ldmdbhi	ip, {}	; <UNPREDICTABLE>
     680:	11010182 	smlabbne	r1, r2, r1, r0
     684:	19429501 	stmdbne	r2, {r0, r8, sl, ip, pc}^
     688:	00001331 	andeq	r1, r0, r1, lsr r3
     68c:	0300051d 	movweq	r0, #1309	; 0x51d
     690:	3b0b3a08 	blcc	2ceeb8 <__kernel_end+0x16ceb8>
     694:	0213490b 	andseq	r4, r3, #180224	; 0x2c000
     698:	1e000017 	mcrne	0, 0, r0, cr0, cr7, {0}
     69c:	0e030034 	mcreq	0, 0, r0, cr3, cr4, {1}
     6a0:	0b3b0b3a 	bleq	ec3390 <__kernel_end+0xd61390>
     6a4:	18021349 	stmdane	r2, {r0, r3, r6, r8, r9, ip}
     6a8:	341f0000 	ldrcc	r0, [pc], #-0	; 6b0 <ARM_I_BIT+0x630>
     6ac:	3a0e0300 	bcc	3812b4 <__kernel_end+0x21f2b4>
     6b0:	490b3b0b 	stmdbmi	fp, {r0, r1, r3, r8, r9, fp, ip, sp}
     6b4:	00170213 	andseq	r0, r7, r3, lsl r2
     6b8:	82892000 	addhi	r2, r9, #0
     6bc:	01110101 	tsteq	r1, r1, lsl #2
     6c0:	00001331 	andeq	r1, r0, r1, lsr r3
     6c4:	0b000f21 	bleq	4350 <SCTLR_ENABLE_INSTRUCTION_CACHE+0x3350>
     6c8:	0013490b 	andseq	r4, r3, fp, lsl #18
     6cc:	00212200 	eoreq	r2, r1, r0, lsl #4
     6d0:	052f1349 	streq	r1, [pc, #-841]!	; 38f <ARM_I_BIT+0x30f>
     6d4:	2e230000 	cdpcs	0, 2, cr0, cr3, cr0, {0}
     6d8:	3c193f00 	ldccc	15, cr3, [r9], {-0}
     6dc:	030e6e19 	movweq	r6, #60953	; 0xee19
     6e0:	3b0b3a0e 	blcc	2cef20 <__kernel_end+0x16cf20>
     6e4:	0000000b 	andeq	r0, r0, fp
     6e8:	25011101 	strcs	r1, [r1, #-257]	; 0xfffffeff
     6ec:	030b130e 	movweq	r1, #45838	; 0xb30e
     6f0:	110e1b0e 	tstne	lr, lr, lsl #22
     6f4:	10061201 	andne	r1, r6, r1, lsl #4
     6f8:	02000017 	andeq	r0, r0, #23
     6fc:	0b0b0024 	bleq	2c0794 <__kernel_end+0x15e794>
     700:	0e030b3e 	vmoveq.16	d3[0], r0
     704:	16030000 	strne	r0, [r3], -r0
     708:	3a0e0300 	bcc	381310 <__kernel_end+0x21f310>
     70c:	490b3b0b 	stmdbmi	fp, {r0, r1, r3, r8, r9, fp, ip, sp}
     710:	04000013 	streq	r0, [r0], #-19	; 0xffffffed
     714:	0b0b0024 	bleq	2c07ac <__kernel_end+0x15e7ac>
     718:	08030b3e 	stmdaeq	r3, {r1, r2, r3, r4, r5, r8, r9, fp}
     71c:	35050000 	strcc	r0, [r5, #-0]
     720:	00134900 	andseq	r4, r3, r0, lsl #18
     724:	01130600 	tsteq	r3, r0, lsl #12
     728:	0b3a0b0b 	bleq	e8335c <__kernel_end+0xd2135c>
     72c:	13010b3b 	movwne	r0, #6971	; 0x1b3b
     730:	0d070000 	stceq	0, cr0, [r7, #-0]
     734:	3a0e0300 	bcc	38133c <__kernel_end+0x21f33c>
     738:	490b3b0b 	stmdbmi	fp, {r0, r1, r3, r8, r9, fp, ip, sp}
     73c:	0d0b0b13 	vstreq	d0, [fp, #-76]	; 0xffffffb4
     740:	380b0c0b 	stmdacc	fp, {r0, r1, r3, sl, fp}
     744:	0800000b 	stmdaeq	r0, {r0, r1, r3}
     748:	0e03000d 	cdpeq	0, 0, cr0, cr3, cr13, {0}
     74c:	0b3b0b3a 	bleq	ec343c <__kernel_end+0xd6143c>
     750:	0b381349 	bleq	e0547c <__kernel_end+0xca347c>
     754:	04090000 	streq	r0, [r9], #-0
     758:	490b0b01 	stmdbmi	fp, {r0, r8, r9, fp}
     75c:	3b0b3a13 	blcc	2cefb0 <__kernel_end+0x16cfb0>
     760:	0013010b 	andseq	r0, r3, fp, lsl #2
     764:	00280a00 	eoreq	r0, r8, r0, lsl #20
     768:	0b1c0e03 	bleq	703f7c <__kernel_end+0x5a1f7c>
     76c:	2e0b0000 	cdpcs	0, 0, cr0, cr11, cr0, {0}
     770:	3a0e0301 	bcc	38137c <__kernel_end+0x21f37c>
     774:	270b3b0b 	strcs	r3, [fp, -fp, lsl #22]
     778:	12011119 	andne	r1, r1, #1073741830	; 0x40000006
     77c:	97184006 	ldrls	r4, [r8, -r6]
     780:	13011942 	movwne	r1, #6466	; 0x1942
     784:	890c0000 	stmdbhi	ip, {}	; <UNPREDICTABLE>
     788:	11000182 	smlabbne	r0, r2, r1, r0
     78c:	00133101 	andseq	r3, r3, r1, lsl #2
     790:	82890d00 	addhi	r0, r9, #0, 26
     794:	01110001 	tsteq	r1, r1
     798:	31194295 			; <UNDEFINED> instruction: 0x31194295
     79c:	0e000013 	mcreq	0, 0, r0, cr0, cr3, {0}
     7a0:	193f012e 	ldmdbne	pc!, {r1, r2, r3, r5, r8}	; <UNPREDICTABLE>
     7a4:	0b3a0e03 	bleq	e83fb8 <__kernel_end+0xd21fb8>
     7a8:	19270b3b 	stmdbne	r7!, {r0, r1, r3, r4, r5, r8, r9, fp}
     7ac:	06120111 			; <UNDEFINED> instruction: 0x06120111
     7b0:	42971840 	addsmi	r1, r7, #64, 16	; 0x400000
     7b4:	00130119 	andseq	r0, r3, r9, lsl r1
     7b8:	82890f00 	addhi	r0, r9, #0, 30
     7bc:	01110101 	tsteq	r1, r1, lsl #2
     7c0:	31194295 			; <UNDEFINED> instruction: 0x31194295
     7c4:	10000013 	andne	r0, r0, r3, lsl r0
     7c8:	0001828a 	andeq	r8, r1, sl, lsl #5
     7cc:	42911802 	addsmi	r1, r1, #131072	; 0x20000
     7d0:	11000018 	tstne	r0, r8, lsl r0
     7d4:	0e030005 	cdpeq	0, 0, cr0, cr3, cr5, {0}
     7d8:	0b3b0b3a 	bleq	ec34c8 <__kernel_end+0xd614c8>
     7dc:	17021349 	strne	r1, [r2, -r9, asr #6]
     7e0:	05120000 	ldreq	r0, [r2, #-0]
     7e4:	3a0e0300 	bcc	3813ec <__kernel_end+0x21f3ec>
     7e8:	490b3b0b 	stmdbmi	fp, {r0, r1, r3, r8, r9, fp, ip, sp}
     7ec:	00180213 	andseq	r0, r8, r3, lsl r2
     7f0:	00341300 	eorseq	r1, r4, r0, lsl #6
     7f4:	0b3a0e03 	bleq	e84008 <__kernel_end+0xd22008>
     7f8:	13490b3b 	movtne	r0, #39739	; 0x9b3b
     7fc:	00001802 	andeq	r1, r0, r2, lsl #16
     800:	03003414 	movweq	r3, #1044	; 0x414
     804:	3b0b3a08 	blcc	2cf02c <__kernel_end+0x16d02c>
     808:	0213490b 	andseq	r4, r3, #180224	; 0x2c000
     80c:	15000018 	strne	r0, [r0, #-24]	; 0xffffffe8
     810:	0b0b000f 	bleq	2c0854 <__kernel_end+0x15e854>
     814:	00001349 	andeq	r1, r0, r9, asr #6
     818:	3f002e16 	svccc	0x00002e16
     81c:	6e193c19 	mrcvs	12, 0, r3, cr9, cr9, {0}
     820:	3a0e030e 	bcc	381460 <__kernel_end+0x21f460>
     824:	000b3b0b 	andeq	r3, fp, fp, lsl #22
     828:	11010000 	mrsne	r0, (UNDEF: 1)
     82c:	130e2501 	movwne	r2, #58625	; 0xe501
     830:	1b0e030b 	blne	381464 <__kernel_end+0x21f464>
     834:	1201110e 	andne	r1, r1, #-2147483645	; 0x80000003
     838:	00171006 	andseq	r1, r7, r6
     83c:	00240200 	eoreq	r0, r4, r0, lsl #4
     840:	0b3e0b0b 	bleq	f83474 <__kernel_end+0xe21474>
     844:	00000e03 	andeq	r0, r0, r3, lsl #28
     848:	03001603 	movweq	r1, #1539	; 0x603
     84c:	3b0b3a0e 	blcc	2cf08c <__kernel_end+0x16d08c>
     850:	0013490b 	andseq	r4, r3, fp, lsl #18
     854:	00240400 	eoreq	r0, r4, r0, lsl #8
     858:	0b3e0b0b 	bleq	f8348c <__kernel_end+0xe2148c>
     85c:	00000803 	andeq	r0, r0, r3, lsl #16
     860:	3f012e05 	svccc	0x00012e05
     864:	3a0e0319 	bcc	3814d0 <__kernel_end+0x21f4d0>
     868:	270b3b0b 	strcs	r3, [fp, -fp, lsl #22]
     86c:	11134919 	tstne	r3, r9, lsl r9
     870:	40061201 	andmi	r1, r6, r1, lsl #4
     874:	19429718 	stmdbne	r2, {r3, r4, r8, r9, sl, ip, pc}^
     878:	00001301 	andeq	r1, r0, r1, lsl #6
     87c:	03000506 	movweq	r0, #1286	; 0x506
     880:	3b0b3a0e 	blcc	2cf0c0 <__kernel_end+0x16d0c0>
     884:	0213490b 	andseq	r4, r3, #180224	; 0x2c000
     888:	07000017 	smladeq	r0, r7, r0, r0
     88c:	0e030034 	mcreq	0, 0, r0, cr3, cr4, {1}
     890:	0b3b0b3a 	bleq	ec3580 <__kernel_end+0xd61580>
     894:	17021349 	strne	r1, [r2, -r9, asr #6]
     898:	89080000 	stmdbhi	r8, {}	; <UNPREDICTABLE>
     89c:	11010182 	smlabbne	r1, r2, r1, r0
     8a0:	00133101 	andseq	r3, r3, r1, lsl #2
     8a4:	828a0900 	addhi	r0, sl, #0, 18
     8a8:	18020001 	stmdane	r2, {r0}
     8ac:	00184291 	mulseq	r8, r1, r2
     8b0:	012e0a00 			; <UNDEFINED> instruction: 0x012e0a00
     8b4:	0e03193f 	mcreq	9, 0, r1, cr3, cr15, {1}
     8b8:	0b3b0b3a 	bleq	ec35a8 <__kernel_end+0xd615a8>
     8bc:	01111927 	tsteq	r1, r7, lsr #18
     8c0:	18400612 	stmdane	r0, {r1, r4, r9, sl}^
     8c4:	01194297 			; <UNDEFINED> instruction: 0x01194297
     8c8:	0b000013 	bleq	91c <SCTLR_ENABLE_BRANCH_PREDICTION+0x11c>
     8cc:	08030034 	stmdaeq	r3, {r2, r4, r5}
     8d0:	0b3b0b3a 	bleq	ec35c0 <__kernel_end+0xd615c0>
     8d4:	17021349 	strne	r1, [r2, -r9, asr #6]
     8d8:	890c0000 	stmdbhi	ip, {}	; <UNPREDICTABLE>
     8dc:	11010182 	smlabbne	r1, r2, r1, r0
     8e0:	01133101 	tsteq	r3, r1, lsl #2
     8e4:	0d000013 	stceq	0, cr0, [r0, #-76]	; 0xffffffb4
     8e8:	00018289 	andeq	r8, r1, r9, lsl #5
     8ec:	13310111 	teqne	r1, #1073741828	; 0x40000004
     8f0:	890e0000 	stmdbhi	lr, {}	; <UNPREDICTABLE>
     8f4:	11010182 	smlabbne	r1, r2, r1, r0
     8f8:	19429501 	stmdbne	r2, {r0, r8, sl, ip, pc}^
     8fc:	00001331 	andeq	r1, r0, r1, lsr r3
     900:	0300340f 	movweq	r3, #1039	; 0x40f
     904:	3b0b3a0e 	blcc	2cf144 <__kernel_end+0x16d144>
     908:	0213490b 	andseq	r4, r3, #180224	; 0x2c000
     90c:	10000018 	andne	r0, r0, r8, lsl r0
     910:	0e030034 	mcreq	0, 0, r0, cr3, cr4, {1}
     914:	0b3b0b3a 	bleq	ec3604 <__kernel_end+0xd61604>
     918:	193f1349 	ldmdbne	pc!, {r0, r3, r6, r8, r9, ip}	; <UNPREDICTABLE>
     91c:	0000193c 	andeq	r1, r0, ip, lsr r9
     920:	3f002e11 	svccc	0x00002e11
     924:	6e193c19 	mrcvs	12, 0, r3, cr9, cr9, {0}
     928:	3a0e030e 	bcc	381568 <__kernel_end+0x21f568>
     92c:	000b3b0b 	andeq	r3, fp, fp, lsl #22
     930:	11010000 	mrsne	r0, (UNDEF: 1)
     934:	130e2501 	movwne	r2, #58625	; 0xe501
     938:	1b0e030b 	blne	38156c <__kernel_end+0x21f56c>
     93c:	1201110e 	andne	r1, r1, #-2147483645	; 0x80000003
     940:	00171006 	andseq	r1, r7, r6
     944:	00240200 	eoreq	r0, r4, r0, lsl #4
     948:	0b3e0b0b 	bleq	f8357c <__kernel_end+0xe2157c>
     94c:	00000e03 	andeq	r0, r0, r3, lsl #28
     950:	0b002403 	bleq	9964 <_doprnt+0x198>
     954:	030b3e0b 	movweq	r3, #48651	; 0xbe0b
     958:	04000008 	streq	r0, [r0], #-8
     95c:	0e030016 	mcreq	0, 0, r0, cr3, cr6, {0}
     960:	0b3b0b3a 	bleq	ec3650 <__kernel_end+0xd61650>
     964:	00001349 	andeq	r1, r0, r9, asr #6
     968:	0b011305 	bleq	45584 <__first_lvl_tbl_end+0x24584>
     96c:	3b0b3a0b 	blcc	2cf1a0 <__kernel_end+0x16d1a0>
     970:	0013010b 	andseq	r0, r3, fp, lsl #2
     974:	000d0600 	andeq	r0, sp, r0, lsl #12
     978:	0b3a0e03 	bleq	e8418c <__kernel_end+0xd2218c>
     97c:	13490b3b 	movtne	r0, #39739	; 0x9b3b
     980:	0b0d0b0b 	bleq	3435b4 <__kernel_end+0x1e15b4>
     984:	0b380b0c 	bleq	e035bc <__kernel_end+0xca15bc>
     988:	13070000 	movwne	r0, #28672	; 0x7000
     98c:	0b0e0301 	bleq	381598 <__kernel_end+0x21f598>
     990:	3b0b3a0b 	blcc	2cf1c4 <__kernel_end+0x16d1c4>
     994:	0013010b 	andseq	r0, r3, fp, lsl #2
     998:	000d0800 	andeq	r0, sp, r0, lsl #16
     99c:	0b3a0e03 	bleq	e841b0 <__kernel_end+0xd221b0>
     9a0:	13490b3b 	movtne	r0, #39739	; 0x9b3b
     9a4:	00000b38 	andeq	r0, r0, r8, lsr fp
     9a8:	0b000f09 	bleq	45d4 <SCTLR_ENABLE_INSTRUCTION_CACHE+0x35d4>
     9ac:	0013490b 	andseq	r4, r3, fp, lsl #18
     9b0:	01040a00 	tsteq	r4, r0, lsl #20
     9b4:	13490b0b 	movtne	r0, #39691	; 0x9b0b
     9b8:	0b3b0b3a 	bleq	ec36a8 <__kernel_end+0xd616a8>
     9bc:	00001301 	andeq	r1, r0, r1, lsl #6
     9c0:	0300280b 	movweq	r2, #2059	; 0x80b
     9c4:	000b1c0e 	andeq	r1, fp, lr, lsl #24
     9c8:	00280c00 	eoreq	r0, r8, r0, lsl #24
     9cc:	061c0e03 	ldreq	r0, [ip], -r3, lsl #28
     9d0:	280d0000 	stmdacs	sp, {}	; <UNPREDICTABLE>
     9d4:	1c0e0300 	stcne	3, cr0, [lr], {-0}
     9d8:	0e000005 	cdpeq	0, 0, cr0, cr0, cr5, {0}
     9dc:	050b0117 	streq	r0, [fp, #-279]	; 0xfffffee9
     9e0:	0b3b0b3a 	bleq	ec36d0 <__kernel_end+0xd616d0>
     9e4:	00001301 	andeq	r1, r0, r1, lsl #6
     9e8:	03000d0f 	movweq	r0, #3343	; 0xd0f
     9ec:	3b0b3a0e 	blcc	2cf22c <__kernel_end+0x16d22c>
     9f0:	0013490b 	andseq	r4, r3, fp, lsl #18
     9f4:	01011000 	mrseq	r1, (UNDEF: 1)
     9f8:	13011349 	movwne	r1, #4937	; 0x1349
     9fc:	21110000 	tstcs	r1, r0
     a00:	2f134900 	svccs	0x00134900
     a04:	1200000b 	andne	r0, r0, #11
     a08:	050b0113 	streq	r0, [fp, #-275]	; 0xfffffeed
     a0c:	0b3b0b3a 	bleq	ec36fc <__kernel_end+0xd616fc>
     a10:	00001301 	andeq	r1, r0, r1, lsl #6
     a14:	03000d13 	movweq	r0, #3347	; 0xd13
     a18:	3b0b3a08 	blcc	2cf240 <__kernel_end+0x16d240>
     a1c:	3813490b 	ldmdacc	r3, {r0, r1, r3, r8, fp, lr}
     a20:	1400000b 	strne	r0, [r0], #-11
     a24:	193f012e 	ldmdbne	pc!, {r1, r2, r3, r5, r8}	; <UNPREDICTABLE>
     a28:	0b3a0e03 	bleq	e8423c <__kernel_end+0xd2223c>
     a2c:	13490b3b 	movtne	r0, #39739	; 0x9b3b
     a30:	13010b20 	movwne	r0, #6944	; 0x1b20
     a34:	34150000 	ldrcc	r0, [r5], #-0
     a38:	3a080300 	bcc	201640 <__kernel_end+0x9f640>
     a3c:	490b3b0b 	stmdbmi	fp, {r0, r1, r3, r8, r9, fp, ip, sp}
     a40:	16000013 			; <UNDEFINED> instruction: 0x16000013
     a44:	193f012e 	ldmdbne	pc!, {r1, r2, r3, r5, r8}	; <UNPREDICTABLE>
     a48:	0b3a0e03 	bleq	e8425c <__kernel_end+0xd2225c>
     a4c:	19270b3b 	stmdbne	r7!, {r0, r1, r3, r4, r5, r8, r9, fp}
     a50:	06120111 			; <UNDEFINED> instruction: 0x06120111
     a54:	42971840 	addsmi	r1, r7, #64, 16	; 0x400000
     a58:	00130119 	andseq	r0, r3, r9, lsl r1
     a5c:	00051700 	andeq	r1, r5, r0, lsl #14
     a60:	0b3a0e03 	bleq	e84274 <__kernel_end+0xd22274>
     a64:	13490b3b 	movtne	r0, #39739	; 0x9b3b
     a68:	00001802 	andeq	r1, r0, r2, lsl #16
     a6c:	3f012e18 	svccc	0x00012e18
     a70:	3a0e0319 	bcc	3816dc <__kernel_end+0x21f6dc>
     a74:	270b3b0b 	strcs	r3, [fp, -fp, lsl #22]
     a78:	11134919 	tstne	r3, r9, lsl r9
     a7c:	40061201 	andmi	r1, r6, r1, lsl #4
     a80:	19429718 	stmdbne	r2, {r3, r4, r8, r9, sl, ip, pc}^
     a84:	00001301 	andeq	r1, r0, r1, lsl #6
     a88:	03000519 	movweq	r0, #1305	; 0x519
     a8c:	3b0b3a0e 	blcc	2cf2cc <__kernel_end+0x16d2cc>
     a90:	0213490b 	andseq	r4, r3, #180224	; 0x2c000
     a94:	1a000017 	bne	af8 <SCTLR_ENABLE_BRANCH_PREDICTION+0x2f8>
     a98:	08030034 	stmdaeq	r3, {r2, r4, r5}
     a9c:	0b3b0b3a 	bleq	ec378c <__kernel_end+0xd6178c>
     aa0:	17021349 	strne	r1, [r2, -r9, asr #6]
     aa4:	2e1b0000 	cdpcs	0, 1, cr0, cr11, cr0, {0}
     aa8:	03193f01 	tsteq	r9, #1, 30
     aac:	3b0b3a0e 	blcc	2cf2ec <__kernel_end+0x16d2ec>
     ab0:	1113490b 	tstne	r3, fp, lsl #18
     ab4:	40061201 	andmi	r1, r6, r1, lsl #4
     ab8:	19429718 	stmdbne	r2, {r3, r4, r8, r9, sl, ip, pc}^
     abc:	00001301 	andeq	r1, r0, r1, lsl #6
     ac0:	0182891c 	orreq	r8, r2, ip, lsl r9
     ac4:	95011100 	strls	r1, [r1, #-256]	; 0xffffff00
     ac8:	13311942 	teqne	r1, #1081344	; 0x108000
     acc:	341d0000 	ldrcc	r0, [sp], #-0
     ad0:	3a0e0300 	bcc	3816d8 <__kernel_end+0x21f6d8>
     ad4:	490b3b0b 	stmdbmi	fp, {r0, r1, r3, r8, r9, fp, ip, sp}
     ad8:	00170213 	andseq	r0, r7, r3, lsl r2
     adc:	00341e00 	eorseq	r1, r4, r0, lsl #28
     ae0:	0b3a0e03 	bleq	e842f4 <__kernel_end+0xd222f4>
     ae4:	13490b3b 	movtne	r0, #39739	; 0x9b3b
     ae8:	00001802 	andeq	r1, r0, r2, lsl #16
     aec:	0182891f 	orreq	r8, r2, pc, lsl r9
     af0:	31011101 	tstcc	r1, r1, lsl #2
     af4:	00130113 	andseq	r0, r3, r3, lsl r1
     af8:	828a2000 	addhi	r2, sl, #0
     afc:	18020001 	stmdane	r2, {r0}
     b00:	00184291 	mulseq	r8, r1, r2
     b04:	82892100 	addhi	r2, r9, #0, 2
     b08:	01110101 	tsteq	r1, r1, lsl #2
     b0c:	00001331 	andeq	r1, r0, r1, lsr r3
     b10:	0b000f22 	bleq	47a0 <SCTLR_ENABLE_INSTRUCTION_CACHE+0x37a0>
     b14:	2300000b 	movwcs	r0, #11
     b18:	08030005 	stmdaeq	r3, {r0, r2}
     b1c:	0b3b0b3a 	bleq	ec380c <__kernel_end+0xd6180c>
     b20:	17021349 	strne	r1, [r2, -r9, asr #6]
     b24:	2e240000 	cdpcs	0, 2, cr0, cr4, cr0, {0}
     b28:	11133101 	tstne	r3, r1, lsl #2
     b2c:	40061201 	andmi	r1, r6, r1, lsl #4
     b30:	19429718 	stmdbne	r2, {r3, r4, r8, r9, sl, ip, pc}^
     b34:	00001301 	andeq	r1, r0, r1, lsl #6
     b38:	31003425 	tstcc	r0, r5, lsr #8
     b3c:	26000013 			; <UNDEFINED> instruction: 0x26000013
     b40:	0111010b 	tsteq	r1, fp, lsl #2
     b44:	00000612 	andeq	r0, r0, r2, lsl r6
     b48:	31003427 	tstcc	r0, r7, lsr #8
     b4c:	00170213 	andseq	r0, r7, r3, lsl r2
     b50:	82892800 	addhi	r2, r9, #0, 16
     b54:	01110001 	tsteq	r1, r1
     b58:	00001331 	andeq	r1, r0, r1, lsr r3
     b5c:	3f012e29 	svccc	0x00012e29
     b60:	3a0e0319 	bcc	3817cc <__kernel_end+0x21f7cc>
     b64:	110b3b0b 	tstne	fp, fp, lsl #22
     b68:	40061201 	andmi	r1, r6, r1, lsl #4
     b6c:	19429718 	stmdbne	r2, {r3, r4, r8, r9, sl, ip, pc}^
     b70:	00001301 	andeq	r1, r0, r1, lsl #6
     b74:	0300342a 	movweq	r3, #1066	; 0x42a
     b78:	3b0b3a0e 	blcc	2cf3b8 <__kernel_end+0x16d3b8>
     b7c:	3f13490b 	svccc	0x0013490b
     b80:	00193c19 	andseq	r3, r9, r9, lsl ip
     b84:	00342b00 	eorseq	r2, r4, r0, lsl #22
     b88:	0b3a0e03 	bleq	e8439c <__kernel_end+0xd2239c>
     b8c:	13490b3b 	movtne	r0, #39739	; 0x9b3b
     b90:	1802193f 	stmdane	r2, {r0, r1, r2, r3, r4, r5, r8, fp, ip}
     b94:	2e2c0000 	cdpcs	0, 2, cr0, cr12, cr0, {0}
     b98:	3c193f00 	ldccc	15, cr3, [r9], {-0}
     b9c:	030e6e19 	movweq	r6, #60953	; 0xee19
     ba0:	3b0b3a0e 	blcc	2cf3e0 <__kernel_end+0x16d3e0>
     ba4:	0000000b 	andeq	r0, r0, fp
     ba8:	25011101 	strcs	r1, [r1, #-257]	; 0xfffffeff
     bac:	030b130e 	movweq	r1, #45838	; 0xb30e
     bb0:	110e1b0e 	tstne	lr, lr, lsl #22
     bb4:	10061201 	andne	r1, r6, r1, lsl #4
     bb8:	02000017 	andeq	r0, r0, #23
     bbc:	0b0b0024 	bleq	2c0c54 <__kernel_end+0x15ec54>
     bc0:	0e030b3e 	vmoveq.16	d3[0], r0
     bc4:	16030000 	strne	r0, [r3], -r0
     bc8:	3a0e0300 	bcc	3817d0 <__kernel_end+0x21f7d0>
     bcc:	490b3b0b 	stmdbmi	fp, {r0, r1, r3, r8, r9, fp, ip, sp}
     bd0:	04000013 	streq	r0, [r0], #-19	; 0xffffffed
     bd4:	0b0b0024 	bleq	2c0c6c <__kernel_end+0x15ec6c>
     bd8:	08030b3e 	stmdaeq	r3, {r1, r2, r3, r4, r5, r8, r9, fp}
     bdc:	04050000 	streq	r0, [r5], #-0
     be0:	490b0b01 	stmdbmi	fp, {r0, r8, r9, fp}
     be4:	3b0b3a13 	blcc	2cf438 <__kernel_end+0x16d438>
     be8:	0013010b 	andseq	r0, r3, fp, lsl #2
     bec:	00280600 	eoreq	r0, r8, r0, lsl #12
     bf0:	061c0e03 	ldreq	r0, [ip], -r3, lsl #28
     bf4:	2e070000 	cdpcs	0, 0, cr0, cr7, cr0, {0}
     bf8:	3a0e0301 	bcc	381804 <__kernel_end+0x21f804>
     bfc:	270b3b0b 	strcs	r3, [fp, -fp, lsl #22]
     c00:	010b2019 	tsteq	fp, r9, lsl r0
     c04:	08000013 	stmdaeq	r0, {r0, r1, r4}
     c08:	08030005 	stmdaeq	r3, {r0, r2}
     c0c:	0b3b0b3a 	bleq	ec38fc <__kernel_end+0xd618fc>
     c10:	00001349 	andeq	r1, r0, r9, asr #6
     c14:	03000509 	movweq	r0, #1289	; 0x509
     c18:	3b0b3a0e 	blcc	2cf458 <__kernel_end+0x16d458>
     c1c:	0013490b 	andseq	r4, r3, fp, lsl #18
     c20:	012e0a00 			; <UNDEFINED> instruction: 0x012e0a00
     c24:	0b3a0e03 	bleq	e84438 <__kernel_end+0xd22438>
     c28:	19270b3b 	stmdbne	r7!, {r0, r1, r3, r4, r5, r8, r9, fp}
     c2c:	0b201349 	bleq	805958 <__kernel_end+0x6a3958>
     c30:	00001301 	andeq	r1, r0, r1, lsl #6
     c34:	3f012e0b 	svccc	0x00012e0b
     c38:	3a0e0319 	bcc	3818a4 <__kernel_end+0x21f8a4>
     c3c:	110b3b0b 	tstne	fp, fp, lsl #22
     c40:	40061201 	andmi	r1, r6, r1, lsl #4
     c44:	19429718 	stmdbne	r2, {r3, r4, r8, r9, sl, ip, pc}^
     c48:	00001301 	andeq	r1, r0, r1, lsl #6
     c4c:	31011d0c 	tstcc	r1, ip, lsl #26
     c50:	55015213 	strpl	r5, [r1, #-531]	; 0xfffffded
     c54:	590b5817 	stmdbpl	fp, {r0, r1, r2, r4, fp, ip, lr}
     c58:	0013010b 	andseq	r0, r3, fp, lsl #2
     c5c:	00050d00 	andeq	r0, r5, r0, lsl #26
     c60:	17021331 	smladxne	r2, r1, r3, r1
     c64:	1d0e0000 	stcne	0, cr0, [lr, #-0]
     c68:	11133101 	tstne	r3, r1, lsl #2
     c6c:	58061201 	stmdapl	r6, {r0, r9, ip}
     c70:	010b590b 	tsteq	fp, fp, lsl #18
     c74:	0f000013 	svceq	0x00000013
     c78:	1331011d 	teqne	r1, #1073741831	; 0x40000007
     c7c:	17550152 			; <UNDEFINED> instruction: 0x17550152
     c80:	0b590b58 	bleq	16439e8 <__kernel_end+0x14e19e8>
     c84:	2e100000 	cdpcs	0, 1, cr0, cr0, cr0, {0}
     c88:	03193f01 	tsteq	r9, #1, 30
     c8c:	3b0b3a0e 	blcc	2cf4cc <__kernel_end+0x16d4cc>
     c90:	1119270b 	tstne	r9, fp, lsl #14
     c94:	40061201 	andmi	r1, r6, r1, lsl #4
     c98:	19429718 	stmdbne	r2, {r3, r4, r8, r9, sl, ip, pc}^
     c9c:	00001301 	andeq	r1, r0, r1, lsl #6
     ca0:	03000511 	movweq	r0, #1297	; 0x511
     ca4:	3b0b3a08 	blcc	2cf4cc <__kernel_end+0x16d4cc>
     ca8:	0213490b 	andseq	r4, r3, #180224	; 0x2c000
     cac:	12000018 	andne	r0, r0, #24
     cb0:	1331011d 	teqne	r1, #1073741831	; 0x40000007
     cb4:	06120111 			; <UNDEFINED> instruction: 0x06120111
     cb8:	0b590b58 	bleq	1643a20 <__kernel_end+0x14e1a20>
     cbc:	2e130000 	cdpcs	0, 1, cr0, cr3, cr0, {0}
     cc0:	03193f01 	tsteq	r9, #1, 30
     cc4:	3b0b3a0e 	blcc	2cf504 <__kernel_end+0x16d504>
     cc8:	1113490b 	tstne	r3, fp, lsl #18
     ccc:	40061201 	andmi	r1, r6, r1, lsl #4
     cd0:	19429718 	stmdbne	r2, {r3, r4, r8, r9, sl, ip, pc}^
     cd4:	00001301 	andeq	r1, r0, r1, lsl #6
     cd8:	03000514 	movweq	r0, #1300	; 0x514
     cdc:	3b0b3a08 	blcc	2cf504 <__kernel_end+0x16d504>
     ce0:	0213490b 	andseq	r4, r3, #180224	; 0x2c000
     ce4:	15000017 	strne	r0, [r0, #-23]	; 0xffffffe9
     ce8:	0111010b 	tsteq	r1, fp, lsl #2
     cec:	00000612 	andeq	r0, r0, r2, lsl r6
     cf0:	03003416 	movweq	r3, #1046	; 0x416
     cf4:	3b0b3a08 	blcc	2cf51c <__kernel_end+0x16d51c>
     cf8:	0213490b 	andseq	r4, r3, #180224	; 0x2c000
     cfc:	17000017 	smladne	r0, r7, r0, r0
     d00:	00018289 	andeq	r8, r1, r9, lsl #5
     d04:	13310111 	teqne	r1, #1073741828	; 0x40000004
     d08:	0f180000 	svceq	0x00180000
     d0c:	490b0b00 	stmdbmi	fp, {r8, r9, fp}
     d10:	19000013 	stmdbne	r0, {r0, r1, r4}
     d14:	13490026 	movtne	r0, #36902	; 0x9026
     d18:	2e1a0000 	cdpcs	0, 1, cr0, cr10, cr0, {0}
     d1c:	03193f01 	tsteq	r9, #1, 30
     d20:	3b0b3a0e 	blcc	2cf560 <__kernel_end+0x16d560>
     d24:	1119270b 	tstne	r9, fp, lsl #14
     d28:	40061201 	andmi	r1, r6, r1, lsl #4
     d2c:	19429718 	stmdbne	r2, {r3, r4, r8, r9, sl, ip, pc}^
     d30:	891b0000 	ldmdbhi	fp, {}	; <UNPREDICTABLE>
     d34:	11010182 	smlabbne	r1, r2, r1, r0
     d38:	01133101 	tsteq	r3, r1, lsl #2
     d3c:	1c000013 	stcne	0, cr0, [r0], {19}
     d40:	0001828a 	andeq	r8, r1, sl, lsl #5
     d44:	42911802 	addsmi	r1, r1, #131072	; 0x20000
     d48:	1d000018 	stcne	0, cr0, [r0, #-96]	; 0xffffffa0
     d4c:	01018289 	smlabbeq	r1, r9, r2, r8
     d50:	42950111 	addsmi	r0, r5, #1073741828	; 0x40000004
     d54:	00133119 	andseq	r3, r3, r9, lsl r1
     d58:	11010000 	mrsne	r0, (UNDEF: 1)
     d5c:	130e2501 	movwne	r2, #58625	; 0xe501
     d60:	1b0e030b 	blne	381994 <__kernel_end+0x21f994>
     d64:	1201110e 	andne	r1, r1, #-2147483645	; 0x80000003
     d68:	00171006 	andseq	r1, r7, r6
     d6c:	00240200 	eoreq	r0, r4, r0, lsl #4
     d70:	0b3e0b0b 	bleq	f839a4 <__kernel_end+0xe219a4>
     d74:	00000e03 	andeq	r0, r0, r3, lsl #28
     d78:	03001603 	movweq	r1, #1539	; 0x603
     d7c:	3b0b3a0e 	blcc	2cf5bc <__kernel_end+0x16d5bc>
     d80:	0013490b 	andseq	r4, r3, fp, lsl #18
     d84:	00240400 	eoreq	r0, r4, r0, lsl #8
     d88:	0b3e0b0b 	bleq	f839bc <__kernel_end+0xe219bc>
     d8c:	00000803 	andeq	r0, r0, r3, lsl #16
     d90:	49003505 	stmdbmi	r0, {r0, r2, r8, sl, ip, sp}
     d94:	06000013 			; <UNDEFINED> instruction: 0x06000013
     d98:	0e030113 	mcreq	1, 0, r0, cr3, cr3, {0}
     d9c:	0b3a0b0b 	bleq	e839d0 <__kernel_end+0xd219d0>
     da0:	13010b3b 	movwne	r0, #6971	; 0x1b3b
     da4:	0d070000 	stceq	0, cr0, [r7, #-0]
     da8:	3a0e0300 	bcc	3819b0 <__kernel_end+0x21f9b0>
     dac:	490b3b0b 	stmdbmi	fp, {r0, r1, r3, r8, r9, fp, ip, sp}
     db0:	000b3813 	andeq	r3, fp, r3, lsl r8
     db4:	000d0800 	andeq	r0, sp, r0, lsl #16
     db8:	0b3a0803 	bleq	e82dcc <__kernel_end+0xd20dcc>
     dbc:	13490b3b 	movtne	r0, #39739	; 0x9b3b
     dc0:	00000b38 	andeq	r0, r0, r8, lsr fp
     dc4:	49010109 	stmdbmi	r1, {r0, r3, r8}
     dc8:	00130113 	andseq	r0, r3, r3, lsl r1
     dcc:	00210a00 	eoreq	r0, r1, r0, lsl #20
     dd0:	0b2f1349 	bleq	bc5afc <__kernel_end+0xa63afc>
     dd4:	0f0b0000 	svceq	0x000b0000
     dd8:	490b0b00 	stmdbmi	fp, {r8, r9, fp}
     ddc:	0c000013 	stceq	0, cr0, [r0], {19}
     de0:	0e03012e 	adfeqsp	f0, f3, #0.5
     de4:	0b3b0b3a 	bleq	ec3ad4 <__kernel_end+0xd61ad4>
     de8:	01111927 	tsteq	r1, r7, lsr #18
     dec:	18400612 	stmdane	r0, {r1, r4, r9, sl}^
     df0:	01194297 			; <UNDEFINED> instruction: 0x01194297
     df4:	0d000013 	stceq	0, cr0, [r0, #-76]	; 0xffffffb4
     df8:	0e030034 	mcreq	0, 0, r0, cr3, cr4, {1}
     dfc:	0b3b0b3a 	bleq	ec3aec <__kernel_end+0xd61aec>
     e00:	061c1349 	ldreq	r1, [ip], -r9, asr #6
     e04:	340e0000 	strcc	r0, [lr], #-0
     e08:	3a0e0300 	bcc	381a10 <__kernel_end+0x21fa10>
     e0c:	490b3b0b 	stmdbmi	fp, {r0, r1, r3, r8, r9, fp, ip, sp}
     e10:	00170213 	andseq	r0, r7, r3, lsl r2
     e14:	82890f00 	addhi	r0, r9, #0, 30
     e18:	01110001 	tsteq	r1, r1
     e1c:	31194295 			; <UNDEFINED> instruction: 0x31194295
     e20:	10000013 	andne	r0, r0, r3, lsl r0
     e24:	193f012e 	ldmdbne	pc!, {r1, r2, r3, r5, r8}	; <UNPREDICTABLE>
     e28:	0b3a0e03 	bleq	e8463c <__kernel_end+0xd2263c>
     e2c:	19270b3b 	stmdbne	r7!, {r0, r1, r3, r4, r5, r8, r9, fp}
     e30:	06120111 			; <UNDEFINED> instruction: 0x06120111
     e34:	42971840 	addsmi	r1, r7, #64, 16	; 0x400000
     e38:	00130119 	andseq	r0, r3, r9, lsl r1
     e3c:	00051100 	andeq	r1, r5, r0, lsl #2
     e40:	0b3a0e03 	bleq	e84654 <__kernel_end+0xd22654>
     e44:	13490b3b 	movtne	r0, #39739	; 0x9b3b
     e48:	00001702 	andeq	r1, r0, r2, lsl #14
     e4c:	11010b12 	tstne	r1, r2, lsl fp
     e50:	01061201 	tsteq	r6, r1, lsl #4
     e54:	13000013 	movwne	r0, #19
     e58:	08030034 	stmdaeq	r3, {r2, r4, r5}
     e5c:	0b3b0b3a 	bleq	ec3b4c <__kernel_end+0xd61b4c>
     e60:	17021349 	strne	r1, [r2, -r9, asr #6]
     e64:	89140000 	ldmdbhi	r4, {}	; <UNPREDICTABLE>
     e68:	11000182 	smlabbne	r0, r2, r1, r0
     e6c:	00133101 	andseq	r3, r3, r1, lsl #2
     e70:	00051500 	andeq	r1, r5, r0, lsl #10
     e74:	0b3a0e03 	bleq	e84688 <__kernel_end+0xd22688>
     e78:	13490b3b 	movtne	r0, #39739	; 0x9b3b
     e7c:	00001802 	andeq	r1, r0, r2, lsl #16
     e80:	03003416 	movweq	r3, #1046	; 0x416
     e84:	3b0b3a08 	blcc	2cf6ac <__kernel_end+0x16d6ac>
     e88:	0213490b 	andseq	r4, r3, #180224	; 0x2c000
     e8c:	17000018 	smladne	r0, r8, r0, r0
     e90:	193f012e 	ldmdbne	pc!, {r1, r2, r3, r5, r8}	; <UNPREDICTABLE>
     e94:	0b3a0e03 	bleq	e846a8 <__kernel_end+0xd226a8>
     e98:	01110b3b 	tsteq	r1, fp, lsr fp
     e9c:	18400612 	stmdane	r0, {r1, r4, r9, sl}^
     ea0:	01194297 			; <UNDEFINED> instruction: 0x01194297
     ea4:	18000013 	stmdane	r0, {r0, r1, r4}
     ea8:	0e030034 	mcreq	0, 0, r0, cr3, cr4, {1}
     eac:	0b3b0b3a 	bleq	ec3b9c <__kernel_end+0xd61b9c>
     eb0:	18021349 	stmdane	r2, {r0, r3, r6, r8, r9, ip}
     eb4:	34190000 	ldrcc	r0, [r9], #-0
     eb8:	3a0e0300 	bcc	381ac0 <__kernel_end+0x21fac0>
     ebc:	490b3b0b 	stmdbmi	fp, {r0, r1, r3, r8, r9, fp, ip, sp}
     ec0:	000b1c13 	andeq	r1, fp, r3, lsl ip
     ec4:	00341a00 	eorseq	r1, r4, r0, lsl #20
     ec8:	0b3a0e03 	bleq	e846dc <__kernel_end+0xd226dc>
     ecc:	13490b3b 	movtne	r0, #39739	; 0x9b3b
     ed0:	341b0000 	ldrcc	r0, [fp], #-0
     ed4:	3a080300 	bcc	201adc <__kernel_end+0x9fadc>
     ed8:	490b3b0b 	stmdbmi	fp, {r0, r1, r3, r8, r9, fp, ip, sp}
     edc:	1c000013 	stcne	0, cr0, [r0], {19}
     ee0:	08030034 	stmdaeq	r3, {r2, r4, r5}
     ee4:	0b3b0b3a 	bleq	ec3bd4 <__kernel_end+0xd61bd4>
     ee8:	051c1349 	ldreq	r1, [ip, #-841]	; 0xfffffcb7
     eec:	891d0000 	ldmdbhi	sp, {}	; <UNPREDICTABLE>
     ef0:	11010182 	smlabbne	r1, r2, r1, r0
     ef4:	01133101 	tsteq	r3, r1, lsl #2
     ef8:	1e000013 	mcrne	0, 0, r0, cr0, cr3, {0}
     efc:	0001828a 	andeq	r8, r1, sl, lsl #5
     f00:	42911802 	addsmi	r1, r1, #131072	; 0x20000
     f04:	1f000018 	svcne	0x00000018
     f08:	01018289 	smlabbeq	r1, r9, r2, r8
     f0c:	13310111 	teqne	r1, #1073741828	; 0x40000004
     f10:	34200000 	strtcc	r0, [r0], #-0
     f14:	3a0e0300 	bcc	381b1c <__kernel_end+0x21fb1c>
     f18:	490b3b0b 	stmdbmi	fp, {r0, r1, r3, r8, r9, fp, ip, sp}
     f1c:	3c193f13 	ldccc	15, cr3, [r9], {19}
     f20:	21000019 	tstcs	r0, r9, lsl r0
     f24:	0e030034 	mcreq	0, 0, r0, cr3, cr4, {1}
     f28:	0b3b0b3a 	bleq	ec3c18 <__kernel_end+0xd61c18>
     f2c:	193f1349 	ldmdbne	pc!, {r0, r3, r6, r8, r9, ip}	; <UNPREDICTABLE>
     f30:	00001802 	andeq	r1, r0, r2, lsl #16
     f34:	3f002e22 	svccc	0x00002e22
     f38:	6e193c19 	mrcvs	12, 0, r3, cr9, cr9, {0}
     f3c:	3a0e030e 	bcc	381b7c <__kernel_end+0x21fb7c>
     f40:	000b3b0b 	andeq	r3, fp, fp, lsl #22
     f44:	11010000 	mrsne	r0, (UNDEF: 1)
     f48:	130e2501 	movwne	r2, #58625	; 0xe501
     f4c:	1b0e030b 	blne	381b80 <__kernel_end+0x21fb80>
     f50:	1201110e 	andne	r1, r1, #-2147483645	; 0x80000003
     f54:	00171006 	andseq	r1, r7, r6
     f58:	00240200 	eoreq	r0, r4, r0, lsl #4
     f5c:	0b3e0b0b 	bleq	f83b90 <__kernel_end+0xe21b90>
     f60:	00000e03 	andeq	r0, r0, r3, lsl #28
     f64:	0b002403 	bleq	9f78 <__aeabi_uidiv+0x30>
     f68:	030b3e0b 	movweq	r3, #48651	; 0xbe0b
     f6c:	04000008 	streq	r0, [r0], #-8
     f70:	0e030016 	mcreq	0, 0, r0, cr3, cr6, {0}
     f74:	0b3b0b3a 	bleq	ec3c64 <__kernel_end+0xd61c64>
     f78:	00001349 	andeq	r1, r0, r9, asr #6
     f7c:	0b010405 	bleq	41f98 <__first_lvl_tbl_end+0x20f98>
     f80:	3a13490b 	bcc	4d33b4 <__kernel_end+0x3713b4>
     f84:	010b3b0b 	tsteq	fp, fp, lsl #22
     f88:	06000013 			; <UNDEFINED> instruction: 0x06000013
     f8c:	0e030028 	cdpeq	0, 0, cr0, cr3, cr8, {1}
     f90:	00000b1c 	andeq	r0, r0, ip, lsl fp
     f94:	03002807 	movweq	r2, #2055	; 0x807
     f98:	00061c0e 	andeq	r1, r6, lr, lsl #24
     f9c:	00280800 	eoreq	r0, r8, r0, lsl #16
     fa0:	051c0e03 	ldreq	r0, [ip, #-3587]	; 0xfffff1fd
     fa4:	17090000 	strne	r0, [r9, -r0]
     fa8:	3a050b01 	bcc	143bb4 <dma_dest_page_1+0x1bb4>
     fac:	010b3b0b 	tsteq	fp, fp, lsl #22
     fb0:	0a000013 	beq	1004 <SCTLR_ENABLE_INSTRUCTION_CACHE+0x4>
     fb4:	0e03000d 	cdpeq	0, 0, cr0, cr3, cr13, {0}
     fb8:	0b3b0b3a 	bleq	ec3ca8 <__kernel_end+0xd61ca8>
     fbc:	00001349 	andeq	r1, r0, r9, asr #6
     fc0:	4901010b 	stmdbmi	r1, {r0, r1, r3, r8}
     fc4:	00130113 	andseq	r0, r3, r3, lsl r1
     fc8:	00210c00 	eoreq	r0, r1, r0, lsl #24
     fcc:	0b2f1349 	bleq	bc5cf8 <__kernel_end+0xa63cf8>
     fd0:	130d0000 	movwne	r0, #53248	; 0xd000
     fd4:	3a050b01 	bcc	143be0 <dma_dest_page_1+0x1be0>
     fd8:	010b3b0b 	tsteq	fp, fp, lsl #22
     fdc:	0e000013 	mcreq	0, 0, r0, cr0, cr3, {0}
     fe0:	0803000d 	stmdaeq	r3, {r0, r2, r3}
     fe4:	0b3b0b3a 	bleq	ec3cd4 <__kernel_end+0xd61cd4>
     fe8:	0b381349 	bleq	e05d14 <__kernel_end+0xca3d14>
     fec:	0d0f0000 	stceq	0, cr0, [pc, #-0]	; ff4 <SCTLR_ENABLE_BRANCH_PREDICTION+0x7f4>
     ff0:	3a0e0300 	bcc	381bf8 <__kernel_end+0x21fbf8>
     ff4:	490b3b0b 	stmdbmi	fp, {r0, r1, r3, r8, r9, fp, ip, sp}
     ff8:	000b3813 	andeq	r3, fp, r3, lsl r8
     ffc:	012e1000 			; <UNDEFINED> instruction: 0x012e1000
    1000:	0e03193f 	mcreq	9, 0, r1, cr3, cr15, {1}
    1004:	0b3b0b3a 	bleq	ec3cf4 <__kernel_end+0xd61cf4>
    1008:	06120111 			; <UNDEFINED> instruction: 0x06120111
    100c:	42971840 	addsmi	r1, r7, #64, 16	; 0x400000
    1010:	00130119 	andseq	r0, r3, r9, lsl r1
    1014:	00341100 	eorseq	r1, r4, r0, lsl #2
    1018:	0b3a0e03 	bleq	e8482c <__kernel_end+0xd2282c>
    101c:	13490b3b 	movtne	r0, #39739	; 0x9b3b
    1020:	00000b1c 	andeq	r0, r0, ip, lsl fp
    1024:	01828912 	orreq	r8, r2, r2, lsl r9
    1028:	31011100 	mrscc	r1, (UNDEF: 17)
    102c:	13000013 	movwne	r0, #19
    1030:	01018289 	smlabbeq	r1, r9, r2, r8
    1034:	13310111 	teqne	r1, #1073741828	; 0x40000004
    1038:	00001301 	andeq	r1, r0, r1, lsl #6
    103c:	01828a14 	orreq	r8, r2, r4, lsl sl
    1040:	91180200 	tstls	r8, r0, lsl #4
    1044:	00001842 	andeq	r1, r0, r2, asr #16
    1048:	01828915 	orreq	r8, r2, r5, lsl r9
    104c:	95011100 	strls	r1, [r1, #-256]	; 0xffffff00
    1050:	13311942 	teqne	r1, #1081344	; 0x108000
    1054:	34160000 	ldrcc	r0, [r6], #-0
    1058:	3a080300 	bcc	201c60 <__kernel_end+0x9fc60>
    105c:	490b3b0b 	stmdbmi	fp, {r0, r1, r3, r8, r9, fp, ip, sp}
    1060:	00170213 	andseq	r0, r7, r3, lsl r2
    1064:	000f1700 	andeq	r1, pc, r0, lsl #14
    1068:	13490b0b 	movtne	r0, #39691	; 0x9b0b
    106c:	34180000 	ldrcc	r0, [r8], #-0
    1070:	3a0e0300 	bcc	381c78 <__kernel_end+0x21fc78>
    1074:	490b3b0b 	stmdbmi	fp, {r0, r1, r3, r8, r9, fp, ip, sp}
    1078:	02193f13 	andseq	r3, r9, #19, 30	; 0x4c
    107c:	19000018 	stmdbne	r0, {r3, r4}
    1080:	193f002e 	ldmdbne	pc!, {r1, r2, r3, r5}	; <UNPREDICTABLE>
    1084:	0e6e193c 	mcreq	9, 3, r1, cr14, cr12, {1}
    1088:	0b3a0e03 	bleq	e8489c <__kernel_end+0xd2289c>
    108c:	00000b3b 	andeq	r0, r0, fp, lsr fp
    1090:	01110100 	tsteq	r1, r0, lsl #2
    1094:	0b130e25 	bleq	4c4930 <__kernel_end+0x362930>
    1098:	0e1b0e03 	cdpeq	14, 1, cr0, cr11, cr3, {0}
    109c:	06120111 			; <UNDEFINED> instruction: 0x06120111
    10a0:	00001710 	andeq	r1, r0, r0, lsl r7
    10a4:	0b002402 	bleq	a0b4 <__aeabi_idiv0+0x58>
    10a8:	030b3e0b 	movweq	r3, #48651	; 0xbe0b
    10ac:	03000008 	movweq	r0, #8
    10b0:	0b0b0024 	bleq	2c1148 <__kernel_end+0x15f148>
    10b4:	0e030b3e 	vmoveq.16	d3[0], r0
    10b8:	16040000 	strne	r0, [r4], -r0
    10bc:	3a0e0300 	bcc	381cc4 <__kernel_end+0x21fcc4>
    10c0:	490b3b0b 	stmdbmi	fp, {r0, r1, r3, r8, r9, fp, ip, sp}
    10c4:	05000013 	streq	r0, [r0, #-19]	; 0xffffffed
    10c8:	193f012e 	ldmdbne	pc!, {r1, r2, r3, r5, r8}	; <UNPREDICTABLE>
    10cc:	0b3a0e03 	bleq	e848e0 <__kernel_end+0xd228e0>
    10d0:	19270b3b 	stmdbne	r7!, {r0, r1, r3, r4, r5, r8, r9, fp}
    10d4:	06120111 			; <UNDEFINED> instruction: 0x06120111
    10d8:	42971840 	addsmi	r1, r7, #64, 16	; 0x400000
    10dc:	00130119 	andseq	r0, r3, r9, lsl r1
    10e0:	00050600 	andeq	r0, r5, r0, lsl #12
    10e4:	0b3a0803 	bleq	e830f8 <__kernel_end+0xd210f8>
    10e8:	13490b3b 	movtne	r0, #39739	; 0x9b3b
    10ec:	00001702 	andeq	r1, r0, r2, lsl #14
    10f0:	03000507 	movweq	r0, #1287	; 0x507
    10f4:	3b0b3a0e 	blcc	2cf934 <__kernel_end+0x16d934>
    10f8:	0213490b 	andseq	r4, r3, #180224	; 0x2c000
    10fc:	08000017 	stmdaeq	r0, {r0, r1, r2, r4}
    1100:	00018289 	andeq	r8, r1, r9, lsl #5
    1104:	13310111 	teqne	r1, #1073741828	; 0x40000004
    1108:	34090000 	strcc	r0, [r9], #-0
    110c:	3a0e0300 	bcc	381d14 <__kernel_end+0x21fd14>
    1110:	490b3b0b 	stmdbmi	fp, {r0, r1, r3, r8, r9, fp, ip, sp}
    1114:	3c193f13 	ldccc	15, cr3, [r9], {19}
    1118:	0a000019 	beq	1184 <SCTLR_ENABLE_INSTRUCTION_CACHE+0x184>
    111c:	193f002e 	ldmdbne	pc!, {r1, r2, r3, r5}	; <UNPREDICTABLE>
    1120:	0e6e193c 	mcreq	9, 3, r1, cr14, cr12, {1}
    1124:	0b3a0e03 	bleq	e84938 <__kernel_end+0xd22938>
    1128:	00000b3b 	andeq	r0, r0, fp, lsr fp
    112c:	01110100 	tsteq	r1, r0, lsl #2
    1130:	0b130e25 	bleq	4c49cc <__kernel_end+0x3629cc>
    1134:	0e1b0e03 	cdpeq	14, 1, cr0, cr11, cr3, {0}
    1138:	06120111 			; <UNDEFINED> instruction: 0x06120111
    113c:	00001710 	andeq	r1, r0, r0, lsl r7
    1140:	0b002402 	bleq	a150 <__aeabi_idiv0+0xf4>
    1144:	030b3e0b 	movweq	r3, #48651	; 0xbe0b
    1148:	03000008 	movweq	r0, #8
    114c:	0e030016 	mcreq	0, 0, r0, cr3, cr6, {0}
    1150:	0b3b0b3a 	bleq	ec3e40 <__kernel_end+0xd61e40>
    1154:	00001349 	andeq	r1, r0, r9, asr #6
    1158:	0b002404 	bleq	a170 <__aeabi_idiv0+0x114>
    115c:	030b3e0b 	movweq	r3, #48651	; 0xbe0b
    1160:	0500000e 	streq	r0, [r0, #-14]
    1164:	0b0b000f 	bleq	2c11a8 <__kernel_end+0x15f1a8>
    1168:	0f060000 	svceq	0x00060000
    116c:	490b0b00 	stmdbmi	fp, {r8, r9, fp}
    1170:	07000013 	smladeq	r0, r3, r0, r0
    1174:	193f012e 	ldmdbne	pc!, {r1, r2, r3, r5, r8}	; <UNPREDICTABLE>
    1178:	0b3a0e03 	bleq	e8498c <__kernel_end+0xd2298c>
    117c:	19270b3b 	stmdbne	r7!, {r0, r1, r3, r4, r5, r8, r9, fp}
    1180:	01111349 	tsteq	r1, r9, asr #6
    1184:	18400612 	stmdane	r0, {r1, r4, r9, sl}^
    1188:	01194297 			; <UNDEFINED> instruction: 0x01194297
    118c:	08000013 	stmdaeq	r0, {r0, r1, r4}
    1190:	0e030005 	cdpeq	0, 0, cr0, cr3, cr5, {0}
    1194:	0b3b0b3a 	bleq	ec3e84 <__kernel_end+0xd61e84>
    1198:	18021349 	stmdane	r2, {r0, r3, r6, r8, r9, ip}
    119c:	05090000 	streq	r0, [r9, #-0]
    11a0:	3a0e0300 	bcc	381da8 <__kernel_end+0x21fda8>
    11a4:	490b3b0b 	stmdbmi	fp, {r0, r1, r3, r8, r9, fp, ip, sp}
    11a8:	00170213 	andseq	r0, r7, r3, lsl r2
    11ac:	00340a00 	eorseq	r0, r4, r0, lsl #20
    11b0:	0b3a0803 	bleq	e831c4 <__kernel_end+0xd211c4>
    11b4:	13490b3b 	movtne	r0, #39739	; 0x9b3b
    11b8:	00001802 	andeq	r1, r0, r2, lsl #16
    11bc:	0300340b 	movweq	r3, #1035	; 0x40b
    11c0:	3b0b3a08 	blcc	2cf9e8 <__kernel_end+0x16d9e8>
    11c4:	0213490b 	andseq	r4, r3, #180224	; 0x2c000
    11c8:	0c000017 	stceq	0, cr0, [r0], {23}
    11cc:	0111010b 	tsteq	r1, fp, lsl #2
    11d0:	00000612 	andeq	r0, r0, r2, lsl r6
    11d4:	4900370d 	stmdbmi	r0, {r0, r2, r3, r8, r9, sl, ip, sp}
    11d8:	0e000013 	mcreq	0, 0, r0, cr0, cr3, {0}
    11dc:	00000026 	andeq	r0, r0, r6, lsr #32
    11e0:	4900260f 	stmdbmi	r0, {r0, r1, r2, r3, r9, sl, sp}
    11e4:	00000013 	andeq	r0, r0, r3, lsl r0
    11e8:	25011101 	strcs	r1, [r1, #-257]	; 0xfffffeff
    11ec:	030b130e 	movweq	r1, #45838	; 0xb30e
    11f0:	110e1b0e 	tstne	lr, lr, lsl #22
    11f4:	10061201 	andne	r1, r6, r1, lsl #4
    11f8:	02000017 	andeq	r0, r0, #23
    11fc:	0e030016 	mcreq	0, 0, r0, cr3, cr6, {0}
    1200:	0b3b0b3a 	bleq	ec3ef0 <__kernel_end+0xd61ef0>
    1204:	00001349 	andeq	r1, r0, r9, asr #6
    1208:	03011303 	movweq	r1, #4867	; 0x1303
    120c:	3a0b0b0e 	bcc	2c3e4c <__kernel_end+0x161e4c>
    1210:	010b3b0b 	tsteq	fp, fp, lsl #22
    1214:	04000013 	streq	r0, [r0], #-19	; 0xffffffed
    1218:	0e03000d 	cdpeq	0, 0, cr0, cr3, cr13, {0}
    121c:	0b381349 	bleq	e05f48 <__kernel_end+0xca3f48>
    1220:	00001934 	andeq	r1, r0, r4, lsr r9
    1224:	0b000f05 	bleq	4e40 <SCTLR_ENABLE_INSTRUCTION_CACHE+0x3e40>
    1228:	0600000b 	streq	r0, [r0], -fp
    122c:	0b0b0024 	bleq	2c12c4 <__kernel_end+0x15f2c4>
    1230:	0e030b3e 	vmoveq.16	d3[0], r0
    1234:	24070000 	strcs	r0, [r7], #-0
    1238:	3e0b0b00 	vmlacc.f64	d0, d11, d0
    123c:	0008030b 	andeq	r0, r8, fp, lsl #6
    1240:	012e0800 			; <UNDEFINED> instruction: 0x012e0800
    1244:	0e03193f 	mcreq	9, 0, r1, cr3, cr15, {1}
    1248:	0b3b0b3a 	bleq	ec3f38 <__kernel_end+0xd61f38>
    124c:	13491927 	movtne	r1, #39207	; 0x9927
    1250:	06120111 			; <UNDEFINED> instruction: 0x06120111
    1254:	42971840 	addsmi	r1, r7, #64, 16	; 0x400000
    1258:	00130119 	andseq	r0, r3, r9, lsl r1
    125c:	00050900 	andeq	r0, r5, r0, lsl #18
    1260:	0b3a0803 	bleq	e83274 <__kernel_end+0xd21274>
    1264:	13490b3b 	movtne	r0, #39739	; 0x9b3b
    1268:	00001702 	andeq	r1, r0, r2, lsl #14
    126c:	0182890a 	orreq	r8, r2, sl, lsl #18
    1270:	31011101 	tstcc	r1, r1, lsl #2
    1274:	0b000013 	bleq	12c8 <SCTLR_ENABLE_INSTRUCTION_CACHE+0x2c8>
    1278:	0001828a 	andeq	r8, r1, sl, lsl #5
    127c:	42911802 	addsmi	r1, r1, #131072	; 0x20000
    1280:	0c000018 	stceq	0, cr0, [r0], {24}
    1284:	0e030005 	cdpeq	0, 0, cr0, cr3, cr5, {0}
    1288:	0b3b0b3a 	bleq	ec3f78 <__kernel_end+0xd61f78>
    128c:	18021349 	stmdane	r2, {r0, r3, r6, r8, r9, ip}
    1290:	180d0000 	stmdane	sp, {}	; <UNPREDICTABLE>
    1294:	0e000000 	cdpeq	0, 0, cr0, cr0, cr0, {0}
    1298:	08030034 	stmdaeq	r3, {r2, r4, r5}
    129c:	0b3b0b3a 	bleq	ec3f8c <__kernel_end+0xd61f8c>
    12a0:	18021349 	stmdane	r2, {r0, r3, r6, r8, r9, ip}
    12a4:	0f0f0000 	svceq	0x000f0000
    12a8:	490b0b00 	stmdbmi	fp, {r8, r9, fp}
    12ac:	10000013 	andne	r0, r0, r3, lsl r0
    12b0:	13490026 	movtne	r0, #36902	; 0x9026
    12b4:	2e110000 	cdpcs	0, 1, cr0, cr1, cr0, {0}
    12b8:	3c193f00 	ldccc	15, cr3, [r9], {-0}
    12bc:	030e6e19 	movweq	r6, #60953	; 0xee19
    12c0:	3b0b3a0e 	blcc	2cfb00 <__kernel_end+0x16db00>
    12c4:	0000000b 	andeq	r0, r0, fp
    12c8:	25011101 	strcs	r1, [r1, #-257]	; 0xfffffeff
    12cc:	030b130e 	movweq	r1, #45838	; 0xb30e
    12d0:	110e1b0e 	tstne	lr, lr, lsl #22
    12d4:	10061201 	andne	r1, r6, r1, lsl #4
    12d8:	02000017 	andeq	r0, r0, #23
    12dc:	0b0b0024 	bleq	2c1374 <__kernel_end+0x15f374>
    12e0:	08030b3e 	stmdaeq	r3, {r1, r2, r3, r4, r5, r8, r9, fp}
    12e4:	24030000 	strcs	r0, [r3], #-0
    12e8:	3e0b0b00 	vmlacc.f64	d0, d11, d0
    12ec:	000e030b 	andeq	r0, lr, fp, lsl #6
    12f0:	000f0400 	andeq	r0, pc, r0, lsl #8
    12f4:	00000b0b 	andeq	r0, r0, fp, lsl #22
    12f8:	0b000f05 	bleq	4f14 <SCTLR_ENABLE_INSTRUCTION_CACHE+0x3f14>
    12fc:	0013490b 	andseq	r4, r3, fp, lsl #18
    1300:	00260600 	eoreq	r0, r6, r0, lsl #12
    1304:	00001349 	andeq	r1, r0, r9, asr #6
    1308:	03001607 	movweq	r1, #1543	; 0x607
    130c:	3b0b3a0e 	blcc	2cfb4c <__kernel_end+0x16db4c>
    1310:	0013490b 	andseq	r4, r3, fp, lsl #18
    1314:	01130800 	tsteq	r3, r0, lsl #16
    1318:	0b0b0e03 	bleq	2c4b2c <__kernel_end+0x162b2c>
    131c:	0b3b0b3a 	bleq	ec400c <__kernel_end+0xd6200c>
    1320:	00001301 	andeq	r1, r0, r1, lsl #6
    1324:	03000d09 	movweq	r0, #3337	; 0xd09
    1328:	3813490e 	ldmdacc	r3, {r1, r2, r3, r8, fp, lr}
    132c:	0019340b 	andseq	r3, r9, fp, lsl #8
    1330:	01040a00 	tsteq	r4, r0, lsl #20
    1334:	0b0b0e03 	bleq	2c4b48 <__kernel_end+0x162b48>
    1338:	0b3a1349 	bleq	e86064 <__kernel_end+0xd24064>
    133c:	13010b3b 	movwne	r0, #6971	; 0x1b3b
    1340:	280b0000 	stmdacs	fp, {}	; <UNPREDICTABLE>
    1344:	1c0e0300 	stcne	3, cr0, [lr], {-0}
    1348:	0c00000b 	stceq	0, cr0, [r0], {11}
    134c:	0e03012e 	adfeqsp	f0, f3, #0.5
    1350:	053b0b3a 	ldreq	r0, [fp, #-2874]!	; 0xfffff4c6
    1354:	0b201927 	bleq	8077f8 <__kernel_end+0x6a57f8>
    1358:	00001301 	andeq	r1, r0, r1, lsl #6
    135c:	0300050d 	movweq	r0, #1293	; 0x50d
    1360:	3b0b3a08 	blcc	2cfb88 <__kernel_end+0x16db88>
    1364:	00134905 	andseq	r4, r3, r5, lsl #18
    1368:	00050e00 	andeq	r0, r5, r0, lsl #28
    136c:	0b3a0e03 	bleq	e84b80 <__kernel_end+0xd22b80>
    1370:	1349053b 	movtne	r0, #38203	; 0x953b
    1374:	340f0000 	strcc	r0, [pc], #-0	; 137c <SCTLR_ENABLE_INSTRUCTION_CACHE+0x37c>
    1378:	3a0e0300 	bcc	381f80 <__kernel_end+0x21ff80>
    137c:	49053b0b 	stmdbmi	r5, {r0, r1, r3, r8, r9, fp, ip, sp}
    1380:	10000013 	andne	r0, r0, r3, lsl r0
    1384:	08030034 	stmdaeq	r3, {r2, r4, r5}
    1388:	053b0b3a 	ldreq	r0, [fp, #-2874]!	; 0xfffff4c6
    138c:	00001349 	andeq	r1, r0, r9, asr #6
    1390:	00010b11 	andeq	r0, r1, r1, lsl fp
    1394:	01011200 	mrseq	r1, R9_usr
    1398:	13011349 	movwne	r1, #4937	; 0x1349
    139c:	21130000 	tstcs	r3, r0
    13a0:	2f134900 	svccs	0x00134900
    13a4:	1400000b 	strne	r0, [r0], #-11
    13a8:	193f012e 	ldmdbne	pc!, {r1, r2, r3, r5, r8}	; <UNPREDICTABLE>
    13ac:	0b3a0e03 	bleq	e84bc0 <__kernel_end+0xd22bc0>
    13b0:	19270b3b 	stmdbne	r7!, {r0, r1, r3, r4, r5, r8, r9, fp}
    13b4:	01111349 	tsteq	r1, r9, asr #6
    13b8:	18400612 	stmdane	r0, {r1, r4, r9, sl}^
    13bc:	01194296 			; <UNDEFINED> instruction: 0x01194296
    13c0:	15000013 	strne	r0, [r0, #-19]	; 0xffffffed
    13c4:	08030005 	stmdaeq	r3, {r0, r2}
    13c8:	0b3b0b3a 	bleq	ec40b8 <__kernel_end+0xd620b8>
    13cc:	17021349 	strne	r1, [r2, -r9, asr #6]
    13d0:	05160000 	ldreq	r0, [r6, #-0]
    13d4:	3a0e0300 	bcc	381fdc <__kernel_end+0x21ffdc>
    13d8:	490b3b0b 	stmdbmi	fp, {r0, r1, r3, r8, r9, fp, ip, sp}
    13dc:	00170213 	andseq	r0, r7, r3, lsl r2
    13e0:	00341700 	eorseq	r1, r4, r0, lsl #14
    13e4:	0b3a0e03 	bleq	e84bf8 <__kernel_end+0xd22bf8>
    13e8:	13490b3b 	movtne	r0, #39739	; 0x9b3b
    13ec:	00001702 	andeq	r1, r0, r2, lsl #14
    13f0:	03003418 	movweq	r3, #1048	; 0x418
    13f4:	3b0b3a08 	blcc	2cfc1c <__kernel_end+0x16dc1c>
    13f8:	0213490b 	andseq	r4, r3, #180224	; 0x2c000
    13fc:	19000017 	stmdbne	r0, {r0, r1, r2, r4}
    1400:	0e030034 	mcreq	0, 0, r0, cr3, cr4, {1}
    1404:	0b3b0b3a 	bleq	ec40f4 <__kernel_end+0xd620f4>
    1408:	18021349 	stmdane	r2, {r0, r3, r6, r8, r9, ip}
    140c:	341a0000 	ldrcc	r0, [sl], #-0
    1410:	3a0e0300 	bcc	382018 <__kernel_end+0x220018>
    1414:	490b3b0b 	stmdbmi	fp, {r0, r1, r3, r8, r9, fp, ip, sp}
    1418:	1b000013 	blne	146c <SCTLR_ENABLE_INSTRUCTION_CACHE+0x46c>
    141c:	0e03000a 	cdpeq	0, 0, cr0, cr3, cr10, {0}
    1420:	0b3b0b3a 	bleq	ec4110 <__kernel_end+0xd62110>
    1424:	00000111 	andeq	r0, r0, r1, lsl r1
    1428:	03000a1c 	movweq	r0, #2588	; 0xa1c
    142c:	3b0b3a0e 	blcc	2cfc6c <__kernel_end+0x16dc6c>
    1430:	00011105 	andeq	r1, r1, r5, lsl #2
    1434:	011d1d00 	tsteq	sp, r0, lsl #26
    1438:	01521331 	cmpeq	r2, r1, lsr r3
    143c:	0b581755 	bleq	1607198 <__kernel_end+0x14a5198>
    1440:	13010559 	movwne	r0, #5465	; 0x1559
    1444:	051e0000 	ldreq	r0, [lr, #-0]
    1448:	02133100 	andseq	r3, r3, #0, 2
    144c:	1f000017 	svcne	0x00000017
    1450:	1755010b 	ldrbne	r0, [r5, -fp, lsl #2]
    1454:	34200000 	strtcc	r0, [r0], #-0
    1458:	02133100 	andseq	r3, r3, #0, 2
    145c:	21000017 	tstcs	r0, r7, lsl r0
    1460:	13310034 	teqne	r1, #52	; 0x34
    1464:	00001802 	andeq	r1, r0, r2, lsl #16
    1468:	31003422 	tstcc	r0, r2, lsr #8
    146c:	23000013 	movwcs	r0, #19
    1470:	01018289 	smlabbeq	r1, r9, r2, r8
    1474:	13010111 	movwne	r0, #4369	; 0x1111
    1478:	8a240000 	bhi	901480 <__kernel_end+0x79f480>
    147c:	02000182 	andeq	r0, r0, #-2147483616	; 0x80000020
    1480:	18429118 	stmdane	r2, {r3, r4, r8, ip, pc}^
    1484:	89250000 	stmdbhi	r5!, {}	; <UNPREDICTABLE>
    1488:	11010182 	smlabbne	r1, r2, r1, r0
    148c:	01133101 	tsteq	r3, r1, lsl #2
    1490:	26000013 			; <UNDEFINED> instruction: 0x26000013
    1494:	01018289 	smlabbeq	r1, r9, r2, r8
    1498:	00000111 	andeq	r0, r0, r1, lsl r1
    149c:	27011527 	strcs	r1, [r1, -r7, lsr #10]
    14a0:	01134919 	tsteq	r3, r9, lsl r9
    14a4:	28000013 	stmdacs	r0, {r0, r1, r4}
    14a8:	13490005 	movtne	r0, #36869	; 0x9005
    14ac:	34290000 	strtcc	r0, [r9], #-0
    14b0:	3a0e0300 	bcc	3820b8 <__kernel_end+0x2200b8>
    14b4:	49053b0b 	stmdbmi	r5, {r0, r1, r3, r8, r9, fp, ip, sp}
    14b8:	00180213 	andseq	r0, r8, r3, lsl r2
    14bc:	00342a00 	eorseq	r2, r4, r0, lsl #20
    14c0:	0b3a0e03 	bleq	e84cd4 <__kernel_end+0xd22cd4>
    14c4:	1349053b 	movtne	r0, #38203	; 0x953b
    14c8:	00000a1c 	andeq	r0, r0, ip, lsl sl
    14cc:	0200362b 	andeq	r3, r0, #45088768	; 0x2b00000
    14d0:	2c000018 	stccs	0, cr0, [r0], {24}
    14d4:	193f002e 	ldmdbne	pc!, {r1, r2, r3, r5}	; <UNPREDICTABLE>
    14d8:	0e6e193c 	mcreq	9, 3, r1, cr14, cr12, {1}
    14dc:	0b3a0e03 	bleq	e84cf0 <__kernel_end+0xd22cf0>
    14e0:	00000b3b 	andeq	r0, r0, fp, lsr fp
    14e4:	01110100 	tsteq	r1, r0, lsl #2
    14e8:	0b130e25 	bleq	4c4d84 <__kernel_end+0x362d84>
    14ec:	0e1b0e03 	cdpeq	14, 1, cr0, cr11, cr3, {0}
    14f0:	06120111 			; <UNDEFINED> instruction: 0x06120111
    14f4:	00001710 	andeq	r1, r0, r0, lsl r7
    14f8:	0b002402 	bleq	a508 <__aeabi_idiv0+0x4ac>
    14fc:	030b3e0b 	movweq	r3, #48651	; 0xbe0b
    1500:	03000008 	movweq	r0, #8
    1504:	0e030016 	mcreq	0, 0, r0, cr3, cr6, {0}
    1508:	0b3b0b3a 	bleq	ec41f8 <__kernel_end+0xd621f8>
    150c:	00001349 	andeq	r1, r0, r9, asr #6
    1510:	0b002404 	bleq	a528 <__aeabi_idiv0+0x4cc>
    1514:	030b3e0b 	movweq	r3, #48651	; 0xbe0b
    1518:	0500000e 	streq	r0, [r0, #-14]
    151c:	0b0b000f 	bleq	2c1560 <__kernel_end+0x15f560>
    1520:	00001349 	andeq	r1, r0, r9, asr #6
    1524:	49002606 	stmdbmi	r0, {r1, r2, r9, sl, sp}
    1528:	07000013 	smladeq	r0, r3, r0, r0
    152c:	193f012e 	ldmdbne	pc!, {r1, r2, r3, r5, r8}	; <UNPREDICTABLE>
    1530:	0b3a0e03 	bleq	e84d44 <__kernel_end+0xd22d44>
    1534:	19270b3b 	stmdbne	r7!, {r0, r1, r3, r4, r5, r8, r9, fp}
    1538:	01111349 	tsteq	r1, r9, asr #6
    153c:	18400612 	stmdane	r0, {r1, r4, r9, sl}^
    1540:	00194297 	mulseq	r9, r7, r2
    1544:	00050800 	andeq	r0, r5, r0, lsl #16
    1548:	0b3a0803 	bleq	e8355c <__kernel_end+0xd2155c>
    154c:	13490b3b 	movtne	r0, #39739	; 0x9b3b
    1550:	00001702 	andeq	r1, r0, r2, lsl #14
    1554:	03003409 	movweq	r3, #1033	; 0x409
    1558:	3b0b3a08 	blcc	2cfd80 <__kernel_end+0x16dd80>
    155c:	0213490b 	andseq	r4, r3, #180224	; 0x2c000
    1560:	00000017 	andeq	r0, r0, r7, lsl r0

Disassembly of section .debug_aranges:

00000000 <.debug_aranges>:
   0:	0000001c 	andeq	r0, r0, ip, lsl r0
   4:	00000002 	andeq	r0, r0, r2
   8:	00040000 	andeq	r0, r4, r0
   c:	00000000 	andeq	r0, r0, r0
  10:	00008000 	andeq	r8, r0, r0
  14:	00000208 	andeq	r0, r0, r8, lsl #4
	...
  20:	0000001c 	andeq	r0, r0, ip, lsl r0
  24:	00890002 	addeq	r0, r9, r2
  28:	00040000 	andeq	r0, r4, r0
  2c:	00000000 	andeq	r0, r0, r0
  30:	00008208 	andeq	r8, r0, r8, lsl #4
  34:	00000060 	andeq	r0, r0, r0, rrx
	...
  40:	0000001c 	andeq	r0, r0, ip, lsl r0
  44:	01950002 	orrseq	r0, r5, r2
  48:	00040000 	andeq	r0, r4, r0
  4c:	00000000 	andeq	r0, r0, r0
  50:	00008268 	andeq	r8, r0, r8, ror #4
  54:	00000038 	andeq	r0, r0, r8, lsr r0
	...
  60:	0000001c 	andeq	r0, r0, ip, lsl r0
  64:	03390002 	teqeq	r9, #2
  68:	00040000 	andeq	r0, r4, r0
  6c:	00000000 	andeq	r0, r0, r0
  70:	000082a0 	andeq	r8, r0, r0, lsr #5
  74:	000003b0 			; <UNDEFINED> instruction: 0x000003b0
	...
  80:	0000001c 	andeq	r0, r0, ip, lsl r0
  84:	08e80002 	stmiaeq	r8!, {r1}^
  88:	00040000 	andeq	r0, r4, r0
  8c:	00000000 	andeq	r0, r0, r0
  90:	00008650 	andeq	r8, r0, r0, asr r6
  94:	0000006c 	andeq	r0, r0, ip, rrx
	...
  a0:	0000001c 	andeq	r0, r0, ip, lsl r0
  a4:	0afe0002 	beq	fff800b4 <__kernel_end+0xffe1e0b4>
  a8:	00040000 	andeq	r0, r4, r0
  ac:	00000000 	andeq	r0, r0, r0
  b0:	000086bc 			; <UNDEFINED> instruction: 0x000086bc
  b4:	000005d0 	ldrdeq	r0, [r0], -r0	; <UNPREDICTABLE>
	...
  c0:	0000001c 	andeq	r0, r0, ip, lsl r0
  c4:	107c0002 	rsbsne	r0, ip, r2
  c8:	00040000 	andeq	r0, r4, r0
  cc:	00000000 	andeq	r0, r0, r0
  d0:	00008c8c 	andeq	r8, r0, ip, lsl #25
  d4:	00000134 	andeq	r0, r0, r4, lsr r1
	...
  e0:	0000001c 	andeq	r0, r0, ip, lsl r0
  e4:	13020002 	movwne	r0, #8194	; 0x2002
  e8:	00040000 	andeq	r0, r4, r0
  ec:	00000000 	andeq	r0, r0, r0
  f0:	00008dc0 	andeq	r8, r0, r0, asr #27
  f4:	000000e4 	andeq	r0, r0, r4, ror #1
	...
 100:	0000001c 	andeq	r0, r0, ip, lsl r0
 104:	14ea0002 	strbtne	r0, [sl], #2
 108:	00040000 	andeq	r0, r4, r0
 10c:	00000000 	andeq	r0, r0, r0
 110:	00008ea4 	andeq	r8, r0, r4, lsr #29
 114:	000002c0 	andeq	r0, r0, r0, asr #5
	...
 120:	0000001c 	andeq	r0, r0, ip, lsl r0
 124:	1cac0002 	stcne	0, cr0, [ip], #8
 128:	00040000 	andeq	r0, r4, r0
 12c:	00000000 	andeq	r0, r0, r0
 130:	00009164 	andeq	r9, r0, r4, ror #2
 134:	00000128 	andeq	r0, r0, r8, lsr #2
	...
 140:	0000001c 	andeq	r0, r0, ip, lsl r0
 144:	21be0002 			; <UNDEFINED> instruction: 0x21be0002
 148:	00040000 	andeq	r0, r4, r0
 14c:	00000000 	andeq	r0, r0, r0
 150:	0000928c 	andeq	r9, r0, ip, lsl #5
 154:	00000324 	andeq	r0, r0, r4, lsr #6
	...
 160:	0000001c 	andeq	r0, r0, ip, lsl r0
 164:	274a0002 	strbcs	r0, [sl, -r2]
 168:	00040000 	andeq	r0, r4, r0
 16c:	00000000 	andeq	r0, r0, r0
 170:	000095b0 			; <UNDEFINED> instruction: 0x000095b0
 174:	00000158 	andeq	r0, r0, r8, asr r1
	...
 180:	0000001c 	andeq	r0, r0, ip, lsl r0
 184:	2cb50002 	ldccs	0, cr0, [r5], #8
 188:	00040000 	andeq	r0, r4, r0
 18c:	00000000 	andeq	r0, r0, r0
 190:	00009708 	andeq	r9, r0, r8, lsl #14
 194:	0000004c 	andeq	r0, r0, ip, asr #32
	...
 1a0:	0000001c 	andeq	r0, r0, ip, lsl r0
 1a4:	2dcb0002 	stclcs	0, cr0, [fp, #8]
 1a8:	00040000 	andeq	r0, r4, r0
 1ac:	00000000 	andeq	r0, r0, r0
 1b0:	00009754 	andeq	r9, r0, r4, asr r7
 1b4:	00000024 	andeq	r0, r0, r4, lsr #32
	...
 1c0:	0000001c 	andeq	r0, r0, ip, lsl r0
 1c4:	2ef30002 	cdpcs	0, 15, cr0, cr3, cr2, {0}
 1c8:	00040000 	andeq	r0, r4, r0
 1cc:	00000000 	andeq	r0, r0, r0
 1d0:	00009778 	andeq	r9, r0, r8, ror r7
 1d4:	00000054 	andeq	r0, r0, r4, asr r0
	...
 1e0:	0000001c 	andeq	r0, r0, ip, lsl r0
 1e4:	30680002 	rsbcc	r0, r8, r2
 1e8:	00040000 	andeq	r0, r4, r0
 1ec:	00000000 	andeq	r0, r0, r0
 1f0:	000097cc 	andeq	r9, r0, ip, asr #15
 1f4:	0000074c 	andeq	r0, r0, ip, asr #14
	...
 200:	0000001c 	andeq	r0, r0, ip, lsl r0
 204:	35280002 	strcc	r0, [r8, #-2]!
 208:	00040000 	andeq	r0, r4, r0
 20c:	00000000 	andeq	r0, r0, r0
 210:	00009f18 	andeq	r9, r0, r8, lsl pc
 214:	00000030 	andeq	r0, r0, r0, lsr r0
	...

Disassembly of section .debug_loc:

00000000 <.debug_loc>:
       0:	00000000 	andeq	r0, r0, r0
       4:	0000004f 	andeq	r0, r0, pc, asr #32
       8:	4f500001 	svcmi	0x00500001
       c:	60000000 	andvs	r0, r0, r0
      10:	04000000 	streq	r0, [r0], #-0
      14:	5001f300 	andpl	pc, r1, r0, lsl #6
      18:	0000009f 	muleq	r0, pc, r0	; <UNPREDICTABLE>
	...
      24:	00004f00 	andeq	r4, r0, r0, lsl #30
      28:	51000100 	mrspl	r0, (UNDEF: 16)
      2c:	0000004f 	andeq	r0, r0, pc, asr #32
      30:	00000060 	andeq	r0, r0, r0, rrx
      34:	01f30004 	mvnseq	r0, r4
      38:	00009f51 	andeq	r9, r0, r1, asr pc
	...
      44:	004f0000 	subeq	r0, pc, r0
      48:	00010000 	andeq	r0, r1, r0
      4c:	00004f52 	andeq	r4, r0, r2, asr pc
      50:	00006000 	andeq	r6, r0, r0
      54:	f3000400 	vshl.u8	d0, d0, d0
      58:	009f5201 	addseq	r5, pc, r1, lsl #4
      5c:	00000000 	andeq	r0, r0, r0
      60:	40000000 	andmi	r0, r0, r0
      64:	4c000000 	stcmi	0, cr0, [r0], {-0}
      68:	01000000 	mrseq	r0, (UNDEF: 0)
      6c:	00005400 	andeq	r5, r0, r0, lsl #8
      70:	00000000 	andeq	r0, r0, r0
      74:	00c00000 	sbceq	r0, r0, r0
      78:	00dc0000 	sbcseq	r0, ip, r0
      7c:	00020000 	andeq	r0, r2, r0
      80:	00dc9f30 	sbcseq	r9, ip, r0, lsr pc
      84:	01940000 	orrseq	r0, r4, r0
      88:	00010000 	andeq	r0, r1, r0
      8c:	00000054 	andeq	r0, r0, r4, asr r0
      90:	00000000 	andeq	r0, r0, r0
      94:	00019400 	andeq	r9, r1, r0, lsl #8
      98:	0001d800 	andeq	sp, r1, r0, lsl #16
      9c:	50000100 	andpl	r0, r0, r0, lsl #2
      a0:	000001d8 	ldrdeq	r0, [r0], -r8
      a4:	000001e0 	andeq	r0, r0, r0, ror #3
      a8:	01f30004 	mvnseq	r0, r4
      ac:	01e09f50 	mvneq	r9, r0, asr pc
      b0:	02500000 	subseq	r0, r0, #0
      b4:	00010000 	andeq	r0, r1, r0
      b8:	00000050 	andeq	r0, r0, r0, asr r0
      bc:	00000000 	andeq	r0, r0, r0
      c0:	0001b000 	andeq	fp, r1, r0
      c4:	0001d800 	andeq	sp, r1, r0, lsl #16
      c8:	70000600 	andvc	r0, r0, r0, lsl #12
      cc:	1aff0800 	bne	fffc20d4 <__kernel_end+0xffe600d4>
      d0:	0001d89f 	muleq	r1, pc, r8	; <UNPREDICTABLE>
      d4:	0001e000 	andeq	lr, r1, r0
      d8:	f3000700 	vabd.u8	d0, d0, d0
      dc:	ff085001 			; <UNDEFINED> instruction: 0xff085001
      e0:	01e09f1a 	mvneq	r9, sl, lsl pc
      e4:	02100000 	andseq	r0, r0, #0
      e8:	00030000 	andeq	r0, r3, r0
      ec:	109f6070 	addsne	r6, pc, r0, ror r0	; <UNPREDICTABLE>
      f0:	24000002 	strcs	r0, [r0], #-2
      f4:	03000002 	movweq	r0, #2
      f8:	9f407000 	svcls	0x00407000
      fc:	00000224 	andeq	r0, r0, r4, lsr #4
     100:	00000250 	andeq	r0, r0, r0, asr r2
     104:	00550001 	subseq	r0, r5, r1
     108:	00000000 	andeq	r0, r0, r0
     10c:	50000000 	andpl	r0, r0, r0
     110:	98000002 	stmdals	r0, {r1}
     114:	01000002 	tsteq	r0, r2
     118:	02985000 	addseq	r5, r8, #0
     11c:	02a00000 	adceq	r0, r0, #0
     120:	00040000 	andeq	r0, r4, r0
     124:	9f5001f3 	svcls	0x005001f3
     128:	000002a0 	andeq	r0, r0, r0, lsr #5
     12c:	00000318 	andeq	r0, r0, r8, lsl r3
     130:	00500001 	subseq	r0, r0, r1
     134:	00000000 	andeq	r0, r0, r0
     138:	6c000000 	stcvs	0, cr0, [r0], {-0}
     13c:	98000002 	stmdals	r0, {r1}
     140:	06000002 	streq	r0, [r0], -r2
     144:	08007000 	stmdaeq	r0, {ip, sp, lr}
     148:	989f1aff 	ldmls	pc, {r0, r1, r2, r3, r4, r5, r6, r7, r9, fp, ip}	; <UNPREDICTABLE>
     14c:	a0000002 	andge	r0, r0, r2
     150:	07000002 	streq	r0, [r0, -r2]
     154:	5001f300 	andpl	pc, r1, r0, lsl #6
     158:	9f1aff08 	svcls	0x001aff08
     15c:	000002a0 	andeq	r0, r0, r0, lsr #5
     160:	000002d4 	ldrdeq	r0, [r0], -r4
     164:	60700003 	rsbsvs	r0, r0, r3
     168:	0002d49f 	muleq	r2, pc, r4	; <UNPREDICTABLE>
     16c:	0002e800 	andeq	lr, r2, r0, lsl #16
     170:	70000300 	andvc	r0, r0, r0, lsl #6
     174:	02e89f40 	rsceq	r9, r8, #64, 30	; 0x100
     178:	03180000 	tsteq	r8, #0
     17c:	00010000 	andeq	r0, r1, r0
     180:	00000054 	andeq	r0, r0, r4, asr r0
     184:	00000000 	andeq	r0, r0, r0
     188:	00031800 	andeq	r1, r3, r0, lsl #16
     18c:	00032000 	andeq	r2, r3, r0
     190:	51000100 	mrspl	r0, (UNDEF: 16)
     194:	00000320 	andeq	r0, r0, r0, lsr #6
     198:	0000033c 	andeq	r0, r0, ip, lsr r3
     19c:	01f30004 	mvnseq	r0, r4
     1a0:	00009f51 	andeq	r9, r0, r1, asr pc
     1a4:	00000000 	andeq	r0, r0, r0
     1a8:	03180000 	tsteq	r8, #0
     1ac:	03280000 			; <UNDEFINED> instruction: 0x03280000
     1b0:	00010000 	andeq	r0, r1, r0
     1b4:	00032852 	andeq	r2, r3, r2, asr r8
     1b8:	00033c00 	andeq	r3, r3, r0, lsl #24
     1bc:	f3000400 	vshl.u8	d0, d0, d0
     1c0:	009f5201 	addseq	r5, pc, r1, lsl #4
     1c4:	00000000 	andeq	r0, r0, r0
     1c8:	20000000 	andcs	r0, r0, r0
     1cc:	2c000003 	stccs	0, cr0, [r0], {3}
     1d0:	02000003 	andeq	r0, r0, #3
     1d4:	009f3000 	addseq	r3, pc, r0
     1d8:	00000000 	andeq	r0, r0, r0
     1dc:	3c000000 	stccc	0, cr0, [r0], {-0}
     1e0:	47000003 	strmi	r0, [r0, -r3]
     1e4:	01000003 	tsteq	r0, r3
     1e8:	03475000 	movteq	r5, #28672	; 0x7000
     1ec:	03480000 	movteq	r0, #32768	; 0x8000
     1f0:	00040000 	andeq	r0, r4, r0
     1f4:	9f5001f3 	svcls	0x005001f3
	...
     200:	0000033c 	andeq	r0, r0, ip, lsr r3
     204:	00000344 	andeq	r0, r0, r4, asr #6
     208:	44510001 	ldrbmi	r0, [r1], #-1
     20c:	47000003 	strmi	r0, [r0, -r3]
     210:	01000003 	tsteq	r0, r3
     214:	03475200 	movteq	r5, #29184	; 0x7200
     218:	03480000 	movteq	r0, #32768	; 0x8000
     21c:	00040000 	andeq	r0, r4, r0
     220:	9f5101f3 	svcls	0x005101f3
	...
     230:	00000010 	andeq	r0, r0, r0, lsl r0
     234:	10500001 	subsne	r0, r0, r1
     238:	2c000000 	stccs	0, cr0, [r0], {-0}
     23c:	04000000 	streq	r0, [r0], #-0
     240:	5001f300 	andpl	pc, r1, r0, lsl #6
     244:	0000009f 	muleq	r0, pc, r0	; <UNPREDICTABLE>
	...
     250:	00000400 	andeq	r0, r0, r0, lsl #8
     254:	51000100 	mrspl	r0, (UNDEF: 16)
     258:	00000004 	andeq	r0, r0, r4
     25c:	00000010 	andeq	r0, r0, r0, lsl r0
     260:	10510001 	subsne	r0, r1, r1
     264:	2c000000 	stccs	0, cr0, [r0], {-0}
     268:	01000000 	mrseq	r0, (UNDEF: 0)
     26c:	00005000 	andeq	r5, r0, r0
     270:	00000000 	andeq	r0, r0, r0
     274:	002c0000 	eoreq	r0, ip, r0
     278:	00600000 	rsbeq	r0, r0, r0
     27c:	00010000 	andeq	r0, r1, r0
     280:	00006050 	andeq	r6, r0, r0, asr r0
     284:	00006400 	andeq	r6, r0, r0, lsl #8
     288:	f3000400 	vshl.u8	d0, d0, d0
     28c:	649f5001 	ldrvs	r5, [pc], #1	; 294 <ARM_I_BIT+0x214>
     290:	68000000 	stmdavs	r0, {}	; <UNPREDICTABLE>
     294:	01000000 	mrseq	r0, (UNDEF: 0)
     298:	00685000 	rsbeq	r5, r8, r0
     29c:	006c0000 	rsbeq	r0, ip, r0
     2a0:	00040000 	andeq	r0, r4, r0
     2a4:	9f5001f3 	svcls	0x005001f3
	...
     2b0:	0000002c 	andeq	r0, r0, ip, lsr #32
     2b4:	00000040 	andeq	r0, r0, r0, asr #32
     2b8:	ff090003 			; <UNDEFINED> instruction: 0xff090003
     2bc:	0000509f 	muleq	r0, pc, r0	; <UNPREDICTABLE>
     2c0:	00006400 	andeq	r6, r0, r0, lsl #8
     2c4:	53000100 	movwpl	r0, #256	; 0x100
     2c8:	00000064 	andeq	r0, r0, r4, rrx
     2cc:	0000006c 	andeq	r0, r0, ip, rrx
     2d0:	ff090003 			; <UNDEFINED> instruction: 0xff090003
     2d4:	0000009f 	muleq	r0, pc, r0	; <UNPREDICTABLE>
     2d8:	00000000 	andeq	r0, r0, r0
     2dc:	00052400 	andeq	r2, r5, r0, lsl #8
     2e0:	00058800 	andeq	r8, r5, r0, lsl #16
     2e4:	50000100 	andpl	r0, r0, r0, lsl #2
     2e8:	00000588 	andeq	r0, r0, r8, lsl #11
     2ec:	0000058c 	andeq	r0, r0, ip, lsl #11
     2f0:	54030005 	strpl	r0, [r3], #-5
     2f4:	8c000152 	stfhis	f0, [r0], {82}	; 0x52
     2f8:	ac000005 	stcge	0, cr0, [r0], {5}
     2fc:	01000005 	tsteq	r0, r5
     300:	05ac5000 	streq	r5, [ip, #0]!
     304:	05b70000 	ldreq	r0, [r7, #0]!
     308:	00050000 	andeq	r0, r5, r0
     30c:	01525403 	cmpeq	r2, r3, lsl #8
     310:	0005b700 	andeq	fp, r5, r0, lsl #14
     314:	0005d000 	andeq	sp, r5, r0
     318:	f3000400 	vshl.u8	d0, d0, d0
     31c:	009f5001 	addseq	r5, pc, r1
     320:	00000000 	andeq	r0, r0, r0
     324:	24000000 	strcs	r0, [r0], #-0
     328:	9c000005 	stcls	0, cr0, [r0], {5}
     32c:	02000005 	andeq	r0, r0, #5
     330:	9c9f3000 	ldcls	0, cr3, [pc], {0}
     334:	b7000005 	strlt	r0, [r0, -r5]
     338:	01000005 	tsteq	r0, r5
     33c:	00005300 	andeq	r5, r0, r0, lsl #6
     340:	00000000 	andeq	r0, r0, r0
     344:	05400000 	strbeq	r0, [r0, #-0]
     348:	05600000 	strbeq	r0, [r0, #-0]!
     34c:	00020000 	andeq	r0, r2, r0
     350:	05609f32 	strbeq	r9, [r0, #-3890]!	; 0xfffff0ce
     354:	05780000 	ldrbeq	r0, [r8, #-0]!
     358:	00010000 	andeq	r0, r1, r0
     35c:	00057c53 	andeq	r7, r5, r3, asr ip
     360:	00058400 	andeq	r8, r5, r0, lsl #8
     364:	53000100 	movwpl	r0, #256	; 0x100
	...
     370:	0000008c 	andeq	r0, r0, ip, lsl #1
     374:	0000009c 	muleq	r0, ip, r0
     378:	9c500001 	mrrcls	0, 0, r0, r0, cr1	; <UNPREDICTABLE>
     37c:	a8000000 	stmdage	r0, {}	; <UNPREDICTABLE>
     380:	04000000 	streq	r0, [r0], #-0
     384:	5001f300 	andpl	pc, r1, r0, lsl #6
     388:	0000009f 	muleq	r0, pc, r0	; <UNPREDICTABLE>
	...
     394:	00001000 	andeq	r1, r0, r0
     398:	50000100 	andpl	r0, r0, r0, lsl #2
     39c:	00000010 	andeq	r0, r0, r0, lsl r0
     3a0:	0000003c 	andeq	r0, r0, ip, lsr r0
     3a4:	01f30004 	mvnseq	r0, r4
     3a8:	00009f50 	andeq	r9, r0, r0, asr pc
	...
     3b4:	00080000 	andeq	r0, r8, r0
     3b8:	00010000 	andeq	r0, r1, r0
     3bc:	00000851 	andeq	r0, r0, r1, asr r8
     3c0:	00003c00 	andeq	r3, r0, r0, lsl #24
     3c4:	f3000400 	vshl.u8	d0, d0, d0
     3c8:	009f5101 	addseq	r5, pc, r1, lsl #2
	...
     3d4:	0c000000 	stceq	0, cr0, [r0], {-0}
     3d8:	01000000 	mrseq	r0, (UNDEF: 0)
     3dc:	000c5200 	andeq	r5, ip, r0, lsl #4
     3e0:	003c0000 	eorseq	r0, ip, r0
     3e4:	00040000 	andeq	r0, r4, r0
     3e8:	9f5201f3 	svcls	0x005201f3
	...
     3f8:	00000010 	andeq	r0, r0, r0, lsl r0
     3fc:	00700007 	rsbseq	r0, r0, r7
     400:	24322544 	ldrtcs	r2, [r2], #-1348	; 0xfffffabc
     404:	0000109f 	muleq	r0, pc, r0	; <UNPREDICTABLE>
     408:	00003c00 	andeq	r3, r0, r0, lsl #24
     40c:	f3000800 	vsub.i8	d0, d0, d0
     410:	25445001 	strbcs	r5, [r4, #-1]
     414:	009f2432 	addseq	r2, pc, r2, lsr r4	; <UNPREDICTABLE>
	...
     420:	10000000 	andne	r0, r0, r0
     424:	0e000000 	cdpeq	0, 0, cr0, cr0, cr0, {0}
     428:	44007000 	strmi	r7, [r0], #-0
     42c:	03243225 			; <UNDEFINED> instruction: 0x03243225
     430:	00015360 	andeq	r5, r1, r0, ror #6
     434:	109f2106 	addsne	r2, pc, r6, lsl #2
     438:	2c000000 	stccs	0, cr0, [r0], {-0}
     43c:	0f000000 	svceq	0x00000000
     440:	5001f300 	andpl	pc, r1, r0, lsl #6
     444:	24322544 	ldrtcs	r2, [r2], #-1348	; 0xfffffabc
     448:	01536003 	cmpeq	r3, r3
     44c:	9f210600 	svcls	0x00210600
     450:	0000002c 	andeq	r0, r0, ip, lsr #32
     454:	0000002f 	andeq	r0, r0, pc, lsr #32
     458:	00500001 	subseq	r0, r0, r1
     45c:	00000000 	andeq	r0, r0, r0
     460:	1c000000 	stcne	0, cr0, [r0], {-0}
     464:	28000000 	stmdacs	r0, {}	; <UNPREDICTABLE>
     468:	0b000000 	bleq	470 <ARM_I_BIT+0x3f0>
     46c:	5201f300 	andpl	pc, r1, #0, 6
     470:	0a210071 	beq	84063c <__kernel_end+0x6de63c>
     474:	9f210c02 	svcls	0x00210c02
     478:	00000028 	andeq	r0, r0, r8, lsr #32
     47c:	0000003c 	andeq	r0, r0, ip, lsr r0
     480:	01f30010 	mvnseq	r0, r0, lsl r0
     484:	44254451 	strtmi	r4, [r5], #-1105	; 0xfffffbaf
     488:	5201f324 	andpl	pc, r1, #36, 6	; 0x90000000
     48c:	0c020a21 	stceq	10, cr0, [r2], {33}	; 0x21
     490:	00009f21 	andeq	r9, r0, r1, lsr #30
     494:	00000000 	andeq	r0, r0, r0
     498:	00640000 	rsbeq	r0, r4, r0
     49c:	00680000 	rsbeq	r0, r8, r0
     4a0:	00020000 	andeq	r0, r2, r0
     4a4:	00689f30 	rsbeq	r9, r8, r0, lsr pc
     4a8:	00c40000 	sbceq	r0, r4, r0
     4ac:	00010000 	andeq	r0, r1, r0
     4b0:	00000054 	andeq	r0, r0, r4, asr r0
     4b4:	00000000 	andeq	r0, r0, r0
     4b8:	00004800 	andeq	r4, r0, r0, lsl #16
     4bc:	00004c00 	andeq	r4, r0, r0, lsl #24
     4c0:	50000100 	andpl	r0, r0, r0, lsl #2
     4c4:	0000004c 	andeq	r0, r0, ip, asr #32
     4c8:	00000050 	andeq	r0, r0, r0, asr r0
     4cc:	01f30004 	mvnseq	r0, r4
     4d0:	00009f50 	andeq	r9, r0, r0, asr pc
     4d4:	00000000 	andeq	r0, r0, r0
     4d8:	00500000 	subseq	r0, r0, r0
     4dc:	00640000 	rsbeq	r0, r4, r0
     4e0:	00010000 	andeq	r0, r1, r0
     4e4:	00006450 	andeq	r6, r0, r0, asr r4
     4e8:	00007c00 	andeq	r7, r0, r0, lsl #24
     4ec:	53000100 	movwpl	r0, #256	; 0x100
	...
     4f8:	00000054 	andeq	r0, r0, r4, asr r0
     4fc:	00000068 	andeq	r0, r0, r8, rrx
     500:	68510001 	ldmdavs	r1, {r0}^
     504:	7c000000 	stcvc	0, cr0, [r0], {-0}
     508:	01000000 	mrseq	r0, (UNDEF: 0)
     50c:	00005000 	andeq	r5, r0, r0
     510:	00000000 	andeq	r0, r0, r0
     514:	007c0000 	rsbseq	r0, ip, r0
     518:	00800000 	addeq	r0, r0, r0
     51c:	00010000 	andeq	r0, r1, r0
     520:	00008050 	andeq	r8, r0, r0, asr r0
     524:	00008400 	andeq	r8, r0, r0, lsl #8
     528:	f3000400 	vshl.u8	d0, d0, d0
     52c:	009f5001 	addseq	r5, pc, r1
     530:	00000000 	andeq	r0, r0, r0
     534:	84000000 	strhi	r0, [r0], #-0
     538:	88000000 	stmdahi	r0, {}	; <UNPREDICTABLE>
     53c:	01000000 	mrseq	r0, (UNDEF: 0)
     540:	00885000 	addeq	r5, r8, r0
     544:	008c0000 	addeq	r0, ip, r0
     548:	00040000 	andeq	r0, r4, r0
     54c:	9f5001f3 	svcls	0x005001f3
	...
     558:	000000d4 	ldrdeq	r0, [r0], -r4
     55c:	000000f4 	strdeq	r0, [r0], -r4
     560:	00500001 	subseq	r0, r0, r1
     564:	00000000 	andeq	r0, r0, r0
     568:	14000000 	strne	r0, [r0], #-0
     56c:	1c000001 	stcne	0, cr0, [r0], {1}
     570:	01000001 	tsteq	r0, r1
     574:	011c5000 	tsteq	ip, r0
     578:	01580000 	cmpeq	r8, r0
     57c:	00040000 	andeq	r0, r4, r0
     580:	9f5001f3 	svcls	0x005001f3
	...
     58c:	00000134 	andeq	r0, r0, r4, lsr r1
     590:	00000148 	andeq	r0, r0, r8, asr #2
     594:	48500001 	ldmdami	r0, {r0}^
     598:	4b000001 	blmi	5a4 <ARM_I_BIT+0x524>
     59c:	01000001 	tsteq	r0, r1
     5a0:	00005100 	andeq	r5, r0, r0, lsl #2
     5a4:	00000000 	andeq	r0, r0, r0
     5a8:	01900000 	orrseq	r0, r0, r0
     5ac:	01980000 	orrseq	r0, r8, r0
     5b0:	00010000 	andeq	r0, r1, r0
     5b4:	00000050 	andeq	r0, r0, r0, asr r0
     5b8:	00000000 	andeq	r0, r0, r0
     5bc:	0001b800 	andeq	fp, r1, r0, lsl #16
     5c0:	0001bc00 	andeq	fp, r1, r0, lsl #24
     5c4:	50000100 	andpl	r0, r0, r0, lsl #2
     5c8:	000001bc 			; <UNDEFINED> instruction: 0x000001bc
     5cc:	000001cb 	andeq	r0, r0, fp, asr #3
     5d0:	00510001 	subseq	r0, r1, r1
     5d4:	00000000 	andeq	r0, r0, r0
     5d8:	f4000000 	vst4.8	{d0-d3}, [r0], r0
     5dc:	fc000001 	stc2	0, cr0, [r0], {1}
     5e0:	05000001 	streq	r0, [r0, #-1]
     5e4:	34007100 	strcc	r7, [r0], #-256	; 0xffffff00
     5e8:	01fc9f24 	mvnseq	r9, r4, lsr #30
     5ec:	02070000 	andeq	r0, r7, #0
     5f0:	00010000 	andeq	r0, r1, r0
     5f4:	00000051 	andeq	r0, r0, r1, asr r0
     5f8:	00000000 	andeq	r0, r0, r0
     5fc:	00020800 	andeq	r0, r2, r0, lsl #16
     600:	00021000 	andeq	r1, r2, r0
     604:	74000500 	strvc	r0, [r0], #-1280	; 0xfffffb00
     608:	9f253c00 	svcls	0x00253c00
     60c:	00000210 	andeq	r0, r0, r0, lsl r2
     610:	0000026c 	andeq	r0, r0, ip, ror #4
     614:	00540001 	subseq	r0, r4, r1
     618:	00000000 	andeq	r0, r0, r0
     61c:	08000000 	stmdaeq	r0, {}	; <UNPREDICTABLE>
     620:	30000002 	andcc	r0, r0, r2
     624:	02000002 	andeq	r0, r0, #2
     628:	309f3000 	addscc	r3, pc, r0
     62c:	54000002 	strpl	r0, [r0], #-2
     630:	01000002 	tsteq	r0, r2
     634:	02545300 	subseq	r5, r4, #0, 6
     638:	02780000 	rsbseq	r0, r8, #0
     63c:	00010000 	andeq	r0, r1, r0
     640:	00027854 	andeq	r7, r2, r4, asr r8
     644:	00029400 	andeq	r9, r2, r0, lsl #8
     648:	74000300 	strvc	r0, [r0], #-768	; 0xfffffd00
     64c:	02949f7f 	addseq	r9, r4, #508	; 0x1fc
     650:	02c00000 	sbceq	r0, r0, #0
     654:	00010000 	andeq	r0, r1, r0
     658:	00000054 	andeq	r0, r0, r4, asr r0
	...
     664:	00002000 	andeq	r2, r0, r0
     668:	30000200 	andcc	r0, r0, r0, lsl #4
     66c:	0000009f 	muleq	r0, pc, r0	; <UNPREDICTABLE>
	...
     678:	00002000 	andeq	r2, r0, r0
     67c:	0c000600 	stceq	6, cr0, [r0], {-0}
     680:	3f201030 	svccc	0x00201030
     684:	0000009f 	muleq	r0, pc, r0	; <UNPREDICTABLE>
     688:	00000000 	andeq	r0, r0, r0
     68c:	00002000 	andeq	r2, r0, r0
     690:	00002400 	andeq	r2, r0, r0, lsl #8
     694:	30000200 	andcc	r0, r0, r0, lsl #4
     698:	0000009f 	muleq	r0, pc, r0	; <UNPREDICTABLE>
     69c:	00000000 	andeq	r0, r0, r0
     6a0:	00002000 	andeq	r2, r0, r0
     6a4:	00002400 	andeq	r2, r0, r0, lsl #8
     6a8:	0c000600 	stceq	6, cr0, [r0], {-0}
     6ac:	3f200094 	svccc	0x00200094
     6b0:	0000009f 	muleq	r0, pc, r0	; <UNPREDICTABLE>
     6b4:	00000000 	andeq	r0, r0, r0
     6b8:	00002400 	andeq	r2, r0, r0, lsl #8
     6bc:	00002c00 	andeq	r2, r0, r0, lsl #24
     6c0:	08000300 	stmdaeq	r0, {r8, r9}
     6c4:	00009f96 	muleq	r0, r6, pc	; <UNPREDICTABLE>
     6c8:	00000000 	andeq	r0, r0, r0
     6cc:	002c0000 	eoreq	r0, ip, r0
     6d0:	00340000 	eorseq	r0, r4, r0
     6d4:	00040000 	andeq	r0, r4, r0
     6d8:	9fc0000a 	svcls	0x00c0000a
	...
     6e4:	0000002c 	andeq	r0, r0, ip, lsr #32
     6e8:	00000034 	andeq	r0, r0, r4, lsr r0
     6ec:	980c0006 	stmdals	ip, {r1, r2}
     6f0:	9f3f2000 	svcls	0x003f2000
	...
     6fc:	00000034 	andeq	r0, r0, r4, lsr r0
     700:	0000003c 	andeq	r0, r0, ip, lsr r0
     704:	96080003 	strls	r0, [r8], -r3
     708:	0000009f 	muleq	r0, pc, r0	; <UNPREDICTABLE>
     70c:	00000000 	andeq	r0, r0, r0
     710:	00005000 	andeq	r5, r0, r0
     714:	00005400 	andeq	r5, r0, r0, lsl #8
     718:	31000200 	mrscc	r0, R8_usr
     71c:	0000009f 	muleq	r0, pc, r0	; <UNPREDICTABLE>
     720:	00000000 	andeq	r0, r0, r0
     724:	00005000 	andeq	r5, r0, r0
     728:	00005400 	andeq	r5, r0, r0, lsl #8
     72c:	0c000600 	stceq	6, cr0, [r0], {-0}
     730:	3f201024 	svccc	0x00201024
     734:	0000009f 	muleq	r0, pc, r0	; <UNPREDICTABLE>
     738:	00000000 	andeq	r0, r0, r0
     73c:	00003c00 	andeq	r3, r0, r0, lsl #24
     740:	00004400 	andeq	r4, r0, r0, lsl #8
     744:	30000200 	andcc	r0, r0, r0, lsl #4
     748:	0000009f 	muleq	r0, pc, r0	; <UNPREDICTABLE>
     74c:	00000000 	andeq	r0, r0, r0
     750:	00003c00 	andeq	r3, r0, r0, lsl #24
     754:	00004400 	andeq	r4, r0, r0, lsl #8
     758:	0c000600 	stceq	6, cr0, [r0], {-0}
     75c:	3f200098 	svccc	0x00200098
     760:	0000009f 	muleq	r0, pc, r0	; <UNPREDICTABLE>
     764:	00000000 	andeq	r0, r0, r0
     768:	00004400 	andeq	r4, r0, r0, lsl #8
     76c:	00005000 	andeq	r5, r0, r0
     770:	0a000400 	beq	1778 <SCTLR_ENABLE_INSTRUCTION_CACHE+0x778>
     774:	009f07ff 			; <UNDEFINED> instruction: 0x009f07ff
     778:	00000000 	andeq	r0, r0, r0
     77c:	44000000 	strmi	r0, [r0], #-0
     780:	50000000 	andpl	r0, r0, r0
     784:	06000000 	streq	r0, [r0], -r0
     788:	10440c00 	subne	r0, r4, r0, lsl #24
     78c:	009f3f20 	addseq	r3, pc, r0, lsr #30
     790:	00000000 	andeq	r0, r0, r0
     794:	54000000 	strpl	r0, [r0], #-0
     798:	5c000000 	stcpl	0, cr0, [r0], {-0}
     79c:	03000000 	movweq	r0, #0
     7a0:	9f280800 	svcls	0x00280800
	...
     7ac:	00000054 	andeq	r0, r0, r4, asr r0
     7b0:	0000005c 	andeq	r0, r0, ip, asr r0
     7b4:	280c0006 	stmdacs	ip, {r1, r2}
     7b8:	9f3f2010 	svcls	0x003f2010
	...
     7c4:	0000005c 	andeq	r0, r0, ip, asr r0
     7c8:	00000064 	andeq	r0, r0, r4, rrx
     7cc:	70080003 	andvc	r0, r8, r3
     7d0:	0000009f 	muleq	r0, pc, r0	; <UNPREDICTABLE>
     7d4:	00000000 	andeq	r0, r0, r0
     7d8:	00005c00 	andeq	r5, r0, r0, lsl #24
     7dc:	00006400 	andeq	r6, r0, r0, lsl #8
     7e0:	0c000600 	stceq	6, cr0, [r0], {-0}
     7e4:	3f20102c 	svccc	0x0020102c
     7e8:	0000009f 	muleq	r0, pc, r0	; <UNPREDICTABLE>
     7ec:	00000000 	andeq	r0, r0, r0
     7f0:	00006400 	andeq	r6, r0, r0, lsl #8
     7f4:	00006c00 	andeq	r6, r0, r0, lsl #24
     7f8:	0a000400 	beq	1800 <SCTLR_ENABLE_INSTRUCTION_CACHE+0x800>
     7fc:	009f07f2 			; <UNDEFINED> instruction: 0x009f07f2
     800:	00000000 	andeq	r0, r0, r0
     804:	64000000 	strvs	r0, [r0], #-0
     808:	6c000000 	stcvs	0, cr0, [r0], {-0}
     80c:	06000000 	streq	r0, [r0], -r0
     810:	10380c00 	eorsne	r0, r8, r0, lsl #24
     814:	009f3f20 	addseq	r3, pc, r0, lsr #30
     818:	00000000 	andeq	r0, r0, r0
     81c:	6c000000 	stcvs	0, cr0, [r0], {-0}
     820:	70000000 	andvc	r0, r0, r0
     824:	04000000 	streq	r0, [r0], #-0
     828:	03010a00 	movweq	r0, #6656	; 0x1a00
     82c:	0000009f 	muleq	r0, pc, r0	; <UNPREDICTABLE>
     830:	00000000 	andeq	r0, r0, r0
     834:	00006c00 	andeq	r6, r0, r0, lsl #24
     838:	00007000 	andeq	r7, r0, r0
     83c:	0c000600 	stceq	6, cr0, [r0], {-0}
     840:	3f201030 	svccc	0x00201030
     844:	0000009f 	muleq	r0, pc, r0	; <UNPREDICTABLE>
     848:	00000000 	andeq	r0, r0, r0
     84c:	00007c00 	andeq	r7, r0, r0, lsl #24
     850:	00008000 	andeq	r8, r0, r0
     854:	0c000600 	stceq	6, cr0, [r0], {-0}
     858:	3f201018 	svccc	0x00201018
     85c:	0000009f 	muleq	r0, pc, r0	; <UNPREDICTABLE>
     860:	00000000 	andeq	r0, r0, r0
     864:	00009000 	andeq	r9, r0, r0
     868:	00009400 	andeq	r9, r0, r0, lsl #8
     86c:	50000100 	andpl	r0, r0, r0, lsl #2
	...
     878:	00000090 	muleq	r0, r0, r0
     87c:	00000094 	muleq	r0, r4, r0
     880:	000c0006 	andeq	r0, ip, r6
     884:	9f3f2010 	svcls	0x003f2010
	...
     890:	000000a0 	andeq	r0, r0, r0, lsr #1
     894:	000000a4 	andeq	r0, r0, r4, lsr #1
     898:	180c0006 	stmdane	ip, {r1, r2}
     89c:	9f3f2010 	svcls	0x003f2010
	...
     8a8:	000000b4 	strheq	r0, [r0], -r4
     8ac:	000000b8 	strheq	r0, [r0], -r8
     8b0:	000c0006 	andeq	r0, ip, r6
     8b4:	9f3f2010 	svcls	0x003f2010
	...
     8c0:	000000c0 	andeq	r0, r0, r0, asr #1
     8c4:	000000cc 	andeq	r0, r0, ip, asr #1
     8c8:	cc500001 	mrrcgt	0, 0, r0, r0, cr1	; <UNPREDICTABLE>
     8cc:	d4000000 	strle	r0, [r0], #-0
     8d0:	01000000 	mrseq	r0, (UNDEF: 0)
     8d4:	00d45400 	sbcseq	r5, r4, r0, lsl #8
     8d8:	00e80000 	rsceq	r0, r8, r0
     8dc:	00040000 	andeq	r0, r4, r0
     8e0:	9f5001f3 	svcls	0x005001f3
	...
     8ec:	000000c0 	andeq	r0, r0, r0, asr #1
     8f0:	000000d4 	ldrdeq	r0, [r0], -r4
     8f4:	9f300002 	svcls	0x00300002
     8f8:	000000d4 	ldrdeq	r0, [r0], -r4
     8fc:	000000d8 	ldrdeq	r0, [r0], -r8
     900:	00740007 	rsbseq	r0, r4, r7
     904:	1c5001f3 	ldfnee	f0, [r0], {243}	; 0xf3
     908:	0000d89f 	muleq	r0, pc, r8	; <UNPREDICTABLE>
     90c:	0000dc00 	andeq	sp, r0, r0, lsl #24
     910:	74000900 	strvc	r0, [r0], #-2304	; 0xfffff700
     914:	5001f300 	andpl	pc, r1, r0, lsl #6
     918:	9f01231c 	svcls	0x0001231c
     91c:	000000dc 	ldrdeq	r0, [r0], -ip
     920:	000000e8 	andeq	r0, r0, r8, ror #1
     924:	00740007 	rsbseq	r0, r4, r7
     928:	1c5001f3 	ldfnee	f0, [r0], {243}	; 0xf3
     92c:	0000009f 	muleq	r0, pc, r0	; <UNPREDICTABLE>
     930:	00000000 	andeq	r0, r0, r0
     934:	0000e800 	andeq	lr, r0, r0, lsl #16
     938:	0000f400 	andeq	pc, r0, r0, lsl #8
     93c:	50000100 	andpl	r0, r0, r0, lsl #2
     940:	000000f4 	strdeq	r0, [r0], -r4
     944:	00000124 	andeq	r0, r0, r4, lsr #2
     948:	24550001 	ldrbcs	r0, [r5], #-1
     94c:	28000001 	stmdacs	r0, {r0}
     950:	04000001 	streq	r0, [r0], #-1
     954:	5001f300 	andpl	pc, r1, r0, lsl #6
     958:	0000009f 	muleq	r0, pc, r0	; <UNPREDICTABLE>
     95c:	00000000 	andeq	r0, r0, r0
     960:	0000e800 	andeq	lr, r0, r0, lsl #16
     964:	0000f400 	andeq	pc, r0, r0, lsl #8
     968:	08000300 	stmdaeq	r0, {r8, r9}
     96c:	00f49f20 	rscseq	r9, r4, r0, lsr #30
     970:	01240000 			; <UNDEFINED> instruction: 0x01240000
     974:	00010000 	andeq	r0, r1, r0
     978:	00000054 	andeq	r0, r0, r4, asr r0
     97c:	00000000 	andeq	r0, r0, r0
     980:	00010000 	andeq	r0, r1, r0
     984:	00010800 	andeq	r0, r1, r0, lsl #16
     988:	53000100 	movwpl	r0, #256	; 0x100
     98c:	00000108 	andeq	r0, r0, r8, lsl #2
     990:	00000110 	andeq	r0, r0, r0, lsl r1
     994:	13500001 	cmpne	r0, #1
     998:	24000001 	strcs	r0, [r0], #-1
     99c:	29000001 	stmdbcs	r0, {r0}
     9a0:	74007500 	strvc	r7, [r0], #-1280	; 0xfffffb00
     9a4:	1a3f2500 	bne	fc9dac <__kernel_end+0xe67dac>
     9a8:	00753723 	rsbseq	r3, r5, r3, lsr #14
     9ac:	3f250074 	svccc	0x00250074
     9b0:	7530231a 	ldrvc	r2, [r0, #-794]!	; 0xfffffce6
     9b4:	25007400 	strcs	r7, [r0, #-1024]	; 0xfffffc00
     9b8:	4b401a3f 	blmi	10072bc <__kernel_end+0xea52bc>
     9bc:	090c2224 	stmdbeq	ip, {r2, r5, r9, sp}
     9c0:	2b800000 	blcs	fe0009c8 <__kernel_end+0xfde9e9c8>
     9c4:	16000128 	strne	r0, [r0], -r8, lsr #2
     9c8:	00009f13 	andeq	r9, r0, r3, lsl pc
     9cc:	00000000 	andeq	r0, r0, r0
     9d0:	002c0000 	eoreq	r0, ip, r0
     9d4:	00330000 	eorseq	r0, r3, r0
     9d8:	00010000 	andeq	r0, r1, r0
     9dc:	00000053 	andeq	r0, r0, r3, asr r0
     9e0:	00000000 	andeq	r0, r0, r0
     9e4:	00005000 	andeq	r5, r0, r0
     9e8:	00005c00 	andeq	r5, r0, r0, lsl #24
     9ec:	50000100 	andpl	r0, r0, r0, lsl #2
     9f0:	0000005c 	andeq	r0, r0, ip, asr r0
     9f4:	00000078 	andeq	r0, r0, r8, ror r0
     9f8:	78540001 	ldmdavc	r4, {r0}^
     9fc:	7c000000 	stcvc	0, cr0, [r0], {-0}
     a00:	03000000 	movweq	r0, #0
     a04:	9f7f7400 	svcls	0x007f7400
     a08:	0000007c 	andeq	r0, r0, ip, ror r0
     a0c:	0000008c 	andeq	r0, r0, ip, lsl #1
     a10:	00540001 	subseq	r0, r4, r1
     a14:	00000000 	andeq	r0, r0, r0
     a18:	50000000 	andpl	r0, r0, r0
     a1c:	67000000 	strvs	r0, [r0, -r0]
     a20:	01000000 	mrseq	r0, (UNDEF: 0)
     a24:	00675100 	rsbeq	r5, r7, r0, lsl #2
     a28:	00700000 	rsbseq	r0, r0, r0
     a2c:	00010000 	andeq	r0, r1, r0
     a30:	00007055 	andeq	r7, r0, r5, asr r0
     a34:	00009c00 	andeq	r9, r0, r0, lsl #24
     a38:	f3000400 	vshl.u8	d0, d0, d0
     a3c:	009f5101 	addseq	r5, pc, r1, lsl #2
     a40:	00000000 	andeq	r0, r0, r0
     a44:	68000000 	stmdavs	r0, {}	; <UNPREDICTABLE>
     a48:	84000000 	strhi	r0, [r0], #-0
     a4c:	02000000 	andeq	r0, r0, #0
     a50:	009f3000 	addseq	r3, pc, r0
     a54:	00000000 	andeq	r0, r0, r0
     a58:	9c000000 	stcls	0, cr0, [r0], {-0}
     a5c:	a8000000 	stmdage	r0, {}	; <UNPREDICTABLE>
     a60:	01000000 	mrseq	r0, (UNDEF: 0)
     a64:	00a85000 	adceq	r5, r8, r0
     a68:	00b00000 	adcseq	r0, r0, r0
     a6c:	00030000 	andeq	r0, r3, r0
     a70:	b09f0170 	addslt	r0, pc, r0, ror r1	; <UNPREDICTABLE>
     a74:	b4000000 	strlt	r0, [r0], #-0
     a78:	01000000 	mrseq	r0, (UNDEF: 0)
     a7c:	00b45000 	adcseq	r5, r4, r0
     a80:	00c00000 	sbceq	r0, r0, r0
     a84:	00030000 	andeq	r0, r3, r0
     a88:	009f0170 	addseq	r0, pc, r0, ror r1	; <UNPREDICTABLE>
     a8c:	00000000 	andeq	r0, r0, r0
     a90:	9c000000 	stcls	0, cr0, [r0], {-0}
     a94:	b4000000 	strlt	r0, [r0], #-0
     a98:	01000000 	mrseq	r0, (UNDEF: 0)
     a9c:	00b45100 	adcseq	r5, r4, r0, lsl #2
     aa0:	00c00000 	sbceq	r0, r0, r0
     aa4:	00010000 	andeq	r0, r1, r0
     aa8:	00000051 	andeq	r0, r0, r1, asr r0
     aac:	00000000 	andeq	r0, r0, r0
     ab0:	00009c00 	andeq	r9, r0, r0, lsl #24
     ab4:	0000ac00 	andeq	sl, r0, r0, lsl #24
     ab8:	52000100 	andpl	r0, r0, #0, 2
     abc:	000000ac 	andeq	r0, r0, ip, lsr #1
     ac0:	000000b0 	strheq	r0, [r0], -r0	; <UNPREDICTABLE>
     ac4:	0070000c 	rsbseq	r0, r0, ip
     ac8:	5201f320 	andpl	pc, r1, #32, 6	; 0x80000000
     acc:	5001f322 	andpl	pc, r1, r2, lsr #6
     ad0:	00b09f22 	adcseq	r9, r0, r2, lsr #30
     ad4:	00b40000 	adcseq	r0, r4, r0
     ad8:	000b0000 	andeq	r0, fp, r0
     adc:	f35001f3 	vbsl	q8, q8, <illegal reg q9.5>
     ae0:	70225201 	eorvc	r5, r2, r1, lsl #4
     ae4:	b49f1c00 	ldrlt	r1, [pc], #3072	; aec <SCTLR_ENABLE_BRANCH_PREDICTION+0x2ec>
     ae8:	c0000000 	andgt	r0, r0, r0
     aec:	0c000000 	stceq	0, cr0, [r0], {-0}
     af0:	20007000 	andcs	r7, r0, r0
     af4:	225201f3 	subscs	r0, r2, #-1073741764	; 0xc000003c
     af8:	225001f3 	subscs	r0, r0, #-1073741764	; 0xc000003c
     afc:	0000009f 	muleq	r0, pc, r0	; <UNPREDICTABLE>
     b00:	00000000 	andeq	r0, r0, r0
     b04:	0000c000 	andeq	ip, r0, r0
     b08:	0000cc00 	andeq	ip, r0, r0, lsl #24
     b0c:	51000100 	mrspl	r0, (UNDEF: 16)
     b10:	000000cc 	andeq	r0, r0, ip, asr #1
     b14:	000000dc 	ldrdeq	r0, [r0], -ip
     b18:	01f30004 	mvnseq	r0, r4
     b1c:	00009f51 	andeq	r9, r0, r1, asr pc
     b20:	00000000 	andeq	r0, r0, r0
     b24:	00c00000 	sbceq	r0, r0, r0
     b28:	00c80000 	sbceq	r0, r8, r0
     b2c:	00010000 	andeq	r0, r1, r0
     b30:	0000c852 	andeq	ip, r0, r2, asr r8
     b34:	0000dc00 	andeq	sp, r0, r0, lsl #24
     b38:	f3000400 	vshl.u8	d0, d0, d0
     b3c:	009f5201 	addseq	r5, pc, r1, lsl #4
     b40:	00000000 	andeq	r0, r0, r0
     b44:	c4000000 	strgt	r0, [r0], #-0
     b48:	d0000000 	andle	r0, r0, r0
     b4c:	01000000 	mrseq	r0, (UNDEF: 0)
     b50:	00005300 	andeq	r5, r0, r0, lsl #6
     b54:	00000000 	andeq	r0, r0, r0
     b58:	025c0000 	subseq	r0, ip, #0
     b5c:	02d40000 	sbcseq	r0, r4, #0
     b60:	00010000 	andeq	r0, r1, r0
     b64:	00000055 	andeq	r0, r0, r5, asr r0
     b68:	00000000 	andeq	r0, r0, r0
     b6c:	0000cc00 	andeq	ip, r0, r0, lsl #24
     b70:	0000d000 	andeq	sp, r0, r0
     b74:	50000100 	andpl	r0, r0, r0, lsl #2
     b78:	000000d0 	ldrdeq	r0, [r0], -r0	; <UNPREDICTABLE>
     b7c:	000000ec 	andeq	r0, r0, ip, ror #1
     b80:	00540001 	subseq	r0, r4, r1
	...
     b8c:	04000000 	streq	r0, [r0], #-0
     b90:	01000000 	mrseq	r0, (UNDEF: 0)
     b94:	00045000 	andeq	r5, r4, r0
     b98:	004c0000 	subeq	r0, ip, r0
     b9c:	00040000 	andeq	r0, r4, r0
     ba0:	9f5001f3 	svcls	0x005001f3
	...
     bb0:	00000013 	andeq	r0, r0, r3, lsl r0
     bb4:	13510001 	cmpne	r1, #1
     bb8:	4c000000 	stcmi	0, cr0, [r0], {-0}
     bbc:	04000000 	streq	r0, [r0], #-0
     bc0:	5101f300 	mrspl	pc, SP_irq	; <UNPREDICTABLE>
     bc4:	0000009f 	muleq	r0, pc, r0	; <UNPREDICTABLE>
	...
     bd0:	00001300 	andeq	r1, r0, r0, lsl #6
     bd4:	52000100 	andpl	r0, r0, #0, 2
     bd8:	00000013 	andeq	r0, r0, r3, lsl r0
     bdc:	0000004c 	andeq	r0, r0, ip, asr #32
     be0:	01f30004 	mvnseq	r0, r4
     be4:	00009f52 	andeq	r9, r0, r2, asr pc
	...
     bf0:	00100000 	andseq	r0, r0, r0
     bf4:	00010000 	andeq	r0, r1, r0
     bf8:	00001051 	andeq	r1, r0, r1, asr r0
     bfc:	00002400 	andeq	r2, r0, r0, lsl #8
     c00:	f3000400 	vshl.u8	d0, d0, d0
     c04:	009f5101 	addseq	r5, pc, r1, lsl #2
	...
     c10:	10000000 	andne	r0, r0, r0
     c14:	01000000 	mrseq	r0, (UNDEF: 0)
     c18:	00105200 	andseq	r5, r0, r0, lsl #4
     c1c:	00240000 	eoreq	r0, r4, r0
     c20:	00040000 	andeq	r0, r4, r0
     c24:	9f5201f3 	svcls	0x005201f3
	...
     c30:	00000004 	andeq	r0, r0, r4
     c34:	00000010 	andeq	r0, r0, r0, lsl r0
     c38:	10510001 	subsne	r0, r1, r1
     c3c:	24000000 	strcs	r0, [r0], #-0
     c40:	04000000 	streq	r0, [r0], #-0
     c44:	5101f300 	mrspl	pc, SP_irq	; <UNPREDICTABLE>
     c48:	0000009f 	muleq	r0, pc, r0	; <UNPREDICTABLE>
     c4c:	00000000 	andeq	r0, r0, r0
     c50:	00000400 	andeq	r0, r0, r0, lsl #8
     c54:	00001000 	andeq	r1, r0, r0
     c58:	30000200 	andcc	r0, r0, r0, lsl #4
     c5c:	0000109f 	muleq	r0, pc, r0	; <UNPREDICTABLE>
     c60:	00001400 	andeq	r1, r0, r0, lsl #8
     c64:	71000700 	tstvc	r0, r0, lsl #14
     c68:	5101f300 	mrspl	pc, SP_irq	; <UNPREDICTABLE>
     c6c:	00149f1c 	andseq	r9, r4, ip, lsl pc
     c70:	001c0000 	andseq	r0, ip, r0
     c74:	00080000 	andeq	r0, r8, r0
     c78:	205101f3 	ldrshcs	r0, [r1], #-19	; 0xffffffed
     c7c:	9f220071 	svcls	0x00220071
     c80:	0000001c 	andeq	r0, r0, ip, lsl r0
     c84:	00000024 	andeq	r0, r0, r4, lsr #32
     c88:	00710007 	rsbseq	r0, r1, r7
     c8c:	1c5101f3 	ldfnee	f0, [r1], {243}	; 0xf3
     c90:	0000009f 	muleq	r0, pc, r0	; <UNPREDICTABLE>
	...
     c9c:	00000800 	andeq	r0, r0, r0, lsl #16
     ca0:	50000100 	andpl	r0, r0, r0, lsl #2
     ca4:	00000008 	andeq	r0, r0, r8
     ca8:	00000018 	andeq	r0, r0, r8, lsl r0
     cac:	01f30004 	mvnseq	r0, r4
     cb0:	00009f50 	andeq	r9, r0, r0, asr pc
	...
     cbc:	000b0000 	andeq	r0, fp, r0
     cc0:	00010000 	andeq	r0, r1, r0
     cc4:	00000b51 	andeq	r0, r0, r1, asr fp
     cc8:	00001800 	andeq	r1, r0, r0, lsl #16
     ccc:	f3000400 	vshl.u8	d0, d0, d0
     cd0:	009f5101 	addseq	r5, pc, r1, lsl #2
	...
     cdc:	1c000000 	stcne	0, cr0, [r0], {-0}
     ce0:	01000000 	mrseq	r0, (UNDEF: 0)
     ce4:	001c5000 	andseq	r5, ip, r0
     ce8:	00440000 	subeq	r0, r4, r0
     cec:	00030000 	andeq	r0, r3, r0
     cf0:	447ee491 	ldrbtmi	lr, [lr], #-1169	; 0xfffffb6f
     cf4:	88000000 	stmdahi	r0, {}	; <UNPREDICTABLE>
     cf8:	01000000 	mrseq	r0, (UNDEF: 0)
     cfc:	00885300 	addeq	r5, r8, r0, lsl #6
     d00:	00ac0000 	adceq	r0, ip, r0
     d04:	00030000 	andeq	r0, r3, r0
     d08:	ac7ee491 	cfldrdge	mvd14, [lr], #-580	; 0xfffffdbc
     d0c:	d0000000 	andle	r0, r0, r0
     d10:	01000000 	mrseq	r0, (UNDEF: 0)
     d14:	00d05300 	sbcseq	r5, r0, r0, lsl #6
     d18:	00d80000 	sbcseq	r0, r8, r0
     d1c:	00030000 	andeq	r0, r3, r0
     d20:	e89f7f73 	ldm	pc, {r0, r1, r4, r5, r6, r8, r9, sl, fp, ip, sp, lr}	; <UNPREDICTABLE>
     d24:	d4000000 	strle	r0, [r0], #-0
     d28:	01000001 	tsteq	r0, r1
     d2c:	01d45300 	bicseq	r5, r4, r0, lsl #6
     d30:	01e00000 	mvneq	r0, r0
     d34:	00030000 	andeq	r0, r3, r0
     d38:	e09f7f73 	adds	r7, pc, r3, ror pc	; <UNPREDICTABLE>
     d3c:	e4000001 	str	r0, [r0], #-1
     d40:	01000001 	tsteq	r0, r1
     d44:	01e45300 	mvneq	r5, r0, lsl #6
     d48:	02f40000 	rscseq	r0, r4, #0
     d4c:	00030000 	andeq	r0, r3, r0
     d50:	f47ee491 			; <UNDEFINED> instruction: 0xf47ee491
     d54:	1c000002 	stcne	0, cr0, [r0], {2}
     d58:	01000003 	tsteq	r0, r3
     d5c:	031c5300 	tsteq	ip, #0, 6
     d60:	03240000 			; <UNDEFINED> instruction: 0x03240000
     d64:	00030000 	andeq	r0, r3, r0
     d68:	249f0173 	ldrcs	r0, [pc], #371	; d70 <SCTLR_ENABLE_BRANCH_PREDICTION+0x570>
     d6c:	28000003 	stmdacs	r0, {r0, r1}
     d70:	01000003 	tsteq	r0, r3
     d74:	03285300 			; <UNDEFINED> instruction: 0x03285300
     d78:	03300000 	teqeq	r0, #0
     d7c:	00030000 	andeq	r0, r3, r0
     d80:	309f0173 	addscc	r0, pc, r3, ror r1	; <UNPREDICTABLE>
     d84:	34000003 	strcc	r0, [r0], #-3
     d88:	01000003 	tsteq	r0, r3
     d8c:	03345300 	teqeq	r4, #0, 6
     d90:	03540000 	cmpeq	r4, #0
     d94:	00030000 	andeq	r0, r3, r0
     d98:	549f0173 	ldrpl	r0, [pc], #371	; da0 <SCTLR_ENABLE_BRANCH_PREDICTION+0x5a0>
     d9c:	5c000003 	stcpl	0, cr0, [r0], {3}
     da0:	01000003 	tsteq	r0, r3
     da4:	035c5300 	cmpeq	ip, #0, 6
     da8:	03640000 	cmneq	r4, #0
     dac:	00030000 	andeq	r0, r3, r0
     db0:	789f7f73 	ldmvc	pc, {r0, r1, r4, r5, r6, r8, r9, sl, fp, ip, sp, lr}	; <UNPREDICTABLE>
     db4:	88000003 	stmdahi	r0, {r0, r1}
     db8:	03000003 	movweq	r0, #3
     dbc:	9f017300 	svcls	0x00017300
     dc0:	00000388 	andeq	r0, r0, r8, lsl #7
     dc4:	0000038c 	andeq	r0, r0, ip, lsl #7
     dc8:	02730003 	rsbseq	r0, r3, #3
     dcc:	0003909f 	muleq	r3, pc, r0	; <UNPREDICTABLE>
     dd0:	0003ac00 	andeq	sl, r3, r0, lsl #24
     dd4:	53000100 	movwpl	r0, #256	; 0x100
     dd8:	000003ac 	andeq	r0, r0, ip, lsr #7
     ddc:	000003b4 			; <UNDEFINED> instruction: 0x000003b4
     de0:	7f730003 	svcvc	0x00730003
     de4:	0003b49f 	muleq	r3, pc, r4	; <UNPREDICTABLE>
     de8:	0003b700 	andeq	fp, r3, r0, lsl #14
     dec:	53000100 	movwpl	r0, #256	; 0x100
     df0:	000003b7 			; <UNDEFINED> instruction: 0x000003b7
     df4:	00000480 	andeq	r0, r0, r0, lsl #9
     df8:	e4910003 	ldr	r0, [r1], #3
     dfc:	0004807e 	andeq	r8, r4, lr, ror r0
     e00:	00051c00 	andeq	r1, r5, r0, lsl #24
     e04:	53000100 	movwpl	r0, #256	; 0x100
     e08:	0000051c 	andeq	r0, r0, ip, lsl r5
     e0c:	00000520 	andeq	r0, r0, r0, lsr #10
     e10:	7f730003 	svcvc	0x00730003
     e14:	0005209f 	muleq	r5, pc, r0	; <UNPREDICTABLE>
     e18:	00052400 	andeq	r2, r5, r0, lsl #8
     e1c:	53000100 	movwpl	r0, #256	; 0x100
     e20:	00000524 	andeq	r0, r0, r4, lsr #10
     e24:	000006a4 	andeq	r0, r0, r4, lsr #13
     e28:	e4910003 	ldr	r0, [r1], #3
     e2c:	0006a47e 	andeq	sl, r6, lr, ror r4
     e30:	0006ac00 	andeq	sl, r6, r0, lsl #24
     e34:	73000300 	movwvc	r0, #768	; 0x300
     e38:	06ac9f01 	strteq	r9, [ip], r1, lsl #30
     e3c:	06bc0000 	ldrteq	r0, [ip], r0
     e40:	00030000 	andeq	r0, r3, r0
     e44:	bc9f0273 	lfmlt	f0, 4, [pc], {115}	; 0x73
     e48:	c0000006 	andgt	r0, r0, r6
     e4c:	01000006 	tsteq	r0, r6
     e50:	06c05300 	strbeq	r5, [r0], r0, lsl #6
     e54:	06e00000 	strbteq	r0, [r0], r0
     e58:	00030000 	andeq	r0, r3, r0
     e5c:	e07ee491 			; <UNDEFINED> instruction: 0xe07ee491
     e60:	e8000006 	stmda	r0, {r1, r2}
     e64:	01000006 	tsteq	r0, r6
     e68:	06e85300 	strbteq	r5, [r8], r0, lsl #6
     e6c:	07000000 	streq	r0, [r0, -r0]
     e70:	00030000 	andeq	r0, r3, r0
     e74:	007ee491 			; <UNDEFINED> instruction: 0x007ee491
     e78:	18000007 	stmdane	r0, {r0, r1, r2}
     e7c:	01000007 	tsteq	r0, r7
     e80:	07185300 	ldreq	r5, [r8, -r0, lsl #6]
     e84:	07280000 	streq	r0, [r8, -r0]!
     e88:	00030000 	andeq	r0, r3, r0
     e8c:	287ee491 	ldmdacs	lr!, {r0, r4, r7, sl, sp, lr, pc}^
     e90:	30000007 	andcc	r0, r0, r7
     e94:	01000007 	tsteq	r0, r7
     e98:	07305300 	ldreq	r5, [r0, -r0, lsl #6]!
     e9c:	074c0000 	strbeq	r0, [ip, -r0]
     ea0:	00030000 	andeq	r0, r3, r0
     ea4:	007ee491 			; <UNDEFINED> instruction: 0x007ee491
	...
     eb0:	84000000 	strhi	r0, [r0], #-0
     eb4:	01000000 	mrseq	r0, (UNDEF: 0)
     eb8:	00885100 	addeq	r5, r8, r0, lsl #2
     ebc:	008c0000 	addeq	r0, ip, r0
     ec0:	00010000 	andeq	r0, r1, r0
     ec4:	0000b051 	andeq	fp, r0, r1, asr r0
     ec8:	0000c000 	andeq	ip, r0, r0
     ecc:	51000100 	mrspl	r0, (UNDEF: 16)
     ed0:	000002e8 	andeq	r0, r0, r8, ror #5
     ed4:	0000030c 	andeq	r0, r0, ip, lsl #6
     ed8:	e0510001 	subs	r0, r1, r1
     edc:	e8000006 	stmda	r0, {r1, r2}
     ee0:	01000006 	tsteq	r0, r6
     ee4:	00005100 	andeq	r5, r0, r0, lsl #2
	...
     ef0:	001c0000 	andseq	r0, ip, r0
     ef4:	00010000 	andeq	r0, r1, r0
     ef8:	00001c52 	andeq	r1, r0, r2, asr ip
     efc:	00074c00 	andeq	r4, r7, r0, lsl #24
     f00:	f3000400 	vshl.u8	d0, d0, d0
     f04:	009f5201 	addseq	r5, pc, r1, lsl #4
	...
     f10:	1c000000 	stcne	0, cr0, [r0], {-0}
     f14:	01000000 	mrseq	r0, (UNDEF: 0)
     f18:	001c5300 	andseq	r5, ip, r0, lsl #6
     f1c:	02f00000 	rscseq	r0, r0, #0
     f20:	00010000 	andeq	r0, r1, r0
     f24:	0002f05a 	andeq	pc, r2, sl, asr r0	; <UNPREDICTABLE>
     f28:	0002f400 	andeq	pc, r2, r0, lsl #8
     f2c:	f3000400 	vshl.u8	d0, d0, d0
     f30:	f49f5301 			; <UNDEFINED> instruction: 0xf49f5301
     f34:	4c000002 	stcmi	0, cr0, [r0], {2}
     f38:	01000007 	tsteq	r0, r7
     f3c:	00005a00 	andeq	r5, r0, r0, lsl #20
     f40:	00000000 	andeq	r0, r0, r0
     f44:	001c0000 	andseq	r0, ip, r0
     f48:	02400000 	subeq	r0, r0, #0
     f4c:	00010000 	andeq	r0, r1, r0
     f50:	0002a45b 	andeq	sl, r2, fp, asr r4
     f54:	0002e400 	andeq	lr, r2, r0, lsl #8
     f58:	5b000100 	blpl	1360 <SCTLR_ENABLE_INSTRUCTION_CACHE+0x360>
     f5c:	000002f4 	strdeq	r0, [r0], -r4
     f60:	000003f4 	strdeq	r0, [r0], -r4
     f64:	2c5b0001 	mrrccs	0, 0, r0, fp, cr1
     f68:	44000004 	strmi	r0, [r0], #-4
     f6c:	01000004 	tsteq	r0, r4
     f70:	04445b00 	strbeq	r5, [r4], #-2816	; 0xfffff500
     f74:	04800000 	streq	r0, [r0], #0
     f78:	00010000 	andeq	r0, r1, r0
     f7c:	00048056 	andeq	r8, r4, r6, asr r0
     f80:	00057000 	andeq	r7, r5, r0
     f84:	5b000100 	blpl	138c <SCTLR_ENABLE_INSTRUCTION_CACHE+0x38c>
     f88:	00000570 	andeq	r0, r0, r0, ror r5
     f8c:	000005c8 	andeq	r0, r0, r8, asr #11
     f90:	80910003 	addshi	r0, r1, r3
     f94:	0005c87f 	andeq	ip, r5, pc, ror r8
     f98:	0005cc00 	andeq	ip, r5, r0, lsl #24
     f9c:	5b000100 	blpl	13a4 <SCTLR_ENABLE_INSTRUCTION_CACHE+0x3a4>
     fa0:	000005cc 	andeq	r0, r0, ip, asr #11
     fa4:	00000608 	andeq	r0, r0, r8, lsl #12
     fa8:	08580001 	ldmdaeq	r8, {r0}^
     fac:	28000006 	stmdacs	r0, {r1, r2}
     fb0:	01000006 	tsteq	r0, r6
     fb4:	06485b00 	strbeq	r5, [r8], -r0, lsl #22
     fb8:	06580000 	ldrbeq	r0, [r8], -r0
     fbc:	00010000 	andeq	r0, r1, r0
     fc0:	00065858 	andeq	r5, r6, r8, asr r8
     fc4:	00069400 	andeq	r9, r6, r0, lsl #8
     fc8:	5b000100 	blpl	13d0 <SCTLR_ENABLE_INSTRUCTION_CACHE+0x3d0>
     fcc:	000006a4 	andeq	r0, r0, r4, lsr #13
     fd0:	000006e8 	andeq	r0, r0, r8, ror #13
     fd4:	e85b0001 	ldmda	fp, {r0}^
     fd8:	fc000006 	stc2	0, cr0, [r0], {6}
     fdc:	01000006 	tsteq	r0, r6
     fe0:	06fc5600 	ldrbteq	r5, [ip], r0, lsl #12
     fe4:	074c0000 	strbeq	r0, [ip, -r0]
     fe8:	00010000 	andeq	r0, r1, r0
     fec:	0000005b 	andeq	r0, r0, fp, asr r0
     ff0:	00000000 	andeq	r0, r0, r0
     ff4:	0002b000 	andeq	fp, r2, r0
     ff8:	0002e400 	andeq	lr, r2, r0, lsl #8
     ffc:	30000200 	andcc	r0, r0, r0, lsl #4
    1000:	00042c9f 	muleq	r4, pc, ip	; <UNPREDICTABLE>
    1004:	00048000 	andeq	r8, r4, r0
    1008:	30000200 	andcc	r0, r0, r0, lsl #4
    100c:	0005c89f 	muleq	r5, pc, r8	; <UNPREDICTABLE>
    1010:	0005e000 	andeq	lr, r5, r0
    1014:	30000200 	andcc	r0, r0, r0, lsl #4
    1018:	0006489f 	muleq	r6, pc, r8	; <UNPREDICTABLE>
    101c:	00064c00 	andeq	r4, r6, r0, lsl #24
    1020:	30000200 	andcc	r0, r0, r0, lsl #4
    1024:	0006589f 	muleq	r6, pc, r8	; <UNPREDICTABLE>
    1028:	00069400 	andeq	r9, r6, r0, lsl #8
    102c:	30000200 	andcc	r0, r0, r0, lsl #4
    1030:	0006e89f 	muleq	r6, pc, r8	; <UNPREDICTABLE>
    1034:	00070000 	andeq	r0, r7, r0
    1038:	30000200 	andcc	r0, r0, r0, lsl #4
    103c:	0000009f 	muleq	r0, pc, r0	; <UNPREDICTABLE>
    1040:	00000000 	andeq	r0, r0, r0
    1044:	00008400 	andeq	r8, r0, r0, lsl #8
    1048:	00008800 	andeq	r8, r0, r0, lsl #16
    104c:	91000400 	tstls	r0, r0, lsl #8
    1050:	189f7f88 	ldmne	pc, {r3, r7, r8, r9, sl, fp, ip, sp, lr}	; <UNPREDICTABLE>
    1054:	64000001 	strvs	r0, [r0], #-1
    1058:	04000002 	streq	r0, [r0], #-2
    105c:	7f889100 	svcvc	0x00889100
    1060:	0002649f 	muleq	r2, pc, r4	; <UNPREDICTABLE>
    1064:	00026700 	andeq	r6, r2, r0, lsl #14
    1068:	50000100 	andpl	r0, r0, r0, lsl #2
    106c:	00000267 	andeq	r0, r0, r7, ror #4
    1070:	00000294 	muleq	r0, r4, r2
    1074:	88910004 	ldmhi	r1, {r2}
    1078:	02949f7f 	addseq	r9, r4, #508	; 0x1fc
    107c:	02a40000 	adceq	r0, r4, #0
    1080:	00010000 	andeq	r0, r1, r0
    1084:	00039059 	andeq	r9, r3, r9, asr r0
    1088:	0003a000 	andeq	sl, r3, r0
    108c:	91000400 	tstls	r0, r0, lsl #8
    1090:	809f7f88 	addshi	r7, pc, r8, lsl #31
    1094:	f0000004 			; <UNDEFINED> instruction: 0xf0000004
    1098:	04000004 	streq	r0, [r0], #-4
    109c:	7f889100 	svcvc	0x00889100
    10a0:	0004f09f 	muleq	r4, pc, r0	; <UNPREDICTABLE>
    10a4:	0004f400 	andeq	pc, r4, r0, lsl #8
    10a8:	59000100 	stmdbpl	r0, {r8}
    10ac:	000004f4 	strdeq	r0, [r0], -r4
    10b0:	000005c8 	andeq	r0, r0, r8, asr #11
    10b4:	88910004 	ldmhi	r1, {r2}
    10b8:	06289f7f 	qsub16eq	r9, r8, pc	; <UNPREDICTABLE>
    10bc:	06380000 	ldrteq	r0, [r8], -r0
    10c0:	00040000 	andeq	r0, r4, r0
    10c4:	9f7f8891 	svcls	0x007f8891
    10c8:	00000638 	andeq	r0, r0, r8, lsr r6
    10cc:	00000648 	andeq	r0, r0, r8, asr #12
    10d0:	94590001 	ldrbls	r0, [r9], #-1
    10d4:	a4000006 	strge	r0, [r0], #-6
    10d8:	01000006 	tsteq	r0, r6
    10dc:	07005900 	streq	r5, [r0, -r0, lsl #18]
    10e0:	07280000 	streq	r0, [r8, -r0]!
    10e4:	00040000 	andeq	r0, r4, r0
    10e8:	9f7f8891 	svcls	0x007f8891
    10ec:	00000728 	andeq	r0, r0, r8, lsr #14
    10f0:	00000730 	andeq	r0, r0, r0, lsr r7
    10f4:	bc030006 	stclt	0, cr0, [r3], {6}
    10f8:	9f0000b3 	svcls	0x000000b3
    10fc:	00000730 	andeq	r0, r0, r0, lsr r7
    1100:	0000074c 	andeq	r0, r0, ip, asr #14
    1104:	88910004 	ldmhi	r1, {r2}
    1108:	00009f7f 	andeq	r9, r0, pc, ror pc
    110c:	00000000 	andeq	r0, r0, r0
    1110:	00840000 	addeq	r0, r4, r0
    1114:	00880000 	addeq	r0, r8, r0
    1118:	00030000 	andeq	r0, r3, r0
    111c:	e87eec91 	ldmda	lr!, {r0, r4, r7, sl, fp, sp, lr, pc}^
    1120:	e4000000 	str	r0, [r0], #-0
    1124:	03000002 	movweq	r0, #2
    1128:	7eec9100 	urdvce	f1, f0
    112c:	0000031c 	andeq	r0, r0, ip, lsl r3
    1130:	00000334 	andeq	r0, r0, r4, lsr r3
    1134:	ec910003 	ldc	0, cr0, [r1], {3}
    1138:	0003347e 	andeq	r3, r3, lr, ror r4
    113c:	00034800 	andeq	r4, r3, r0, lsl #16
    1140:	51000100 	mrspl	r0, (UNDEF: 16)
    1144:	00000348 	andeq	r0, r0, r8, asr #6
    1148:	000006a4 	andeq	r0, r0, r4, lsr #13
    114c:	ec910003 	ldc	0, cr0, [r1], {3}
    1150:	0006a47e 	andeq	sl, r6, lr, ror r4
    1154:	0006c000 	andeq	ip, r6, r0
    1158:	51000100 	mrspl	r0, (UNDEF: 16)
    115c:	000006c0 	andeq	r0, r0, r0, asr #13
    1160:	000006e0 	andeq	r0, r0, r0, ror #13
    1164:	ec910003 	ldc	0, cr0, [r1], {3}
    1168:	0006e87e 	andeq	lr, r6, lr, ror r8
    116c:	00074c00 	andeq	r4, r7, r0, lsl #24
    1170:	91000300 	mrsls	r0, LR_irq
    1174:	00007eec 	andeq	r7, r0, ip, ror #29
    1178:	00000000 	andeq	r0, r0, r0
    117c:	00840000 	addeq	r0, r4, r0
    1180:	00880000 	addeq	r0, r8, r0
    1184:	00030000 	andeq	r0, r3, r0
    1188:	007ee891 			; <UNDEFINED> instruction: 0x007ee891
    118c:	80000001 	andhi	r0, r0, r1
    1190:	03000002 	movweq	r0, #2
    1194:	7ee89100 	urdvce	f1, f0
    1198:	00000280 	andeq	r0, r0, r0, lsl #5
    119c:	000002a4 	andeq	r0, r0, r4, lsr #5
    11a0:	20080003 	andcs	r0, r8, r3
    11a4:	0003289f 	muleq	r3, pc, r8	; <UNPREDICTABLE>
    11a8:	00040c00 	andeq	r0, r4, r0, lsl #24
    11ac:	91000300 	mrsls	r0, LR_irq
    11b0:	04807ee8 	streq	r7, [r0], #3816	; 0xee8
    11b4:	05c80000 	strbeq	r0, [r8]
    11b8:	00030000 	andeq	r0, r3, r0
    11bc:	287ee891 	ldmdacs	lr!, {r0, r4, r7, fp, sp, lr, pc}^
    11c0:	48000006 	stmdami	r0, {r1, r2}
    11c4:	03000006 	movweq	r0, #6
    11c8:	7ee89100 	urdvce	f1, f0
    11cc:	00000694 	muleq	r0, r4, r6
    11d0:	000006a4 	andeq	r0, r0, r4, lsr #13
    11d4:	20080003 	andcs	r0, r8, r3
    11d8:	0006a49f 	muleq	r6, pc, r4	; <UNPREDICTABLE>
    11dc:	0006e000 	andeq	lr, r6, r0
    11e0:	91000300 	mrsls	r0, LR_irq
    11e4:	07007ee8 	streq	r7, [r0, -r8, ror #29]
    11e8:	074c0000 	strbeq	r0, [ip, -r0]
    11ec:	00030000 	andeq	r0, r3, r0
    11f0:	007ee891 			; <UNDEFINED> instruction: 0x007ee891
    11f4:	00000000 	andeq	r0, r0, r0
    11f8:	84000000 	strhi	r0, [r0], #-0
    11fc:	88000000 	stmdahi	r0, {}	; <UNPREDICTABLE>
    1200:	01000000 	mrseq	r0, (UNDEF: 0)
    1204:	00b05500 	adcseq	r5, r0, r0, lsl #10
    1208:	00cc0000 	sbceq	r0, ip, r0
    120c:	00020000 	andeq	r0, r2, r0
    1210:	00cc9f30 	sbceq	r9, ip, r0, lsr pc
    1214:	00d40000 	sbcseq	r0, r4, r0
    1218:	00010000 	andeq	r0, r1, r0
    121c:	0000d455 	andeq	sp, r0, r5, asr r4
    1220:	0000d800 	andeq	sp, r0, r0, lsl #16
    1224:	75000500 	strvc	r0, [r0, #-1280]	; 0xfffffb00
    1228:	9f243100 	svcls	0x00243100
    122c:	000000d8 	ldrdeq	r0, [r0], -r8
    1230:	00000240 	andeq	r0, r0, r0, asr #4
    1234:	fc550001 	mrrc2	0, 0, r0, r5, cr1
    1238:	10000002 	andne	r0, r0, r2
    123c:	02000003 	andeq	r0, r0, #3
    1240:	109f3000 	addsne	r3, pc, r0
    1244:	f4000003 	vst4.8	{d0-d3}, [r0], r3
    1248:	01000003 	tsteq	r0, r3
    124c:	04805500 	streq	r5, [r0], #1280	; 0x500
    1250:	05780000 	ldrbeq	r0, [r8, #-0]!
    1254:	00010000 	andeq	r0, r1, r0
    1258:	00057855 	andeq	r7, r5, r5, asr r8
    125c:	0005c800 	andeq	ip, r5, r0, lsl #16
    1260:	91000300 	mrsls	r0, LR_irq
    1264:	06a47f84 	strteq	r7, [r4], r4, lsl #31
    1268:	06e00000 	strbteq	r0, [r0], r0
    126c:	00010000 	andeq	r0, r1, r0
    1270:	00070055 	andeq	r0, r7, r5, asr r0
    1274:	00074c00 	andeq	r4, r7, r0, lsl #24
    1278:	55000100 	strpl	r0, [r0, #-256]	; 0xffffff00
	...
    1284:	00000084 	andeq	r0, r0, r4, lsl #1
    1288:	00000088 	andeq	r0, r0, r8, lsl #1
    128c:	00580001 	subseq	r0, r8, r1
    1290:	08000001 	stmdaeq	r0, {r0}
    1294:	03000001 	movweq	r0, #1
    1298:	9fff0900 	svcls	0x00ff0900
    129c:	00000108 	andeq	r0, r0, r8, lsl #2
    12a0:	0000027c 	andeq	r0, r0, ip, ror r2
    12a4:	28580001 	ldmdacs	r8, {r0}^
    12a8:	34000003 	strcc	r0, [r0], #-3
    12ac:	01000003 	tsteq	r0, r3
    12b0:	03345800 	teqeq	r4, #0, 16
    12b4:	03540000 	cmpeq	r4, #0
    12b8:	00030000 	andeq	r0, r3, r0
    12bc:	549fff09 	ldrpl	pc, [pc], #3849	; 12c4 <SCTLR_ENABLE_INSTRUCTION_CACHE+0x2c4>
    12c0:	58000003 	stmdapl	r0, {r0, r1}
    12c4:	02000003 	andeq	r0, r0, #3
    12c8:	589f3000 	ldmpl	pc, {ip, sp}	; <UNPREDICTABLE>
    12cc:	60000003 	andvs	r0, r0, r3
    12d0:	01000003 	tsteq	r0, r3
    12d4:	03605800 	cmneq	r0, #0, 16
    12d8:	03640000 	cmneq	r4, #0
    12dc:	00050000 	andeq	r0, r5, r0
    12e0:	24310078 	ldrtcs	r0, [r1], #-120	; 0xffffff88
    12e4:	0003649f 	muleq	r3, pc, r4	; <UNPREDICTABLE>
    12e8:	0003f800 	andeq	pc, r3, r0, lsl #16
    12ec:	58000100 	stmdapl	r0, {r8}
    12f0:	00000480 	andeq	r0, r0, r0, lsl #9
    12f4:	000005c8 	andeq	r0, r0, r8, asr #11
    12f8:	28580001 	ldmdacs	r8, {r0}^
    12fc:	48000006 	stmdami	r0, {r1, r2}
    1300:	01000006 	tsteq	r0, r6
    1304:	06a45800 	strteq	r5, [r4], r0, lsl #16
    1308:	06ac0000 	strteq	r0, [ip], r0
    130c:	00030000 	andeq	r0, r3, r0
    1310:	ac9fff09 	ldcge	15, cr15, [pc], {9}
    1314:	e0000006 	and	r0, r0, r6
    1318:	01000006 	tsteq	r0, r6
    131c:	07005800 	streq	r5, [r0, -r0, lsl #16]
    1320:	074c0000 	strbeq	r0, [ip, -r0]
    1324:	00010000 	andeq	r0, r1, r0
    1328:	00000058 	andeq	r0, r0, r8, asr r0
    132c:	00000000 	andeq	r0, r0, r0
    1330:	00010800 	andeq	r0, r1, r0, lsl #16
    1334:	00011800 	andeq	r1, r1, r0, lsl #16
    1338:	32000200 	andcc	r0, r0, #0, 4
    133c:	0003289f 	muleq	r3, pc, r8	; <UNPREDICTABLE>
    1340:	00033400 	andeq	r3, r3, r0, lsl #8
    1344:	33000200 	movwcc	r0, #512	; 0x200
    1348:	0003789f 	muleq	r3, pc, r8	; <UNPREDICTABLE>
    134c:	00039000 	andeq	r9, r3, r0
    1350:	30000200 	andcc	r0, r0, r0, lsl #4
    1354:	0000009f 	muleq	r0, pc, r0	; <UNPREDICTABLE>
    1358:	00000000 	andeq	r0, r0, r0
    135c:	00008400 	andeq	r8, r0, r0, lsl #8
    1360:	00008800 	andeq	r8, r0, r0, lsl #16
    1364:	30000200 	andcc	r0, r0, r0, lsl #4
    1368:	0001189f 	muleq	r1, pc, r8	; <UNPREDICTABLE>
    136c:	00024000 	andeq	r4, r2, r0
    1370:	30000200 	andcc	r0, r0, r0, lsl #4
    1374:	0003909f 	muleq	r3, pc, r0	; <UNPREDICTABLE>
    1378:	0003f400 	andeq	pc, r3, r0, lsl #8
    137c:	30000200 	andcc	r0, r0, r0, lsl #4
    1380:	0004809f 	muleq	r4, pc, r0	; <UNPREDICTABLE>
    1384:	00051800 	andeq	r1, r5, r0, lsl #16
    1388:	30000200 	andcc	r0, r0, r0, lsl #4
    138c:	0005189f 	muleq	r5, pc, r8	; <UNPREDICTABLE>
    1390:	00053400 	andeq	r3, r5, r0, lsl #8
    1394:	91000300 	mrsls	r0, LR_irq
    1398:	06c07ef8 			; <UNDEFINED> instruction: 0x06c07ef8
    139c:	06e00000 	strbteq	r0, [r0], r0
    13a0:	00020000 	andeq	r0, r2, r0
    13a4:	07009f30 	smladxeq	r0, r0, pc, r9	; <UNPREDICTABLE>
    13a8:	07180000 	ldreq	r0, [r8, -r0]
    13ac:	00030000 	andeq	r0, r3, r0
    13b0:	189f2d08 	ldmne	pc, {r3, r8, sl, fp, sp}	; <UNPREDICTABLE>
    13b4:	4c000007 	stcmi	0, cr0, [r0], {7}
    13b8:	02000007 	andeq	r0, r0, #7
    13bc:	009f3000 	addseq	r3, pc, r0
    13c0:	00000000 	andeq	r0, r0, r0
    13c4:	fc000000 	stc2	0, cr0, [r0], {-0}
    13c8:	18000004 	stmdane	r0, {r2}
    13cc:	01000005 	tsteq	r0, r5
    13d0:	07005400 	streq	r5, [r0, -r0, lsl #8]
    13d4:	07100000 	ldreq	r0, [r0, -r0]
    13d8:	00010000 	andeq	r0, r1, r0
    13dc:	00071054 	andeq	r1, r7, r4, asr r0
    13e0:	00071800 	andeq	r1, r7, r0, lsl #16
    13e4:	74000400 	strvc	r0, [r0], #-1024	; 0xfffffc00
    13e8:	009f1f00 	addseq	r1, pc, r0, lsl #30
    13ec:	00000000 	andeq	r0, r0, r0
    13f0:	c8000000 	stmdagt	r0, {}	; <UNPREDICTABLE>
    13f4:	18000001 	stmdane	r0, {r0}
    13f8:	01000002 	tsteq	r0, r2
    13fc:	04fc5400 	ldrbteq	r5, [ip], #1024	; 0x400
    1400:	055c0000 	ldrbeq	r0, [ip, #-0]
    1404:	00010000 	andeq	r0, r1, r0
    1408:	00070054 	andeq	r0, r7, r4, asr r0
    140c:	00072800 	andeq	r2, r7, r0, lsl #16
    1410:	54000100 	strpl	r0, [r0], #-256	; 0xffffff00
    1414:	00000730 	andeq	r0, r0, r0, lsr r7
    1418:	00000740 	andeq	r0, r0, r0, asr #14
    141c:	00540001 	subseq	r0, r4, r1
    1420:	00000000 	andeq	r0, r0, r0
    1424:	84000000 	strhi	r0, [r0], #-0
    1428:	88000000 	stmdahi	r0, {}	; <UNPREDICTABLE>
    142c:	02000000 	andeq	r0, r0, #0
    1430:	189f3000 	ldmne	pc, {ip, sp}	; <UNPREDICTABLE>
    1434:	bc000001 	stclt	0, cr0, [r0], {1}
    1438:	02000001 	andeq	r0, r0, #1
    143c:	bc9f3000 	ldclt	0, cr3, [pc], {0}
    1440:	ec000001 	stc	0, cr0, [r0], {1}
    1444:	01000001 	tsteq	r0, r1
    1448:	03905600 	orrseq	r5, r0, #0, 12
    144c:	03f40000 	mvnseq	r0, #0
    1450:	00020000 	andeq	r0, r2, r0
    1454:	04809f30 	streq	r9, [r0], #3888	; 0xf30
    1458:	04a80000 	strteq	r0, [r8], #0
    145c:	00020000 	andeq	r0, r2, r0
    1460:	04a89f30 	strteq	r9, [r8], #3888	; 0xf30
    1464:	04bc0000 	ldrteq	r0, [ip], #0
    1468:	00020000 	andeq	r0, r2, r0
    146c:	04bc9f31 	ldrteq	r9, [ip], #3889	; 0xf31
    1470:	05340000 	ldreq	r0, [r4, #-0]!
    1474:	00020000 	andeq	r0, r2, r0
    1478:	06c09f30 			; <UNDEFINED> instruction: 0x06c09f30
    147c:	06e00000 	strbteq	r0, [r0], r0
    1480:	00020000 	andeq	r0, r2, r0
    1484:	07009f30 	smladxeq	r0, r0, pc, r9	; <UNPREDICTABLE>
    1488:	07180000 	ldreq	r0, [r8, -r0]
    148c:	00020000 	andeq	r0, r2, r0
    1490:	07289f30 			; <UNDEFINED> instruction: 0x07289f30
    1494:	07300000 	ldreq	r0, [r0, -r0]!
    1498:	00020000 	andeq	r0, r2, r0
    149c:	00009f30 	andeq	r9, r0, r0, lsr pc
    14a0:	00000000 	andeq	r0, r0, r0
    14a4:	00840000 	addeq	r0, r4, r0
    14a8:	00880000 	addeq	r0, r8, r0
    14ac:	00020000 	andeq	r0, r2, r0
    14b0:	01189f30 	tsteq	r8, r0, lsr pc
    14b4:	01bc0000 			; <UNDEFINED> instruction: 0x01bc0000
    14b8:	00020000 	andeq	r0, r2, r0
    14bc:	01bc9f30 			; <UNDEFINED> instruction: 0x01bc9f30
    14c0:	02400000 	subeq	r0, r0, #0
    14c4:	00030000 	andeq	r0, r3, r0
    14c8:	907efc91 			; <UNDEFINED> instruction: 0x907efc91
    14cc:	f4000003 	vst4.8	{d0-d3}, [r0], r3
    14d0:	02000003 	andeq	r0, r0, #3
    14d4:	809f3000 	addshi	r3, pc, r0
    14d8:	94000004 	strls	r0, [r0], #-4
    14dc:	02000004 	andeq	r0, r0, #4
    14e0:	949f3000 	ldrls	r3, [pc], #0	; 14e8 <SCTLR_ENABLE_INSTRUCTION_CACHE+0x4e8>
    14e4:	bc000004 	stclt	0, cr0, [r0], {4}
    14e8:	02000004 	andeq	r0, r0, #4
    14ec:	bc9f4000 	ldclt	0, cr4, [pc], {0}
    14f0:	d0000004 	andle	r0, r0, r4
    14f4:	02000004 	andeq	r0, r0, #4
    14f8:	d09f3200 	addsle	r3, pc, r0, lsl #4
    14fc:	f4000004 	vst4.8	{d0-d3}, [r0], r4
    1500:	02000004 	andeq	r0, r0, #4
    1504:	f49f3000 			; <UNDEFINED> instruction: 0xf49f3000
    1508:	34000004 	strcc	r0, [r0], #-4
    150c:	02000005 	andeq	r0, r0, #5
    1510:	c09f3a00 	addsgt	r3, pc, r0, lsl #20
    1514:	e0000006 	and	r0, r0, r6
    1518:	02000006 	andeq	r0, r0, #6
    151c:	009f3000 	addseq	r3, pc, r0
    1520:	18000007 	stmdane	r0, {r0, r1, r2}
    1524:	02000007 	andeq	r0, r0, #7
    1528:	189f3a00 	ldmne	pc, {r9, fp, ip, sp}	; <UNPREDICTABLE>
    152c:	28000007 	stmdacs	r0, {r0, r1, r2}
    1530:	03000007 	movweq	r0, #7
    1534:	7efc9100 	nrmvce	f1, f0
    1538:	00000728 	andeq	r0, r0, r8, lsr #14
    153c:	00000730 	andeq	r0, r0, r0, lsr r7
    1540:	9f300002 	svcls	0x00300002
    1544:	00000730 	andeq	r0, r0, r0, lsr r7
    1548:	0000074c 	andeq	r0, r0, ip, asr #14
    154c:	fc910003 	ldc2	0, cr0, [r1], {3}
    1550:	0000007e 	andeq	r0, r0, lr, ror r0
    1554:	00000000 	andeq	r0, r0, r0
    1558:	00027000 	andeq	r7, r2, r0
    155c:	0002a400 	andeq	sl, r2, r0, lsl #8
    1560:	50000100 	andpl	r0, r0, r0, lsl #2
    1564:	000003c4 	andeq	r0, r0, r4, asr #7
    1568:	000003f4 	strdeq	r0, [r0], -r4
    156c:	f4500001 			; <UNDEFINED> instruction: 0xf4500001
    1570:	40000003 	andmi	r0, r0, r3
    1574:	01000004 	tsteq	r0, r4
    1578:	04405600 	strbeq	r5, [r0], #-1536	; 0xfffffa00
    157c:	04800000 	streq	r0, [r0], #0
    1580:	00030000 	andeq	r0, r3, r0
    1584:	287ef491 	ldmdacs	lr!, {r0, r4, r7, sl, ip, sp, lr, pc}^
    1588:	48000006 	stmdami	r0, {r1, r2}
    158c:	01000006 	tsteq	r0, r6
    1590:	06945000 	ldreq	r5, [r4], r0
    1594:	06a40000 	strteq	r0, [r4], r0
    1598:	00010000 	andeq	r0, r1, r0
    159c:	0006c050 	andeq	ip, r6, r0, asr r0
    15a0:	0006e000 	andeq	lr, r6, r0
    15a4:	50000100 	andpl	r0, r0, r0, lsl #2
    15a8:	000006e8 	andeq	r0, r0, r8, ror #13
    15ac:	00000700 	andeq	r0, r0, r0, lsl #14
    15b0:	f4910003 			; <UNDEFINED> instruction: 0xf4910003
    15b4:	0000007e 	andeq	r0, r0, lr, ror r0
    15b8:	00000000 	andeq	r0, r0, r0
    15bc:	00026000 	andeq	r6, r2, r0
    15c0:	00028000 	andeq	r8, r2, r0
    15c4:	30000200 	andcc	r0, r0, r0, lsl #4
    15c8:	0002809f 	muleq	r2, pc, r0	; <UNPREDICTABLE>
    15cc:	0002a400 	andeq	sl, r2, r0, lsl #8
    15d0:	58000100 	stmdapl	r0, {r8}
    15d4:	000003b4 			; <UNDEFINED> instruction: 0x000003b4
    15d8:	0000040c 	andeq	r0, r0, ip, lsl #8
    15dc:	9f300002 	svcls	0x00300002
    15e0:	00000420 	andeq	r0, r0, r0, lsr #8
    15e4:	0000044c 	andeq	r0, r0, ip, asr #8
    15e8:	4c580001 	mrrcmi	0, 0, r0, r8, cr1
    15ec:	80000004 	andhi	r0, r0, r4
    15f0:	01000004 	tsteq	r0, r4
    15f4:	06285900 	strteq	r5, [r8], -r0, lsl #18
    15f8:	06480000 	strbeq	r0, [r8], -r0
    15fc:	00020000 	andeq	r0, r2, r0
    1600:	06949f30 			; <UNDEFINED> instruction: 0x06949f30
    1604:	06a40000 	strteq	r0, [r4], r0
    1608:	00010000 	andeq	r0, r1, r0
    160c:	0006c058 	andeq	ip, r6, r8, asr r0
    1610:	0006e000 	andeq	lr, r6, r0
    1614:	30000200 	andcc	r0, r0, r0, lsl #4
    1618:	0006e89f 	muleq	r6, pc, r8	; <UNPREDICTABLE>
    161c:	0006f400 	andeq	pc, r6, r0, lsl #8
    1620:	59000100 	stmdbpl	r0, {r8}
    1624:	000006f4 	strdeq	r0, [r0], -r4
    1628:	00000700 	andeq	r0, r0, r0, lsl #14
    162c:	00580001 	subseq	r0, r8, r1
    1630:	00000000 	andeq	r0, r0, r0
    1634:	8c000000 	stchi	0, cr0, [r0], {-0}
    1638:	a4000002 	strge	r0, [r0], #-2
    163c:	01000002 	tsteq	r0, r2
    1640:	04005400 	streq	r5, [r0], #-1024	; 0xfffffc00
    1644:	04380000 	ldrteq	r0, [r8], #-0
    1648:	00010000 	andeq	r0, r1, r0
    164c:	00069454 	andeq	r9, r6, r4, asr r4
    1650:	0006a400 	andeq	sl, r6, r0, lsl #8
    1654:	54000100 	strpl	r0, [r0], #-256	; 0xffffff00
	...
    1660:	0000028c 	andeq	r0, r0, ip, lsl #5
    1664:	000002a4 	andeq	r0, r0, r4, lsr #5
    1668:	9f300002 	svcls	0x00300002
    166c:	00000400 	andeq	r0, r0, r0, lsl #8
    1670:	00000410 	andeq	r0, r0, r0, lsl r4
    1674:	9f300002 	svcls	0x00300002
    1678:	00000410 	andeq	r0, r0, r0, lsl r4
    167c:	0000041c 	andeq	r0, r0, ip, lsl r4
    1680:	20550001 	subscs	r0, r5, r1
    1684:	50000004 	andpl	r0, r0, r4
    1688:	01000004 	tsteq	r0, r4
    168c:	04505500 	ldrbeq	r5, [r0], #-1280	; 0xfffffb00
    1690:	04800000 	streq	r0, [r0], #0
    1694:	00010000 	andeq	r0, r1, r0
    1698:	00069458 	andeq	r9, r6, r8, asr r4
    169c:	0006a400 	andeq	sl, r6, r0, lsl #8
    16a0:	30000200 	andcc	r0, r0, r0, lsl #4
    16a4:	0006e89f 	muleq	r6, pc, r8	; <UNPREDICTABLE>
    16a8:	0006f000 	andeq	pc, r6, r0
    16ac:	58000100 	stmdapl	r0, {r8}
    16b0:	000006f0 	strdeq	r0, [r0], -r0	; <UNPREDICTABLE>
    16b4:	00000700 	andeq	r0, r0, r0, lsl #14
    16b8:	00550001 	subseq	r0, r5, r1
    16bc:	00000000 	andeq	r0, r0, r0
    16c0:	e0000000 	and	r0, r0, r0
    16c4:	ec000001 	stc	0, cr0, [r0], {1}
    16c8:	01000001 	tsteq	r0, r1
    16cc:	05205600 	streq	r5, [r0, #-1536]!	; 0xfffffa00
    16d0:	05340000 	ldreq	r0, [r4, #-0]!
    16d4:	00020000 	andeq	r0, r2, r0
    16d8:	00009f30 	andeq	r9, r0, r0, lsr pc
    16dc:	00000000 	andeq	r0, r0, r0
    16e0:	01e00000 	mvneq	r0, r0
    16e4:	02400000 	subeq	r0, r0, #0
    16e8:	00030000 	andeq	r0, r3, r0
    16ec:	207efc91 			; <UNDEFINED> instruction: 0x207efc91
    16f0:	34000005 	strcc	r0, [r0], #-5
    16f4:	02000005 	andeq	r0, r0, #5
    16f8:	189f3a00 	ldmne	pc, {r9, fp, ip, sp}	; <UNPREDICTABLE>
    16fc:	28000007 	stmdacs	r0, {r0, r1, r2}
    1700:	03000007 	movweq	r0, #7
    1704:	7efc9100 	nrmvce	f1, f0
    1708:	00000730 	andeq	r0, r0, r0, lsr r7
    170c:	0000074c 	andeq	r0, r0, ip, asr #14
    1710:	fc910003 	ldc2	0, cr0, [r1], {3}
    1714:	0000007e 	andeq	r0, r0, lr, ror r0
    1718:	00000000 	andeq	r0, r0, r0
    171c:	0001e000 	andeq	lr, r1, r0
    1720:	00025000 	andeq	r5, r2, r0
    1724:	91000400 	tstls	r0, r0, lsl #8
    1728:	509f7f88 	addspl	r7, pc, r8, lsl #31
    172c:	54000002 	strpl	r0, [r0], #-2
    1730:	03000002 	movweq	r0, #2
    1734:	9f017200 	svcls	0x00017200
    1738:	00000254 	andeq	r0, r0, r4, asr r2
    173c:	0000025c 	andeq	r0, r0, ip, asr r2
    1740:	02720003 	rsbseq	r0, r2, #3
    1744:	00025c9f 	muleq	r2, pc, ip	; <UNPREDICTABLE>
    1748:	00026700 	andeq	r6, r2, r0, lsl #14
    174c:	72000300 	andvc	r0, r0, #0, 6
    1750:	05209f01 	streq	r9, [r0, #-3841]!	; 0xfffff0ff
    1754:	05c80000 	strbeq	r0, [r8]
    1758:	00040000 	andeq	r0, r4, r0
    175c:	9f7f8891 	svcls	0x007f8891
    1760:	00000718 	andeq	r0, r0, r8, lsl r7
    1764:	00000728 	andeq	r0, r0, r8, lsr #14
    1768:	88910004 	ldmhi	r1, {r2}
    176c:	07309f7f 			; <UNDEFINED> instruction: 0x07309f7f
    1770:	074c0000 	strbeq	r0, [ip, -r0]
    1774:	00040000 	andeq	r0, r4, r0
    1778:	9f7f8891 	svcls	0x007f8891
	...
    1784:	000001e0 	andeq	r0, r0, r0, ror #3
    1788:	00000200 	andeq	r0, r0, r0, lsl #4
    178c:	00540001 	subseq	r0, r4, r1
    1790:	0c000002 	stceq	0, cr0, [r0], {2}
    1794:	06000002 	streq	r0, [r0], -r2
    1798:	71007400 	tstvc	r0, r0, lsl #8
    179c:	0c9f2500 	cfldr32eq	mvfx2, [pc], {0}
    17a0:	28000002 	stmdacs	r0, {r1}
    17a4:	01000002 	tsteq	r0, r2
    17a8:	05205200 	streq	r5, [r0, #-512]!	; 0xfffffe00
    17ac:	05540000 	ldrbeq	r0, [r4, #-0]
    17b0:	00010000 	andeq	r0, r1, r0
    17b4:	00055454 	andeq	r5, r5, r4, asr r4
    17b8:	00058400 	andeq	r8, r5, r0, lsl #8
    17bc:	50000100 	andpl	r0, r0, r0, lsl #2
    17c0:	00000584 	andeq	r0, r0, r4, lsl #11
    17c4:	000005a8 	andeq	r0, r0, r8, lsr #11
    17c8:	ac5b0001 	mrrcge	0, 0, r0, fp, cr1
    17cc:	c8000005 	stmdagt	r0, {r0, r2}
    17d0:	01000005 	tsteq	r0, r5
    17d4:	07185000 	ldreq	r5, [r8, -r0]
    17d8:	07280000 	streq	r0, [r8, -r0]!
    17dc:	00010000 	andeq	r0, r1, r0
    17e0:	00073054 	andeq	r3, r7, r4, asr r0
    17e4:	00074c00 	andeq	r4, r7, r0, lsl #24
    17e8:	52000100 	andpl	r0, r0, #0, 2
	...
    17f4:	000001e0 	andeq	r0, r0, r0, ror #3
    17f8:	0000020c 	andeq	r0, r0, ip, lsl #4
    17fc:	0c520001 	mrrceq	0, 0, r0, r2, cr1
    1800:	40000002 	andmi	r0, r0, r2
    1804:	01000002 	tsteq	r0, r2
    1808:	05205600 	streq	r5, [r0, #-1536]!	; 0xfffffa00
    180c:	05340000 	ldreq	r0, [r4, #-0]!
    1810:	00060000 	andeq	r0, r6, r0
    1814:	003507f2 	ldrshteq	r0, [r5], -r2
    1818:	05340000 	ldreq	r0, [r4, #-0]!
    181c:	05800000 	streq	r0, [r0]
    1820:	00010000 	andeq	r0, r1, r0
    1824:	00058056 	andeq	r8, r5, r6, asr r0
    1828:	0005b400 	andeq	fp, r5, r0, lsl #8
    182c:	54000100 	strpl	r0, [r0], #-256	; 0xffffff00
    1830:	00000718 	andeq	r0, r0, r8, lsl r7
    1834:	00000728 	andeq	r0, r0, r8, lsr #14
    1838:	30520001 	subscc	r0, r2, r1
    183c:	4c000007 	stcmi	0, cr0, [r0], {7}
    1840:	01000007 	tsteq	r0, r7
    1844:	00005600 	andeq	r5, r0, r0, lsl #12
    1848:	00000000 	andeq	r0, r0, r0
    184c:	01f00000 	mvnseq	r0, r0
    1850:	021c0000 	andseq	r0, ip, #0
    1854:	00020000 	andeq	r0, r2, r0
    1858:	021c9f31 	andseq	r9, ip, #49, 30	; 0xc4
    185c:	022c0000 	eoreq	r0, ip, #0
    1860:	00030000 	andeq	r0, r3, r0
    1864:	2c9f0174 	ldfcss	f0, [pc], {116}	; 0x74
    1868:	40000002 	andmi	r0, r0, r2
    186c:	01000002 	tsteq	r0, r2
    1870:	05285400 	streq	r5, [r8, #-1024]!	; 0xfffffc00
    1874:	05840000 	streq	r0, [r4]
    1878:	00020000 	andeq	r0, r2, r0
    187c:	05849f31 	streq	r9, [r4, #3889]	; 0xf31
    1880:	05ac0000 	streq	r0, [ip, #0]!
    1884:	00030000 	andeq	r0, r3, r0
    1888:	ac9f0175 	ldfges	f0, [pc], {117}	; 0x75
    188c:	c0000005 	andgt	r0, r0, r5
    1890:	01000005 	tsteq	r0, r5
    1894:	05c05500 	strbeq	r5, [r0, #1280]	; 0x500
    1898:	05c80000 	strbeq	r0, [r8]
    189c:	00010000 	andeq	r0, r1, r0
    18a0:	00071854 	andeq	r1, r7, r4, asr r8
    18a4:	00072800 	andeq	r2, r7, r0, lsl #16
    18a8:	31000200 	mrscc	r0, R8_usr
    18ac:	0007309f 	muleq	r7, pc, r0	; <UNPREDICTABLE>
    18b0:	00074c00 	andeq	r4, r7, r0, lsl #24
    18b4:	31000200 	mrscc	r0, R8_usr
    18b8:	0000009f 	muleq	r0, pc, r0	; <UNPREDICTABLE>
    18bc:	00000000 	andeq	r0, r0, r0
    18c0:	00020000 	andeq	r0, r2, r0
    18c4:	00024000 	andeq	r4, r2, r0
    18c8:	5c000100 	stfpls	f0, [r0], {-0}
    18cc:	00000730 	andeq	r0, r0, r0, lsr r7
    18d0:	0000074c 	andeq	r0, r0, ip, asr #14
    18d4:	005c0001 	subseq	r0, ip, r1
	...
    18e0:	14000000 	strne	r0, [r0], #-0
    18e4:	01000000 	mrseq	r0, (UNDEF: 0)
    18e8:	00145000 	andseq	r5, r4, r0
    18ec:	00280000 	eoreq	r0, r8, r0
    18f0:	00040000 	andeq	r0, r4, r0
    18f4:	9f5001f3 	svcls	0x005001f3
    18f8:	00000028 	andeq	r0, r0, r8, lsr #32
    18fc:	0000002c 	andeq	r0, r0, ip, lsr #32
    1900:	2c500001 	mrrccs	0, 0, r0, r0, cr1	; <UNPREDICTABLE>
    1904:	30000000 	andcc	r0, r0, r0
    1908:	04000000 	streq	r0, [r0], #-0
    190c:	5001f300 	andpl	pc, r1, r0, lsl #6
    1910:	0000009f 	muleq	r0, pc, r0	; <UNPREDICTABLE>
	...
    191c:	00001400 	andeq	r1, r0, r0, lsl #8
    1920:	30000200 	andcc	r0, r0, r0, lsl #4
    1924:	0000149f 	muleq	r0, pc, r4	; <UNPREDICTABLE>
    1928:	00002800 	andeq	r2, r0, r0, lsl #16
    192c:	50000100 	andpl	r0, r0, r0, lsl #2
    1930:	00000028 	andeq	r0, r0, r8, lsr #32
    1934:	00000030 	andeq	r0, r0, r0, lsr r0
    1938:	9f300002 	svcls	0x00300002
	...

Disassembly of section .debug_str:

00000000 <.debug_str>:
       0:	656c635f 	strbvs	r6, [ip, #-863]!	; 0xfffffca1
       4:	625f7261 	subsvs	r7, pc, #268435462	; 0x10000006
       8:	75007373 	strvc	r7, [r0, #-883]	; 0xfffffc8d
       c:	6769736e 	strbvs	r7, [r9, -lr, ror #6]!
      10:	2064656e 	rsbcs	r6, r4, lr, ror #10
      14:	72616863 	rsbvc	r6, r1, #6488064	; 0x630000
      18:	6f687300 	svcvs	0x00687300
      1c:	75207472 	strvc	r7, [r0, #-1138]!	; 0xfffffb8e
      20:	6769736e 	strbvs	r7, [r9, -lr, ror #6]!
      24:	2064656e 	rsbcs	r6, r4, lr, ror #10
      28:	00746e69 	rsbseq	r6, r4, r9, ror #28
      2c:	68637261 	stmdavs	r3!, {r0, r5, r6, r9, ip, sp, lr}^
      30:	6d72612f 	ldfvse	f6, [r2, #-188]!	; 0xffffff44
      34:	7373622f 	cmnvc	r3, #-268435454	; 0xf0000002
      38:	656c632d 	strbvs	r6, [ip, #-813]!	; 0xfffffcd3
      3c:	632e7261 			; <UNDEFINED> instruction: 0x632e7261
      40:	625f5f00 	subsvs	r5, pc, #0, 30
      44:	735f7373 	cmpvc	pc, #-872415231	; 0xcc000001
      48:	74726174 	ldrbtvc	r6, [r2], #-372	; 0xfffffe8c
      4c:	6e6f6c00 	cdpvs	12, 6, cr6, cr15, cr0, {0}
      50:	6f6c2067 	svcvs	0x006c2067
      54:	7520676e 	strvc	r6, [r0, #-1902]!	; 0xfffff892
      58:	6769736e 	strbvs	r7, [r9, -lr, ror #6]!
      5c:	2064656e 	rsbcs	r6, r4, lr, ror #10
      60:	00746e69 	rsbseq	r6, r4, r9, ror #28
      64:	20554e47 	subscs	r4, r5, r7, asr #28
      68:	20313143 	eorscs	r3, r1, r3, asr #2
      6c:	2e342e35 	mrccs	14, 1, r2, cr4, cr5, {1}
      70:	30322031 	eorscc	r2, r2, r1, lsr r0
      74:	39303631 	ldmdbcc	r0!, {r0, r4, r5, r9, sl, ip, sp}
      78:	28203931 	stmdacs	r0!, {r0, r4, r5, r8, fp, ip, sp}
      7c:	656c6572 	strbvs	r6, [ip, #-1394]!	; 0xfffffa8e
      80:	29657361 	stmdbcs	r5!, {r0, r5, r6, r8, r9, ip, sp, lr}^
      84:	52415b20 	subpl	r5, r1, #32, 22	; 0x8000
      88:	6d652f4d 	stclvs	15, cr2, [r5, #-308]!	; 0xfffffecc
      8c:	64646562 	strbtvs	r6, [r4], #-1378	; 0xfffffa9e
      90:	352d6465 	strcc	r6, [sp, #-1125]!	; 0xfffffb9b
      94:	6172622d 	cmnvs	r2, sp, lsr #4
      98:	2068636e 	rsbcs	r6, r8, lr, ror #6
      9c:	69766572 	ldmdbvs	r6!, {r1, r4, r5, r6, r8, sl, sp, lr}^
      a0:	6e6f6973 	mcrvs	9, 3, r6, cr15, cr3, {3}
      a4:	30343220 	eorscc	r3, r4, r0, lsr #4
      a8:	5d363934 	ldcpl	9, cr3, [r6, #-208]!	; 0xffffff30
      ac:	616d2d20 	cmnvs	sp, r0, lsr #26
      b0:	3d686372 	stclcc	3, cr6, [r8, #-456]!	; 0xfffffe38
      b4:	766d7261 	strbtvc	r7, [sp], -r1, ror #4
      b8:	2b612d38 	blcs	184b5a0 <__kernel_end+0x16e95a0>
      bc:	20637263 	rsbcs	r7, r3, r3, ror #4
      c0:	70666d2d 	rsbvc	r6, r6, sp, lsr #26
      c4:	72633d75 	rsbvc	r3, r3, #7488	; 0x1d40
      c8:	6f747079 	svcvs	0x00747079
      cc:	6f656e2d 	svcvs	0x00656e2d
      d0:	70662d6e 	rsbvc	r2, r6, lr, ror #26
      d4:	6d72612d 	ldfvse	f6, [r2, #-180]!	; 0xffffff4c
      d8:	2d203876 	stccs	8, cr3, [r0, #-472]!	; 0xfffffe28
      dc:	4f2d2067 	svcmi	0x002d2067
      e0:	732d2032 			; <UNDEFINED> instruction: 0x732d2032
      e4:	673d6474 			; <UNDEFINED> instruction: 0x673d6474
      e8:	3131756e 	teqcc	r1, lr, ror #10
      ec:	70662d20 	rsbvc	r2, r6, r0, lsr #26
      f0:	2d206369 	stccs	3, cr6, [r0, #-420]!	; 0xfffffe5c
      f4:	65726666 	ldrbvs	r6, [r2, #-1638]!	; 0xfffff99a
      f8:	61747365 	cmnvs	r4, r5, ror #6
      fc:	6e69646e 	cdpvs	4, 6, cr6, cr9, cr14, {3}
     100:	5f5f0067 	svcpl	0x005f0067
     104:	5f737362 	svcpl	0x00737362
     108:	00646e65 	rsbeq	r6, r4, r5, ror #28
     10c:	676e6f6c 	strbvs	r6, [lr, -ip, ror #30]!
     110:	6e6f6c20 	cdpvs	12, 6, cr6, cr15, cr0, {1}
     114:	6e692067 	cdpvs	0, 6, cr2, cr9, cr7, {3}
     118:	552f0074 	strpl	r0, [pc, #-116]!	; ac <ARM_I_BIT+0x2c>
     11c:	73726573 	cmnvc	r2, #482344960	; 0x1cc00000
     120:	6172702f 	cmnvs	r2, pc, lsr #32
     124:	6873616b 	ldmdavs	r3!, {r0, r1, r3, r5, r6, r8, sp, lr}^
     128:	6b726f62 	blvs	1c9beb8 <__kernel_end+0x1b39eb8>
     12c:	442f7261 	strtmi	r7, [pc], #-609	; 134 <ARM_I_BIT+0xb4>
     130:	746b7365 	strbtvc	r7, [fp], #-869	; 0xfffffc9b
     134:	522f706f 	eorpl	r7, pc, #111	; 0x6f
     138:	746f6d65 	strbtvc	r6, [pc], #-3429	; 140 <ARM_I_BIT+0xc0>
     13c:	65525f65 	ldrbvs	r5, [r2, #-3941]	; 0xfffff09b
     140:	722f6f70 	eorvc	r6, pc, #112, 30	; 0x1c0
     144:	6f2d6970 	svcvs	0x002d6970
     148:	61752d73 	cmnvs	r5, r3, ror sp
     14c:	722f7472 	eorvc	r7, pc, #1912602624	; 0x72000000
     150:	62336970 	eorsvs	r6, r3, #112, 18	; 0x1c0000
     154:	61656d2d 	cmnvs	r5, sp, lsr #26
     158:	732d7974 			; <UNDEFINED> instruction: 0x732d7974
     15c:	656c656b 	strbvs	r6, [ip, #-1387]!	; 0xfffffa95
     160:	2f6e6f74 	svccs	0x006e6f74
     164:	6e72656b 	cdpvs	5, 7, cr6, cr2, cr11, {3}
     168:	73006c65 	movwvc	r6, #3173	; 0xc65
     16c:	74726f68 	ldrbtvc	r6, [r2], #-3944	; 0xfffff098
     170:	746e6920 	strbtvc	r6, [lr], #-2336	; 0xfffff6e0
     174:	6e697500 	cdpvs	5, 6, cr7, cr9, cr0, {0}
     178:	5f323374 	svcpl	0x00323374
     17c:	656b0074 	strbvs	r0, [fp, #-116]!	; 0xffffff8c
     180:	6c656e72 	stclvs	14, cr6, [r5], #-456	; 0xfffffe38
     184:	69616d5f 	stmdbvs	r1!, {r0, r1, r2, r3, r4, r6, r8, sl, fp, sp, lr}^
     188:	5052006e 	subspl	r0, r2, lr, rrx
     18c:	41425f49 	cmpmi	r2, r9, asr #30
     190:	5f434953 	svcpl	0x00434953
     194:	5f4d5241 	svcpl	0x004d5241
     198:	454d4954 	strbmi	r4, [sp, #-2388]	; 0xfffff6ac
     19c:	52495f52 	subpl	r5, r9, #328	; 0x148
     1a0:	70720051 	rsbsvc	r0, r2, r1, asr r0
     1a4:	72615f69 	rsbvc	r5, r1, #420	; 0x1a4
     1a8:	69745f6d 	ldmdbvs	r4!, {r0, r2, r3, r5, r6, r8, r9, sl, fp, ip, lr}^
     1ac:	5f72656d 	svcpl	0x0072656d
     1b0:	41520074 	cmpmi	r2, r4, ror r0
     1b4:	51524957 	cmppl	r2, r7, asr r9
     1b8:	6d726100 	ldfvse	f6, [r2, #-0]
     1bc:	6d69745f 	cfstrdvs	mvd7, [r9, #-380]!	; 0xfffffe84
     1c0:	695f7265 	ldmdbvs	pc, {r0, r2, r5, r6, r9, ip, sp, lr}^	; <UNPREDICTABLE>
     1c4:	0074696e 	rsbseq	r6, r4, lr, ror #18
     1c8:	5f495052 	svcpl	0x00495052
     1cc:	49534142 	ldmdbmi	r3, {r1, r6, r8, lr}^
     1d0:	52415f43 	subpl	r5, r1, #268	; 0x10c
     1d4:	4f445f4d 	svcmi	0x00445f4d
     1d8:	4542524f 	strbmi	r5, [r2, #-591]	; 0xfffffdb1
     1dc:	315f4c4c 	cmpcc	pc, ip, asr #24
     1e0:	5152495f 	cmppl	r2, pc, asr r9
     1e4:	6e6f4300 	cdpvs	3, 6, cr4, cr15, cr0, {0}
     1e8:	6c6f7274 	sfmvs	f7, 2, [pc], #-464	; 20 <CPSR_THUMB>
     1ec:	6c655200 	sfmvs	f5, 2, [r5], #-0
     1f0:	0064616f 	rsbeq	r6, r4, pc, ror #2
     1f4:	65657246 	strbvs	r7, [r5, #-582]!	; 0xfffffdba
     1f8:	6e6e7552 	mcrvs	5, 3, r7, cr14, cr2, {2}
     1fc:	43676e69 	cmnmi	r7, #1680	; 0x690
     200:	746e756f 	strbtvc	r7, [lr], #-1391	; 0xfffffa91
     204:	52007265 	andpl	r7, r0, #1342177286	; 0x50000006
     208:	425f4950 	subsmi	r4, pc, #80, 18	; 0x140000
     20c:	43495341 	movtmi	r5, #37697	; 0x9341
     210:	4343415f 	movtmi	r4, #12639	; 0x315f
     214:	5f535345 	svcpl	0x00535345
     218:	4f525245 	svcmi	0x00525245
     21c:	5f315f52 	svcpl	0x00315f52
     220:	00515249 	subseq	r5, r1, r9, asr #4
     224:	44657250 	strbtmi	r7, [r5], #-592	; 0xfffffdb0
     228:	64697669 	strbtvs	r7, [r9], #-1641	; 0xfffff997
     22c:	56007265 	strpl	r7, [r0], -r5, ror #4
     230:	65756c61 	ldrbvs	r6, [r5, #-3169]!	; 0xfffff39f
     234:	49505200 	ldmdbmi	r0, {r9, ip, lr}^
     238:	5341425f 	movtpl	r4, #4703	; 0x125f
     23c:	475f4349 	ldrbmi	r4, [pc, -r9, asr #6]
     240:	305f5550 	subscc	r5, pc, r0, asr r5	; <UNPREDICTABLE>
     244:	4c41485f 	mcrrmi	8, 5, r4, r1, cr15
     248:	5f444554 	svcpl	0x00444554
     24c:	00515249 	subseq	r5, r1, r9, asr #4
     250:	5f495052 	svcpl	0x00495052
     254:	49534142 	ldmdbmi	r3, {r1, r6, r8, lr}^
     258:	50475f43 	subpl	r5, r7, r3, asr #30
     25c:	5f315f55 	svcpl	0x00315f55
     260:	544c4148 	strbpl	r4, [ip], #-328	; 0xfffffeb8
     264:	495f4445 	ldmdbmi	pc, {r0, r2, r6, sl, lr}^	; <UNPREDICTABLE>
     268:	52005152 	andpl	r5, r0, #-2147483628	; 0x80000014
     26c:	475f4950 			; <UNDEFINED> instruction: 0x475f4950
     270:	72417465 	subvc	r7, r1, #1694498816	; 0x65000000
     274:	6d69546d 	cfstrdvs	mvd5, [r9, #-436]!	; 0xfffffe4c
     278:	61007265 	tstvs	r0, r5, ror #4
     27c:	2f686372 	svccs	0x00686372
     280:	2f6d7261 	svccs	0x006d7261
     284:	2d697072 	stclcs	0, cr7, [r9, #-456]!	; 0xfffffe38
     288:	746d7261 	strbtvc	r7, [sp], #-609	; 0xfffffd9f
     28c:	72656d69 	rsbvc	r6, r5, #6720	; 0x1a40
     290:	5200632e 	andpl	r6, r0, #-1207959552	; 0xb8000000
     294:	425f4950 	subsmi	r4, pc, #80, 18	; 0x140000
     298:	43495341 	movtmi	r5, #37697	; 0x9341
     29c:	4d52415f 	ldfmie	f4, [r2, #-380]	; 0xfffffe84
     2a0:	4f4f445f 	svcmi	0x004f445f
     2a4:	4c454252 	sfmmi	f4, 2, [r5], {82}	; 0x52
     2a8:	5f305f4c 	svcpl	0x00305f4c
     2ac:	00515249 	subseq	r5, r1, r9, asr #4
     2b0:	41697072 	smcmi	38658	; 0x9702
     2b4:	69546d72 	ldmdbvs	r4, {r1, r4, r5, r6, r8, sl, fp, sp, lr}^
     2b8:	0072656d 	rsbseq	r6, r2, sp, ror #10
     2bc:	64616f4c 	strbtvs	r6, [r1], #-3916	; 0xfffff0b4
     2c0:	51524900 	cmppl	r2, r0, lsl #18
     2c4:	61656c43 	cmnvs	r5, r3, asr #24
     2c8:	50520072 	subspl	r0, r2, r2, ror r0
     2cc:	41425f49 	cmpmi	r2, r9, asr #30
     2d0:	5f434953 	svcpl	0x00434953
     2d4:	45434341 	strbmi	r4, [r3, #-833]	; 0xfffffcbf
     2d8:	455f5353 	ldrbmi	r5, [pc, #-851]	; ffffff8d <__kernel_end+0xffe9df8d>
     2dc:	524f5252 	subpl	r5, pc, #536870917	; 0x20000005
     2e0:	495f305f 	ldmdbmi	pc, {r0, r1, r2, r3, r4, r6, ip, sp}^	; <UNPREDICTABLE>
     2e4:	52005152 	andpl	r5, r0, #-2147483628	; 0x80000014
     2e8:	475f4950 			; <UNDEFINED> instruction: 0x475f4950
     2ec:	72497465 	subvc	r7, r9, #1694498816	; 0x65000000
     2f0:	6e6f4371 	mcrvs	3, 3, r4, cr15, cr1, {3}
     2f4:	6c6f7274 	sfmvs	f7, 2, [pc], #-464	; 12c <ARM_I_BIT+0xac>
     2f8:	0072656c 	rsbseq	r6, r2, ip, ror #10
     2fc:	6b73614d 	blvs	1cd8838 <__kernel_end+0x1b76838>
     300:	52496465 	subpl	r6, r9, #1694498816	; 0x65000000
     304:	50520051 	subspl	r0, r2, r1, asr r0
     308:	41425f49 	cmpmi	r2, r9, asr #30
     30c:	5f434953 	svcpl	0x00434953
     310:	5f4d5241 	svcpl	0x004d5241
     314:	4c49414d 	stfmie	f4, [r9], {77}	; 0x4d
     318:	5f584f42 	svcpl	0x00584f42
     31c:	00515249 	subseq	r5, r1, r9, asr #4
     320:	66657270 			; <UNDEFINED> instruction: 0x66657270
     324:	68637465 	stmdavs	r3!, {r0, r2, r5, r6, sl, ip, sp, lr}^
     328:	6f62615f 	svcvs	0x0062615f
     32c:	765f7472 			; <UNDEFINED> instruction: 0x765f7472
     330:	6f746365 	svcvs	0x00746365
     334:	6f630072 	svcvs	0x00630072
     338:	5f746e75 	svcpl	0x00746e75
     33c:	73717269 	cmnvc	r1, #-1879048186	; 0x90000006
     340:	73694400 	cmnvc	r9, #0, 8
     344:	656c6261 	strbvs	r6, [ip, #-609]!	; 0xfffffd9f
     348:	5152495f 	cmppl	r2, pc, asr r9
     34c:	00325f73 	eorseq	r5, r2, r3, ror pc
     350:	657a6973 	ldrbvs	r6, [sl, #-2419]!	; 0xfffff68d
     354:	7300745f 	movwvc	r7, #1119	; 0x45f
     358:	74657a69 	strbtvc	r7, [r5], #-2665	; 0xfffff597
     35c:	00657079 	rsbeq	r7, r5, r9, ror r0
     360:	72657a62 	rsbvc	r7, r5, #401408	; 0x62000
     364:	4946006f 	stmdbmi	r6, {r0, r1, r2, r3, r5, r6}^
     368:	6f635f51 	svcvs	0x00635f51
     36c:	6f72746e 	svcvs	0x0072746e
     370:	6975006c 	ldmdbvs	r5!, {r2, r3, r5, r6}^
     374:	5f38746e 	svcpl	0x0038746e
     378:	6e690074 	mcrvs	0, 3, r0, cr9, cr4, {3}
     37c:	72726574 	rsbsvc	r6, r2, #116, 10	; 0x1d000000
     380:	5f747075 	svcpl	0x00747075
     384:	646e6168 	strbtvs	r6, [lr], #-360	; 0xfffffe98
     388:	5f72656c 	svcpl	0x0072656c
     38c:	70720066 	rsbsvc	r0, r2, r6, rrx
     390:	51524969 	cmppl	r2, r9, ror #18
     394:	746e6f43 	strbtvc	r6, [lr], #-3907	; 0xfffff0bd
     398:	6c6c6f72 	stclvs	15, cr6, [ip], #-456	; 0xfffffe38
     39c:	75007265 	strvc	r7, [r0, #-613]	; 0xfffffd9b
     3a0:	6765726e 	strbvs	r7, [r5, -lr, ror #4]!
     3a4:	65747369 	ldrbvs	r7, [r4, #-873]!	; 0xfffffc97
     3a8:	72695f72 	rsbvc	r5, r9, #456	; 0x1c8
     3ac:	61685f71 	smcvs	34289	; 0x85f1
     3b0:	656c646e 	strbvs	r6, [ip, #-1134]!	; 0xfffffb92
     3b4:	6f730072 	svcvs	0x00730072
     3b8:	61777466 	cmnvs	r7, r6, ror #8
     3bc:	695f6572 	ldmdbvs	pc, {r1, r4, r5, r6, r8, sl, sp, lr}^	; <UNPREDICTABLE>
     3c0:	7265746e 	rsbvc	r7, r5, #1845493760	; 0x6e000000
     3c4:	74707572 	ldrbtvc	r7, [r0], #-1394	; 0xfffffa8e
     3c8:	6365765f 	cmnvs	r5, #99614720	; 0x5f00000
     3cc:	00726f74 	rsbseq	r6, r2, r4, ror pc
     3d0:	65646e75 	strbvs	r6, [r4, #-3701]!	; 0xfffff18b
     3d4:	656e6966 	strbvs	r6, [lr, #-2406]!	; 0xfffff69a
     3d8:	6e695f64 	cdpvs	15, 6, cr5, cr9, cr4, {3}
     3dc:	75727473 	ldrbvc	r7, [r2, #-1139]!	; 0xfffffb8d
     3e0:	6f697463 	svcvs	0x00697463
     3e4:	65765f6e 	ldrbvs	r5, [r6, #-3950]!	; 0xfffff092
     3e8:	726f7463 	rsbvc	r7, pc, #1660944384	; 0x63000000
     3ec:	6d656d00 	stclvs	13, cr6, [r5, #-0]
     3f0:	00746573 	rsbseq	r6, r4, r3, ror r5
     3f4:	74736166 	ldrbtvc	r6, [r3], #-358	; 0xfffffe9a
     3f8:	746e695f 	strbtvc	r6, [lr], #-2399	; 0xfffff6a1
     3fc:	75727265 	ldrbvc	r7, [r2, #-613]!	; 0xfffffd9b
     400:	765f7470 			; <UNDEFINED> instruction: 0x765f7470
     404:	6f746365 	svcvs	0x00746365
     408:	72690072 	rsbvc	r0, r9, #114	; 0x72
     40c:	756e5f71 	strbvc	r5, [lr, #-3953]!	; 0xfffff08f
     410:	6e45006d 	cdpvs	0, 4, cr0, cr5, cr13, {3}
     414:	656c6261 	strbvs	r6, [ip, #-609]!	; 0xfffffd9f
     418:	5152495f 	cmppl	r2, pc, asr r9
     41c:	00315f73 	eorseq	r5, r1, r3, ror pc
     420:	62616e45 	rsbvs	r6, r1, #1104	; 0x450
     424:	495f656c 	ldmdbmi	pc, {r2, r3, r5, r6, r8, sl, sp, lr}^	; <UNPREDICTABLE>
     428:	5f735152 	svcpl	0x00735152
     42c:	6f6c0032 	svcvs	0x006c0032
     430:	6420676e 	strtvs	r6, [r0], #-1902	; 0xfffff892
     434:	6c62756f 	cfstr64vs	mvdx7, [r2], #-444	; 0xfffffe44
     438:	69440065 	stmdbvs	r4, {r0, r2, r5, r6}^
     43c:	6c626173 	stfvse	f6, [r2], #-460	; 0xfffffe34
     440:	61425f65 	cmpvs	r2, r5, ror #30
     444:	5f636973 	svcpl	0x00636973
     448:	73515249 	cmpvc	r1, #-1879048188	; 0x90000004
     44c:	6e616800 	cdpvs	8, 6, cr6, cr1, cr0, {0}
     450:	72656c64 	rsbvc	r6, r5, #100, 24	; 0x6400
     454:	79620073 	stmdbvc	r2!, {r0, r1, r4, r5, r6}^
     458:	69006574 	stmdbvs	r0, {r2, r4, r5, r6, r8, sl, sp, lr}
     45c:	705f7172 	subsvc	r7, pc, r2, ror r1	; <UNPREDICTABLE>
     460:	7200736f 	andvc	r7, r0, #-1140850687	; 0xbc000001
     464:	74657365 	strbtvc	r7, [r5], #-869	; 0xfffffc9b
     468:	6365765f 	cmnvs	r5, #99614720	; 0x5f00000
     46c:	00726f74 	rsbseq	r6, r2, r4, ror pc
     470:	65746e69 	ldrbvs	r6, [r4, #-3689]!	; 0xfffff197
     474:	70757272 	rsbsvc	r7, r5, r2, ror r2
     478:	6c635f74 	stclvs	15, cr5, [r3], #-464	; 0xfffffe30
     47c:	65726165 	ldrbvs	r6, [r2, #-357]!	; 0xfffffe9b
     480:	00665f72 	rsbeq	r5, r6, r2, ror pc
     484:	5f515249 	svcpl	0x00515249
     488:	646e6570 	strbtvs	r6, [lr], #-1392	; 0xfffffa90
     48c:	5f676e69 	svcpl	0x00676e69
     490:	72700032 	rsbsvc	r0, r0, #50	; 0x32
     494:	66746e69 	ldrbtvs	r6, [r4], -r9, ror #28
     498:	53494400 	movtpl	r4, #37888	; 0x9400
     49c:	454c4241 	strbmi	r4, [ip, #-577]	; 0xfffffdbf
     4a0:	544e495f 	strbpl	r4, [lr], #-2399	; 0xfffff6a1
     4a4:	55525245 	ldrbpl	r5, [r2, #-581]	; 0xfffffdbb
     4a8:	00535450 	subseq	r5, r3, r0, asr r4
     4ac:	68637261 	stmdavs	r3!, {r0, r5, r6, r9, ip, sp, lr}^
     4b0:	6d72612f 	ldfvse	f6, [r2, #-188]!	; 0xffffff44
     4b4:	6970722f 	ldmdbvs	r0!, {r0, r1, r2, r3, r5, r9, ip, sp, lr}^
     4b8:	746e692d 	strbtvc	r6, [lr], #-2349	; 0xfffff6d3
     4bc:	75727265 	ldrbvc	r7, [r2, #-613]!	; 0xfffffd9b
     4c0:	2e737470 	mrccs	4, 3, r7, cr3, cr0, {3}
     4c4:	655f0063 	ldrbvs	r0, [pc, #-99]	; 469 <ARM_I_BIT+0x3e9>
     4c8:	6c62616e 	stfvse	f6, [r2], #-440	; 0xfffffe48
     4cc:	6e695f65 	cdpvs	15, 6, cr5, cr9, cr5, {3}
     4d0:	72726574 	rsbsvc	r6, r2, #116, 10	; 0x1d000000
     4d4:	73747075 	cmnvc	r4, #117	; 0x75
     4d8:	73694400 	cmnvc	r9, #0, 8
     4dc:	656c6261 	strbvs	r6, [ip, #-609]!	; 0xfffffd9f
     4e0:	5152495f 	cmppl	r2, pc, asr r9
     4e4:	00315f73 	eorseq	r5, r1, r3, ror pc
     4e8:	62616e45 	rsbvs	r6, r1, #1104	; 0x450
     4ec:	425f656c 	subsmi	r6, pc, #108, 10	; 0x1b000000
     4f0:	63697361 	cmnvs	r9, #-2080374783	; 0x84000001
     4f4:	5152495f 	cmppl	r2, pc, asr r9
     4f8:	4e450073 	mcrmi	0, 2, r0, cr5, cr3, {3}
     4fc:	454c4241 	strbmi	r4, [ip, #-577]	; 0xfffffdbf
     500:	544e495f 	strbpl	r4, [lr], #-2399	; 0xfffff6a1
     504:	55525245 	ldrbpl	r5, [r2, #-581]	; 0xfffffdbb
     508:	00535450 	subseq	r5, r3, r0, asr r4
     50c:	5f697072 	svcpl	0x00697072
     510:	5f717269 	svcpl	0x00717269
     514:	746e6f63 	strbtvc	r6, [lr], #-3939	; 0xfffff09d
     518:	6c6c6f72 	stclvs	15, cr6, [ip], #-456	; 0xfffffe38
     51c:	745f7265 	ldrbvc	r7, [pc], #-613	; 524 <ARM_I_BIT+0x4a4>
     520:	72617500 	rsbvc	r7, r1, #0, 10
     524:	75705f74 	ldrbvc	r5, [r0, #-3956]!	; 0xfffff08c
     528:	69007374 	stmdbvs	r0, {r2, r4, r5, r6, r8, r9, ip, sp, lr}
     52c:	7265746e 	rsbvc	r7, r5, #1845493760	; 0x6e000000
     530:	74707572 	ldrbtvc	r7, [r0], #-1394	; 0xfffffa8e
     534:	6e695f73 	mcrvs	15, 3, r5, cr9, cr3, {3}
     538:	63007469 	movwvs	r7, #1129	; 0x469
     53c:	7261656c 	rsbvc	r6, r1, #108, 10	; 0x1b000000
     540:	00737265 	rsbseq	r7, r3, r5, ror #4
     544:	5f717269 	svcpl	0x00717269
     548:	626d756e 	rsbvs	r7, sp, #461373440	; 0x1b800000
     54c:	745f7265 	ldrbvc	r7, [pc], #-613	; 554 <ARM_I_BIT+0x4d4>
     550:	544e4900 	strbpl	r4, [lr], #-2304	; 0xfffff700
     554:	55525245 	ldrbpl	r5, [r2, #-581]	; 0xfffffdbb
     558:	5f535450 	svcpl	0x00535450
     55c:	42414e45 	submi	r4, r1, #1104	; 0x450
     560:	0044454c 	subeq	r4, r4, ip, asr #10
     564:	61746164 	cmnvs	r4, r4, ror #2
     568:	6f62615f 	svcvs	0x0062615f
     56c:	765f7472 			; <UNDEFINED> instruction: 0x765f7472
     570:	6f746365 	svcvs	0x00746365
     574:	52490072 	subpl	r0, r9, #114	; 0x72
     578:	65705f51 	ldrbvs	r5, [r0, #-3921]!	; 0xfffff0af
     57c:	6e69646e 	cdpvs	4, 6, cr6, cr9, cr14, {3}
     580:	00315f67 	eorseq	r5, r1, r7, ror #30
     584:	5f515249 	svcpl	0x00515249
     588:	69736162 	ldmdbvs	r3!, {r1, r5, r6, r8, sp, lr}^
     58c:	65705f63 	ldrbvs	r5, [r0, #-3939]!	; 0xfffff09d
     590:	6e69646e 	cdpvs	4, 6, cr6, cr9, cr14, {3}
     594:	52410067 	subpl	r0, r1, #103	; 0x67
     598:	534d5f4d 	movtpl	r5, #57165	; 0xdf4d
     59c:	4c55465f 	mrrcmi	6, 5, r4, r5, cr15
     5a0:	616d004c 	cmnvs	sp, ip, asr #32
     5a4:	6f626c69 	svcvs	0x00626c69
     5a8:	74735f78 	ldrbtvc	r5, [r3], #-3960	; 0xfffff088
     5ac:	73757461 	cmnvc	r5, #1627389952	; 0x61000000
     5b0:	6765725f 			; <UNDEFINED> instruction: 0x6765725f
     5b4:	7469625f 	strbtvc	r6, [r9], #-607	; 0xfffffda1
     5b8:	68630073 	stmdavs	r3!, {r0, r1, r4, r5, r6}^
     5bc:	656e6e61 	strbvs	r6, [lr, #-3681]!	; 0xfffff19f
     5c0:	424d006c 	submi	r0, sp, #108	; 0x6c
     5c4:	41545f30 	cmpmi	r4, r0, lsr pc
     5c8:	415f5347 	cmpmi	pc, r7, asr #6
     5cc:	545f4d52 	ldrbpl	r4, [pc], #-3410	; 5d4 <ARM_I_BIT+0x554>
     5d0:	43565f4f 	cmpmi	r6, #316	; 0x13c
     5d4:	6c617600 	stclvs	6, cr7, [r1], #-0
     5d8:	53006575 	movwpl	r6, #1397	; 0x575
     5dc:	75746174 	ldrbvc	r6, [r4, #-372]!	; 0xfffffe8c
     5e0:	70720073 	rsbsvc	r0, r2, r3, ror r0
     5e4:	69614d69 	stmdbvs	r1!, {r0, r3, r5, r6, r8, sl, fp, lr}^
     5e8:	786f626c 	stmdavc	pc!, {r2, r3, r5, r6, r9, sp, lr}^	; <UNPREDICTABLE>
     5ec:	616d0030 	cmnvs	sp, r0, lsr r0
     5f0:	6f626c69 	svcvs	0x00626c69
     5f4:	00745f78 	rsbseq	r5, r4, r8, ror pc
     5f8:	646e6553 	strbtvs	r6, [lr], #-1363	; 0xfffffaad
     5fc:	4d007265 	sfmmi	f7, 4, [r0, #-404]	; 0xfffffe6c
     600:	555f3042 	ldrbpl	r3, [pc, #-66]	; 5c6 <ARM_I_BIT+0x546>
     604:	4553554e 	ldrbmi	r5, [r3, #-1358]	; 0xfffffab2
     608:	424d0044 	submi	r0, sp, #68	; 0x44
     60c:	52465f30 	subpl	r5, r6, #48, 30	; 0xc0
     610:	42454d41 	submi	r4, r5, #4160	; 0x1040
     614:	45464655 	strbmi	r4, [r6, #-1621]	; 0xfffff9ab
     618:	50520052 	subspl	r0, r2, r2, asr r0
     61c:	614d5f49 	cmpvs	sp, r9, asr #30
     620:	6f626c69 	svcvs	0x00626c69
     624:	65523078 	ldrbvs	r3, [r2, #-120]	; 0xffffff88
     628:	4d006461 	cfstrsmi	mvf6, [r0, #-388]	; 0xfffffe7c
     62c:	565f3042 	ldrbpl	r3, [pc], -r2, asr #32
     630:	51494843 	cmppl	r9, r3, asr #16
     634:	30424d00 	subcc	r4, r2, r0, lsl #26
     638:	554f545f 	strbpl	r5, [pc, #-1119]	; 1e1 <ARM_I_BIT+0x161>
     63c:	43534843 	cmpmi	r3, #4390912	; 0x430000
     640:	4e454552 	mcrmi	5, 2, r4, cr5, cr2, {2}
     644:	4d524100 	ldfmie	f4, [r2, #-0]
     648:	5f534d5f 	svcpl	0x00534d5f
     64c:	54504d45 	ldrbpl	r4, [r0], #-3397	; 0xfffff2bb
     650:	52410059 	subpl	r0, r1, #89	; 0x59
     654:	534d5f4d 	movtpl	r5, #57165	; 0xdf4d
     658:	56454c5f 			; <UNDEFINED> instruction: 0x56454c5f
     65c:	43004c45 	movwmi	r4, #3141	; 0xc45
     660:	69666e6f 	stmdbvs	r6!, {r0, r1, r2, r3, r5, r6, r9, sl, fp, sp, lr}^
     664:	61727567 	cmnvs	r2, r7, ror #10
     668:	6e6f6974 	mcrvs	9, 3, r6, cr15, cr4, {3}
     66c:	30424d00 	subcc	r4, r2, r0, lsl #26
     670:	5249565f 	subpl	r5, r9, #99614720	; 0x5f00000
     674:	4c415554 	cfstr64mi	mvdx5, [r1], {84}	; 0x54
     678:	5241555f 	subpl	r5, r1, #398458880	; 0x17c00000
     67c:	424d0054 	submi	r0, sp, #84	; 0x54
     680:	4f505f30 	svcmi	0x00505f30
     684:	5f524557 	svcpl	0x00524557
     688:	414e414d 	cmpmi	lr, sp, asr #2
     68c:	454d4547 	strbmi	r4, [sp, #-1351]	; 0xfffffab9
     690:	5000544e 	andpl	r5, r0, lr, asr #8
     694:	006c6c6f 	rsbeq	r6, ip, pc, ror #24
     698:	6c69616d 	stfvse	f6, [r9], #-436	; 0xfffffe4c
     69c:	30786f62 	rsbscc	r6, r8, r2, ror #30
     6a0:	6168635f 	cmnvs	r8, pc, asr r3
     6a4:	6c656e6e 	stclvs	14, cr6, [r5], #-440	; 0xfffffe48
     6a8:	4d00745f 	cfstrsmi	mvf7, [r0, #-380]	; 0xfffffe84
     6ac:	4c5f3042 	mrrcmi	0, 4, r3, pc, cr2	; <UNPREDICTABLE>
     6b0:	00534445 	subseq	r4, r3, r5, asr #8
     6b4:	68637261 	stmdavs	r3!, {r0, r5, r6, r9, ip, sp, lr}^
     6b8:	6d72612f 	ldfvse	f6, [r2, #-188]!	; 0xffffff44
     6bc:	6970722f 	ldmdbvs	r0!, {r0, r1, r2, r3, r5, r9, ip, sp, lr}^
     6c0:	69616d2d 	stmdbvs	r1!, {r0, r2, r3, r5, r8, sl, fp, sp, lr}^
     6c4:	786f626c 	stmdavc	pc!, {r2, r3, r5, r6, r9, sp, lr}^	; <UNPREDICTABLE>
     6c8:	4d00632e 	stcmi	3, cr6, [r0, #-184]	; 0xffffff48
     6cc:	545f3042 	ldrbpl	r3, [pc], #-66	; 6d4 <ARM_I_BIT+0x654>
     6d0:	5f534741 	svcpl	0x00534741
     6d4:	545f4356 	ldrbpl	r4, [pc], #-854	; 6dc <ARM_I_BIT+0x65c>
     6d8:	52415f4f 	subpl	r5, r1, #316	; 0x13c
     6dc:	5052004d 	subspl	r0, r2, sp, asr #32
     6e0:	614d5f49 	cmpvs	sp, r9, asr #30
     6e4:	6f626c69 	svcvs	0x00626c69
     6e8:	72573078 	subsvc	r3, r7, #120	; 0x78
     6ec:	00657469 	rsbeq	r7, r5, r9, ror #8
     6f0:	5f30424d 	svcpl	0x0030424d
     6f4:	54545542 	ldrbpl	r5, [r4], #-1346	; 0xfffffabe
     6f8:	00534e4f 	subseq	r4, r3, pc, asr #28
     6fc:	65736572 	ldrbvs	r6, [r3, #-1394]!	; 0xfffffa8e
     700:	64657672 	strbtvs	r7, [r5], #-1650	; 0xfffff98e
     704:	41540031 	cmpmi	r4, r1, lsr r0
     708:	4c425f47 	mcrrmi	15, 4, r5, r2, cr7
     70c:	5f4b4e41 	svcpl	0x004b4e41
     710:	45524353 	ldrbmi	r4, [r2, #-851]	; 0xfffffcad
     714:	54004e45 	strpl	r4, [r0], #-3653	; 0xfffff1bb
     718:	475f4741 	ldrbmi	r4, [pc, -r1, asr #14]
     71c:	4f5f5445 	svcmi	0x005f5445
     720:	53524556 	cmppl	r2, #360710144	; 0x15800000
     724:	004e4143 	subeq	r4, lr, r3, asr #2
     728:	5f474154 	svcpl	0x00474154
     72c:	5f544547 	svcpl	0x00544547
     730:	52414f42 	subpl	r4, r1, #264	; 0x108
     734:	45535f44 	ldrbmi	r5, [r3, #-3908]	; 0xfffff0bc
     738:	4c414952 	mcrrmi	9, 5, r4, r1, cr2
     73c:	47415400 	strbmi	r5, [r1, -r0, lsl #8]
     740:	5445475f 	strbpl	r4, [r5], #-1887	; 0xfffff8a1
     744:	414f425f 	cmpmi	pc, pc, asr r2	; <UNPREDICTABLE>
     748:	525f4452 	subspl	r4, pc, #1375731712	; 0x52000000
     74c:	53495645 	movtpl	r5, #38469	; 0x9645
     750:	004e4f49 	subeq	r4, lr, r9, asr #30
     754:	5f474154 	svcpl	0x00474154
     758:	5f544547 	svcpl	0x00544547
     75c:	5f4e494d 	svcpl	0x004e494d
     760:	434f4c43 	movtmi	r4, #64579	; 0xfc43
     764:	41525f4b 	cmpmi	r2, fp, asr #30
     768:	54004554 	strpl	r4, [r0], #-1364	; 0xfffffaac
     76c:	545f4741 	ldrbpl	r4, [pc], #-1857	; 774 <ARM_I_BIT+0x6f4>
     770:	5f545345 	svcpl	0x00545345
     774:	54524956 	ldrbpl	r4, [r2], #-2390	; 0xfffff6aa
     778:	5f4c4155 	svcpl	0x004c4155
     77c:	5346464f 	movtpl	r4, #26191	; 0x664f
     780:	54005445 	strpl	r5, [r0], #-1093	; 0xfffffbbb
     784:	535f4741 	cmppl	pc, #17039360	; 0x1040000
     788:	565f5445 	ldrbpl	r5, [pc], -r5, asr #8
     78c:	55545249 	ldrbpl	r5, [r4, #-585]	; 0xfffffdb7
     790:	4f5f4c41 	svcmi	0x005f4c41
     794:	45534646 	ldrbmi	r4, [r3, #-1606]	; 0xfffff9ba
     798:	41540054 	cmpmi	r4, r4, asr r0
     79c:	45475f47 	strbmi	r5, [r7, #-3911]	; 0xfffff0b9
     7a0:	48505f54 	ldmdami	r0, {r2, r4, r6, r8, r9, sl, fp, ip, lr}^
     7a4:	43495359 	movtmi	r5, #37721	; 0x9359
     7a8:	535f4c41 	cmppl	pc, #16640	; 0x4100
     7ac:	00455a49 	subeq	r5, r5, r9, asr #20
     7b0:	61746164 	cmnvs	r4, r4, ror #2
     7b4:	47415400 	strbmi	r5, [r1, -r0, lsl #8]
     7b8:	5445475f 	strbpl	r4, [r5], #-1887	; 0xfffff8a1
     7bc:	4d45545f 	cfstrdmi	mvd5, [r5, #-380]	; 0xfffffe84
     7c0:	41524550 	cmpmi	r2, r0, asr r5
     7c4:	45525554 	ldrbmi	r5, [r2, #-1364]	; 0xfffffaac
     7c8:	47415400 	strbmi	r5, [r1, -r0, lsl #8]
     7cc:	4c45525f 	sfmmi	f5, 2, [r5], {95}	; 0x5f
     7d0:	45534145 	ldrbmi	r4, [r3, #-325]	; 0xfffffebb
     7d4:	4655425f 			; <UNDEFINED> instruction: 0x4655425f
     7d8:	00524546 	subseq	r4, r2, r6, asr #10
     7dc:	5f474154 	svcpl	0x00474154
     7e0:	5f544553 	svcpl	0x00544553
     7e4:	544c4f56 	strbpl	r4, [ip], #-3926	; 0xfffff0aa
     7e8:	00454741 	subeq	r4, r5, r1, asr #14
     7ec:	5f474154 	svcpl	0x00474154
     7f0:	5f544547 	svcpl	0x00544547
     7f4:	434f4c43 	movtmi	r4, #64579	; 0xfc43
     7f8:	41525f4b 	cmpmi	r2, fp, asr #30
     7fc:	54004554 	strpl	r4, [r0], #-1364	; 0xfffffaac
     800:	535f4741 	cmppl	pc, #17039360	; 0x1040000
     804:	445f5445 	ldrbmi	r5, [pc], #-1093	; 80c <SCTLR_ENABLE_BRANCH_PREDICTION+0xc>
     808:	48545045 	ldmdami	r4, {r0, r2, r6, ip, lr}^
     80c:	47415400 	strbmi	r5, [r1, -r0, lsl #8]
     810:	5445475f 	strbpl	r4, [r5], #-1887	; 0xfffff8a1
     814:	4c41505f 	mcrrmi	0, 5, r5, r1, cr15
     818:	45545445 	ldrbmi	r5, [r4, #-1093]	; 0xfffffbbb
     81c:	47415400 	strbmi	r5, [r1, -r0, lsl #8]
     820:	5445475f 	strbpl	r4, [r5], #-1887	; 0xfffff8a1
     824:	5f43565f 	svcpl	0x0043565f
     828:	4f4d454d 	svcmi	0x004d454d
     82c:	62005952 	andvs	r5, r0, #1343488	; 0x148000
     830:	65666675 	strbvs	r6, [r6, #-1653]!	; 0xfffff98b
     834:	00385f72 	eorseq	r5, r8, r2, ror pc
     838:	706f7270 	rsbvc	r7, pc, r0, ror r2	; <UNPREDICTABLE>
     83c:	79747265 	ldmdbvc	r4!, {r0, r2, r5, r6, r9, ip, sp, lr}^
     840:	47415400 	strbmi	r5, [r1, -r0, lsl #8]
     844:	5445535f 	strbpl	r5, [r5], #-863	; 0xfffffca1
     848:	4f4c435f 	svcmi	0x004c435f
     84c:	535f4b43 	cmppl	pc, #68608	; 0x10c00
     850:	45544154 	ldrbmi	r4, [r4, #-340]	; 0xfffffeac
     854:	47415400 	strbmi	r5, [r1, -r0, lsl #8]
     858:	5345545f 	movtpl	r5, #21599	; 0x545f
     85c:	49505f54 	ldmdbmi	r0, {r2, r4, r6, r8, r9, sl, fp, ip, lr}^
     860:	5f4c4558 	svcpl	0x004c4558
     864:	4544524f 	strbmi	r5, [r4, #-591]	; 0xfffffdb1
     868:	5f5f0052 	svcpl	0x005f0052
     86c:	6c5f6176 	ldfvse	f6, [pc], {118}	; 0x76
     870:	00747369 	rsbseq	r7, r4, r9, ror #6
     874:	5f474154 	svcpl	0x00474154
     878:	5f544553 	svcpl	0x00544553
     87c:	53525543 	cmppl	r2, #281018368	; 0x10c00000
     880:	495f524f 	ldmdbmi	pc, {r0, r1, r2, r3, r6, r9, ip, lr}^	; <UNPREDICTABLE>
     884:	004f464e 	subeq	r4, pc, lr, asr #12
     888:	5f474154 	svcpl	0x00474154
     88c:	5f544547 	svcpl	0x00544547
     890:	45584950 	ldrbmi	r4, [r8, #-2384]	; 0xfffff6b0
     894:	524f5f4c 	subpl	r5, pc, #76, 30	; 0x130
     898:	00524544 	subseq	r4, r2, r4, asr #10
     89c:	5f474154 	svcpl	0x00474154
     8a0:	5f544547 	svcpl	0x00544547
     8a4:	44494445 	strbmi	r4, [r9], #-1093	; 0xfffffbbb
     8a8:	4f4c425f 	svcmi	0x004c425f
     8ac:	54004b43 	strpl	r4, [r0], #-2883	; 0xfffff4bd
     8b0:	475f4741 	ldrbmi	r4, [pc, -r1, asr #14]
     8b4:	4d5f5445 	cfldrdmi	mvd5, [pc, #-276]	; 7a8 <ARM_I_BIT+0x728>
     8b8:	435f5841 	cmpmi	pc, #4259840	; 0x410000
     8bc:	4b434f4c 	blmi	10d45f4 <__kernel_end+0xf725f4>
     8c0:	5441525f 	strbpl	r5, [r1], #-607	; 0xfffffda1
     8c4:	41540045 	cmpmi	r4, r5, asr #32
     8c8:	45545f47 	ldrbmi	r5, [r4, #-3911]	; 0xfffff0b9
     8cc:	415f5453 	cmpmi	pc, r3, asr r4	; <UNPREDICTABLE>
     8d0:	4148504c 	cmpmi	r8, ip, asr #32
     8d4:	444f4d5f 	strbmi	r4, [pc], #-3423	; 8dc <SCTLR_ENABLE_BRANCH_PREDICTION+0xdc>
     8d8:	50520045 	subspl	r0, r2, r5, asr #32
     8dc:	72505f49 	subsvc	r5, r0, #292	; 0x124
     8e0:	7265706f 	rsbvc	r7, r5, #111	; 0x6f
     8e4:	6e497974 	mcrvs	9, 2, r7, cr9, cr4, {3}
     8e8:	50007469 	andpl	r7, r0, r9, ror #8
     8ec:	534f5f54 	movtpl	r5, #65364	; 0xff54
     8f0:	00455a49 	subeq	r5, r5, r9, asr #20
     8f4:	5f474154 	svcpl	0x00474154
     8f8:	54534554 	ldrbpl	r4, [r3], #-1364	; 0xfffffaac
     8fc:	4c41505f 	mcrrmi	0, 5, r5, r1, cr15
     900:	45545445 	ldrbmi	r5, [r4, #-1093]	; 0xfffffbbb
     904:	49505200 	ldmdbmi	r0, {r9, ip, lr}^
     908:	6f72505f 	svcvs	0x0072505f
     90c:	74726570 	ldrbtvc	r6, [r2], #-1392	; 0xfffffa90
     910:	64644179 	strbtvs	r4, [r4], #-377	; 0xfffffe87
     914:	00676154 	rsbeq	r6, r7, r4, asr r1
     918:	5f697072 	svcpl	0x00697072
     91c:	6c69616d 	stfvse	f6, [r9], #-436	; 0xfffffe4c
     920:	5f786f62 	svcpl	0x00786f62
     924:	706f7270 	rsbvc	r7, pc, r0, ror r2	; <UNPREDICTABLE>
     928:	79747265 	ldmdbvc	r4!, {r0, r2, r5, r6, r9, ip, sp, lr}^
     92c:	5000745f 	andpl	r7, r0, pc, asr r4
     930:	524f5f54 	subpl	r5, pc, #84, 30	; 0x150
     934:	45555145 	ldrbmi	r5, [r5, #-325]	; 0xfffffebb
     938:	4f5f5453 	svcmi	0x005f5453
     93c:	45525f52 	ldrbmi	r5, [r2, #-3922]	; 0xfffff0ae
     940:	4e4f5053 	mcrmi	0, 2, r5, cr15, cr3, {2}
     944:	54004553 	strpl	r4, [r0], #-1363	; 0xfffffaad
     948:	545f4741 	ldrbpl	r4, [pc], #-1857	; 950 <SCTLR_ENABLE_BRANCH_PREDICTION+0x150>
     94c:	5f545345 	svcpl	0x00545345
     950:	5245564f 	subpl	r5, r5, #82837504	; 0x4f00000
     954:	4e414353 	mcrmi	3, 2, r4, cr1, cr3, {2}
     958:	47415400 	strbmi	r5, [r1, -r0, lsl #8]
     95c:	5445475f 	strbpl	r4, [r5], #-1887	; 0xfffff8a1
     960:	5249565f 	subpl	r5, r9, #99614720	; 0x5f00000
     964:	4c415554 	cfstr64mi	mvdx5, [r1], {84}	; 0x54
     968:	46464f5f 			; <UNDEFINED> instruction: 0x46464f5f
     96c:	00544553 	subseq	r4, r4, r3, asr r5
     970:	5f474154 	svcpl	0x00474154
     974:	5f544547 	svcpl	0x00544547
     978:	5f4d5241 	svcpl	0x004d5241
     97c:	4f4d454d 	svcmi	0x004d454d
     980:	54005952 	strpl	r5, [r0], #-2386	; 0xfffff6ae
     984:	475f4741 	ldrbmi	r4, [pc, -r1, asr #14]
     988:	445f5445 	ldrbmi	r5, [pc], #-1093	; 990 <SCTLR_ENABLE_BRANCH_PREDICTION+0x190>
     98c:	48545045 	ldmdami	r4, {r0, r2, r6, ip, lr}^
     990:	47415400 	strbmi	r5, [r1, -r0, lsl #8]
     994:	5445475f 	strbpl	r4, [r5], #-1887	; 0xfffff8a1
     998:	5249565f 	subpl	r5, r9, #99614720	; 0x5f00000
     99c:	4c415554 	cfstr64mi	mvdx5, [r1], {84}	; 0x54
     9a0:	5a49535f 	bpl	1255724 <__kernel_end+0x10f3724>
     9a4:	41540045 	cmpmi	r4, r5, asr #32
     9a8:	45525f47 	ldrbmi	r5, [r2, #-3911]	; 0xfffff0b9
     9ac:	5341454c 	movtpl	r4, #5452	; 0x154c
     9b0:	454d5f45 	strbmi	r5, [sp, #-3909]	; 0xfffff0bb
     9b4:	59524f4d 	ldmdbpl	r2, {r0, r2, r3, r6, r8, r9, sl, fp, lr}^
     9b8:	47415400 	strbmi	r5, [r1, -r0, lsl #8]
     9bc:	5445535f 	strbpl	r5, [r5], #-863	; 0xfffffca1
     9c0:	574f505f 	smlsldpl	r5, pc, pc, r0	; <UNPREDICTABLE>
     9c4:	535f5245 	cmppl	pc, #1342177284	; 0x50000004
     9c8:	45544154 	ldrbmi	r4, [r4, #-340]	; 0xfffffeac
     9cc:	47415400 	strbmi	r5, [r1, -r0, lsl #8]
     9d0:	434f4c5f 	movtmi	r4, #64607	; 0xfc5f
     9d4:	454d5f4b 	strbmi	r5, [sp, #-3915]	; 0xfffff0b5
     9d8:	59524f4d 	ldmdbpl	r2, {r0, r2, r3, r6, r8, r9, sl, fp, lr}^
     9dc:	74796200 	ldrbtvc	r6, [r9], #-512	; 0xfffffe00
     9e0:	656c5f65 	strbvs	r5, [ip, #-3941]!	; 0xfffff09b
     9e4:	6874676e 	ldmdavs	r4!, {r1, r2, r3, r5, r6, r8, r9, sl, sp, lr}^
     9e8:	47415400 	strbmi	r5, [r1, -r0, lsl #8]
     9ec:	5445475f 	strbpl	r4, [r5], #-1887	; 0xfffff8a1
     9f0:	504c415f 	subpl	r4, ip, pc, asr r1
     9f4:	4d5f4148 	ldfmie	f4, [pc, #-288]	; 8dc <SCTLR_ENABLE_BRANCH_PREDICTION+0xdc>
     9f8:	0045444f 	subeq	r4, r5, pc, asr #8
     9fc:	5f474154 	svcpl	0x00474154
     a00:	5f544547 	svcpl	0x00544547
     a04:	43544950 	cmpmi	r4, #80, 18	; 0x140000
     a08:	41540048 	cmpmi	r4, r8, asr #32
     a0c:	4c415f47 	mcrrmi	15, 4, r5, r1, cr7
     a10:	41434f4c 	cmpmi	r3, ip, asr #30
     a14:	425f4554 	subsmi	r4, pc, #84, 10	; 0x15000000
     a18:	45464655 	strbmi	r4, [r6, #-1621]	; 0xfffff9ab
     a1c:	5f5f0052 	svcpl	0x005f0052
     a20:	63756e67 	cmnvs	r5, #1648	; 0x670
     a24:	5f61765f 	svcpl	0x0061765f
     a28:	7473696c 	ldrbtvc	r6, [r3], #-2412	; 0xfffff694
     a2c:	47415400 	strbmi	r5, [r1, -r0, lsl #8]
     a30:	5445535f 	strbpl	r5, [r5], #-863	; 0xfffffca1
     a34:	5948505f 	stmdbpl	r8, {r0, r1, r2, r3, r4, r6, ip, lr}^
     a38:	41434953 	cmpmi	r3, r3, asr r9
     a3c:	49535f4c 	ldmdbmi	r3, {r2, r3, r6, r8, r9, sl, fp, ip, lr}^
     a40:	5400455a 	strpl	r4, [r0], #-1370	; 0xfffffaa6
     a44:	475f4741 	ldrbmi	r4, [pc, -r1, asr #14]
     a48:	565f5445 	ldrbpl	r5, [pc], -r5, asr #8
     a4c:	41544c4f 	cmpmi	r4, pc, asr #24
     a50:	54004547 	strpl	r4, [r0], #-1351	; 0xfffffab9
     a54:	535f4741 	cmppl	pc, #17039360	; 0x1040000
     a58:	565f5445 	ldrbpl	r5, [pc], -r5, asr #8
     a5c:	55545249 	ldrbpl	r5, [r4, #-585]	; 0xfffffdb7
     a60:	535f4c41 	cmppl	pc, #16640	; 0x4100
     a64:	00455a49 	subeq	r5, r5, r9, asr #20
     a68:	5f495052 	svcpl	0x00495052
     a6c:	706f7250 	rsbvc	r7, pc, r0, asr r2	; <UNPREDICTABLE>
     a70:	79747265 	ldmdbvc	r4!, {r0, r2, r5, r6, r9, ip, sp, lr}^
     a74:	636f7250 	cmnvs	pc, #80, 4
     a78:	00737365 	rsbseq	r7, r3, r5, ror #6
     a7c:	5f474154 	svcpl	0x00474154
     a80:	43455845 	movtmi	r5, #22597	; 0x5845
     a84:	5f455455 	svcpl	0x00455455
     a88:	45444f43 	strbmi	r4, [r4, #-3907]	; 0xfffff0bd
     a8c:	69707200 	ldmdbvs	r0!, {r9, ip, sp, lr}^
     a90:	69616d5f 	stmdbvs	r1!, {r0, r1, r2, r3, r4, r6, r8, sl, fp, sp, lr}^
     a94:	786f626c 	stmdavc	pc!, {r2, r3, r5, r6, r9, sp, lr}^	; <UNPREDICTABLE>
     a98:	6761745f 			; <UNDEFINED> instruction: 0x6761745f
     a9c:	7400745f 	strvc	r7, [r0], #-1119	; 0xfffffba1
     aa0:	625f6761 	subsvs	r6, pc, #25427968	; 0x1840000
     aa4:	65666675 	strbvs	r6, [r6, #-1653]!	; 0xfffff98b
     aa8:	5f540072 	svcpl	0x00540072
     aac:	4544494f 	strbmi	r4, [r4, #-2383]	; 0xfffff6b1
     ab0:	5400544e 	strpl	r5, [r0], #-1102	; 0xfffffbb2
     ab4:	475f4741 	ldrbmi	r4, [pc, -r1, asr #14]
     ab8:	435f5445 	cmpmi	pc, #1157627904	; 0x45000000
     abc:	414d4d4f 	cmpmi	sp, pc, asr #26
     ac0:	4c5f444e 	cfldrdmi	mvd4, [pc], {78}	; 0x4e
     ac4:	00454e49 	subeq	r4, r5, r9, asr #28
     ac8:	5f474154 	svcpl	0x00474154
     acc:	5f544547 	svcpl	0x00544547
     ad0:	52414f42 	subpl	r4, r1, #264	; 0x108
     ad4:	4f4d5f44 	svcmi	0x004d5f44
     ad8:	004c4544 	subeq	r4, ip, r4, asr #10
     adc:	5f474154 	svcpl	0x00474154
     ae0:	5f544547 	svcpl	0x00544547
     ae4:	4d524946 	ldclmi	9, cr4, [r2, #-280]	; 0xfffffee8
     ae8:	45524157 	ldrbmi	r4, [r2, #-343]	; 0xfffffea9
     aec:	5245565f 	subpl	r5, r5, #99614720	; 0x5f00000
     af0:	4e4f4953 	mcrmi	9, 2, r4, cr15, cr3, {2}
     af4:	66756200 	ldrbtvs	r6, [r5], -r0, lsl #4
     af8:	5f726566 	svcpl	0x00726566
     afc:	54003233 	strpl	r3, [r0], #-563	; 0xfffffdcd
     b00:	475f4741 	ldrbmi	r4, [pc, -r1, asr #14]
     b04:	4d5f5445 	cfldrdmi	mvd5, [pc, #-276]	; 9f8 <SCTLR_ENABLE_BRANCH_PREDICTION+0x1f8>
     b08:	545f5841 	ldrbpl	r5, [pc], #-2113	; b10 <SCTLR_ENABLE_BRANCH_PREDICTION+0x310>
     b0c:	45504d45 	ldrbmi	r4, [r0, #-3397]	; 0xfffff2bb
     b10:	55544152 	ldrbpl	r4, [r4, #-338]	; 0xfffffeae
     b14:	54004552 	strpl	r4, [r0], #-1362	; 0xfffffaae
     b18:	41564f5f 	cmpmi	r6, pc, asr pc
     b1c:	5f45554c 	svcpl	0x0045554c
     b20:	455a4953 	ldrbmi	r4, [sl, #-2387]	; 0xfffff6ad
     b24:	47415400 	strbmi	r5, [r1, -r0, lsl #8]
     b28:	5445535f 	strbpl	r5, [r5], #-863	; 0xfffffca1
     b2c:	5849505f 	stmdapl	r9, {r0, r1, r2, r3, r4, r6, ip, lr}^
     b30:	4f5f4c45 	svcmi	0x005f4c45
     b34:	52454452 	subpl	r4, r5, #1375731712	; 0x52000000
     b38:	47415400 	strbmi	r5, [r1, -r0, lsl #8]
     b3c:	4c4c415f 	stfmie	f4, [ip], {95}	; 0x5f
     b40:	5441434f 	strbpl	r4, [r1], #-847	; 0xfffffcb1
     b44:	454d5f45 	strbmi	r5, [sp, #-3909]	; 0xfffff0bb
     b48:	59524f4d 	ldmdbpl	r2, {r0, r2, r3, r6, r8, r9, sl, fp, lr}^
     b4c:	47415400 	strbmi	r5, [r1, -r0, lsl #8]
     b50:	5445475f 	strbpl	r4, [r5], #-1887	; 0xfffff8a1
     b54:	58414d5f 	stmdapl	r1, {r0, r1, r2, r3, r4, r6, r8, sl, fp, lr}^
     b58:	4c4f565f 	mcrrmi	6, 5, r5, pc, cr15
     b5c:	45474154 	strbmi	r4, [r7, #-340]	; 0xfffffeac
     b60:	47415400 	strbmi	r5, [r1, -r0, lsl #8]
     b64:	5445535f 	strbpl	r5, [r5], #-863	; 0xfffffca1
     b68:	4f4c435f 	svcmi	0x004c435f
     b6c:	525f4b43 	subspl	r4, pc, #68608	; 0x10c00
     b70:	00455441 	subeq	r5, r5, r1, asr #8
     b74:	5f474154 	svcpl	0x00474154
     b78:	5f544547 	svcpl	0x00544547
     b7c:	434f4c43 	movtmi	r4, #64579	; 0xfc43
     b80:	54535f4b 	ldrbpl	r5, [r3], #-3915	; 0xfffff0b5
     b84:	00455441 	subeq	r5, r5, r1, asr #8
     b88:	5f474154 	svcpl	0x00474154
     b8c:	5f544553 	svcpl	0x00544553
     b90:	42525554 	subsmi	r5, r2, #84, 10	; 0x15000000
     b94:	5f54004f 	svcpl	0x0054004f
     b98:	4c41564f 	mcrrmi	6, 4, r5, r1, cr15
     b9c:	54004555 	strpl	r4, [r0], #-1365	; 0xfffffaab
     ba0:	535f4741 	cmppl	pc, #17039360	; 0x1040000
     ba4:	505f5445 	subspl	r5, pc, r5, asr #8
     ba8:	54454c41 	strbpl	r4, [r5], #-3137	; 0xfffff3bf
     bac:	54004554 	strpl	r4, [r0], #-1364	; 0xfffffaac
     bb0:	535f4741 	cmppl	pc, #17039360	; 0x1040000
     bb4:	415f5445 	cmpmi	pc, r5, asr #8
     bb8:	4148504c 	cmpmi	r8, ip, asr #32
     bbc:	444f4d5f 	strbmi	r4, [pc], #-3423	; bc4 <SCTLR_ENABLE_BRANCH_PREDICTION+0x3c4>
     bc0:	41540045 	cmpmi	r4, r5, asr #32
     bc4:	45535f47 	ldrbmi	r5, [r3, #-3911]	; 0xfffff0b9
     bc8:	55435f54 	strbpl	r5, [r3, #-3924]	; 0xfffff0ac
     bcc:	524f5352 	subpl	r5, pc, #1207959553	; 0x48000001
     bd0:	4154535f 	cmpmi	r4, pc, asr r3
     bd4:	54004554 	strpl	r4, [r0], #-1364	; 0xfffffaac
     bd8:	475f4741 	ldrbmi	r4, [pc, -r1, asr #14]
     bdc:	4d5f5445 	cfldrdmi	mvd5, [pc, #-276]	; ad0 <SCTLR_ENABLE_BRANCH_PREDICTION+0x2d0>
     be0:	565f4e49 	ldrbpl	r4, [pc], -r9, asr #28
     be4:	41544c4f 	cmpmi	r4, pc, asr #24
     be8:	54004547 	strpl	r4, [r0], #-1351	; 0xfffffab9
     bec:	475f4741 	ldrbmi	r4, [pc, -r1, asr #14]
     bf0:	435f5445 	cmpmi	pc, #1157627904	; 0x45000000
     bf4:	4b434f4c 	blmi	10d492c <__kernel_end+0xf7292c>
     bf8:	41540053 	cmpmi	r4, r3, asr r0
     bfc:	45535f47 	ldrbmi	r5, [r3, #-3911]	; 0xfffff0b9
     c00:	564f5f54 			; <UNDEFINED> instruction: 0x564f5f54
     c04:	43535245 	cmpmi	r3, #1342177284	; 0x50000004
     c08:	6d004e41 	stcvs	14, cr4, [r0, #-260]	; 0xfffffefc
     c0c:	70636d65 	rsbvc	r6, r3, r5, ror #26
     c10:	5f5f0079 	svcpl	0x005f0079
     c14:	76007061 	strvc	r7, [r0], -r1, rrx
     c18:	65756c61 	ldrbvs	r6, [r5, #-3169]!	; 0xfffff39f
     c1c:	0032335f 	eorseq	r3, r2, pc, asr r3
     c20:	5f474154 	svcpl	0x00474154
     c24:	54534554 	ldrbpl	r4, [r3], #-1364	; 0xfffffaac
     c28:	5249565f 	subpl	r5, r9, #99614720	; 0x5f00000
     c2c:	4c415554 	cfstr64mi	mvdx5, [r1], {84}	; 0x54
     c30:	5a49535f 	bpl	12559b4 <__kernel_end+0x10f39b4>
     c34:	50520045 	subspl	r0, r2, r5, asr #32
     c38:	72505f49 	subsvc	r5, r0, #292	; 0x124
     c3c:	7265706f 	rsbvc	r7, r5, #111	; 0x6f
     c40:	65477974 	strbvs	r7, [r7, #-2420]	; 0xfffff68c
     c44:	41540074 	cmpmi	r4, r4, ror r0
     c48:	45545f47 	ldrbmi	r5, [r4, #-3911]	; 0xfffff0b9
     c4c:	445f5453 	ldrbmi	r5, [pc], #-1107	; c54 <SCTLR_ENABLE_BRANCH_PREDICTION+0x454>
     c50:	48545045 	ldmdami	r4, {r0, r2, r6, ip, lr}^
     c54:	47415400 	strbmi	r5, [r1, -r0, lsl #8]
     c58:	5445475f 	strbpl	r4, [r5], #-1887	; 0xfffff8a1
     c5c:	5349445f 	movtpl	r4, #37983	; 0x945f
     c60:	4e414d50 	mcrmi	13, 2, r4, cr1, cr0, {2}
     c64:	454d5f58 	strbmi	r5, [sp, #-3928]	; 0xfffff0a8
     c68:	41485f4d 	cmpmi	r8, sp, asr #30
     c6c:	454c444e 	strbmi	r4, [ip, #-1102]	; 0xfffffbb2
     c70:	5f747000 	svcpl	0x00747000
     c74:	65646e69 	strbvs	r6, [r4, #-3689]!	; 0xfffff197
     c78:	72610078 	rsbvc	r0, r1, #120	; 0x78
     c7c:	612f6863 			; <UNDEFINED> instruction: 0x612f6863
     c80:	722f6d72 	eorvc	r6, pc, #7296	; 0x1c80
     c84:	6d2d6970 	stcvs	9, cr6, [sp, #-448]!	; 0xfffffe40
     c88:	626c6961 	rsbvs	r6, ip, #1589248	; 0x184000
     c8c:	692d786f 	pushvs	{r0, r1, r2, r3, r5, r6, fp, ip, sp, lr}
     c90:	7265746e 	rsbvc	r7, r5, #1845493760	; 0x6e000000
     c94:	65636166 	strbvs	r6, [r3, #-358]!	; 0xfffffe9a
     c98:	5400632e 	strpl	r6, [r0], #-814	; 0xfffffcd2
     c9c:	555f4741 	ldrbpl	r4, [pc, #-1857]	; 563 <ARM_I_BIT+0x4e3>
     ca0:	434f4c4e 	movtmi	r4, #64590	; 0xfc4e
     ca4:	454d5f4b 	strbmi	r5, [sp, #-3915]	; 0xfffff0b5
     ca8:	59524f4d 	ldmdbpl	r2, {r0, r2, r3, r6, r8, r9, sl, fp, lr}^
     cac:	47415400 	strbmi	r5, [r1, -r0, lsl #8]
     cb0:	5445475f 	strbpl	r4, [r5], #-1887	; 0xfffff8a1
     cb4:	414f425f 	cmpmi	pc, pc, asr r2	; <UNPREDICTABLE>
     cb8:	4d5f4452 	cfldrdmi	mvd4, [pc, #-328]	; b78 <SCTLR_ENABLE_BRANCH_PREDICTION+0x378>
     cbc:	415f4341 	cmpmi	pc, r1, asr #6
     cc0:	45524444 	ldrbmi	r4, [r2, #-1092]	; 0xfffffbbc
     cc4:	54005353 	strpl	r5, [r0], #-851	; 0xfffffcad
     cc8:	475f4741 	ldrbmi	r4, [pc, -r1, asr #14]
     ccc:	545f5445 	ldrbpl	r5, [pc], #-1093	; cd4 <SCTLR_ENABLE_BRANCH_PREDICTION+0x4d4>
     cd0:	4f425255 	svcmi	0x00425255
     cd4:	47415400 	strbmi	r5, [r1, -r0, lsl #8]
     cd8:	5445475f 	strbpl	r4, [r5], #-1887	; 0xfffff8a1
     cdc:	414d445f 	cmpmi	sp, pc, asr r4
     ce0:	4148435f 	cmpmi	r8, pc, asr r3
     ce4:	4c454e4e 	mcrrmi	14, 4, r4, r5, cr14
     ce8:	5f540053 	svcpl	0x00540053
     cec:	5345524f 	movtpl	r5, #21071	; 0x524f
     cf0:	534e4f50 	movtpl	r4, #61264	; 0xef50
     cf4:	41540045 	cmpmi	r4, r5, asr #32
     cf8:	45545f47 	ldrbmi	r5, [r4, #-3911]	; 0xfffff0b9
     cfc:	505f5453 	subspl	r5, pc, r3, asr r4	; <UNPREDICTABLE>
     d00:	49535948 	ldmdbmi	r3, {r3, r6, r8, fp, ip, lr}^
     d04:	5f4c4143 	svcpl	0x004c4143
     d08:	455a4953 	ldrbmi	r4, [sl, #-2387]	; 0xfffff6ad
     d0c:	47415400 	strbmi	r5, [r1, -r0, lsl #8]
     d10:	5445475f 	strbpl	r4, [r5], #-1887	; 0xfffff8a1
     d14:	574f505f 	smlsldpl	r5, pc, pc, r0	; <UNPREDICTABLE>
     d18:	535f5245 	cmppl	pc, #1342177284	; 0x50000004
     d1c:	45544154 	ldrbmi	r4, [r4, #-340]	; 0xfffffeac
     d20:	73657200 	cmnvc	r5, #0, 4
     d24:	00746c75 	rsbseq	r6, r4, r5, ror ip
     d28:	5f474154 	svcpl	0x00474154
     d2c:	5f544547 	svcpl	0x00544547
     d30:	494d4954 	stmdbmi	sp, {r2, r4, r6, r8, fp, lr}^
     d34:	7400474e 	strvc	r4, [r0], #-1870	; 0xfffff8b2
     d38:	72656d69 	rsbvc	r6, r5, #6720	; 0x1a40
     d3c:	69740030 	ldmdbvs	r4!, {r4, r5}^
     d40:	3172656d 	cmncc	r2, sp, ror #10
     d44:	6d697400 	cfstrdvs	mvd7, [r9, #-0]
     d48:	00327265 	eorseq	r7, r2, r5, ror #4
     d4c:	656d6974 	strbvs	r6, [sp, #-2420]!	; 0xfffff68c
     d50:	74003372 	strvc	r3, [r0], #-882	; 0xfffffc8e
     d54:	72656d69 	rsbvc	r6, r5, #6720	; 0x1a40
     d58:	7172695f 	cmnvc	r2, pc, asr r9
     d5c:	656c635f 	strbvs	r6, [ip, #-863]!	; 0xfffffca1
     d60:	72657261 	rsbvc	r7, r5, #268435462	; 0x10000006
     d64:	6d697400 	cfstrdvs	mvd7, [r9, #-0]
     d68:	5f307265 	svcpl	0x00307265
     d6c:	6374616d 	cmnvs	r4, #1073741851	; 0x4000001b
     d70:	00646568 	rsbeq	r6, r4, r8, ror #10
     d74:	656d6974 	strbvs	r6, [sp, #-2420]!	; 0xfffff68c
     d78:	65735f72 	ldrbvs	r5, [r3, #-3954]!	; 0xfffff08e
     d7c:	64750074 	ldrbtvs	r0, [r5], #-116	; 0xffffff8c
     d80:	79616c65 	stmdbvc	r1!, {r0, r2, r5, r6, sl, fp, sp, lr}^
     d84:	6d697400 	cfstrdvs	mvd7, [r9, #-0]
     d88:	725f7265 	subsvc	r7, pc, #1342177286	; 0x50000006
     d8c:	00736765 	rsbseq	r6, r3, r5, ror #14
     d90:	6e756f63 	cdpvs	15, 7, cr6, cr5, cr3, {3}
     d94:	5f726574 	svcpl	0x00726574
     d98:	68676968 	stmdavs	r7!, {r3, r5, r6, r8, fp, sp, lr}^
     d9c:	6d697400 	cfstrdvs	mvd7, [r9, #-0]
     da0:	695f7265 	ldmdbvs	pc, {r0, r2, r5, r6, r9, ip, sp, lr}^	; <UNPREDICTABLE>
     da4:	685f7172 	ldmdavs	pc, {r1, r4, r5, r6, r8, ip, sp, lr}^	; <UNPREDICTABLE>
     da8:	6c646e61 	stclvs	14, cr6, [r4], #-388	; 0xfffffe7c
     dac:	75007265 	strvc	r7, [r0, #-613]	; 0xfffffd9b
     db0:	73636573 	cmnvc	r3, #482344960	; 0x1cc00000
     db4:	6d697400 	cfstrdvs	mvd7, [r9, #-0]
     db8:	5f327265 	svcpl	0x00327265
     dbc:	6374616d 	cmnvs	r4, #1073741851	; 0x4000001b
     dc0:	00646568 	rsbeq	r6, r4, r8, ror #10
     dc4:	656d6974 	strbvs	r6, [sp, #-2420]!	; 0xfffff68c
     dc8:	6d5f3372 	ldclvs	3, cr3, [pc, #-456]	; c08 <SCTLR_ENABLE_BRANCH_PREDICTION+0x408>
     dcc:	68637461 	stmdavs	r3!, {r0, r5, r6, sl, ip, sp, lr}^
     dd0:	63006465 	movwvs	r6, #1125	; 0x465
     dd4:	746e756f 	strbtvc	r7, [lr], #-1391	; 0xfffffa91
     dd8:	6c5f7265 	lfmvs	f7, 2, [pc], {101}	; 0x65
     ddc:	6100776f 	tstvs	r0, pc, ror #14
     de0:	2f686372 	svccs	0x00686372
     de4:	2f6d7261 	svccs	0x006d7261
     de8:	74737973 	ldrbtvc	r7, [r3], #-2419	; 0xfffff68d
     dec:	72656d69 	rsbvc	r6, r5, #6720	; 0x1a40
     df0:	6300632e 	movwvs	r6, #814	; 0x32e
     df4:	00727275 	rsbseq	r7, r2, r5, ror r2
     df8:	656d6974 	strbvs	r6, [sp, #-2420]!	; 0xfffff68c
     dfc:	65725f72 	ldrbvs	r5, [r2, #-3954]!	; 0xfffff08e
     e00:	74736967 	ldrbtvc	r6, [r3], #-2407	; 0xfffff699
     e04:	5f737265 	svcpl	0x00737265
     e08:	69740074 	ldmdbvs	r4!, {r2, r4, r5, r6}^
     e0c:	5f72656d 	svcpl	0x0072656d
     e10:	746e6f63 	strbtvc	r6, [lr], #-3939	; 0xfffff09d
     e14:	5f6c6f72 	svcpl	0x006c6f72
     e18:	5f676572 	svcpl	0x00676572
     e1c:	65720074 	ldrbvs	r0, [r2, #-116]!	; 0xffffff8c
     e20:	76726573 			; <UNDEFINED> instruction: 0x76726573
     e24:	74006465 	strvc	r6, [r0], #-1125	; 0xfffffb9b
     e28:	72656d69 	rsbvc	r6, r5, #6720	; 0x1a40
     e2c:	616d5f31 	cmnvs	sp, r1, lsr pc
     e30:	65686374 	strbvs	r6, [r8, #-884]!	; 0xfffffc8c
     e34:	74730064 	ldrbtvc	r0, [r3], #-100	; 0xffffff9c
     e38:	5f747261 	svcpl	0x00747261
     e3c:	00756d6d 	rsbseq	r6, r5, sp, ror #26
     e40:	67616c66 	strbvs	r6, [r1, -r6, ror #24]!
     e44:	6e690073 	mcrvs	0, 3, r0, cr9, cr3, {3}
     e48:	61697469 	cmnvs	r9, r9, ror #8
     e4c:	657a696c 	ldrbvs	r6, [sl, #-2412]!	; 0xfffff694
     e50:	7269765f 	rsbvc	r7, r9, #99614720	; 0x5f00000
     e54:	6c617574 	cfstr64vs	mvdx7, [r1], #-464	; 0xfffffe30
     e58:	6d656d5f 	stclvs	13, cr6, [r5, #-380]!	; 0xfffffe84
     e5c:	0079726f 	rsbseq	r7, r9, pc, ror #4
     e60:	6c626174 	stfvse	f6, [r2], #-464	; 0xfffffe30
     e64:	6e453165 	dvfvssz	f3, f5, f5
     e68:	4f797274 	svcmi	0x00797274
     e6c:	65736666 	ldrbvs	r6, [r3, #-1638]!	; 0xfffff99a
     e70:	61740074 	cmnvs	r4, r4, ror r0
     e74:	45656c62 	strbmi	r6, [r5, #-3170]!	; 0xfffff39e
     e78:	7972746e 	ldmdbvc	r2!, {r1, r2, r3, r5, r6, sl, ip, sp, lr}^
     e7c:	54555000 	ldrbpl	r5, [r5], #-0
     e80:	6d003233 	sfmvs	f3, 4, [r0, #-204]	; 0xffffff34
     e84:	762f6d65 	strtvc	r6, [pc], -r5, ror #26
     e88:	6d747269 	lfmvs	f7, 2, [r4, #-420]!	; 0xfffffe5c
     e8c:	632e6d65 			; <UNDEFINED> instruction: 0x632e6d65
     e90:	62617400 	rsbvs	r7, r1, #0, 8
     e94:	4531656c 	ldrmi	r6, [r1, #-1388]!	; 0xfffffa94
     e98:	7972746e 	ldmdbvc	r2!, {r1, r2, r3, r5, r6, sl, ip, sp, lr}^
     e9c:	72646441 	rsbvc	r6, r4, #1090519040	; 0x41000000
     ea0:	00737365 	rsbseq	r7, r3, r5, ror #6
     ea4:	5f756d6d 	svcpl	0x00756d6d
     ea8:	74636573 	strbtvc	r6, [r3], #-1395	; 0xfffffa8d
     eac:	006e6f69 	rsbeq	r6, lr, r9, ror #30
     eb0:	64646176 	strbtvs	r6, [r4], #-374	; 0xfffffe8a
     eb4:	6b5f5f00 	blvs	17d8abc <__kernel_end+0x1676abc>
     eb8:	656e7265 	strbvs	r7, [lr, #-613]!	; 0xfffffd9b
     ebc:	6e655f6c 	cdpvs	15, 6, cr5, cr5, cr12, {3}
     ec0:	4d4d0064 	stclmi	0, cr0, [sp, #-400]	; 0xfffffe70
     ec4:	42415455 	submi	r5, r1, #1426063360	; 0x55000000
     ec8:	4142454c 	cmpmi	r2, ip, asr #10
     ecc:	5f004553 	svcpl	0x00004553
     ed0:	7269665f 	rsbvc	r6, r9, #99614720	; 0x5f00000
     ed4:	6c5f7473 	cfldrdvs	mvd7, [pc], {115}	; 0x73
     ed8:	745f6c76 	ldrbvc	r6, [pc], #-3190	; ee0 <SCTLR_ENABLE_BRANCH_PREDICTION+0x6e0>
     edc:	625f6c62 	subsvs	r6, pc, #25088	; 0x6200
     ee0:	00657361 	rsbeq	r7, r5, r1, ror #6
     ee4:	64646170 	strbtvs	r6, [r4], #-368	; 0xfffffe90
     ee8:	74656700 	strbtvc	r6, [r5], #-1792	; 0xfffff900
     eec:	6d756e5f 	ldclvs	14, cr6, [r5, #-380]!	; 0xfffffe84
     ef0:	5f666f5f 	svcpl	0x00666f5f
     ef4:	65657266 	strbvs	r7, [r5, #-614]!	; 0xfffffd9a
     ef8:	6761705f 			; <UNDEFINED> instruction: 0x6761705f
     efc:	70007365 	andvc	r7, r0, r5, ror #6
     f00:	6c656761 	stclvs	7, cr6, [r5], #-388	; 0xfffffe7c
     f04:	00747369 	rsbseq	r7, r4, r9, ror #6
     f08:	6f6c6c61 	svcvs	0x006c6c61
     f0c:	61705f63 	cmnvs	r0, r3, ror #30
     f10:	6b006567 	blvs	1a4b4 <__bss_end+0x44b4>
     f14:	656e7265 	strbvs	r7, [lr, #-613]!	; 0xfffffd9b
     f18:	61705f6c 	cmnvs	r0, ip, ror #30
     f1c:	00736567 	rsbseq	r6, r3, r7, ror #10
     f20:	65676170 	strbvs	r6, [r7, #-368]!	; 0xfffffe90
     f24:	7272615f 	rsbsvc	r6, r2, #-1073741801	; 0xc0000017
     f28:	6c5f7961 	mrrcvs	9, 6, r7, pc, cr1	; <UNPREDICTABLE>
     f2c:	70006e65 	andvc	r6, r0, r5, ror #28
     f30:	5f6b6565 	svcpl	0x006b6565
     f34:	65676170 	strbvs	r6, [r7, #-368]!	; 0xfffffe90
     f38:	73696c5f 	cmnvc	r9, #24320	; 0x5f00
     f3c:	65670074 	strbvs	r0, [r7, #-116]!	; 0xffffff8c
     f40:	656d5f74 	strbvs	r5, [sp, #-3956]!	; 0xfffff08c
     f44:	69735f6d 	ldmdbvs	r3!, {r0, r2, r3, r5, r6, r8, r9, sl, fp, ip, lr}^
     f48:	7000657a 	andvc	r6, r0, sl, ror r5
     f4c:	5f656761 	svcpl	0x00656761
     f50:	67616c66 	strbvs	r6, [r1, -r6, ror #24]!
     f54:	00745f73 	rsbseq	r5, r4, r3, ror pc
     f58:	65676170 	strbvs	r6, [r7, #-368]!	; 0xfffffe90
     f5c:	6e00745f 	cfmvsrvs	mvf0, r7
     f60:	70747865 	rsbsvc	r7, r4, r5, ror #16
     f64:	00656761 	rsbeq	r6, r5, r1, ror #14
     f68:	65657266 	strbvs	r7, [r5, #-614]!	; 0xfffffd9a
     f6c:	6761705f 			; <UNDEFINED> instruction: 0x6761705f
     f70:	61740065 	cmnvs	r4, r5, rrx
     f74:	6e006c69 	cdpvs	12, 0, cr6, cr0, cr9, {3}
     f78:	5f747865 	svcpl	0x00747865
     f7c:	65676170 	strbvs	r6, [r7, #-368]!	; 0xfffffe90
     f80:	73696c5f 	cmnvc	r9, #24320	; 0x5f00
     f84:	6f6e0074 	svcvs	0x006e0074
     f88:	6b006564 	blvs	1a520 <__bss_end+0x4520>
     f8c:	656e7265 	strbvs	r7, [lr, #-613]!	; 0xfffffd9b
     f90:	61705f6c 	cmnvs	r0, ip, ror #30
     f94:	70006567 	andvc	r6, r0, r7, ror #10
     f98:	5f687375 	svcpl	0x00687375
     f9c:	65676170 	strbvs	r6, [r7, #-368]!	; 0xfffffe90
     fa0:	73696c5f 	cmnvc	r9, #24320	; 0x5f00
     fa4:	656d0074 	strbvs	r0, [sp, #-116]!	; 0xffffff8c
     fa8:	6e695f6d 	cdpvs	15, 6, cr5, cr9, cr13, {3}
     fac:	6d007469 	cfstrsvs	mvf7, [r0, #-420]	; 0xfffffe5c
     fb0:	702f6d65 	eorvc	r6, pc, r5, ror #26
     fb4:	6d737968 	ldclvs	9, cr7, [r3, #-416]!	; 0xfffffe60
     fb8:	632e6d65 			; <UNDEFINED> instruction: 0x632e6d65
     fbc:	706f7000 	rsbvc	r7, pc, r0
     fc0:	6761705f 			; <UNDEFINED> instruction: 0x6761705f
     fc4:	696c5f65 	stmdbvs	ip!, {r0, r2, r5, r6, r8, r9, sl, fp, ip, lr}^
     fc8:	68007473 	stmdavs	r0, {r0, r1, r4, r5, r6, sl, ip, sp, lr}
     fcc:	00646165 	rsbeq	r6, r4, r5, ror #2
     fd0:	65676170 	strbvs	r6, [r7, #-368]!	; 0xfffffe90
     fd4:	73696c5f 	cmnvc	r9, #24320	; 0x5f00
     fd8:	00745f74 	rsbseq	r5, r4, r4, ror pc
     fdc:	5f6d756e 	svcpl	0x006d756e
     fe0:	65676170 	strbvs	r6, [r7, #-368]!	; 0xfffffe90
     fe4:	72610073 	rsbvc	r0, r1, #115	; 0x73
     fe8:	656d5f6d 	strbvs	r5, [sp, #-3949]!	; 0xfffff093
     fec:	69735f6d 	ldmdbvs	r3!, {r0, r2, r3, r5, r6, r8, r9, sl, fp, ip, lr}^
     ff0:	7600657a 			; <UNDEFINED> instruction: 0x7600657a
     ff4:	72646461 	rsbvc	r6, r4, #1627389952	; 0x61000000
     ff8:	70616d5f 	rsbvc	r6, r1, pc, asr sp
     ffc:	00646570 	rsbeq	r6, r4, r0, ror r5
    1000:	6f6c6c61 	svcvs	0x006c6c61
    1004:	65746163 	ldrbvs	r6, [r4, #-355]!	; 0xfffffe9d
    1008:	69730064 	ldmdbvs	r3!, {r2, r5, r6}^
    100c:	705f657a 	subsvc	r6, pc, sl, ror r5	; <UNPREDICTABLE>
    1010:	5f656761 	svcpl	0x00656761
    1014:	7473696c 	ldrbtvc	r6, [r3], #-2412	; 0xfffff694
    1018:	70706100 	rsbsvc	r6, r0, r0, lsl #2
    101c:	5f646e65 	svcpl	0x00646e65
    1020:	65676170 	strbvs	r6, [r7, #-368]!	; 0xfffffe90
    1024:	73696c5f 	cmnvc	r9, #24320	; 0x5f00
    1028:	61700074 	cmnvs	r0, r4, ror r0
    102c:	6d5f6567 	cfldr64vs	mvdx6, [pc, #-412]	; e98 <SCTLR_ENABLE_BRANCH_PREDICTION+0x698>
    1030:	70006d65 	andvc	r6, r0, r5, ror #26
    1034:	70766572 	rsbsvc	r6, r6, r2, ror r5
    1038:	00656761 	rsbeq	r6, r5, r1, ror #14
    103c:	5f6c6c61 	svcpl	0x006c6c61
    1040:	65676170 	strbvs	r6, [r7, #-368]!	; 0xfffffe90
    1044:	72615f73 	rsbvc	r5, r1, #460	; 0x1cc
    1048:	00796172 	rsbseq	r6, r9, r2, ror r1
    104c:	6f696d6d 	svcvs	0x00696d6d
    1050:	6972775f 	ldmdbvs	r2!, {r0, r1, r2, r3, r4, r6, r8, r9, sl, ip, sp, lr}^
    1054:	6d006574 	cfstr32vs	mvfx6, [r0, #-464]	; 0xfffffe30
    1058:	5f6f696d 	svcpl	0x006f696d
    105c:	64616572 	strbtvs	r6, [r1], #-1394	; 0xfffffa8e
    1060:	52415500 	subpl	r5, r1, #0, 10
    1064:	4d5f3054 	ldclmi	0, cr3, [pc, #-336]	; f1c <SCTLR_ENABLE_BRANCH_PREDICTION+0x71c>
    1068:	55005349 	strpl	r5, [r0, #-841]	; 0xfffffcb7
    106c:	30545241 	subscc	r5, r4, r1, asr #4
    1070:	0052445f 	subseq	r4, r2, pc, asr r4
    1074:	54524155 	ldrbpl	r4, [r2], #-341	; 0xfffffeab
    1078:	41425f30 	cmpmi	r2, r0, lsr pc
    107c:	63004553 	movwvs	r4, #1363	; 0x553
    1080:	746e756f 	strbtvc	r7, [lr], #-1391	; 0xfffffa91
    1084:	52415500 	subpl	r5, r1, #0, 10
    1088:	495f3054 	ldmdbmi	pc, {r2, r4, r6, ip, sp}^	; <UNPREDICTABLE>
    108c:	00504f54 	subseq	r4, r0, r4, asr pc
    1090:	55505047 	ldrbpl	r5, [r0, #-71]	; 0xffffffb9
    1094:	4b4c4344 	blmi	1311dac <__kernel_end+0x11afdac>
    1098:	61750030 	cmnvs	r5, r0, lsr r0
    109c:	695f7472 	ldmdbvs	pc, {r1, r4, r5, r6, sl, ip, sp, lr}^	; <UNPREDICTABLE>
    10a0:	0074696e 	rsbseq	r6, r4, lr, ror #18
    10a4:	55505047 	ldrbpl	r5, [r0, #-71]	; 0xffffffb9
    10a8:	61750044 	cmnvs	r5, r4, asr #32
    10ac:	675f7472 			; <UNDEFINED> instruction: 0x675f7472
    10b0:	00637465 	rsbeq	r7, r3, r5, ror #8
    10b4:	54524155 	ldrbpl	r4, [r2], #-341	; 0xfffffeab
    10b8:	42495f30 	submi	r5, r9, #48, 30	; 0xc0
    10bc:	55004452 	strpl	r4, [r0, #-1106]	; 0xfffffbae
    10c0:	30545241 	subscc	r5, r4, r1, asr #4
    10c4:	0052465f 	subseq	r4, r2, pc, asr r6
    10c8:	54524155 	ldrbpl	r4, [r2], #-341	; 0xfffffeab
    10cc:	434c5f30 	movtmi	r5, #53040	; 0xcf30
    10d0:	55004852 	strpl	r4, [r0, #-2130]	; 0xfffff7ae
    10d4:	30545241 	subscc	r5, r4, r1, asr #4
    10d8:	5349525f 	movtpl	r5, #37471	; 0x925f
    10dc:	52415500 	subpl	r5, r1, #0, 10
    10e0:	495f3054 	ldmdbmi	pc, {r2, r4, r6, ip, sp}^	; <UNPREDICTABLE>
    10e4:	64005243 	strvs	r5, [r0], #-579	; 0xfffffdbd
    10e8:	63697665 	cmnvs	r9, #105906176	; 0x6500000
    10ec:	61752f65 	cmnvs	r5, r5, ror #30
    10f0:	2e307472 	mrccs	4, 1, r7, cr0, cr2, {3}
    10f4:	41550063 	cmpmi	r5, r3, rrx
    10f8:	5f305452 	svcpl	0x00305452
    10fc:	45525352 	ldrbmi	r5, [r2, #-850]	; 0xfffffcae
    1100:	55005243 	strpl	r5, [r0, #-579]	; 0xfffffdbd
    1104:	30545241 	subscc	r5, r4, r1, asr #4
    1108:	414d445f 	cmpmi	sp, pc, asr r4
    110c:	55005243 	strpl	r5, [r0, #-579]	; 0xfffffdbd
    1110:	30545241 	subscc	r5, r4, r1, asr #4
    1114:	534d495f 	movtpl	r4, #55647	; 0xd95f
    1118:	41550043 	cmpmi	r5, r3, asr #32
    111c:	5f305452 	svcpl	0x00305452
    1120:	534c4649 	movtpl	r4, #50761	; 0xc649
    1124:	78656800 	stmdavc	r5!, {fp, sp, lr}^
    1128:	69727473 	ldmdbvs	r2!, {r0, r1, r4, r5, r6, sl, ip, sp, lr}^
    112c:	0073676e 	rsbseq	r6, r3, lr, ror #14
    1130:	4f495047 	svcmi	0x00495047
    1134:	5341425f 	movtpl	r4, #4703	; 0x125f
    1138:	41550045 	cmpmi	r5, r5, asr #32
    113c:	5f305452 	svcpl	0x00305452
    1140:	55005243 	strpl	r5, [r0, #-579]	; 0xfffffdbd
    1144:	30545241 	subscc	r5, r4, r1, asr #4
    1148:	4354495f 	cmpmi	r4, #1556480	; 0x17c000
    114c:	41550052 	cmpmi	r5, r2, asr r0
    1150:	5f305452 	svcpl	0x00305452
    1154:	00524454 	subseq	r4, r2, r4, asr r4
    1158:	54524155 	ldrbpl	r4, [r2], #-341	; 0xfffffeab
    115c:	42465f30 	submi	r5, r6, #48, 30	; 0xc0
    1160:	55004452 	strpl	r4, [r0, #-1106]	; 0xfffffbae
    1164:	30545241 	subscc	r5, r4, r1, asr #4
    1168:	504c495f 	subpl	r4, ip, pc, asr r9
    116c:	61750052 	cmnvs	r5, r2, asr r0
    1170:	705f7472 	subsvc	r7, pc, r2, ror r4	; <UNPREDICTABLE>
    1174:	00637475 	rsbeq	r7, r3, r5, ror r4
    1178:	54524155 	ldrbpl	r4, [r2], #-341	; 0xfffffeab
    117c:	54495f30 	strbpl	r5, [r9], #-3888	; 0xfffff0d0
    1180:	64005049 	strvs	r5, [r0], #-73	; 0xffffffb7
    1184:	00747365 	rsbseq	r7, r4, r5, ror #6
    1188:	7478656e 	ldrbtvc	r6, [r8], #-1390	; 0xfffffa92
    118c:	42454400 	submi	r4, r5, #0, 8
    1190:	73004755 	movwvc	r4, #1877	; 0x755
    1194:	5f776f68 	svcpl	0x00776f68
    1198:	5f616d64 	svcpl	0x00616d64
    119c:	6f6d6564 	svcvs	0x006d6564
    11a0:	74736400 	ldrbtvc	r6, [r3], #-1024	; 0xfffffc00
    11a4:	6464615f 	strbtvs	r6, [r4], #-351	; 0xfffffea1
    11a8:	6d640072 	stclvs	0, cr0, [r4, #-456]!	; 0xfffffe38
    11ac:	65645f61 	strbvs	r5, [r4, #-3937]!	; 0xfffff09f
    11b0:	705f7473 	subsvc	r7, pc, r3, ror r4	; <UNPREDICTABLE>
    11b4:	5f656761 	svcpl	0x00656761
    11b8:	6d640031 	stclvs	0, cr0, [r4, #-196]!	; 0xffffff3c
    11bc:	65645f61 	strbvs	r5, [r4, #-3937]!	; 0xfffff09f
    11c0:	705f7473 	subsvc	r7, pc, r3, ror r4	; <UNPREDICTABLE>
    11c4:	5f656761 	svcpl	0x00656761
    11c8:	4f530032 	svcmi	0x00530032
    11cc:	45435255 	strbmi	r5, [r3, #-597]	; 0xfffffdab
    11d0:	0044415f 	subeq	r4, r4, pc, asr r1
    11d4:	69766564 	ldmdbvs	r6!, {r2, r5, r6, r8, sl, sp, lr}^
    11d8:	642f6563 	strtvs	r6, [pc], #-1379	; 11e0 <SCTLR_ENABLE_INSTRUCTION_CACHE+0x1e0>
    11dc:	632e616d 			; <UNDEFINED> instruction: 0x632e616d
    11e0:	69727000 	ldmdbvs	r2!, {ip, sp, lr}^
    11e4:	615f746e 	cmpvs	pc, lr, ror #8
    11e8:	00616572 	rsbeq	r6, r1, r2, ror r5
    11ec:	5f637273 	svcpl	0x00637273
    11f0:	72646461 	rsbvc	r6, r4, #1627389952	; 0x61000000
    11f4:	616d6400 	cmnvs	sp, r0, lsl #8
    11f8:	6372735f 	cmnvs	r2, #2080374785	; 0x7c000001
    11fc:	6761705f 			; <UNDEFINED> instruction: 0x6761705f
    1200:	00315f65 	eorseq	r5, r1, r5, ror #30
    1204:	5f616d64 	svcpl	0x00616d64
    1208:	72695f30 	rsbvc	r5, r9, #48, 30	; 0xc0
    120c:	6c635f71 	stclvs	15, cr5, [r3], #-452	; 0xfffffe3c
    1210:	65726165 	ldrbvs	r6, [r2, #-357]!	; 0xfffffe9b
    1214:	54530072 	ldrbpl	r0, [r3], #-114	; 0xffffff8e
    1218:	45444952 	strbmi	r4, [r4, #-2386]	; 0xfffff6ae
    121c:	53454400 	movtpl	r4, #21504	; 0x5400
    1220:	44415f54 	strbmi	r5, [r1], #-3924	; 0xfffff0ac
    1224:	616d6400 	cmnvs	sp, r0, lsl #8
    1228:	5f62635f 	svcpl	0x0062635f
    122c:	65676170 	strbvs	r6, [r7, #-368]!	; 0xfffffe90
    1230:	69727700 	ldmdbvs	r2!, {r8, r9, sl, ip, sp, lr}^
    1234:	69426574 	stmdbvs	r2, {r2, r4, r5, r6, r8, sl, sp, lr}^
    1238:	73616d74 	cmnvc	r1, #116, 26	; 0x1d00
    123c:	0064656b 	rsbeq	r6, r4, fp, ror #10
    1240:	52465854 	subpl	r5, r6, #84, 16	; 0x540000
    1244:	4e454c5f 	mcrmi	12, 2, r4, cr5, cr15, {2}
    1248:	58454e00 	stmdapl	r5, {r9, sl, fp, lr}^
    124c:	4e4f4354 	mcrmi	3, 2, r4, cr15, cr4, {2}
    1250:	64004b42 	strvs	r4, [r0], #-2882	; 0xfffff4be
    1254:	6843616d 	stmdavs	r3, {r0, r2, r3, r5, r6, r8, sp, lr}^
    1258:	006d754e 	rsbeq	r7, sp, lr, asr #10
    125c:	69727473 	ldmdbvs	r2!, {r0, r1, r4, r5, r6, sl, ip, sp, lr}^
    1260:	64006564 	strvs	r6, [r0], #-1380	; 0xfffffa9c
    1264:	6548616d 	strbvs	r6, [r8, #-365]	; 0xfffffe93
    1268:	72656461 	rsbvc	r6, r5, #1627389952	; 0x61000000
    126c:	6d636200 	sfmvs	f6, 2, [r3, #-0]
    1270:	35333832 	ldrcc	r3, [r3, #-2098]!	; 0xfffff7ce
    1274:	616d645f 	cmnvs	sp, pc, asr r4
    1278:	0062635f 	rsbeq	r6, r2, pc, asr r3
    127c:	424e4f43 	submi	r4, lr, #268	; 0x10c
    1280:	415f4b4c 	cmpmi	pc, ip, asr #22
    1284:	6d640044 	stclvs	0, cr0, [r4, #-272]!	; 0xfffffef0
    1288:	73614261 	cmnvc	r1, #268435462	; 0x10000006
    128c:	6d654d65 	stclvs	13, cr4, [r5, #-404]!	; 0xfffffe6c
    1290:	74616400 	strbtvc	r6, [r1], #-1024	; 0xfffffc00
    1294:	656c5f61 	strbvs	r5, [ip, #-3937]!	; 0xfffff09f
    1298:	6874676e 	ldmdavs	r4!, {r1, r2, r3, r5, r6, r8, r9, sl, sp, lr}^
    129c:	616d4400 	cmnvs	sp, r0, lsl #8
    12a0:	6e616843 	cdpvs	8, 6, cr6, cr1, cr3, {2}
    12a4:	486c656e 	stmdami	ip!, {r1, r2, r3, r5, r6, r8, sl, sp, lr}^
    12a8:	65646165 	strbvs	r6, [r4, #-357]!	; 0xfffffe9b
    12ac:	616d0072 	smcvs	53250	; 0xd002
    12b0:	69006b73 	stmdbvs	r0, {r0, r1, r4, r5, r6, r8, r9, fp, sp, lr}
    12b4:	006f666e 	rsbeq	r6, pc, lr, ror #12
    12b8:	5f616d64 	svcpl	0x00616d64
    12bc:	72695f30 	rsbvc	r5, r9, #48, 30	; 0xc0
    12c0:	61685f71 	smcvs	34289	; 0x85f1
    12c4:	656c646e 	strbvs	r6, [ip, #-1134]!	; 0xfffffb92
    12c8:	6f630072 	svcvs	0x00630072
    12cc:	73007970 	movwvc	r7, #2416	; 0x970
    12d0:	705f6372 	subsvc	r6, pc, r2, ror r3	; <UNPREDICTABLE>
    12d4:	64007274 	strvs	r7, [r0], #-628	; 0xfffffd8c
    12d8:	5f617461 	svcpl	0x00617461
    12dc:	61727261 	cmnvs	r2, r1, ror #4
    12e0:	75740079 	ldrbvc	r0, [r4, #-121]!	; 0xffffff87
    12e4:	6f5f6e72 	svcvs	0x005f6e72
    12e8:	755f6666 	ldrbvc	r6, [pc, #-1638]	; c8a <SCTLR_ENABLE_BRANCH_PREDICTION+0x48a>
    12ec:	75006273 	strvc	r6, [r0, #-627]	; 0xfffffd8d
    12f0:	685f6273 	ldmdavs	pc, {r0, r1, r4, r5, r6, r9, sp, lr}^	; <UNPREDICTABLE>
    12f4:	645f6463 	ldrbvs	r6, [pc], #-1123	; 12fc <SCTLR_ENABLE_INSTRUCTION_CACHE+0x2fc>
    12f8:	63697665 	cmnvs	r9, #105906176	; 0x6500000
    12fc:	64695f65 	strbtvs	r5, [r9], #-3941	; 0xfffff09b
    1300:	62737500 	rsbsvs	r7, r3, #0, 10
    1304:	696e695f 	stmdbvs	lr!, {r0, r1, r2, r3, r4, r6, r8, fp, sp, lr}^
    1308:	6c616974 	stclvs	9, cr6, [r1], #-464	; 0xfffffe30
    130c:	00657369 	rsbeq	r7, r5, r9, ror #6
    1310:	6e697270 	mcrvs	2, 3, r7, cr9, cr0, {3}
    1314:	73755f74 	cmnvc	r5, #116, 30	; 0x1d0
    1318:	6f705f62 	svcvs	0x00705f62
    131c:	5f726577 	svcpl	0x00726577
    1320:	74617473 	strbtvc	r7, [r1], #-1139	; 0xfffffb8d
    1324:	65640065 	strbvs	r0, [r4, #-101]!	; 0xffffff9b
    1328:	65636976 	strbvs	r6, [r3, #-2422]!	; 0xfffff68a
    132c:	6273752f 	rsbsvs	r7, r3, #197132288	; 0xbc00000
    1330:	7000632e 	andvc	r6, r0, lr, lsr #6
    1334:	7265776f 	rsbvc	r7, r5, #29097984	; 0x1bc0000
    1338:	5f6e6f5f 	svcpl	0x006e6f5f
    133c:	74736f68 	ldrbtvc	r6, [r3], #-3944	; 0xfffff098
    1340:	6e6f635f 	mcrvs	3, 3, r6, cr15, cr15, {2}
    1344:	6c6f7274 	sfmvs	f7, 2, [pc], #-464	; 117c <SCTLR_ENABLE_INSTRUCTION_CACHE+0x17c>
    1348:	0072656c 	rsbseq	r6, r2, ip, ror #10
    134c:	6e727574 	mrcvs	5, 3, r7, cr2, cr4, {3}
    1350:	5f6e6f5f 	svcpl	0x006e6f5f
    1354:	00627375 	rsbeq	r7, r2, r5, ror r3
    1358:	6e72656b 	cdpvs	5, 7, cr6, cr2, cr11, {3}
    135c:	6b2f6c65 	blvs	bdc4f8 <__kernel_end+0xa7a4f8>
    1360:	656e7265 	strbvs	r7, [lr, #-613]!	; 0xfffffd9b
    1364:	00632e6c 	rsbeq	r2, r3, ip, ror #28
    1368:	67617461 	strbvs	r7, [r1, -r1, ror #8]!
    136c:	4e470073 	mcrmi	0, 2, r0, cr7, cr3, {3}
    1370:	31432055 	qdaddcc	r2, r5, r3
    1374:	2e352031 	mrccs	0, 1, r2, cr5, cr1, {1}
    1378:	20312e34 	eorscs	r2, r1, r4, lsr lr
    137c:	36313032 			; <UNDEFINED> instruction: 0x36313032
    1380:	39313930 	ldmdbcc	r1!, {r4, r5, r8, fp, ip, sp}
    1384:	65722820 	ldrbvs	r2, [r2, #-2080]!	; 0xfffff7e0
    1388:	7361656c 	cmnvc	r1, #108, 10	; 0x1b000000
    138c:	5b202965 	blpl	80b928 <__kernel_end+0x6a9928>
    1390:	2f4d5241 	svccs	0x004d5241
    1394:	65626d65 	strbvs	r6, [r2, #-3429]!	; 0xfffff29b
    1398:	64656464 	strbtvs	r6, [r5], #-1124	; 0xfffffb9c
    139c:	622d352d 	eorvs	r3, sp, #188743680	; 0xb400000
    13a0:	636e6172 	cmnvs	lr, #-2147483620	; 0x8000001c
    13a4:	65722068 	ldrbvs	r2, [r2, #-104]!	; 0xffffff98
    13a8:	69736976 	ldmdbvs	r3!, {r1, r2, r4, r5, r6, r8, fp, sp, lr}^
    13ac:	32206e6f 	eorcc	r6, r0, #1776	; 0x6f0
    13b0:	39343034 	ldmdbcc	r4!, {r2, r4, r5, ip, sp}
    13b4:	2d205d36 	stccs	13, cr5, [r0, #-216]!	; 0xffffff28
    13b8:	4f2d2067 	svcmi	0x002d2067
    13bc:	732d2032 			; <UNDEFINED> instruction: 0x732d2032
    13c0:	673d6474 			; <UNDEFINED> instruction: 0x673d6474
    13c4:	3131756e 	teqcc	r1, lr, ror #10
    13c8:	66662d20 	strbtvs	r2, [r6], -r0, lsr #26
    13cc:	73656572 	cmnvc	r5, #478150656	; 0x1c800000
    13d0:	646e6174 	strbtvs	r6, [lr], #-372	; 0xfffffe8c
    13d4:	00676e69 	rsbeq	r6, r7, r9, ror #28
    13d8:	70747364 	rsbsvc	r7, r4, r4, ror #6
    13dc:	73007274 	movwvc	r7, #628	; 0x274
    13e0:	74706372 	ldrbtvc	r6, [r0], #-882	; 0xfffffc8e
    13e4:	552f0072 	strpl	r0, [pc, #-114]!	; 137a <SCTLR_ENABLE_INSTRUCTION_CACHE+0x37a>
    13e8:	73726573 	cmnvc	r2, #482344960	; 0x1cc00000
    13ec:	6172702f 	cmnvs	r2, pc, lsr #32
    13f0:	6873616b 	ldmdavs	r3!, {r0, r1, r3, r5, r6, r8, sp, lr}^
    13f4:	6b726f62 	blvs	1c9d184 <__kernel_end+0x1b3b184>
    13f8:	442f7261 	strtmi	r7, [pc], #-609	; 1400 <SCTLR_ENABLE_INSTRUCTION_CACHE+0x400>
    13fc:	746b7365 	strbtvc	r7, [fp], #-869	; 0xfffffc9b
    1400:	522f706f 	eorpl	r7, pc, #111	; 0x6f
    1404:	746f6d65 	strbtvc	r6, [pc], #-3429	; 140c <SCTLR_ENABLE_INSTRUCTION_CACHE+0x40c>
    1408:	65525f65 	ldrbvs	r5, [r2, #-3941]	; 0xfffff09b
    140c:	722f6f70 	eorvc	r6, pc, #112, 30	; 0x1c0
    1410:	6f2d6970 	svcvs	0x002d6970
    1414:	61752d73 	cmnvs	r5, r3, ror sp
    1418:	722f7472 	eorvc	r7, pc, #1912602624	; 0x72000000
    141c:	62336970 	eorsvs	r6, r3, #112, 18	; 0x1c0000
    1420:	61656d2d 	cmnvs	r5, sp, lsr #26
    1424:	732d7974 			; <UNDEFINED> instruction: 0x732d7974
    1428:	656c656b 	strbvs	r6, [ip, #-1387]!	; 0xfffffa95
    142c:	2f6e6f74 	svccs	0x006e6f74
    1430:	6362696c 	cmnvs	r2, #108, 18	; 0x1b0000
    1434:	72747300 	rsbsvc	r7, r4, #0, 6
    1438:	2f676e69 	svccs	0x00676e69
    143c:	636d656d 	cmnvs	sp, #457179136	; 0x1b400000
    1440:	632e7970 			; <UNDEFINED> instruction: 0x632e7970
    1444:	64747300 	ldrbtvs	r7, [r4], #-768	; 0xfffffd00
    1448:	702f6f69 	eorvc	r6, pc, r9, ror #30
    144c:	746e6972 	strbtvc	r6, [lr], #-2418	; 0xfffff68e
    1450:	00632e66 	rsbeq	r2, r3, r6, ror #28
    1454:	74757066 	ldrbtvc	r7, [r5], #-102	; 0xffffff9a
    1458:	6f660063 	svcvs	0x00660063
    145c:	74616d72 	strbtvc	r6, [r1], #-3442	; 0xfffff28e
    1460:	6f645f00 	svcvs	0x00645f00
    1464:	746e7270 	strbtvc	r7, [lr], #-624	; 0xfffffd90
    1468:	64617000 	strbtvs	r7, [r1], #-0
    146c:	6168635f 	cmnvs	r8, pc, asr r3
    1470:	68730072 	ldmdavs	r3!, {r1, r4, r5, r6}^
    1474:	00746669 	rsbseq	r6, r4, r9, ror #12
    1478:	72616c75 	rsbvc	r6, r1, #29952	; 0x7500
    147c:	696c0067 	stmdbvs	ip!, {r0, r1, r2, r5, r6}^
    1480:	61726574 	cmnvs	r2, r4, ror r5
    1484:	6964006c 	stmdbvs	r4!, {r2, r3, r5, r6}^
    1488:	73746967 	cmnvc	r4, #1687552	; 0x19c000
    148c:	0063755f 	rsbeq	r7, r3, pc, asr r5
    1490:	63747570 	cmnvs	r4, #112, 10	; 0x1c000000
    1494:	6772615f 			; <UNDEFINED> instruction: 0x6772615f
    1498:	696d6600 	stmdbvs	sp!, {r9, sl, sp, lr}^
    149c:	656c006e 	strbvs	r0, [ip, #-110]!	; 0xffffff92
    14a0:	756a7466 	strbvc	r7, [sl, #-1126]!	; 0xfffffb9a
    14a4:	73007473 	movwvc	r7, #1139	; 0x473
    14a8:	656c7274 	strbvs	r7, [ip, #-628]!	; 0xfffffd8c
    14ac:	756e006e 	strbvc	r0, [lr, #-110]!	; 0xffffff92
    14b0:	657a5f6d 	ldrbvs	r5, [sl, #-3949]!	; 0xfffff093
    14b4:	73656f72 	cmnvc	r5, #456	; 0x1c8
    14b8:	4f485300 	svcmi	0x00485300
    14bc:	535f5452 	cmppl	pc, #1375731712	; 0x52000000
    14c0:	54524f48 	ldrbpl	r4, [r2], #-3912	; 0xfffff0b8
    14c4:	5a49535f 	bpl	1256248 <__kernel_end+0x10f4248>
    14c8:	61620045 	cmnvs	r2, r5, asr #32
    14cc:	745f6573 	ldrbvc	r6, [pc], #-1395	; 14d4 <SCTLR_ENABLE_INSTRUCTION_CACHE+0x4d4>
    14d0:	626e5f6f 	rsbvs	r5, lr, #444	; 0x1bc
    14d4:	00737469 	rsbseq	r7, r3, r9, ror #8
    14d8:	706d6574 	rsbvc	r6, sp, r4, ror r5
    14dc:	67696400 	strbvs	r6, [r9, -r0, lsl #8]!
    14e0:	5f737469 	svcpl	0x00737469
    14e4:	7500636c 	strvc	r6, [r0, #-876]	; 0xfffffc94
    14e8:	676e6f6c 	strbvs	r6, [lr, -ip, ror #30]!
    14ec:	5f6f745f 	svcpl	0x006f745f
    14f0:	69727473 	ldmdbvs	r2!, {r0, r1, r4, r5, r6, sl, ip, sp, lr}^
    14f4:	6900676e 	stmdbvs	r0, {r1, r2, r3, r5, r6, r8, r9, sl, sp, lr}
    14f8:	6765746e 	strbvs	r7, [r5, -lr, ror #8]!
    14fc:	735f7265 	cmpvc	pc, #1342177286	; 0x50000006
    1500:	00657a69 	rsbeq	r7, r5, r9, ror #20
    1504:	67616c66 	strbvs	r6, [r1, -r6, ror #24]!
    1508:	63735f73 	cmnvs	r3, #460	; 0x1cc
    150c:	656e6e61 	strbvs	r6, [lr, #-3681]!	; 0xfffff19f
    1510:	656c0064 	strbvs	r0, [ip, #-100]!	; 0xffffff9c
    1514:	74735f6e 	ldrbtvc	r5, [r3], #-3950	; 0xfffff092
    1518:	656c0072 	strbvs	r0, [ip, #-114]!	; 0xffffff8e
    151c:	6f6e5f6e 	svcvs	0x006e5f6e
    1520:	6461706e 	strbtvs	r7, [r1], #-110	; 0xffffff92
    1524:	676e6964 	strbvs	r6, [lr, -r4, ror #18]!
    1528:	74757000 	ldrbtvc	r7, [r5], #-0
    152c:	75665f63 	strbvc	r5, [r6, #-3939]!	; 0xfffff09d
    1530:	6800636e 	stmdavs	r0, {r1, r2, r3, r5, r6, r8, r9, sp, lr}
    1534:	6c646e61 	stclvs	14, cr6, [r4], #-388	; 0xfffffe7c
    1538:	6e755f65 	cdpvs	15, 7, cr5, cr5, cr5, {3}
    153c:	6e676973 	mcrvs	9, 3, r6, cr7, cr3, {3}
    1540:	52006465 	andpl	r6, r0, #1694498816	; 0x65000000
    1544:	4c554745 	mrrcmi	7, 4, r4, r5, cr5
    1548:	535f5241 	cmppl	pc, #268435460	; 0x10000004
    154c:	00455a49 	subeq	r5, r5, r9, asr #20
    1550:	69647473 	stmdbvs	r4!, {r0, r1, r4, r5, r6, sl, ip, sp, lr}^
    1554:	6f642f6f 	svcvs	0x00642f6f
    1558:	746e7270 	strbtvc	r7, [lr], #-624	; 0xfffffd90
    155c:	7000632e 	andvc	r6, r0, lr, lsr #6
    1560:	00636572 	rsbeq	r6, r3, r2, ror r5
    1564:	474e4f4c 	strbmi	r4, [lr, -ip, asr #30]
    1568:	5a49535f 	bpl	12562ec <__kernel_end+0x10f42ec>
    156c:	68630045 	stmdavs	r3!, {r0, r2, r6}^
    1570:	5f737261 	svcpl	0x00737261
    1574:	74697277 	strbtvc	r7, [r9], #-631	; 0xfffffd89
    1578:	006e6574 	rsbeq	r6, lr, r4, ror r5
    157c:	5f746c61 	svcpl	0x00746c61
    1580:	69676964 	stmdbvs	r7!, {r2, r5, r6, r8, fp, sp, lr}^
    1584:	73007374 	movwvc	r7, #884	; 0x374
    1588:	006e6769 	rsbeq	r6, lr, r9, ror #14
    158c:	63657073 	cmnvs	r5, #115	; 0x73
    1590:	6174735f 	cmnvs	r4, pc, asr r3
    1594:	6c007472 	cfstrsvs	mvf7, [r0], {114}	; 0x72
    1598:	705f6e65 	subsvc	r6, pc, r5, ror #28
    159c:	69646461 	stmdbvs	r4!, {r0, r5, r6, sl, sp, lr}^
    15a0:	7300676e 	movwvc	r6, #1902	; 0x76e
    15a4:	6e697274 	mcrvs	2, 3, r7, cr9, cr4, {3}
    15a8:	74732f67 	ldrbtvc	r2, [r3], #-3943	; 0xfffff099
    15ac:	6e656c72 	mcrvs	12, 3, r6, cr5, cr2, {3}
    15b0:	Address 0x00000000000015b0 is out of bounds.


Disassembly of section .debug_frame:

00000000 <.debug_frame>:
   0:	0000000c 	andeq	r0, r0, ip
   4:	ffffffff 			; <UNDEFINED> instruction: 0xffffffff
   8:	7c020001 	stcvc	0, cr0, [r2], {1}
   c:	000d0c0e 	andeq	r0, sp, lr, lsl #24
  10:	00000014 	andeq	r0, r0, r4, lsl r0
  14:	00000000 	andeq	r0, r0, r0
  18:	00008208 	andeq	r8, r0, r8, lsl #4
  1c:	00000060 	andeq	r0, r0, r0, rrx
  20:	84080e44 	strhi	r0, [r8], #-3652	; 0xfffff1bc
  24:	00018e02 	andeq	r8, r1, r2, lsl #28
  28:	0000000c 	andeq	r0, r0, ip
  2c:	ffffffff 			; <UNDEFINED> instruction: 0xffffffff
  30:	7c020001 	stcvc	0, cr0, [r2], {1}
  34:	000d0c0e 	andeq	r0, sp, lr, lsl #24
  38:	0000000c 	andeq	r0, r0, ip
  3c:	00000028 	andeq	r0, r0, r8, lsr #32
  40:	00008268 	andeq	r8, r0, r8, ror #4
  44:	0000000c 	andeq	r0, r0, ip
  48:	00000014 	andeq	r0, r0, r4, lsl r0
  4c:	00000028 	andeq	r0, r0, r8, lsr #32
  50:	00008274 	andeq	r8, r0, r4, ror r2
  54:	0000002c 	andeq	r0, r0, ip, lsr #32
  58:	84080e42 	strhi	r0, [r8], #-3650	; 0xfffff1be
  5c:	00018e02 	andeq	r8, r1, r2, lsl #28
  60:	0000000c 	andeq	r0, r0, ip
  64:	ffffffff 			; <UNDEFINED> instruction: 0xffffffff
  68:	7c020001 	stcvc	0, cr0, [r2], {1}
  6c:	000d0c0e 	andeq	r0, sp, lr, lsl #24
  70:	0000000c 	andeq	r0, r0, ip
  74:	00000060 	andeq	r0, r0, r0, rrx
  78:	000082a0 	andeq	r8, r0, r0, lsr #5
  7c:	0000000c 	andeq	r0, r0, ip
  80:	0000001c 	andeq	r0, r0, ip, lsl r0
  84:	00000060 	andeq	r0, r0, r0, rrx
  88:	000082ac 	andeq	r8, r0, ip, lsr #5
  8c:	0000001c 	andeq	r0, r0, ip, lsl r0
  90:	80180e44 	andshi	r0, r8, r4, asr #28
  94:	82058106 	andhi	r8, r5, #-2147483647	; 0x80000001
  98:	8c038304 	stchi	3, cr8, [r3], {4}
  9c:	00018e02 	andeq	r8, r1, r2, lsl #28
  a0:	0000001c 	andeq	r0, r0, ip, lsl r0
  a4:	00000060 	andeq	r0, r0, r0, rrx
  a8:	000082c8 	andeq	r8, r0, r8, asr #5
  ac:	00000018 	andeq	r0, r0, r8, lsl r0
  b0:	80180e42 	andshi	r0, r8, r2, asr #28
  b4:	82058106 	andhi	r8, r5, #-2147483647	; 0x80000001
  b8:	8c038304 	stchi	3, cr8, [r3], {4}
  bc:	00018e02 	andeq	r8, r1, r2, lsl #28
  c0:	0000001c 	andeq	r0, r0, ip, lsl r0
  c4:	00000060 	andeq	r0, r0, r0, rrx
  c8:	000082e0 	andeq	r8, r0, r0, ror #5
  cc:	00000018 	andeq	r0, r0, r8, lsl r0
  d0:	80180e42 	andshi	r0, r8, r2, asr #28
  d4:	82058106 	andhi	r8, r5, #-2147483647	; 0x80000001
  d8:	8c038304 	stchi	3, cr8, [r3], {4}
  dc:	00018e02 	andeq	r8, r1, r2, lsl #28
  e0:	0000001c 	andeq	r0, r0, ip, lsl r0
  e4:	00000060 	andeq	r0, r0, r0, rrx
  e8:	000082f8 	strdeq	r8, [r0], -r8	; <UNPREDICTABLE>
  ec:	0000001c 	andeq	r0, r0, ip, lsl r0
  f0:	80180e44 	andshi	r0, r8, r4, asr #28
  f4:	82058106 	andhi	r8, r5, #-2147483647	; 0x80000001
  f8:	8c038304 	stchi	3, cr8, [r3], {4}
  fc:	00018e02 	andeq	r8, r1, r2, lsl #28
 100:	0000001c 	andeq	r0, r0, ip, lsl r0
 104:	00000060 	andeq	r0, r0, r0, rrx
 108:	00008314 	andeq	r8, r0, r4, lsl r3
 10c:	0000001c 	andeq	r0, r0, ip, lsl r0
 110:	80180e44 	andshi	r0, r8, r4, asr #28
 114:	82058106 	andhi	r8, r5, #-2147483647	; 0x80000001
 118:	8c038304 	stchi	3, cr8, [r3], {4}
 11c:	00018e02 	andeq	r8, r1, r2, lsl #28
 120:	0000001c 	andeq	r0, r0, ip, lsl r0
 124:	00000060 	andeq	r0, r0, r0, rrx
 128:	00008330 	andeq	r8, r0, r0, lsr r3
 12c:	0000001c 	andeq	r0, r0, ip, lsl r0
 130:	80180e44 	andshi	r0, r8, r4, asr #28
 134:	82058106 	andhi	r8, r5, #-2147483647	; 0x80000001
 138:	84038304 	strhi	r8, [r3], #-772	; 0xfffffcfc
 13c:	00018e02 	andeq	r8, r1, r2, lsl #28
 140:	00000014 	andeq	r0, r0, r4, lsl r0
 144:	00000060 	andeq	r0, r0, r0, rrx
 148:	0000834c 	andeq	r8, r0, ip, asr #6
 14c:	000000e8 	andeq	r0, r0, r8, ror #1
 150:	84080e44 	strhi	r0, [r8], #-3652	; 0xfffff1bc
 154:	00018e02 	andeq	r8, r1, r2, lsl #28
 158:	00000018 	andeq	r0, r0, r8, lsl r0
 15c:	00000060 	andeq	r0, r0, r0, rrx
 160:	00008434 	andeq	r8, r0, r4, lsr r4
 164:	000000bc 	strheq	r0, [r0], -ip
 168:	84100e44 	ldrhi	r0, [r0], #-3652	; 0xfffff1bc
 16c:	86038504 	strhi	r8, [r3], -r4, lsl #10
 170:	00018e02 	andeq	r8, r1, r2, lsl #28
 174:	00000018 	andeq	r0, r0, r8, lsl r0
 178:	00000060 	andeq	r0, r0, r0, rrx
 17c:	000084f0 	strdeq	r8, [r0], -r0
 180:	000000c8 	andeq	r0, r0, r8, asr #1
 184:	840c0e44 	strhi	r0, [ip], #-3652	; 0xfffff1bc
 188:	8e028503 	cfsh32hi	mvfx8, mvfx2, #3
 18c:	00000001 	andeq	r0, r0, r1
 190:	0000000c 	andeq	r0, r0, ip
 194:	00000060 	andeq	r0, r0, r0, rrx
 198:	000085b8 			; <UNDEFINED> instruction: 0x000085b8
 19c:	00000024 	andeq	r0, r0, r4, lsr #32
 1a0:	0000000c 	andeq	r0, r0, ip
 1a4:	00000060 	andeq	r0, r0, r0, rrx
 1a8:	000085dc 	ldrdeq	r8, [r0], -ip
 1ac:	0000000c 	andeq	r0, r0, ip
 1b0:	00000014 	andeq	r0, r0, r4, lsl r0
 1b4:	00000060 	andeq	r0, r0, r0, rrx
 1b8:	000085e8 	andeq	r8, r0, r8, ror #11
 1bc:	00000068 	andeq	r0, r0, r8, rrx
 1c0:	84080e42 	strhi	r0, [r8], #-3650	; 0xfffff1be
 1c4:	00018e02 	andeq	r8, r1, r2, lsl #28
 1c8:	0000000c 	andeq	r0, r0, ip
 1cc:	ffffffff 			; <UNDEFINED> instruction: 0xffffffff
 1d0:	7c020001 	stcvc	0, cr0, [r2], {1}
 1d4:	000d0c0e 	andeq	r0, sp, lr, lsl #24
 1d8:	0000000c 	andeq	r0, r0, ip
 1dc:	000001c8 	andeq	r0, r0, r8, asr #3
 1e0:	00008650 	andeq	r8, r0, r0, asr r6
 1e4:	0000002c 	andeq	r0, r0, ip, lsr #32
 1e8:	0000000c 	andeq	r0, r0, ip
 1ec:	000001c8 	andeq	r0, r0, r8, asr #3
 1f0:	0000867c 	andeq	r8, r0, ip, ror r6
 1f4:	00000040 	andeq	r0, r0, r0, asr #32
 1f8:	0000000c 	andeq	r0, r0, ip
 1fc:	ffffffff 			; <UNDEFINED> instruction: 0xffffffff
 200:	7c020001 	stcvc	0, cr0, [r2], {1}
 204:	000d0c0e 	andeq	r0, sp, lr, lsl #24
 208:	0000000c 	andeq	r0, r0, ip
 20c:	000001f8 	strdeq	r0, [r0], -r8
 210:	000086bc 			; <UNDEFINED> instruction: 0x000086bc
 214:	00000038 	andeq	r0, r0, r8, lsr r0
 218:	00000040 	andeq	r0, r0, r0, asr #32
 21c:	000001f8 	strdeq	r0, [r0], -r8
 220:	000086f4 	strdeq	r8, [r0], -r4
 224:	000004a0 	andeq	r0, r0, r0, lsr #9
 228:	80100e42 	andshi	r0, r0, r2, asr #28
 22c:	82038104 	andhi	r8, r3, #4, 2
 230:	48018302 	stmdami	r1, {r1, r8, r9, pc}
 234:	0984240e 	stmibeq	r4, {r1, r2, r3, sl, sp}
 238:	07860885 	streq	r0, [r6, r5, lsl #17]
 23c:	058e0687 	streq	r0, [lr, #1671]	; 0x687
 240:	02300e46 	eorseq	r0, r0, #1120	; 0x460
 244:	240e0a60 	strcs	r0, [lr], #-2656	; 0xfffff5a0
 248:	c6c7ce42 	strbgt	ip, [r7], r2, asr #28
 24c:	100ec4c5 	andne	ip, lr, r5, asr #9
 250:	c1c2c342 	bicgt	ip, r2, r2, asr #6
 254:	42000ec0 	andmi	r0, r0, #192, 28	; 0xc00
 258:	0000000b 	andeq	r0, r0, fp
 25c:	00000018 	andeq	r0, r0, r8, lsl r0
 260:	000001f8 	strdeq	r0, [r0], -r8
 264:	00008b94 	muleq	r0, r4, fp
 268:	0000004c 	andeq	r0, r0, ip, asr #32
 26c:	84080e4c 	strhi	r0, [r8], #-3660	; 0xfffff1b4
 270:	54018e02 	strpl	r8, [r1], #-3586	; 0xfffff1fe
 274:	000ec4ce 	andeq	ip, lr, lr, asr #9
 278:	00000014 	andeq	r0, r0, r4, lsl r0
 27c:	000001f8 	strdeq	r0, [r0], -r8
 280:	00008be0 	andeq	r8, r0, r0, ror #23
 284:	000000ac 	andeq	r0, r0, ip, lsr #1
 288:	84080e4a 	strhi	r0, [r8], #-3658	; 0xfffff1b6
 28c:	00018e02 	andeq	r8, r1, r2, lsl #28
 290:	0000000c 	andeq	r0, r0, ip
 294:	ffffffff 			; <UNDEFINED> instruction: 0xffffffff
 298:	7c020001 	stcvc	0, cr0, [r2], {1}
 29c:	000d0c0e 	andeq	r0, sp, lr, lsl #24
 2a0:	00000018 	andeq	r0, r0, r8, lsl r0
 2a4:	00000290 	muleq	r0, r0, r2
 2a8:	00008c8c 	andeq	r8, r0, ip, lsl #25
 2ac:	00000024 	andeq	r0, r0, r4, lsr #32
 2b0:	84080e42 	strhi	r0, [r8], #-3650	; 0xfffff1be
 2b4:	4c018e02 	stcmi	14, cr8, [r1], {2}
 2b8:	000ec4ce 	andeq	ip, lr, lr, asr #9
 2bc:	0000000c 	andeq	r0, r0, ip
 2c0:	00000290 	muleq	r0, r0, r2
 2c4:	00008cb0 			; <UNDEFINED> instruction: 0x00008cb0
 2c8:	00000030 	andeq	r0, r0, r0, lsr r0
 2cc:	0000000c 	andeq	r0, r0, ip
 2d0:	00000290 	muleq	r0, r0, r2
 2d4:	00008ce0 	andeq	r8, r0, r0, ror #25
 2d8:	00000038 	andeq	r0, r0, r8, lsr r0
 2dc:	0000000c 	andeq	r0, r0, ip
 2e0:	00000290 	muleq	r0, r0, r2
 2e4:	00008d18 	andeq	r8, r0, r8, lsl sp
 2e8:	0000001c 	andeq	r0, r0, ip, lsl r0
 2ec:	0000001c 	andeq	r0, r0, ip, lsl r0
 2f0:	00000290 	muleq	r0, r0, r2
 2f4:	00008d34 	andeq	r8, r0, r4, lsr sp
 2f8:	0000008c 	andeq	r0, r0, ip, lsl #1
 2fc:	8b040e42 	blhi	103c0c <__first_lvl_tbl_end+0xe2c0c>
 300:	0b0d4201 	bleq	350b0c <__kernel_end+0x1eeb0c>
 304:	420d0d78 	andmi	r0, sp, #120, 26	; 0x1e00
 308:	00000ecb 	andeq	r0, r0, fp, asr #29
 30c:	0000000c 	andeq	r0, r0, ip
 310:	ffffffff 			; <UNDEFINED> instruction: 0xffffffff
 314:	7c020001 	stcvc	0, cr0, [r2], {1}
 318:	000d0c0e 	andeq	r0, sp, lr, lsl #24
 31c:	00000014 	andeq	r0, r0, r4, lsl r0
 320:	0000030c 	andeq	r0, r0, ip, lsl #6
 324:	00008dc0 	andeq	r8, r0, r0, asr #27
 328:	0000003c 	andeq	r0, r0, ip, lsr r0
 32c:	84080e50 	strhi	r0, [r8], #-3664	; 0xfffff1b0
 330:	00018e02 	andeq	r8, r1, r2, lsl #28
 334:	00000020 	andeq	r0, r0, r0, lsr #32
 338:	0000030c 	andeq	r0, r0, ip, lsl #6
 33c:	00008dfc 	strdeq	r8, [r0], -ip
 340:	000000a8 	andeq	r0, r0, r8, lsr #1
 344:	84100e46 	ldrhi	r0, [r0], #-3654	; 0xfffff1ba
 348:	86038504 	strhi	r8, [r3], -r4, lsl #10
 34c:	7e018e02 	cdpvc	14, 0, cr8, cr1, cr2, {0}
 350:	c4c5c6ce 	strbgt	ip, [r5], #1742	; 0x6ce
 354:	0000000e 	andeq	r0, r0, lr
 358:	0000000c 	andeq	r0, r0, ip
 35c:	ffffffff 			; <UNDEFINED> instruction: 0xffffffff
 360:	7c020001 	stcvc	0, cr0, [r2], {1}
 364:	000d0c0e 	andeq	r0, sp, lr, lsl #24
 368:	0000000c 	andeq	r0, r0, ip
 36c:	00000358 	andeq	r0, r0, r8, asr r3
 370:	00008ea4 	andeq	r8, r0, r4, lsr #29
 374:	00000024 	andeq	r0, r0, r4, lsr #32
 378:	0000000c 	andeq	r0, r0, ip
 37c:	00000358 	andeq	r0, r0, r8, asr r3
 380:	00008ec8 	andeq	r8, r0, r8, asr #29
 384:	00000024 	andeq	r0, r0, r4, lsr #32
 388:	0000000c 	andeq	r0, r0, ip
 38c:	00000358 	andeq	r0, r0, r8, asr r3
 390:	00008eec 	andeq	r8, r0, ip, ror #29
 394:	00000008 	andeq	r0, r0, r8
 398:	0000000c 	andeq	r0, r0, ip
 39c:	00000358 	andeq	r0, r0, r8, asr r3
 3a0:	00008ef4 	strdeq	r8, [r0], -r4
 3a4:	0000002c 	andeq	r0, r0, ip, lsr #32
 3a8:	0000000c 	andeq	r0, r0, ip
 3ac:	00000358 	andeq	r0, r0, r8, asr r3
 3b0:	00008f20 	andeq	r8, r0, r0, lsr #30
 3b4:	00000008 	andeq	r0, r0, r8
 3b8:	0000000c 	andeq	r0, r0, ip
 3bc:	00000358 	andeq	r0, r0, r8, asr r3
 3c0:	00008f28 	andeq	r8, r0, r8, lsr #30
 3c4:	00000008 	andeq	r0, r0, r8
 3c8:	0000000c 	andeq	r0, r0, ip
 3cc:	00000358 	andeq	r0, r0, r8, asr r3
 3d0:	00008f30 	andeq	r8, r0, r0, lsr pc
 3d4:	0000001c 	andeq	r0, r0, ip, lsl r0
 3d8:	00000014 	andeq	r0, r0, r4, lsl r0
 3dc:	00000358 	andeq	r0, r0, r8, asr r3
 3e0:	00008f4c 	andeq	r8, r0, ip, asr #30
 3e4:	0000006c 	andeq	r0, r0, ip, rrx
 3e8:	84080e44 	strhi	r0, [r8], #-3652	; 0xfffff1bc
 3ec:	00018e02 	andeq	r8, r1, r2, lsl #28
 3f0:	0000000c 	andeq	r0, r0, ip
 3f4:	00000358 	andeq	r0, r0, r8, asr r3
 3f8:	00008fb8 			; <UNDEFINED> instruction: 0x00008fb8
 3fc:	00000044 	andeq	r0, r0, r4, asr #32
 400:	00000014 	andeq	r0, r0, r4, lsl r0
 404:	00000358 	andeq	r0, r0, r8, asr r3
 408:	00008ffc 	strdeq	r8, [r0], -ip
 40c:	00000050 	andeq	r0, r0, r0, asr r0
 410:	84080e42 	strhi	r0, [r8], #-3650	; 0xfffff1be
 414:	00018e02 	andeq	r8, r1, r2, lsl #28
 418:	0000001c 	andeq	r0, r0, ip, lsl r0
 41c:	00000358 	andeq	r0, r0, r8, asr r3
 420:	0000904c 	andeq	r9, r0, ip, asr #32
 424:	00000118 	andeq	r0, r0, r8, lsl r1
 428:	84180e42 	ldrhi	r0, [r8], #-3650	; 0xfffff1be
 42c:	86058506 	strhi	r8, [r5], -r6, lsl #10
 430:	88038704 	stmdahi	r3, {r2, r8, r9, sl, pc}
 434:	00018e02 	andeq	r8, r1, r2, lsl #28
 438:	0000000c 	andeq	r0, r0, ip
 43c:	ffffffff 			; <UNDEFINED> instruction: 0xffffffff
 440:	7c020001 	stcvc	0, cr0, [r2], {1}
 444:	000d0c0e 	andeq	r0, sp, lr, lsl #24
 448:	0000000c 	andeq	r0, r0, ip
 44c:	00000438 	andeq	r0, r0, r8, lsr r4
 450:	00009164 	andeq	r9, r0, r4, ror #2
 454:	00000074 	andeq	r0, r0, r4, ror r0
 458:	0000000c 	andeq	r0, r0, ip
 45c:	00000438 	andeq	r0, r0, r8, lsr r4
 460:	000091d8 	ldrdeq	r9, [r0], -r8
 464:	00000024 	andeq	r0, r0, r4, lsr #32
 468:	0000000c 	andeq	r0, r0, ip
 46c:	00000438 	andeq	r0, r0, r8, lsr r4
 470:	000091fc 	strdeq	r9, [r0], -ip
 474:	00000028 	andeq	r0, r0, r8, lsr #32
 478:	00000014 	andeq	r0, r0, r4, lsl r0
 47c:	00000438 	andeq	r0, r0, r8, lsr r4
 480:	00009224 	andeq	r9, r0, r4, lsr #4
 484:	00000028 	andeq	r0, r0, r8, lsr #32
 488:	84080e42 	strhi	r0, [r8], #-3650	; 0xfffff1be
 48c:	00018e02 	andeq	r8, r1, r2, lsl #28
 490:	00000020 	andeq	r0, r0, r0, lsr #32
 494:	00000438 	andeq	r0, r0, r8, lsr r4
 498:	0000924c 	andeq	r9, r0, ip, asr #4
 49c:	00000040 	andeq	r0, r0, r0, asr #32
 4a0:	84100e42 	ldrhi	r0, [r0], #-3650	; 0xfffff1be
 4a4:	86038504 	strhi	r8, [r3], -r4, lsl #10
 4a8:	5c018e02 	stcpl	14, cr8, [r1], {2}
 4ac:	c4c5c6ce 	strbgt	ip, [r5], #1742	; 0x6ce
 4b0:	0000000e 	andeq	r0, r0, lr
 4b4:	0000000c 	andeq	r0, r0, ip
 4b8:	ffffffff 			; <UNDEFINED> instruction: 0xffffffff
 4bc:	7c020001 	stcvc	0, cr0, [r2], {1}
 4c0:	000d0c0e 	andeq	r0, sp, lr, lsl #24
 4c4:	0000000c 	andeq	r0, r0, ip
 4c8:	000004b4 			; <UNDEFINED> instruction: 0x000004b4
 4cc:	0000928c 	andeq	r9, r0, ip, lsl #5
 4d0:	00000040 	andeq	r0, r0, r0, asr #32
 4d4:	0000000c 	andeq	r0, r0, ip
 4d8:	000004b4 			; <UNDEFINED> instruction: 0x000004b4
 4dc:	000092cc 	andeq	r9, r0, ip, asr #5
 4e0:	00000010 	andeq	r0, r0, r0, lsl r0
 4e4:	00000020 	andeq	r0, r0, r0, lsr #32
 4e8:	000004b4 			; <UNDEFINED> instruction: 0x000004b4
 4ec:	000092dc 	ldrdeq	r9, [r0], -ip
 4f0:	0000004c 	andeq	r0, r0, ip, asr #32
 4f4:	84100e42 	ldrhi	r0, [r0], #-3650	; 0xfffff1be
 4f8:	86038504 	strhi	r8, [r3], -r4, lsl #10
 4fc:	5c018e02 	stcpl	14, cr8, [r1], {2}
 500:	c4c5c6ce 	strbgt	ip, [r5], #1742	; 0x6ce
 504:	0000000e 	andeq	r0, r0, lr
 508:	0000000c 	andeq	r0, r0, ip
 50c:	000004b4 			; <UNDEFINED> instruction: 0x000004b4
 510:	00009328 	andeq	r9, r0, r8, lsr #6
 514:	00000024 	andeq	r0, r0, r4, lsr #32
 518:	0000000c 	andeq	r0, r0, ip
 51c:	000004b4 			; <UNDEFINED> instruction: 0x000004b4
 520:	0000934c 	andeq	r9, r0, ip, asr #6
 524:	0000001c 	andeq	r0, r0, ip, lsl r0
 528:	00000028 	andeq	r0, r0, r8, lsr #32
 52c:	000004b4 			; <UNDEFINED> instruction: 0x000004b4
 530:	00009368 	andeq	r9, r0, r8, ror #6
 534:	00000248 	andeq	r0, r0, r8, asr #4
 538:	84240e42 	strthi	r0, [r4], #-3650	; 0xfffff1be
 53c:	86088509 	strhi	r8, [r8], -r9, lsl #10
 540:	88068707 	stmdahi	r6, {r0, r1, r2, r8, r9, sl, pc}
 544:	8a048905 	bhi	122960 <dma_src_page_1+0x960>
 548:	8e028b03 	vmlahi.f64	d8, d2, d3
 54c:	380e4801 	stmdacc	lr, {r0, fp, lr}
 550:	240ef002 	strcs	pc, [lr], #-2
 554:	0000000c 	andeq	r0, r0, ip
 558:	ffffffff 			; <UNDEFINED> instruction: 0xffffffff
 55c:	7c020001 	stcvc	0, cr0, [r2], {1}
 560:	000d0c0e 	andeq	r0, sp, lr, lsl #24
 564:	00000018 	andeq	r0, r0, r8, lsl r0
 568:	00000554 	andeq	r0, r0, r4, asr r5
 56c:	000095b0 			; <UNDEFINED> instruction: 0x000095b0
 570:	00000048 	andeq	r0, r0, r8, asr #32
 574:	84080e42 	strhi	r0, [r8], #-3650	; 0xfffff1be
 578:	5c018e02 	stcpl	14, cr8, [r1], {2}
 57c:	000ec4ce 	andeq	ip, lr, lr, asr #9
 580:	00000018 	andeq	r0, r0, r8, lsl r0
 584:	00000554 	andeq	r0, r0, r4, asr r5
 588:	000095f8 	strdeq	r9, [r0], -r8
 58c:	00000048 	andeq	r0, r0, r8, asr #32
 590:	84080e42 	strhi	r0, [r8], #-3650	; 0xfffff1be
 594:	5c018e02 	stcpl	14, cr8, [r1], {2}
 598:	000ec4ce 	andeq	ip, lr, lr, asr #9
 59c:	00000018 	andeq	r0, r0, r8, lsl r0
 5a0:	00000554 	andeq	r0, r0, r4, asr r5
 5a4:	00009640 	andeq	r9, r0, r0, asr #12
 5a8:	00000070 	andeq	r0, r0, r0, ror r0
 5ac:	84080e42 	strhi	r0, [r8], #-3650	; 0xfffff1be
 5b0:	6c018e02 	stcvs	14, cr8, [r1], {2}
 5b4:	000ec4ce 	andeq	ip, lr, lr, asr #9
 5b8:	00000018 	andeq	r0, r0, r8, lsl r0
 5bc:	00000554 	andeq	r0, r0, r4, asr r5
 5c0:	000096b0 			; <UNDEFINED> instruction: 0x000096b0
 5c4:	00000054 	andeq	r0, r0, r4, asr r0
 5c8:	84080e42 	strhi	r0, [r8], #-3650	; 0xfffff1be
 5cc:	62018e02 	andvs	r8, r1, #2, 28
 5d0:	000ec4ce 	andeq	ip, lr, lr, asr #9
 5d4:	0000000c 	andeq	r0, r0, ip
 5d8:	00000554 	andeq	r0, r0, r4, asr r5
 5dc:	00009704 	andeq	r9, r0, r4, lsl #14
 5e0:	00000004 	andeq	r0, r0, r4
 5e4:	0000000c 	andeq	r0, r0, ip
 5e8:	ffffffff 			; <UNDEFINED> instruction: 0xffffffff
 5ec:	7c020001 	stcvc	0, cr0, [r2], {1}
 5f0:	000d0c0e 	andeq	r0, sp, lr, lsl #24
 5f4:	00000014 	andeq	r0, r0, r4, lsl r0
 5f8:	000005e4 	andeq	r0, r0, r4, ror #11
 5fc:	00009708 	andeq	r9, r0, r8, lsl #14
 600:	0000004c 	andeq	r0, r0, ip, asr #32
 604:	84080e44 	strhi	r0, [r8], #-3652	; 0xfffff1bc
 608:	00018e02 	andeq	r8, r1, r2, lsl #28
 60c:	0000000c 	andeq	r0, r0, ip
 610:	ffffffff 			; <UNDEFINED> instruction: 0xffffffff
 614:	7c020001 	stcvc	0, cr0, [r2], {1}
 618:	000d0c0e 	andeq	r0, sp, lr, lsl #24
 61c:	0000000c 	andeq	r0, r0, ip
 620:	0000060c 	andeq	r0, r0, ip, lsl #12
 624:	00009754 	andeq	r9, r0, r4, asr r7
 628:	00000024 	andeq	r0, r0, r4, lsr #32
 62c:	0000000c 	andeq	r0, r0, ip
 630:	ffffffff 			; <UNDEFINED> instruction: 0xffffffff
 634:	7c020001 	stcvc	0, cr0, [r2], {1}
 638:	000d0c0e 	andeq	r0, sp, lr, lsl #24
 63c:	00000018 	andeq	r0, r0, r8, lsl r0
 640:	0000062c 	andeq	r0, r0, ip, lsr #12
 644:	00009778 	andeq	r9, r0, r8, ror r7
 648:	00000018 	andeq	r0, r0, r8, lsl r0
 64c:	84080e42 	strhi	r0, [r8], #-3650	; 0xfffff1be
 650:	48018e02 	stmdami	r1, {r1, r9, sl, fp, pc}
 654:	000ec4ce 	andeq	ip, lr, lr, asr #9
 658:	00000030 	andeq	r0, r0, r0, lsr r0
 65c:	0000062c 	andeq	r0, r0, ip, lsr #12
 660:	00009790 	muleq	r0, r0, r7
 664:	0000003c 	andeq	r0, r0, ip, lsr r0
 668:	80100e42 	andshi	r0, r0, r2, asr #28
 66c:	82038104 	andhi	r8, r3, #4, 2
 670:	42018302 	andmi	r8, r1, #134217728	; 0x8000000
 674:	058e140e 	streq	r1, [lr, #1038]	; 0x40e
 678:	50200e42 	eorpl	r0, r0, r2, asr #28
 67c:	ce42140e 	cdpgt	4, 4, cr1, cr2, cr14, {0}
 680:	c342100e 	movtgt	r1, #8206	; 0x200e
 684:	0ec0c1c2 	acseqdm	f4, f2
 688:	00000000 	andeq	r0, r0, r0
 68c:	0000000c 	andeq	r0, r0, ip
 690:	ffffffff 			; <UNDEFINED> instruction: 0xffffffff
 694:	7c020001 	stcvc	0, cr0, [r2], {1}
 698:	000d0c0e 	andeq	r0, sp, lr, lsl #24
 69c:	0000003c 	andeq	r0, r0, ip, lsr r0
 6a0:	0000068c 	andeq	r0, r0, ip, lsl #13
 6a4:	000097cc 	andeq	r9, r0, ip, asr #15
 6a8:	0000074c 	andeq	r0, r0, ip, asr #14
 6ac:	84240e42 	strthi	r0, [r4], #-3650	; 0xfffff1be
 6b0:	86088509 	strhi	r8, [r8], -r9, lsl #10
 6b4:	88068707 	stmdahi	r6, {r0, r1, r2, r8, r9, sl, pc}
 6b8:	8a048905 	bhi	122ad4 <dma_src_page_1+0xad4>
 6bc:	8e028b03 	vmlahi.f64	d8, d2, d3
 6c0:	980e4801 	stmdals	lr, {r0, fp, lr}
 6c4:	016c0301 	cmneq	ip, r1, lsl #6
 6c8:	42240e0a 	eormi	r0, r4, #10, 28	; 0xa0
 6cc:	c9cacbce 	stmibgt	sl, {r1, r2, r3, r6, r7, r8, r9, fp, lr, pc}^
 6d0:	c5c6c7c8 	strbgt	ip, [r6, #1992]	; 0x7c8
 6d4:	42000ec4 	andmi	r0, r0, #196, 28	; 0xc40
 6d8:	0000000b 	andeq	r0, r0, fp
 6dc:	0000000c 	andeq	r0, r0, ip
 6e0:	ffffffff 			; <UNDEFINED> instruction: 0xffffffff
 6e4:	7c020001 	stcvc	0, cr0, [r2], {1}
 6e8:	000d0c0e 	andeq	r0, sp, lr, lsl #24
 6ec:	0000000c 	andeq	r0, r0, ip
 6f0:	000006dc 	ldrdeq	r0, [r0], -ip
 6f4:	00009f18 	andeq	r9, r0, r8, lsl pc
 6f8:	00000030 	andeq	r0, r0, r0, lsr r0
 6fc:	0000000c 	andeq	r0, r0, ip
 700:	ffffffff 			; <UNDEFINED> instruction: 0xffffffff
 704:	7c010001 	stcvc	0, cr0, [r1], {1}
 708:	000d0c0e 	andeq	r0, sp, lr, lsl #24
 70c:	0000000c 	andeq	r0, r0, ip
 710:	000006fc 	strdeq	r0, [r0], -ip
 714:	00009f48 	andeq	r9, r0, r8, asr #30
 718:	000000f4 	strdeq	r0, [r0], -r4

Disassembly of section .debug_ranges:

00000000 <.debug_ranges>:
   0:	00000000 	andeq	r0, r0, r0
   4:	00000008 	andeq	r0, r0, r8
   8:	00000014 	andeq	r0, r0, r4, lsl r0
   c:	00000018 	andeq	r0, r0, r8, lsl r0
  10:	0000001c 	andeq	r0, r0, ip, lsl r0
  14:	00000020 	andeq	r0, r0, r0, lsr #32
	...
  20:	00000008 	andeq	r0, r0, r8
  24:	00000010 	andeq	r0, r0, r0, lsl r0
  28:	00000020 	andeq	r0, r0, r0, lsr #32
  2c:	00000024 	andeq	r0, r0, r4, lsr #32
	...
  38:	00000010 	andeq	r0, r0, r0, lsl r0
  3c:	00000014 	andeq	r0, r0, r4, lsl r0
  40:	00000018 	andeq	r0, r0, r8, lsl r0
  44:	0000001c 	andeq	r0, r0, ip, lsl r0
  48:	00000024 	andeq	r0, r0, r4, lsr #32
  4c:	0000002c 	andeq	r0, r0, ip, lsr #32
	...
  58:	0000003c 	andeq	r0, r0, ip, lsr r0
  5c:	00000040 	andeq	r0, r0, r0, asr #32
  60:	00000050 	andeq	r0, r0, r0, asr r0
  64:	00000054 	andeq	r0, r0, r4, asr r0
	...
  70:	00000044 	andeq	r0, r0, r4, asr #32
  74:	00000048 	andeq	r0, r0, r8, asr #32
  78:	0000004c 	andeq	r0, r0, ip, asr #32
  7c:	00000050 	andeq	r0, r0, r0, asr r0
	...
  88:	00000048 	andeq	r0, r0, r8, asr #32
  8c:	0000004c 	andeq	r0, r0, ip, asr #32
  90:	00000058 	andeq	r0, r0, r8, asr r0
  94:	0000005c 	andeq	r0, r0, ip, asr r0
	...
  a0:	00000054 	andeq	r0, r0, r4, asr r0
  a4:	00000058 	andeq	r0, r0, r8, asr r0
  a8:	00000060 	andeq	r0, r0, r0, rrx
  ac:	00000064 	andeq	r0, r0, r4, rrx
	...
  b8:	0000005c 	andeq	r0, r0, ip, asr r0
  bc:	00000060 	andeq	r0, r0, r0, rrx
  c0:	00000068 	andeq	r0, r0, r8, rrx
  c4:	0000006c 	andeq	r0, r0, ip, rrx
	...
  d0:	00000064 	andeq	r0, r0, r4, rrx
  d4:	00000068 	andeq	r0, r0, r8, rrx
  d8:	0000006c 	andeq	r0, r0, ip, rrx
  dc:	00000074 	andeq	r0, r0, r4, ror r0
	...
  e8:	000001c8 	andeq	r0, r0, r8, asr #3
  ec:	000001d0 	ldrdeq	r0, [r0], -r0	; <UNPREDICTABLE>
  f0:	000001d4 	ldrdeq	r0, [r0], -r4
  f4:	000001dc 	ldrdeq	r0, [r0], -ip
  f8:	000001e0 	andeq	r0, r0, r0, ror #3
  fc:	00000260 	andeq	r0, r0, r0, ror #4
 100:	00000520 	andeq	r0, r0, r0, lsr #10
 104:	000005c8 	andeq	r0, r0, r8, asr #11
 108:	00000718 	andeq	r0, r0, r8, lsl r7
 10c:	00000728 	andeq	r0, r0, r8, lsr #14
 110:	00000730 	andeq	r0, r0, r0, lsr r7
 114:	0000074c 	andeq	r0, r0, ip, asr #14
	...
 120:	000001f4 	strdeq	r0, [r0], -r4
 124:	00000254 	andeq	r0, r0, r4, asr r2
 128:	00000730 	andeq	r0, r0, r0, lsr r7
 12c:	0000073c 	andeq	r0, r0, ip, lsr r7
	...
