
kernel8-32.elf:     file format elf32-littlearm


Disassembly of section .text:

00008000 <__start>:
    8000:	e59ff018 	ldr	pc, [pc, #24]	; 8020 <_reset_h>
    8004:	e59ff018 	ldr	pc, [pc, #24]	; 8024 <_undefined_instruction_vector_h>
    8008:	e59ff018 	ldr	pc, [pc, #24]	; 8028 <_software_interrupt_vector_h>
    800c:	e59ff018 	ldr	pc, [pc, #24]	; 802c <_prefetch_abort_vector_h>
    8010:	e59ff018 	ldr	pc, [pc, #24]	; 8030 <_data_abort_vector_h>
    8014:	e59ff018 	ldr	pc, [pc, #24]	; 8034 <_unused_handler_h>
    8018:	e59ff018 	ldr	pc, [pc, #24]	; 8038 <_interrupt_vector_h>
    801c:	e59ff018 	ldr	pc, [pc, #24]	; 803c <_fast_interrupt_vector_h>

00008020 <_reset_h>:
    8020:	00008040 	andeq	r8, r0, r0, asr #32

00008024 <_undefined_instruction_vector_h>:
    8024:	000082d4 	ldrdeq	r8, [r0], -r4

00008028 <_software_interrupt_vector_h>:
    8028:	000082ec 	andeq	r8, r0, ip, ror #5

0000802c <_prefetch_abort_vector_h>:
    802c:	00008304 	andeq	r8, r0, r4, lsl #6

00008030 <_data_abort_vector_h>:
    8030:	0000818c 	andeq	r8, r0, ip, lsl #3

00008034 <_unused_handler_h>:
    8034:	00008040 	andeq	r8, r0, r0, asr #32

00008038 <_interrupt_vector_h>:
    8038:	0000812c 	andeq	r8, r0, ip, lsr #2

0000803c <_fast_interrupt_vector_h>:
    803c:	0000833c 	andeq	r8, r0, ip, lsr r3

00008040 <_reset_>:
    8040:	ee106fb0 	mrc	15, 0, r6, cr0, cr0, {5}
    8044:	e2066003 	and	r6, r6, #3
    8048:	e3a07000 	mov	r7, #0
    804c:	e1560007 	cmp	r6, r7
    8050:	0a000001 	beq	805c <_reset_+0x1c>
    8054:	e320f002 	wfe
    8058:	eafffffd 	b	8054 <_reset_+0x14>
    805c:	e1a0c00f 	mov	ip, pc
    8060:	e10f0000 	mrs	r0, CPSR
    8064:	e38000c0 	orr	r0, r0, #192	; 0xc0
    8068:	e200b01f 	and	fp, r0, #31
    806c:	e35b001a 	cmp	fp, #26
    8070:	1a000005 	bne	808c <.NotInHypMode>
    8074:	e3c0001f 	bic	r0, r0, #31
    8078:	e3800013 	orr	r0, r0, #19
    807c:	e16ff000 	msr	SPSR_fsxc, r0
    8080:	e28fe004 	add	lr, pc, #4
    8084:	e12ef30e 	msr	ELR_hyp, lr
    8088:	e160006e 	eret

0000808c <.NotInHypMode>:
    808c:	e3a00902 	mov	r0, #32768	; 0x8000
    8090:	e3a01000 	mov	r1, #0
    8094:	e8b003fc 	ldm	r0!, {r2, r3, r4, r5, r6, r7, r8, r9}
    8098:	e8a103fc 	stmia	r1!, {r2, r3, r4, r5, r6, r7, r8, r9}
    809c:	e8b003fc 	ldm	r0!, {r2, r3, r4, r5, r6, r7, r8, r9}
    80a0:	e8a103fc 	stmia	r1!, {r2, r3, r4, r5, r6, r7, r8, r9}
    80a4:	e3a000d2 	mov	r0, #210	; 0xd2
    80a8:	e121f000 	msr	CPSR_c, r0
    80ac:	e59fd158 	ldr	sp, [pc, #344]	; 820c <dmb+0xc>
    80b0:	e3a000d3 	mov	r0, #211	; 0xd3
    80b4:	e121f000 	msr	CPSR_c, r0
    80b8:	e59fd150 	ldr	sp, [pc, #336]	; 8210 <dmb+0x10>
    80bc:	ee110f10 	mrc	15, 0, r0, cr1, cr0, {0}
    80c0:	e3800501 	orr	r0, r0, #4194304	; 0x400000
    80c4:	ee010f10 	mcr	15, 0, r0, cr1, cr0, {0}
    80c8:	ee111f50 	mrc	15, 0, r1, cr1, cr0, {2}
    80cc:	e381160f 	orr	r1, r1, #15728640	; 0xf00000
    80d0:	ee011f50 	mcr	15, 0, r1, cr1, cr0, {2}
    80d4:	e3a01000 	mov	r1, #0
    80d8:	ee071f95 	mcr	15, 0, r1, cr7, cr5, {4}
    80dc:	e3a00101 	mov	r0, #1073741824	; 0x40000000
    80e0:	eee80a10 	vmsr	fpexc, r0
    80e4:	eb00004a 	bl	8214 <_clear_bss>

000080e8 <_inf_loop>:
    80e8:	eafffffe 	b	80e8 <_inf_loop>

000080ec <PUT32>:
    80ec:	e5801000 	str	r1, [r0]
    80f0:	e12fff1e 	bx	lr

000080f4 <GET32>:
    80f4:	e5900000 	ldr	r0, [r0]
    80f8:	e12fff1e 	bx	lr

000080fc <dummy>:
    80fc:	e1a0f00e 	mov	pc, lr

00008100 <enable_irq>:
    8100:	e10f0000 	mrs	r0, CPSR
    8104:	e3c00080 	bic	r0, r0, #128	; 0x80
    8108:	e121f000 	msr	CPSR_c, r0
    810c:	e12fff1e 	bx	lr

00008110 <_get_stack_pointer>:
    8110:	e58dd000 	str	sp, [sp]
    8114:	e59d0000 	ldr	r0, [sp]
    8118:	e1a0f00e 	mov	pc, lr

0000811c <_enable_interrupts>:
    811c:	e10f0000 	mrs	r0, CPSR
    8120:	e3c00080 	bic	r0, r0, #128	; 0x80
    8124:	e121f000 	msr	CPSR_c, r0
    8128:	e1a0f00e 	mov	pc, lr

0000812c <irq_handler_asm_wrapper>:
    812c:	e24ee004 	sub	lr, lr, #4
    8130:	f96d0513 	srsdb	sp!, #19
    8134:	f10e00d3 	cpsid	if,#19
    8138:	e92d500f 	push	{r0, r1, r2, r3, ip, lr}
    813c:	e20d1004 	and	r1, sp, #4
    8140:	e04dd001 	sub	sp, sp, r1
    8144:	e52d1004 	push	{r1}		; (str r1, [sp, #-4]!)
    8148:	eb000082 	bl	8358 <irq_handler>
    814c:	e49d1004 	pop	{r1}		; (ldr r1, [sp], #4)
    8150:	e08dd001 	add	sp, sp, r1
    8154:	e8bd500f 	pop	{r0, r1, r2, r3, ip, lr}
    8158:	f8bd0a00 	rfeia	sp!

0000815c <start_mmu>:
    815c:	e3a02000 	mov	r2, #0
    8160:	ee082f17 	mcr	15, 0, r2, cr8, cr7, {0}
    8164:	ee072f9a 	mcr	15, 0, r2, cr7, cr10, {4}
    8168:	ee132f10 	mrc	15, 0, r2, cr3, cr0, {0}
    816c:	e3822003 	orr	r2, r2, #3
    8170:	ee032f10 	mcr	15, 0, r2, cr3, cr0, {0}
    8174:	ee020f10 	mcr	15, 0, r0, cr2, cr0, {0}
    8178:	ee020f30 	mcr	15, 0, r0, cr2, cr0, {1}
    817c:	ee112f10 	mrc	15, 0, r2, cr1, cr0, {0}
    8180:	e1822001 	orr	r2, r2, r1
    8184:	ee012f10 	mcr	15, 0, r2, cr1, cr0, {0}
    8188:	e12fff1e 	bx	lr

0000818c <data_abort_vector_asm>:
    818c:	e1a0600e 	mov	r6, lr
    8190:	e5168008 	ldr	r8, [r6, #-8]
    8194:	ee154f10 	mrc	15, 0, r4, cr5, cr0, {0}
    8198:	ee155f30 	mrc	15, 0, r5, cr5, cr0, {1}
    819c:	e3a0d901 	mov	sp, #16384	; 0x4000
    81a0:	eb00045d 	bl	931c <hexstrings>
    81a4:	e1a00004 	mov	r0, r4
    81a8:	eb00045b 	bl	931c <hexstrings>
    81ac:	e1a00005 	mov	r0, r5
    81b0:	eb000459 	bl	931c <hexstrings>
    81b4:	e1a00006 	mov	r0, r6
    81b8:	eb000457 	bl	931c <hexstrings>
    81bc:	e1a00008 	mov	r0, r8
    81c0:	eb000455 	bl	931c <hexstrings>
    81c4:	e1a00007 	mov	r0, r7
    81c8:	eb000453 	bl	931c <hexstrings>
    81cc:	eafffffe 	b	81cc <data_abort_vector_asm+0x40>

000081d0 <stop_mmu>:
    81d0:	ee112f10 	mrc	15, 0, r2, cr1, cr0, {0}
    81d4:	e3c22a01 	bic	r2, r2, #4096	; 0x1000
    81d8:	e3c22004 	bic	r2, r2, #4
    81dc:	e3c22001 	bic	r2, r2, #1
    81e0:	ee012f10 	mcr	15, 0, r2, cr1, cr0, {0}
    81e4:	e12fff1e 	bx	lr

000081e8 <invalidate_tlbs>:
    81e8:	e3a02000 	mov	r2, #0
    81ec:	ee082f17 	mcr	15, 0, r2, cr8, cr7, {0}
    81f0:	ee072f9a 	mcr	15, 0, r2, cr7, cr10, {4}
    81f4:	e12fff1e 	bx	lr

000081f8 <read_cpu_id>:
    81f8:	ee100fb0 	mrc	15, 0, r0, cr0, cr0, {5}
    81fc:	e12fff1e 	bx	lr

00008200 <dmb>:
    8200:	e3a0c000 	mov	ip, #0
    8204:	ee07cfba 	mcr	15, 0, ip, cr7, cr10, {5}
    8208:	e12fff1e 	bx	lr
    820c:	00022400 	andeq	r2, r2, r0, lsl #8
    8210:	00022000 	andeq	r2, r2, r0

00008214 <_clear_bss>:
    8214:	e59fc04c 	ldr	ip, [pc, #76]	; 8268 <_clear_bss+0x54>
    8218:	e92d4010 	push	{r4, lr}
    821c:	e08fc00c 	add	ip, pc, ip
    8220:	e59fe044 	ldr	lr, [pc, #68]	; 826c <_clear_bss+0x58>
    8224:	e59f3044 	ldr	r3, [pc, #68]	; 8270 <_clear_bss+0x5c>
    8228:	e79ce00e 	ldr	lr, [ip, lr]
    822c:	e79c3003 	ldr	r3, [ip, r3]
    8230:	e15e0003 	cmp	lr, r3
    8234:	2a000009 	bcs	8260 <_clear_bss+0x4c>
    8238:	e1e0c00e 	mvn	ip, lr
    823c:	e1a0400e 	mov	r4, lr
    8240:	e08c3003 	add	r3, ip, r3
    8244:	e3a0c000 	mov	ip, #0
    8248:	e3c33003 	bic	r3, r3, #3
    824c:	e2833004 	add	r3, r3, #4
    8250:	e083300e 	add	r3, r3, lr
    8254:	e484c004 	str	ip, [r4], #4
    8258:	e1540003 	cmp	r4, r3
    825c:	1afffffc 	bne	8254 <_clear_bss+0x40>
    8260:	eb0006be 	bl	9d60 <kernel_main>
    8264:	eafffffe 	b	8264 <_clear_bss+0x50>
    8268:	00003de8 	andeq	r3, r0, r8, ror #27
    826c:	0000001c 	andeq	r0, r0, ip, lsl r0
    8270:	00000010 	andeq	r0, r0, r0, lsl r0

00008274 <RPI_GetArmTimer>:
    8274:	e3a00b2d 	mov	r0, #46080	; 0xb400
    8278:	e3430f00 	movt	r0, #16128	; 0x3f00
    827c:	e12fff1e 	bx	lr

00008280 <arm_timer_init>:
    8280:	e92d4010 	push	{r4, lr}
    8284:	eb000008 	bl	82ac <RPI_GetIrqController>
    8288:	e3a03001 	mov	r3, #1
    828c:	e5803018 	str	r3, [r0, #24]
    8290:	ebfffff7 	bl	8274 <RPI_GetArmTimer>
    8294:	e3a03b01 	mov	r3, #1024	; 0x400
    8298:	e5803000 	str	r3, [r0]
    829c:	ebfffff4 	bl	8274 <RPI_GetArmTimer>
    82a0:	e3a030aa 	mov	r3, #170	; 0xaa
    82a4:	e5803008 	str	r3, [r0, #8]
    82a8:	e8bd8010 	pop	{r4, pc}

000082ac <RPI_GetIrqController>:
    82ac:	e3a00cb2 	mov	r0, #45568	; 0xb200
    82b0:	e3430f00 	movt	r0, #16128	; 0x3f00
    82b4:	e12fff1e 	bx	lr

000082b8 <reset_vector>:
    82b8:	e24ee004 	sub	lr, lr, #4
    82bc:	e92d500f 	push	{r0, r1, r2, r3, ip, lr}
    82c0:	e59f0008 	ldr	r0, [pc, #8]	; 82d0 <reset_vector+0x18>
    82c4:	e08f0000 	add	r0, pc, r0
    82c8:	eb000409 	bl	92f4 <uart_puts>
    82cc:	eafffffe 	b	82cc <reset_vector+0x14>
    82d0:	00002dc0 	andeq	r2, r0, r0, asr #27

000082d4 <undefined_instruction_vector>:
    82d4:	e92d500f 	push	{r0, r1, r2, r3, ip, lr}
    82d8:	e59f0008 	ldr	r0, [pc, #8]	; 82e8 <undefined_instruction_vector+0x14>
    82dc:	e08f0000 	add	r0, pc, r0
    82e0:	eb000403 	bl	92f4 <uart_puts>
    82e4:	eafffffe 	b	82e4 <undefined_instruction_vector+0x10>
    82e8:	00002dc4 	andeq	r2, r0, r4, asr #27

000082ec <software_interrupt_vector>:
    82ec:	e92d500f 	push	{r0, r1, r2, r3, ip, lr}
    82f0:	e59f0008 	ldr	r0, [pc, #8]	; 8300 <software_interrupt_vector+0x14>
    82f4:	e08f0000 	add	r0, pc, r0
    82f8:	eb0003fd 	bl	92f4 <uart_puts>
    82fc:	e8fd900f 	ldm	sp!, {r0, r1, r2, r3, ip, pc}^
    8300:	00002dc8 	andeq	r2, r0, r8, asr #27

00008304 <prefetch_abort_vector>:
    8304:	e24ee004 	sub	lr, lr, #4
    8308:	e92d500f 	push	{r0, r1, r2, r3, ip, lr}
    830c:	e59f0008 	ldr	r0, [pc, #8]	; 831c <prefetch_abort_vector+0x18>
    8310:	e08f0000 	add	r0, pc, r0
    8314:	eb0003f6 	bl	92f4 <uart_puts>
    8318:	eafffffe 	b	8318 <prefetch_abort_vector+0x14>
    831c:	00002dc8 	andeq	r2, r0, r8, asr #27

00008320 <data_abort_vector>:
    8320:	e24ee004 	sub	lr, lr, #4
    8324:	e92d500f 	push	{r0, r1, r2, r3, ip, lr}
    8328:	e59f0008 	ldr	r0, [pc, #8]	; 8338 <data_abort_vector+0x18>
    832c:	e08f0000 	add	r0, pc, r0
    8330:	eb0003ef 	bl	92f4 <uart_puts>
    8334:	eafffffe 	b	8334 <data_abort_vector+0x14>
    8338:	00002dd8 	ldrdeq	r2, [r0], -r8

0000833c <fast_interrupt_vector>:
    833c:	e24ee004 	sub	lr, lr, #4
    8340:	e92d401f 	push	{r0, r1, r2, r3, r4, lr}
    8344:	e59f0008 	ldr	r0, [pc, #8]	; 8354 <fast_interrupt_vector+0x18>
    8348:	e08f0000 	add	r0, pc, r0
    834c:	eb0003e8 	bl	92f4 <uart_puts>
    8350:	e8fd801f 	ldm	sp!, {r0, r1, r2, r3, r4, pc}^
    8354:	00002de4 	andeq	r2, r0, r4, ror #27

00008358 <irq_handler>:
    8358:	e59f00d4 	ldr	r0, [pc, #212]	; 8434 <irq_handler+0xdc>
    835c:	e92d4010 	push	{r4, lr}
    8360:	e08f0000 	add	r0, pc, r0
    8364:	e3a04000 	mov	r4, #0
    8368:	eb00069e 	bl	9de8 <printf>
    836c:	e59fc0c4 	ldr	ip, [pc, #196]	; 8438 <irq_handler+0xe0>
    8370:	e3a01cb2 	mov	r1, #45568	; 0xb200
    8374:	e3431f00 	movt	r1, #16128	; 0x3f00
    8378:	e08fc00c 	add	ip, pc, ip
    837c:	e3e0301f 	mvn	r3, #31
    8380:	e3a00001 	mov	r0, #1
    8384:	ea000003 	b	8398 <irq_handler+0x40>
    8388:	e2844001 	add	r4, r4, #1
    838c:	e2833001 	add	r3, r3, #1
    8390:	e3540048 	cmp	r4, #72	; 0x48
    8394:	0a000021 	beq	8420 <irq_handler+0xc8>
    8398:	e354003f 	cmp	r4, #63	; 0x3f
    839c:	ca00001a 	bgt	840c <irq_handler+0xb4>
    83a0:	e353001f 	cmp	r3, #31
    83a4:	9a00001e 	bls	8424 <irq_handler+0xcc>
    83a8:	e354001f 	cmp	r4, #31
    83ac:	cafffff5 	bgt	8388 <irq_handler+0x30>
    83b0:	e5912004 	ldr	r2, [r1, #4]
    83b4:	e0122410 	ands	r2, r2, r0, lsl r4
    83b8:	0afffff2 	beq	8388 <irq_handler+0x30>
    83bc:	e79c2104 	ldr	r2, [ip, r4, lsl #2]
    83c0:	e1a0e104 	lsl	lr, r4, #2
    83c4:	e3520000 	cmp	r2, #0
    83c8:	0affffee 	beq	8388 <irq_handler+0x30>
    83cc:	e08cc00e 	add	ip, ip, lr
    83d0:	e59c3120 	ldr	r3, [ip, #288]	; 0x120
    83d4:	e12fff33 	blx	r3
    83d8:	e10f3000 	mrs	r3, CPSR
    83dc:	e3130080 	tst	r3, #128	; 0x80
    83e0:	0a000000 	beq	83e8 <irq_handler+0x90>
    83e4:	f1080080 	cpsie	i
    83e8:	e59f304c 	ldr	r3, [pc, #76]	; 843c <irq_handler+0xe4>
    83ec:	e08f3003 	add	r3, pc, r3
    83f0:	e7933104 	ldr	r3, [r3, r4, lsl #2]
    83f4:	e12fff33 	blx	r3
    83f8:	e10f3000 	mrs	r3, CPSR
    83fc:	e3130080 	tst	r3, #128	; 0x80
    8400:	18bd8010 	popne	{r4, pc}
    8404:	f10c0080 	cpsid	i
    8408:	e8bd8010 	pop	{r4, pc}
    840c:	e5912000 	ldr	r2, [r1]
    8410:	e244e040 	sub	lr, r4, #64	; 0x40
    8414:	e0122e10 	ands	r2, r2, r0, lsl lr
    8418:	1affffe7 	bne	83bc <irq_handler+0x64>
    841c:	eaffffdf 	b	83a0 <irq_handler+0x48>
    8420:	e8bd8010 	pop	{r4, pc}
    8424:	e5912008 	ldr	r2, [r1, #8]
    8428:	e0122310 	ands	r2, r2, r0, lsl r3
    842c:	1affffe2 	bne	83bc <irq_handler+0x64>
    8430:	eaffffd4 	b	8388 <irq_handler+0x30>
    8434:	00002df8 	strdeq	r2, [r0], -r8
    8438:	00004c80 	andeq	r4, r0, r0, lsl #25
    843c:	00004c0c 	andeq	r4, r0, ip, lsl #24

00008440 <register_irq_handler>:
    8440:	e350003f 	cmp	r0, #63	; 0x3f
    8444:	e92d4070 	push	{r4, r5, r6, lr}
    8448:	8a00001b 	bhi	84bc <register_irq_handler+0x7c>
    844c:	e2403020 	sub	r3, r0, #32
    8450:	e6efc073 	uxtb	ip, r3
    8454:	e35c001f 	cmp	ip, #31
    8458:	9a00000b 	bls	848c <register_irq_handler+0x4c>
    845c:	e59f308c 	ldr	r3, [pc, #140]	; 84f0 <register_irq_handler+0xb0>
    8460:	e3a0ccb2 	mov	ip, #45568	; 0xb200
    8464:	e343cf00 	movt	ip, #16128	; 0x3f00
    8468:	e08f3003 	add	r3, pc, r3
    846c:	e3a05001 	mov	r5, #1
    8470:	e0834100 	add	r4, r3, r0, lsl #2
    8474:	e59ce010 	ldr	lr, [ip, #16]
    8478:	e7831100 	str	r1, [r3, r0, lsl #2]
    847c:	e5842120 	str	r2, [r4, #288]	; 0x120
    8480:	e18e0015 	orr	r0, lr, r5, lsl r0
    8484:	e58c0010 	str	r0, [ip, #16]
    8488:	e8bd8070 	pop	{r4, r5, r6, pc}
    848c:	e59fc060 	ldr	ip, [pc, #96]	; 84f4 <register_irq_handler+0xb4>
    8490:	e3a0ecb2 	mov	lr, #45568	; 0xb200
    8494:	e343ef00 	movt	lr, #16128	; 0x3f00
    8498:	e08fc00c 	add	ip, pc, ip
    849c:	e3a06001 	mov	r6, #1
    84a0:	e08c5100 	add	r5, ip, r0, lsl #2
    84a4:	e59e4014 	ldr	r4, [lr, #20]
    84a8:	e78c1100 	str	r1, [ip, r0, lsl #2]
    84ac:	e1843316 	orr	r3, r4, r6, lsl r3
    84b0:	e5852120 	str	r2, [r5, #288]	; 0x120
    84b4:	e58e3014 	str	r3, [lr, #20]
    84b8:	e8bd8070 	pop	{r4, r5, r6, pc}
    84bc:	e59f3034 	ldr	r3, [pc, #52]	; 84f8 <register_irq_handler+0xb8>
    84c0:	e3a0ccb2 	mov	ip, #45568	; 0xb200
    84c4:	e343cf00 	movt	ip, #16128	; 0x3f00
    84c8:	e08f3003 	add	r3, pc, r3
    84cc:	e2405040 	sub	r5, r0, #64	; 0x40
    84d0:	e0834100 	add	r4, r3, r0, lsl #2
    84d4:	e3a06001 	mov	r6, #1
    84d8:	e59ce018 	ldr	lr, [ip, #24]
    84dc:	e7831100 	str	r1, [r3, r0, lsl #2]
    84e0:	e5842120 	str	r2, [r4, #288]	; 0x120
    84e4:	e18e3516 	orr	r3, lr, r6, lsl r5
    84e8:	e58c3018 	str	r3, [ip, #24]
    84ec:	e8bd8070 	pop	{r4, r5, r6, pc}
    84f0:	00004b90 	muleq	r0, r0, fp
    84f4:	00004b60 	andeq	r4, r0, r0, ror #22
    84f8:	00004b30 	andeq	r4, r0, r0, lsr fp

000084fc <unregister_irq_handler>:
    84fc:	e350003f 	cmp	r0, #63	; 0x3f
    8500:	e92d4030 	push	{r4, r5, lr}
    8504:	8a00001d 	bhi	8580 <unregister_irq_handler+0x84>
    8508:	e2403020 	sub	r3, r0, #32
    850c:	e6ef2073 	uxtb	r2, r3
    8510:	e352001f 	cmp	r2, #31
    8514:	9a00000c 	bls	854c <unregister_irq_handler+0x50>
    8518:	e59f3098 	ldr	r3, [pc, #152]	; 85b8 <unregister_irq_handler+0xbc>
    851c:	e3a02cb2 	mov	r2, #45568	; 0xb200
    8520:	e3432f00 	movt	r2, #16128	; 0x3f00
    8524:	e08f3003 	add	r3, pc, r3
    8528:	e3a04001 	mov	r4, #1
    852c:	e083e100 	add	lr, r3, r0, lsl #2
    8530:	e3a0c000 	mov	ip, #0
    8534:	e592101c 	ldr	r1, [r2, #28]
    8538:	e783c100 	str	ip, [r3, r0, lsl #2]
    853c:	e58ec120 	str	ip, [lr, #288]	; 0x120
    8540:	e1810014 	orr	r0, r1, r4, lsl r0
    8544:	e582001c 	str	r0, [r2, #28]
    8548:	e8bd8030 	pop	{r4, r5, pc}
    854c:	e59f2068 	ldr	r2, [pc, #104]	; 85bc <unregister_irq_handler+0xc0>
    8550:	e3a01cb2 	mov	r1, #45568	; 0xb200
    8554:	e3431f00 	movt	r1, #16128	; 0x3f00
    8558:	e08f2002 	add	r2, pc, r2
    855c:	e3a05001 	mov	r5, #1
    8560:	e0824100 	add	r4, r2, r0, lsl #2
    8564:	e3a0e000 	mov	lr, #0
    8568:	e591c020 	ldr	ip, [r1, #32]
    856c:	e782e100 	str	lr, [r2, r0, lsl #2]
    8570:	e18c3315 	orr	r3, ip, r5, lsl r3
    8574:	e584e120 	str	lr, [r4, #288]	; 0x120
    8578:	e5813020 	str	r3, [r1, #32]
    857c:	e8bd8030 	pop	{r4, r5, pc}
    8580:	e59f3038 	ldr	r3, [pc, #56]	; 85c0 <unregister_irq_handler+0xc4>
    8584:	e3a02cb2 	mov	r2, #45568	; 0xb200
    8588:	e3432f00 	movt	r2, #16128	; 0x3f00
    858c:	e08f3003 	add	r3, pc, r3
    8590:	e2404040 	sub	r4, r0, #64	; 0x40
    8594:	e083e100 	add	lr, r3, r0, lsl #2
    8598:	e3a05001 	mov	r5, #1
    859c:	e5921024 	ldr	r1, [r2, #36]	; 0x24
    85a0:	e3a0c000 	mov	ip, #0
    85a4:	e783c100 	str	ip, [r3, r0, lsl #2]
    85a8:	e58ec120 	str	ip, [lr, #288]	; 0x120
    85ac:	e1813415 	orr	r3, r1, r5, lsl r4
    85b0:	e5823024 	str	r3, [r2, #36]	; 0x24
    85b4:	e8bd8030 	pop	{r4, r5, pc}
    85b8:	00004ad4 	ldrdeq	r4, [r0], -r4	; <UNPREDICTABLE>
    85bc:	00004aa0 	andeq	r4, r0, r0, lsr #21
    85c0:	00004a6c 	andeq	r4, r0, ip, ror #20

000085c4 <memset>:
    85c4:	e3520000 	cmp	r2, #0
    85c8:	e6ef1071 	uxtb	r1, r1
    85cc:	012fff1e 	bxeq	lr
    85d0:	e0802002 	add	r2, r0, r2
    85d4:	e1a03000 	mov	r3, r0
    85d8:	e4c31001 	strb	r1, [r3], #1
    85dc:	e1530002 	cmp	r3, r2
    85e0:	1afffffc 	bne	85d8 <memset+0x14>
    85e4:	e12fff1e 	bx	lr

000085e8 <bzero>:
    85e8:	e1a02001 	mov	r2, r1
    85ec:	e3a01000 	mov	r1, #0
    85f0:	eafffff3 	b	85c4 <memset>

000085f4 <interrupts_init>:
    85f4:	e92d4010 	push	{r4, lr}
    85f8:	ebfffec7 	bl	811c <_enable_interrupts>
    85fc:	e10f3000 	mrs	r3, CPSR
    8600:	e3130080 	tst	r3, #128	; 0x80
    8604:	1a000000 	bne	860c <interrupts_init+0x18>
    8608:	f10c0080 	cpsid	i
    860c:	e59f4044 	ldr	r4, [pc, #68]	; 8658 <interrupts_init+0x64>
    8610:	e3a01e12 	mov	r1, #288	; 0x120
    8614:	e08f4004 	add	r4, pc, r4
    8618:	e1a00004 	mov	r0, r4
    861c:	ebfffff1 	bl	85e8 <bzero>
    8620:	e2840e12 	add	r0, r4, #288	; 0x120
    8624:	e3a01e12 	mov	r1, #288	; 0x120
    8628:	ebffffee 	bl	85e8 <bzero>
    862c:	e3a03cb2 	mov	r3, #45568	; 0xb200
    8630:	e3433f00 	movt	r3, #16128	; 0x3f00
    8634:	e3e02000 	mvn	r2, #0
    8638:	e5832024 	str	r2, [r3, #36]	; 0x24
    863c:	e583201c 	str	r2, [r3, #28]
    8640:	e5832020 	str	r2, [r3, #32]
    8644:	e10f3000 	mrs	r3, CPSR
    8648:	e3130080 	tst	r3, #128	; 0x80
    864c:	08bd8010 	popeq	{r4, pc}
    8650:	f1080080 	cpsie	i
    8654:	e8bd8010 	pop	{r4, pc}
    8658:	000049e4 	andeq	r4, r0, r4, ror #19

0000865c <RPI_Mailbox0Write>:
    865c:	e3c1100f 	bic	r1, r1, #15
    8660:	e3a0cb2e 	mov	ip, #47104	; 0xb800
    8664:	e343cf00 	movt	ip, #16128	; 0x3f00
    8668:	e1800001 	orr	r0, r0, r1
    866c:	e59c2098 	ldr	r2, [ip, #152]	; 0x98
    8670:	e3a03b2e 	mov	r3, #47104	; 0xb800
    8674:	e3433f00 	movt	r3, #16128	; 0x3f00
    8678:	e3520000 	cmp	r2, #0
    867c:	bafffffa 	blt	866c <RPI_Mailbox0Write+0x10>
    8680:	e58300a0 	str	r0, [r3, #160]	; 0xa0
    8684:	e12fff1e 	bx	lr

00008688 <RPI_Mailbox0Read>:
    8688:	e350000f 	cmp	r0, #15
    868c:	0a00000b 	beq	86c0 <RPI_Mailbox0Read+0x38>
    8690:	e3a02b2e 	mov	r2, #47104	; 0xb800
    8694:	e3432f00 	movt	r2, #16128	; 0x3f00
    8698:	e1a0c002 	mov	ip, r2
    869c:	e5923098 	ldr	r3, [r2, #152]	; 0x98
    86a0:	e3130101 	tst	r3, #1073741824	; 0x40000000
    86a4:	1afffffc 	bne	869c <RPI_Mailbox0Read+0x14>
    86a8:	e59c3080 	ldr	r3, [ip, #128]	; 0x80
    86ac:	e203100f 	and	r1, r3, #15
    86b0:	e1510000 	cmp	r1, r0
    86b4:	1afffff8 	bne	869c <RPI_Mailbox0Read+0x14>
    86b8:	e1a00243 	asr	r0, r3, #4
    86bc:	e12fff1e 	bx	lr
    86c0:	e3e00000 	mvn	r0, #0
    86c4:	e12fff1e 	bx	lr

000086c8 <RPI_PropertyInit>:
    86c8:	e59f3028 	ldr	r3, [pc, #40]	; 86f8 <RPI_PropertyInit+0x30>
    86cc:	e3a01000 	mov	r1, #0
    86d0:	e59f2024 	ldr	r2, [pc, #36]	; 86fc <RPI_PropertyInit+0x34>
    86d4:	e3a0c00c 	mov	ip, #12
    86d8:	e08f3003 	add	r3, pc, r3
    86dc:	e3a00002 	mov	r0, #2
    86e0:	e08f2002 	add	r2, pc, r2
    86e4:	e583c000 	str	ip, [r3]
    86e8:	e5831004 	str	r1, [r3, #4]
    86ec:	e5831008 	str	r1, [r3, #8]
    86f0:	e5820020 	str	r0, [r2, #32]
    86f4:	e12fff1e 	bx	lr
    86f8:	00004b70 	andeq	r4, r0, r0, ror fp
    86fc:	0000cb48 	andeq	ip, r0, r8, asr #22

00008700 <RPI_PropertyAddTag>:
    8700:	e92d000f 	push	{r0, r1, r2, r3}
    8704:	e59f144c 	ldr	r1, [pc, #1100]	; 8b58 <RPI_PropertyAddTag+0x458>
    8708:	e3a00008 	mov	r0, #8
    870c:	e3400004 	movt	r0, #4
    8710:	e92d40f0 	push	{r4, r5, r6, r7, lr}
    8714:	e08f1001 	add	r1, pc, r1
    8718:	e59fc43c 	ldr	ip, [pc, #1084]	; 8b5c <RPI_PropertyAddTag+0x45c>
    871c:	e24dd00c 	sub	sp, sp, #12
    8720:	e08fc00c 	add	ip, pc, ip
    8724:	e28de024 	add	lr, sp, #36	; 0x24
    8728:	e5913020 	ldr	r3, [r1, #32]
    872c:	e59d2020 	ldr	r2, [sp, #32]
    8730:	e58de004 	str	lr, [sp, #4]
    8734:	e1520000 	cmp	r2, r0
    8738:	e78c2103 	str	r2, [ip, r3, lsl #2]
    873c:	e2830001 	add	r0, r3, #1
    8740:	e5810020 	str	r0, [r1, #32]
    8744:	8a000047 	bhi	8868 <RPI_PropertyAddTag+0x168>
    8748:	e3a04005 	mov	r4, #5
    874c:	e3404004 	movt	r4, #4
    8750:	e1520004 	cmp	r2, r4
    8754:	2a00008c 	bcs	898c <RPI_PropertyAddTag+0x28c>
    8758:	e3a04002 	mov	r4, #2
    875c:	e3404003 	movt	r4, #3
    8760:	e1520004 	cmp	r2, r4
    8764:	0a00002d 	beq	8820 <RPI_PropertyAddTag+0x120>
    8768:	8a00001f 	bhi	87ec <RPI_PropertyAddTag+0xec>
    876c:	e3a04006 	mov	r4, #6
    8770:	e3404001 	movt	r4, #1
    8774:	e1520004 	cmp	r2, r4
    8778:	9a0000d0 	bls	8ac0 <RPI_PropertyAddTag+0x3c0>
    877c:	e3a04001 	mov	r4, #1
    8780:	e3404002 	movt	r4, #2
    8784:	e1520004 	cmp	r2, r4
    8788:	0a000024 	beq	8820 <RPI_PropertyAddTag+0x120>
    878c:	e3084001 	movw	r4, #32769	; 0x8001
    8790:	e3404002 	movt	r4, #2
    8794:	e1520004 	cmp	r2, r4
    8798:	1a000090 	bne	89e0 <RPI_PropertyAddTag+0x2e0>
    879c:	e2835002 	add	r5, r3, #2
    87a0:	e2832004 	add	r2, r3, #4
    87a4:	e2834003 	add	r4, r3, #3
    87a8:	e3a06008 	mov	r6, #8
    87ac:	e2833005 	add	r3, r3, #5
    87b0:	e78c6100 	str	r6, [ip, r0, lsl #2]
    87b4:	e5813020 	str	r3, [r1, #32]
    87b8:	e3a06000 	mov	r6, #0
    87bc:	e89e0003 	ldm	lr, {r0, r1}
    87c0:	e78c6105 	str	r6, [ip, r5, lsl #2]
    87c4:	e78c0104 	str	r0, [ip, r4, lsl #2]
    87c8:	e78c1102 	str	r1, [ip, r2, lsl #2]
    87cc:	e59f238c 	ldr	r2, [pc, #908]	; 8b60 <RPI_PropertyAddTag+0x460>
    87d0:	e3a01000 	mov	r1, #0
    87d4:	e08f2002 	add	r2, pc, r2
    87d8:	e7821103 	str	r1, [r2, r3, lsl #2]
    87dc:	e28dd00c 	add	sp, sp, #12
    87e0:	e8bd40f0 	pop	{r4, r5, r6, r7, lr}
    87e4:	e28dd010 	add	sp, sp, #16
    87e8:	e12fff1e 	bx	lr
    87ec:	e3084002 	movw	r4, #32770	; 0x8002
    87f0:	e3404003 	movt	r4, #3
    87f4:	e1520004 	cmp	r2, r4
    87f8:	0a00004f 	beq	893c <RPI_PropertyAddTag+0x23c>
    87fc:	8a0000cb 	bhi	8b30 <RPI_PropertyAddTag+0x430>
    8800:	e3a01004 	mov	r1, #4
    8804:	e3401003 	movt	r1, #3
    8808:	e1520001 	cmp	r2, r1
    880c:	0a000003 	beq	8820 <RPI_PropertyAddTag+0x120>
    8810:	e3a01007 	mov	r1, #7
    8814:	e3401003 	movt	r1, #3
    8818:	e1520001 	cmp	r2, r1
    881c:	1a000073 	bne	89f0 <RPI_PropertyAddTag+0x2f0>
    8820:	e59f233c 	ldr	r2, [pc, #828]	; 8b64 <RPI_PropertyAddTag+0x464>
    8824:	e2835002 	add	r5, r3, #2
    8828:	e59f1338 	ldr	r1, [pc, #824]	; 8b68 <RPI_PropertyAddTag+0x468>
    882c:	e283e003 	add	lr, r3, #3
    8830:	e59d4004 	ldr	r4, [sp, #4]
    8834:	e08f2002 	add	r2, pc, r2
    8838:	e283c004 	add	ip, r3, #4
    883c:	e08f1001 	add	r1, pc, r1
    8840:	e3a06008 	mov	r6, #8
    8844:	e2833005 	add	r3, r3, #5
    8848:	e5944000 	ldr	r4, [r4]
    884c:	e5813020 	str	r3, [r1, #32]
    8850:	e7826100 	str	r6, [r2, r0, lsl #2]
    8854:	e3a00000 	mov	r0, #0
    8858:	e7820105 	str	r0, [r2, r5, lsl #2]
    885c:	e782410e 	str	r4, [r2, lr, lsl #2]
    8860:	e782010c 	str	r0, [r2, ip, lsl #2]
    8864:	eaffffd8 	b	87cc <RPI_PropertyAddTag+0xcc>
    8868:	e3081004 	movw	r1, #32772	; 0x8004
    886c:	e3401004 	movt	r1, #4
    8870:	e1520001 	cmp	r2, r1
    8874:	9a000061 	bls	8a00 <RPI_PropertyAddTag+0x300>
    8878:	e3081009 	movw	r1, #32777	; 0x8009
    887c:	e3401004 	movt	r1, #4
    8880:	e1520001 	cmp	r2, r1
    8884:	0a00006a 	beq	8a34 <RPI_PropertyAddTag+0x334>
    8888:	9a00003b 	bls	897c <RPI_PropertyAddTag+0x27c>
    888c:	e3a01001 	mov	r1, #1
    8890:	e3401005 	movt	r1, #5
    8894:	e1520001 	cmp	r2, r1
    8898:	0a000098 	beq	8b00 <RPI_PropertyAddTag+0x400>
    889c:	e3a01001 	mov	r1, #1
    88a0:	e3401006 	movt	r1, #6
    88a4:	e1520001 	cmp	r2, r1
    88a8:	0a000088 	beq	8ad0 <RPI_PropertyAddTag+0x3d0>
    88ac:	e308100a 	movw	r1, #32778	; 0x800a
    88b0:	e3401004 	movt	r1, #4
    88b4:	e1520001 	cmp	r2, r1
    88b8:	1a00004c 	bne	89f0 <RPI_PropertyAddTag+0x2f0>
    88bc:	e59f12a8 	ldr	r1, [pc, #680]	; 8b6c <RPI_PropertyAddTag+0x46c>
    88c0:	e283c002 	add	ip, r3, #2
    88c4:	e59fe2a4 	ldr	lr, [pc, #676]	; 8b70 <RPI_PropertyAddTag+0x470>
    88c8:	e308400a 	movw	r4, #32778	; 0x800a
    88cc:	e3404004 	movt	r4, #4
    88d0:	e08f1001 	add	r1, pc, r1
    88d4:	e08fe00e 	add	lr, pc, lr
    88d8:	e1520004 	cmp	r2, r4
    88dc:	e3a02010 	mov	r2, #16
    88e0:	e3a04000 	mov	r4, #0
    88e4:	e7812100 	str	r2, [r1, r0, lsl #2]
    88e8:	e2830003 	add	r0, r3, #3
    88ec:	e781410c 	str	r4, [r1, ip, lsl #2]
    88f0:	12833007 	addne	r3, r3, #7
    88f4:	e58e0020 	str	r0, [lr, #32]
    88f8:	158e3020 	strne	r3, [lr, #32]
    88fc:	1affffb2 	bne	87cc <RPI_PropertyAddTag+0xcc>
    8900:	e59d2004 	ldr	r2, [sp, #4]
    8904:	e2835004 	add	r5, r3, #4
    8908:	e2834005 	add	r4, r3, #5
    890c:	e283c006 	add	ip, r3, #6
    8910:	e2833007 	add	r3, r3, #7
    8914:	e58e3020 	str	r3, [lr, #32]
    8918:	e592e000 	ldr	lr, [r2]
    891c:	e781e100 	str	lr, [r1, r0, lsl #2]
    8920:	e592e004 	ldr	lr, [r2, #4]
    8924:	e5920008 	ldr	r0, [r2, #8]
    8928:	e592200c 	ldr	r2, [r2, #12]
    892c:	e781e105 	str	lr, [r1, r5, lsl #2]
    8930:	e7810104 	str	r0, [r1, r4, lsl #2]
    8934:	e781210c 	str	r2, [r1, ip, lsl #2]
    8938:	eaffffa3 	b	87cc <RPI_PropertyAddTag+0xcc>
    893c:	e2836002 	add	r6, r3, #2
    8940:	e2835003 	add	r5, r3, #3
    8944:	e2832005 	add	r2, r3, #5
    8948:	e2834004 	add	r4, r3, #4
    894c:	e3a0700c 	mov	r7, #12
    8950:	e2833006 	add	r3, r3, #6
    8954:	e78c7100 	str	r7, [ip, r0, lsl #2]
    8958:	e3a00000 	mov	r0, #0
    895c:	e5813020 	str	r3, [r1, #32]
    8960:	e78c0106 	str	r0, [ip, r6, lsl #2]
    8964:	e59e6000 	ldr	r6, [lr]
    8968:	e99e0003 	ldmib	lr, {r0, r1}
    896c:	e78c6105 	str	r6, [ip, r5, lsl #2]
    8970:	e78c0104 	str	r0, [ip, r4, lsl #2]
    8974:	e78c1102 	str	r1, [ip, r2, lsl #2]
    8978:	eaffff93 	b	87cc <RPI_PropertyAddTag+0xcc>
    897c:	e3081007 	movw	r1, #32775	; 0x8007
    8980:	e3401004 	movt	r1, #4
    8984:	e1520001 	cmp	r2, r1
    8988:	8a000018 	bhi	89f0 <RPI_PropertyAddTag+0x2f0>
    898c:	e59fc1e0 	ldr	ip, [pc, #480]	; 8b74 <RPI_PropertyAddTag+0x474>
    8990:	e2421912 	sub	r1, r2, #294912	; 0x48000
    8994:	e2832002 	add	r2, r3, #2
    8998:	e2411005 	sub	r1, r1, #5
    899c:	e08fc00c 	add	ip, pc, ip
    89a0:	e3510002 	cmp	r1, #2
    89a4:	e3a0e004 	mov	lr, #4
    89a8:	e3a01000 	mov	r1, #0
    89ac:	e78ce100 	str	lr, [ip, r0, lsl #2]
    89b0:	e2830003 	add	r0, r3, #3
    89b4:	e78c1102 	str	r1, [ip, r2, lsl #2]
    89b8:	9083300e 	addls	r3, r3, lr
    89bc:	e59f21b4 	ldr	r2, [pc, #436]	; 8b78 <RPI_PropertyAddTag+0x478>
    89c0:	82833004 	addhi	r3, r3, #4
    89c4:	959d1004 	ldrls	r1, [sp, #4]
    89c8:	e08f2002 	add	r2, pc, r2
    89cc:	95823020 	strls	r3, [r2, #32]
    89d0:	95912000 	ldrls	r2, [r1]
    89d4:	978c2100 	strls	r2, [ip, r0, lsl #2]
    89d8:	85823020 	strhi	r3, [r2, #32]
    89dc:	eaffff7a 	b	87cc <RPI_PropertyAddTag+0xcc>
    89e0:	e3a01007 	mov	r1, #7
    89e4:	e3401001 	movt	r1, #1
    89e8:	e1520001 	cmp	r2, r1
    89ec:	0a000043 	beq	8b00 <RPI_PropertyAddTag+0x400>
    89f0:	e59f2184 	ldr	r2, [pc, #388]	; 8b7c <RPI_PropertyAddTag+0x47c>
    89f4:	e08f2002 	add	r2, pc, r2
    89f8:	e5823020 	str	r3, [r2, #32]
    89fc:	eaffff72 	b	87cc <RPI_PropertyAddTag+0xcc>
    8a00:	e3081003 	movw	r1, #32771	; 0x8003
    8a04:	e3401004 	movt	r1, #4
    8a08:	e1520001 	cmp	r2, r1
    8a0c:	2a000008 	bcs	8a34 <RPI_PropertyAddTag+0x334>
    8a10:	e3a0100a 	mov	r1, #10
    8a14:	e3401004 	movt	r1, #4
    8a18:	e1520001 	cmp	r2, r1
    8a1c:	0affffa6 	beq	88bc <RPI_PropertyAddTag+0x1bc>
    8a20:	3a000003 	bcc	8a34 <RPI_PropertyAddTag+0x334>
    8a24:	e2421911 	sub	r1, r2, #278528	; 0x44000
    8a28:	e2411003 	sub	r1, r1, #3
    8a2c:	e3510001 	cmp	r1, #1
    8a30:	8affffee 	bhi	89f0 <RPI_PropertyAddTag+0x2f0>
    8a34:	e59f1144 	ldr	r1, [pc, #324]	; 8b80 <RPI_PropertyAddTag+0x480>
    8a38:	e283c002 	add	ip, r3, #2
    8a3c:	e59f4140 	ldr	r4, [pc, #320]	; 8b84 <RPI_PropertyAddTag+0x484>
    8a40:	e308e009 	movw	lr, #32777	; 0x8009
    8a44:	e340e004 	movt	lr, #4
    8a48:	e08f1001 	add	r1, pc, r1
    8a4c:	e08f4004 	add	r4, pc, r4
    8a50:	e152000e 	cmp	r2, lr
    8a54:	e3a05000 	mov	r5, #0
    8a58:	e3a0e008 	mov	lr, #8
    8a5c:	e781e100 	str	lr, [r1, r0, lsl #2]
    8a60:	e283e003 	add	lr, r3, #3
    8a64:	e781510c 	str	r5, [r1, ip, lsl #2]
    8a68:	e584e020 	str	lr, [r4, #32]
    8a6c:	0a000006 	beq	8a8c <RPI_PropertyAddTag+0x38c>
    8a70:	e2422911 	sub	r2, r2, #278528	; 0x44000
    8a74:	e2422003 	sub	r2, r2, #3
    8a78:	e3c22901 	bic	r2, r2, #16384	; 0x4000
    8a7c:	e3520001 	cmp	r2, #1
    8a80:	82833005 	addhi	r3, r3, #5
    8a84:	85843020 	strhi	r3, [r4, #32]
    8a88:	8affff4f 	bhi	87cc <RPI_PropertyAddTag+0xcc>
    8a8c:	e59f10f4 	ldr	r1, [pc, #244]	; 8b88 <RPI_PropertyAddTag+0x488>
    8a90:	e283c004 	add	ip, r3, #4
    8a94:	e59f20f0 	ldr	r2, [pc, #240]	; 8b8c <RPI_PropertyAddTag+0x48c>
    8a98:	e2833005 	add	r3, r3, #5
    8a9c:	e59d0004 	ldr	r0, [sp, #4]
    8aa0:	e08f1001 	add	r1, pc, r1
    8aa4:	e08f2002 	add	r2, pc, r2
    8aa8:	e5904000 	ldr	r4, [r0]
    8aac:	e5900004 	ldr	r0, [r0, #4]
    8ab0:	e5823020 	str	r3, [r2, #32]
    8ab4:	e781410e 	str	r4, [r1, lr, lsl #2]
    8ab8:	e781010c 	str	r0, [r1, ip, lsl #2]
    8abc:	eaffff42 	b	87cc <RPI_PropertyAddTag+0xcc>
    8ac0:	e3520801 	cmp	r2, #65536	; 0x10000
    8ac4:	8a000001 	bhi	8ad0 <RPI_PropertyAddTag+0x3d0>
    8ac8:	e3520001 	cmp	r2, #1
    8acc:	1affffc7 	bne	89f0 <RPI_PropertyAddTag+0x2f0>
    8ad0:	e59f20b8 	ldr	r2, [pc, #184]	; 8b90 <RPI_PropertyAddTag+0x490>
    8ad4:	e283c002 	add	ip, r3, #2
    8ad8:	e59f10b4 	ldr	r1, [pc, #180]	; 8b94 <RPI_PropertyAddTag+0x494>
    8adc:	e3a04008 	mov	r4, #8
    8ae0:	e08f2002 	add	r2, pc, r2
    8ae4:	e2833005 	add	r3, r3, #5
    8ae8:	e08f1001 	add	r1, pc, r1
    8aec:	e3a0e000 	mov	lr, #0
    8af0:	e7824100 	str	r4, [r2, r0, lsl #2]
    8af4:	e5813020 	str	r3, [r1, #32]
    8af8:	e782e10c 	str	lr, [r2, ip, lsl #2]
    8afc:	eaffff32 	b	87cc <RPI_PropertyAddTag+0xcc>
    8b00:	e59f2090 	ldr	r2, [pc, #144]	; 8b98 <RPI_PropertyAddTag+0x498>
    8b04:	e283c002 	add	ip, r3, #2
    8b08:	e59f108c 	ldr	r1, [pc, #140]	; 8b9c <RPI_PropertyAddTag+0x49c>
    8b0c:	e3a04c01 	mov	r4, #256	; 0x100
    8b10:	e08f2002 	add	r2, pc, r2
    8b14:	e2833043 	add	r3, r3, #67	; 0x43
    8b18:	e08f1001 	add	r1, pc, r1
    8b1c:	e3a0e000 	mov	lr, #0
    8b20:	e7824100 	str	r4, [r2, r0, lsl #2]
    8b24:	e5813020 	str	r3, [r1, #32]
    8b28:	e782e10c 	str	lr, [r2, ip, lsl #2]
    8b2c:	eaffff26 	b	87cc <RPI_PropertyAddTag+0xcc>
    8b30:	e3a01001 	mov	r1, #1
    8b34:	e3401004 	movt	r1, #4
    8b38:	e1520001 	cmp	r2, r1
    8b3c:	0affff37 	beq	8820 <RPI_PropertyAddTag+0x120>
    8b40:	3affffaa 	bcc	89f0 <RPI_PropertyAddTag+0x2f0>
    8b44:	e3a01003 	mov	r1, #3
    8b48:	e3401004 	movt	r1, #4
    8b4c:	e1520001 	cmp	r2, r1
    8b50:	2affffb7 	bcs	8a34 <RPI_PropertyAddTag+0x334>
    8b54:	eaffffa5 	b	89f0 <RPI_PropertyAddTag+0x2f0>
    8b58:	0000cb14 	andeq	ip, r0, r4, lsl fp
    8b5c:	00004b28 	andeq	r4, r0, r8, lsr #22
    8b60:	00004a74 	andeq	r4, r0, r4, ror sl
    8b64:	00004a14 	andeq	r4, r0, r4, lsl sl
    8b68:	0000c9ec 	andeq	ip, r0, ip, ror #19
    8b6c:	00004978 	andeq	r4, r0, r8, ror r9
    8b70:	0000c954 	andeq	ip, r0, r4, asr r9
    8b74:	000048ac 	andeq	r4, r0, ip, lsr #17
    8b78:	0000c860 	andeq	ip, r0, r0, ror #16
    8b7c:	0000c834 	andeq	ip, r0, r4, lsr r8
    8b80:	00004800 	andeq	r4, r0, r0, lsl #16
    8b84:	0000c7dc 	ldrdeq	ip, [r0], -ip	; <UNPREDICTABLE>
    8b88:	000047a8 	andeq	r4, r0, r8, lsr #15
    8b8c:	0000c784 	andeq	ip, r0, r4, lsl #15
    8b90:	00004768 	andeq	r4, r0, r8, ror #14
    8b94:	0000c740 	andeq	ip, r0, r0, asr #14
    8b98:	00004738 	andeq	r4, r0, r8, lsr r7
    8b9c:	0000c710 	andeq	ip, r0, r0, lsl r7

00008ba0 <RPI_PropertyProcess>:
    8ba0:	e59f303c 	ldr	r3, [pc, #60]	; 8be4 <RPI_PropertyProcess+0x44>
    8ba4:	e3a00008 	mov	r0, #8
    8ba8:	e59f2038 	ldr	r2, [pc, #56]	; 8be8 <RPI_PropertyProcess+0x48>
    8bac:	e3a0c000 	mov	ip, #0
    8bb0:	e08f3003 	add	r3, pc, r3
    8bb4:	e92d4010 	push	{r4, lr}
    8bb8:	e5933020 	ldr	r3, [r3, #32]
    8bbc:	e08f2002 	add	r2, pc, r2
    8bc0:	e1a01002 	mov	r1, r2
    8bc4:	e2833001 	add	r3, r3, #1
    8bc8:	e582c004 	str	ip, [r2, #4]
    8bcc:	e1a03103 	lsl	r3, r3, #2
    8bd0:	e5823000 	str	r3, [r2]
    8bd4:	ebfffea0 	bl	865c <RPI_Mailbox0Write>
    8bd8:	e3a00008 	mov	r0, #8
    8bdc:	e8bd4010 	pop	{r4, lr}
    8be0:	eafffea8 	b	8688 <RPI_Mailbox0Read>
    8be4:	0000c678 	andeq	ip, r0, r8, ror r6
    8be8:	0000468c 	andeq	r4, r0, ip, lsl #13

00008bec <RPI_PropertyGet>:
    8bec:	e59f2094 	ldr	r2, [pc, #148]	; 8c88 <RPI_PropertyGet+0x9c>
    8bf0:	e59f3094 	ldr	r3, [pc, #148]	; 8c8c <RPI_PropertyGet+0xa0>
    8bf4:	e08f2002 	add	r2, pc, r2
    8bf8:	e08f3003 	add	r3, pc, r3
    8bfc:	e92d4010 	push	{r4, lr}
    8c00:	e592c000 	ldr	ip, [r2]
    8c04:	e5830024 	str	r0, [r3, #36]	; 0x24
    8c08:	e1a0c14c 	asr	ip, ip, #2
    8c0c:	e35c0002 	cmp	ip, #2
    8c10:	da00000d 	ble	8c4c <RPI_PropertyGet+0x60>
    8c14:	e5923008 	ldr	r3, [r2, #8]
    8c18:	e1530000 	cmp	r3, r0
    8c1c:	e3a03002 	mov	r3, #2
    8c20:	1a000003 	bne	8c34 <RPI_PropertyGet+0x48>
    8c24:	ea00000a 	b	8c54 <RPI_PropertyGet+0x68>
    8c28:	e7921103 	ldr	r1, [r2, r3, lsl #2]
    8c2c:	e1500001 	cmp	r0, r1
    8c30:	0a000007 	beq	8c54 <RPI_PropertyGet+0x68>
    8c34:	e2831001 	add	r1, r3, #1
    8c38:	e7921101 	ldr	r1, [r2, r1, lsl #2]
    8c3c:	e0833141 	add	r3, r3, r1, asr #2
    8c40:	e2833003 	add	r3, r3, #3
    8c44:	e153000c 	cmp	r3, ip
    8c48:	bafffff6 	blt	8c28 <RPI_PropertyGet+0x3c>
    8c4c:	e3a00000 	mov	r0, #0
    8c50:	e8bd8010 	pop	{r4, pc}
    8c54:	e59f2034 	ldr	r2, [pc, #52]	; 8c90 <RPI_PropertyGet+0xa4>
    8c58:	e59fc034 	ldr	ip, [pc, #52]	; 8c94 <RPI_PropertyGet+0xa8>
    8c5c:	e08f2002 	add	r2, pc, r2
    8c60:	e0823103 	add	r3, r2, r3, lsl #2
    8c64:	e08fc00c 	add	ip, pc, ip
    8c68:	e28c4024 	add	r4, ip, #36	; 0x24
    8c6c:	e283100c 	add	r1, r3, #12
    8c70:	e28c002c 	add	r0, ip, #44	; 0x2c
    8c74:	e1d320b8 	ldrh	r2, [r3, #8]
    8c78:	e58c2028 	str	r2, [ip, #40]	; 0x28
    8c7c:	eb00044a 	bl	9dac <memcpy>
    8c80:	e1a00004 	mov	r0, r4
    8c84:	e8bd8010 	pop	{r4, pc}
    8c88:	00004654 	andeq	r4, r0, r4, asr r6
    8c8c:	0000c630 	andeq	ip, r0, r0, lsr r6
    8c90:	000045ec 	andeq	r4, r0, ip, ror #11
    8c94:	0000c5c4 	andeq	ip, r0, r4, asr #11

00008c98 <timer_init>:
    8c98:	e59f301c 	ldr	r3, [pc, #28]	; 8cbc <timer_init+0x24>
    8c9c:	e3a02a03 	mov	r2, #12288	; 0x3000
    8ca0:	e3432f00 	movt	r2, #16128	; 0x3f00
    8ca4:	e08f3003 	add	r3, pc, r3
    8ca8:	e59f0010 	ldr	r0, [pc, #16]	; 8cc0 <timer_init+0x28>
    8cac:	e1a01002 	mov	r1, r2
    8cb0:	e08f0000 	add	r0, pc, r0
    8cb4:	e5832000 	str	r2, [r3]
    8cb8:	ea00044a 	b	9de8 <printf>
    8cbc:	0000c6b0 			; <UNDEFINED> instruction: 0x0000c6b0
    8cc0:	00002398 	muleq	r0, r8, r3

00008cc4 <timer_set>:
    8cc4:	e59f3010 	ldr	r3, [pc, #16]	; 8cdc <timer_set+0x18>
    8cc8:	e79f2003 	ldr	r2, [pc, r3]
    8ccc:	e5923004 	ldr	r3, [r2, #4]
    8cd0:	e0830000 	add	r0, r3, r0
    8cd4:	e5820010 	str	r0, [r2, #16]
    8cd8:	e12fff1e 	bx	lr
    8cdc:	0000c68c 	andeq	ip, r0, ip, lsl #13

00008ce0 <udelay>:
    8ce0:	e92d4800 	push	{fp, lr}
    8ce4:	e28db004 	add	fp, sp, #4
    8ce8:	e24dd018 	sub	sp, sp, #24
    8cec:	e50b0018 	str	r0, [fp, #-24]	; 0xffffffe8
    8cf0:	e59f30f0 	ldr	r3, [pc, #240]	; 8de8 <udelay+0x108>
    8cf4:	e08f3003 	add	r3, pc, r3
    8cf8:	e5933000 	ldr	r3, [r3]
    8cfc:	e5933004 	ldr	r3, [r3, #4]
    8d00:	e50b3008 	str	r3, [fp, #-8]
    8d04:	e59f30e0 	ldr	r3, [pc, #224]	; 8dec <udelay+0x10c>
    8d08:	e08f3003 	add	r3, pc, r3
    8d0c:	e5933000 	ldr	r3, [r3]
    8d10:	e5932004 	ldr	r2, [r3, #4]
    8d14:	e51b3008 	ldr	r3, [fp, #-8]
    8d18:	e0633002 	rsb	r3, r3, r2
    8d1c:	e50b300c 	str	r3, [fp, #-12]
    8d20:	e3e03000 	mvn	r3, #0
    8d24:	e50b3010 	str	r3, [fp, #-16]
    8d28:	e3e03000 	mvn	r3, #0
    8d2c:	e50b3014 	str	r3, [fp, #-20]	; 0xffffffec
    8d30:	ea000022 	b	8dc0 <udelay+0xe0>
    8d34:	e59f30b4 	ldr	r3, [pc, #180]	; 8df0 <udelay+0x110>
    8d38:	e08f3003 	add	r3, pc, r3
    8d3c:	e5933000 	ldr	r3, [r3]
    8d40:	e5933004 	ldr	r3, [r3, #4]
    8d44:	e50b3014 	str	r3, [fp, #-20]	; 0xffffffec
    8d48:	e59f30a4 	ldr	r3, [pc, #164]	; 8df4 <udelay+0x114>
    8d4c:	e08f3003 	add	r3, pc, r3
    8d50:	e5933000 	ldr	r3, [r3]
    8d54:	e5933008 	ldr	r3, [r3, #8]
    8d58:	e50b3010 	str	r3, [fp, #-16]
    8d5c:	e51b3014 	ldr	r3, [fp, #-20]	; 0xffffffec
    8d60:	e1a01003 	mov	r1, r3
    8d64:	e59f308c 	ldr	r3, [pc, #140]	; 8df8 <udelay+0x118>
    8d68:	e08f3003 	add	r3, pc, r3
    8d6c:	e1a00003 	mov	r0, r3
    8d70:	eb00041c 	bl	9de8 <printf>
    8d74:	e51b3010 	ldr	r3, [fp, #-16]
    8d78:	e1a01003 	mov	r1, r3
    8d7c:	e59f3078 	ldr	r3, [pc, #120]	; 8dfc <udelay+0x11c>
    8d80:	e08f3003 	add	r3, pc, r3
    8d84:	e1a00003 	mov	r0, r3
    8d88:	eb000416 	bl	9de8 <printf>
    8d8c:	e28f304c 	add	r3, pc, #76	; 0x4c
    8d90:	e1c320d0 	ldrd	r2, [r3]
    8d94:	e59f1064 	ldr	r1, [pc, #100]	; 8e00 <udelay+0x120>
    8d98:	e08f1001 	add	r1, pc, r1
    8d9c:	e1a00001 	mov	r0, r1
    8da0:	eb000410 	bl	9de8 <printf>
    8da4:	e59f3058 	ldr	r3, [pc, #88]	; 8e04 <udelay+0x124>
    8da8:	e08f3003 	add	r3, pc, r3
    8dac:	e5933000 	ldr	r3, [r3]
    8db0:	e5932004 	ldr	r2, [r3, #4]
    8db4:	e51b3008 	ldr	r3, [fp, #-8]
    8db8:	e0633002 	rsb	r3, r3, r2
    8dbc:	e50b300c 	str	r3, [fp, #-12]
    8dc0:	e51b200c 	ldr	r2, [fp, #-12]
    8dc4:	e51b3018 	ldr	r3, [fp, #-24]	; 0xffffffe8
    8dc8:	e1520003 	cmp	r2, r3
    8dcc:	3affffd8 	bcc	8d34 <udelay+0x54>
    8dd0:	e1a00000 	nop			; (mov r0, r0)
    8dd4:	e24bd004 	sub	sp, fp, #4
    8dd8:	e8bd8800 	pop	{fp, pc}
    8ddc:	e320f000 	nop	{0}
    8de0:	12345678 	eorsne	r5, r4, #120, 12	; 0x7800000
    8de4:	12345678 	eorsne	r5, r4, #120, 12	; 0x7800000
    8de8:	0000c660 	andeq	ip, r0, r0, ror #12
    8dec:	0000c64c 	andeq	ip, r0, ip, asr #12
    8df0:	0000c61c 	andeq	ip, r0, ip, lsl r6
    8df4:	0000c608 	andeq	ip, r0, r8, lsl #12
    8df8:	00002290 	muleq	r0, r0, r2
    8dfc:	00002298 	muleq	r0, r8, r2
    8e00:	000022a0 	andeq	r2, r0, r0, lsr #5
    8e04:	0000c5ac 	andeq	ip, r0, ip, lsr #11

00008e08 <timer_getTickCount32>:
    8e08:	e59f300c 	ldr	r3, [pc, #12]	; 8e1c <timer_getTickCount32+0x14>
    8e0c:	e08f3003 	add	r3, pc, r3
    8e10:	e5933000 	ldr	r3, [r3]
    8e14:	e5930004 	ldr	r0, [r3, #4]
    8e18:	e12fff1e 	bx	lr
    8e1c:	0000c548 	andeq	ip, r0, r8, asr #10

00008e20 <timer_getTickCount64>:
    8e20:	e59f3064 	ldr	r3, [pc, #100]	; 8e8c <timer_getTickCount64+0x6c>
    8e24:	e24dd010 	sub	sp, sp, #16
    8e28:	e3e02000 	mvn	r2, #0
    8e2c:	e3e00000 	mvn	r0, #0
    8e30:	e08f3003 	add	r3, pc, r3
    8e34:	e3e01000 	mvn	r1, #0
    8e38:	e1cd00f8 	strd	r0, [sp, #8]
    8e3c:	e58d2004 	str	r2, [sp, #4]
    8e40:	e5933000 	ldr	r3, [r3]
    8e44:	e5932008 	ldr	r2, [r3, #8]
    8e48:	e593c004 	ldr	ip, [r3, #4]
    8e4c:	e3a03000 	mov	r3, #0
    8e50:	e1cd20f8 	strd	r2, [sp, #8]
    8e54:	e58dc004 	str	ip, [sp, #4]
    8e58:	e1cd00d8 	ldrd	r0, [sp, #8]
    8e5c:	e1510003 	cmp	r1, r3
    8e60:	01500002 	cmpeq	r0, r2
    8e64:	1afffff9 	bne	8e50 <timer_getTickCount64+0x30>
    8e68:	e1cd00d8 	ldrd	r0, [sp, #8]
    8e6c:	e59d1004 	ldr	r1, [sp, #4]
    8e70:	e3a02000 	mov	r2, #0
    8e74:	e1a03000 	mov	r3, r0
    8e78:	e1822001 	orr	r2, r2, r1
    8e7c:	e1cd20f8 	strd	r2, [sp, #8]
    8e80:	e1cd00d8 	ldrd	r0, [sp, #8]
    8e84:	e28dd010 	add	sp, sp, #16
    8e88:	e12fff1e 	bx	lr
    8e8c:	0000c524 	andeq	ip, r0, r4, lsr #10

00008e90 <mmu_section>:
    8e90:	e59f3030 	ldr	r3, [pc, #48]	; 8ec8 <mmu_section+0x38>
    8e94:	e1a01a21 	lsr	r1, r1, #20
    8e98:	e3822b03 	orr	r2, r2, #3072	; 0xc00
    8e9c:	e1a00a20 	lsr	r0, r0, #20
    8ea0:	e08f3003 	add	r3, pc, r3
    8ea4:	e3822002 	orr	r2, r2, #2
    8ea8:	e1a01a01 	lsl	r1, r1, #20
    8eac:	e92d4010 	push	{r4, lr}
    8eb0:	e5933000 	ldr	r3, [r3]
    8eb4:	e1821001 	orr	r1, r2, r1
    8eb8:	e1830100 	orr	r0, r3, r0, lsl #2
    8ebc:	ebfffc8a 	bl	80ec <PUT32>
    8ec0:	e3a00000 	mov	r0, #0
    8ec4:	e8bd8010 	pop	{r4, pc}
    8ec8:	0000c4b8 			; <UNDEFINED> instruction: 0x0000c4b8

00008ecc <initialize_virtual_memory>:
    8ecc:	e59f3088 	ldr	r3, [pc, #136]	; 8f5c <initialize_virtual_memory+0x90>
    8ed0:	e59f1088 	ldr	r1, [pc, #136]	; 8f60 <initialize_virtual_memory+0x94>
    8ed4:	e92d4070 	push	{r4, r5, r6, lr}
    8ed8:	e08f3003 	add	r3, pc, r3
    8edc:	e59f0080 	ldr	r0, [pc, #128]	; 8f64 <initialize_virtual_memory+0x98>
    8ee0:	e08f1001 	add	r1, pc, r1
    8ee4:	e59f207c 	ldr	r2, [pc, #124]	; 8f68 <initialize_virtual_memory+0x9c>
    8ee8:	e3a04000 	mov	r4, #0
    8eec:	e7930000 	ldr	r0, [r3, r0]
    8ef0:	e5810000 	str	r0, [r1]
    8ef4:	e7935002 	ldr	r5, [r3, r2]
    8ef8:	e1a01004 	mov	r1, r4
    8efc:	e1a00004 	mov	r0, r4
    8f00:	e3a02000 	mov	r2, #0
    8f04:	ebffffe1 	bl	8e90 <mmu_section>
    8f08:	e1540005 	cmp	r4, r5
    8f0c:	e2844601 	add	r4, r4, #1048576	; 0x100000
    8f10:	3afffff8 	bcc	8ef8 <initialize_virtual_memory+0x2c>
    8f14:	e3a0143f 	mov	r1, #1056964608	; 0x3f000000
    8f18:	e3a02000 	mov	r2, #0
    8f1c:	e1a00001 	mov	r0, r1
    8f20:	ebffffda 	bl	8e90 <mmu_section>
    8f24:	e3a01000 	mov	r1, #0
    8f28:	e3431f20 	movt	r1, #16160	; 0x3f20
    8f2c:	e1a00001 	mov	r0, r1
    8f30:	e3a02000 	mov	r2, #0
    8f34:	ebffffd5 	bl	8e90 <mmu_section>
    8f38:	e59f002c 	ldr	r0, [pc, #44]	; 8f6c <initialize_virtual_memory+0xa0>
    8f3c:	e08f0000 	add	r0, pc, r0
    8f40:	eb0003a8 	bl	9de8 <printf>
    8f44:	e59f3024 	ldr	r3, [pc, #36]	; 8f70 <initialize_virtual_memory+0xa4>
    8f48:	e3a01005 	mov	r1, #5
    8f4c:	e08f3003 	add	r3, pc, r3
    8f50:	e8bd4070 	pop	{r4, r5, r6, lr}
    8f54:	e5930000 	ldr	r0, [r3]
    8f58:	eafffc7f 	b	815c <start_mmu>
    8f5c:	0000312c 	andeq	r3, r0, ip, lsr #2
    8f60:	0000c478 	andeq	ip, r0, r8, ror r4
    8f64:	00000008 	andeq	r0, r0, r8
    8f68:	0000000c 	andeq	r0, r0, ip
    8f6c:	0000222c 	andeq	r2, r0, ip, lsr #4
    8f70:	0000c40c 	andeq	ip, r0, ip, lsl #8

00008f74 <append_page_list>:
    8f74:	e990000c 	ldmib	r0, {r2, r3}
    8f78:	e5821008 	str	r1, [r2, #8]
    8f7c:	e3a0c000 	mov	ip, #0
    8f80:	e581200c 	str	r2, [r1, #12]
    8f84:	e2833001 	add	r3, r3, #1
    8f88:	e5801004 	str	r1, [r0, #4]
    8f8c:	e581c008 	str	ip, [r1, #8]
    8f90:	e5803008 	str	r3, [r0, #8]
    8f94:	e12fff1e 	bx	lr

00008f98 <push_page_list>:
    8f98:	e5903008 	ldr	r3, [r0, #8]
    8f9c:	e3a02000 	mov	r2, #0
    8fa0:	e590c000 	ldr	ip, [r0]
    8fa4:	e581c008 	str	ip, [r1, #8]
    8fa8:	e2833001 	add	r3, r3, #1
    8fac:	e581200c 	str	r2, [r1, #12]
    8fb0:	e5801000 	str	r1, [r0]
    8fb4:	e5803008 	str	r3, [r0, #8]
    8fb8:	e12fff1e 	bx	lr

00008fbc <peek_page_list>:
    8fbc:	e5900000 	ldr	r0, [r0]
    8fc0:	e12fff1e 	bx	lr

00008fc4 <pop_page_list>:
    8fc4:	e5901000 	ldr	r1, [r0]
    8fc8:	e1a03000 	mov	r3, r0
    8fcc:	e5902008 	ldr	r2, [r0, #8]
    8fd0:	e3a0c000 	mov	ip, #0
    8fd4:	e1a00001 	mov	r0, r1
    8fd8:	e5911008 	ldr	r1, [r1, #8]
    8fdc:	e2422001 	sub	r2, r2, #1
    8fe0:	e5831000 	str	r1, [r3]
    8fe4:	e581c00c 	str	ip, [r1, #12]
    8fe8:	e5832008 	str	r2, [r3, #8]
    8fec:	e12fff1e 	bx	lr

00008ff0 <size_page_list>:
    8ff0:	e5900008 	ldr	r0, [r0, #8]
    8ff4:	e12fff1e 	bx	lr

00008ff8 <next_page_list>:
    8ff8:	e5900008 	ldr	r0, [r0, #8]
    8ffc:	e12fff1e 	bx	lr

00009000 <get_num_of_free_pages>:
    9000:	e59f300c 	ldr	r3, [pc, #12]	; 9014 <get_num_of_free_pages+0x14>
    9004:	e59f200c 	ldr	r2, [pc, #12]	; 9018 <get_num_of_free_pages+0x18>
    9008:	e08f3003 	add	r3, pc, r3
    900c:	e7930002 	ldr	r0, [r3, r2]
    9010:	eafffff6 	b	8ff0 <size_page_list>
    9014:	00002ffc 	strdeq	r2, [r0], -ip
    9018:	00000004 	andeq	r0, r0, r4

0000901c <alloc_page>:
    901c:	e59f3058 	ldr	r3, [pc, #88]	; 907c <alloc_page+0x60>
    9020:	e92d4010 	push	{r4, lr}
    9024:	e08f3003 	add	r3, pc, r3
    9028:	e59f2050 	ldr	r2, [pc, #80]	; 9080 <alloc_page+0x64>
    902c:	e7934002 	ldr	r4, [r3, r2]
    9030:	e1a00004 	mov	r0, r4
    9034:	ebffffed 	bl	8ff0 <size_page_list>
    9038:	e3500000 	cmp	r0, #0
    903c:	08bd8010 	popeq	{r4, pc}
    9040:	e1a00004 	mov	r0, r4
    9044:	ebffffde 	bl	8fc4 <pop_page_list>
    9048:	e59f2034 	ldr	r2, [pc, #52]	; 9084 <alloc_page+0x68>
    904c:	e5d03004 	ldrb	r3, [r0, #4]
    9050:	e3a01a01 	mov	r1, #4096	; 0x1000
    9054:	e08f2002 	add	r2, pc, r2
    9058:	e3833003 	orr	r3, r3, #3
    905c:	e5c03004 	strb	r3, [r0, #4]
    9060:	e5924000 	ldr	r4, [r2]
    9064:	e0640000 	rsb	r0, r4, r0
    9068:	e1a04400 	lsl	r4, r0, #8
    906c:	e1a00004 	mov	r0, r4
    9070:	ebfffd5c 	bl	85e8 <bzero>
    9074:	e1a00004 	mov	r0, r4
    9078:	e8bd8010 	pop	{r4, pc}
    907c:	00002fe0 	andeq	r2, r0, r0, ror #31
    9080:	00000004 	andeq	r0, r0, r4
    9084:	0000c308 	andeq	ip, r0, r8, lsl #6

00009088 <free_page>:
    9088:	e59f3030 	ldr	r3, [pc, #48]	; 90c0 <free_page+0x38>
    908c:	e1a00620 	lsr	r0, r0, #12
    9090:	e59fc02c 	ldr	ip, [pc, #44]	; 90c4 <free_page+0x3c>
    9094:	e08f3003 	add	r3, pc, r3
    9098:	e59f2028 	ldr	r2, [pc, #40]	; 90c8 <free_page+0x40>
    909c:	e08fc00c 	add	ip, pc, ip
    90a0:	e5933000 	ldr	r3, [r3]
    90a4:	e0830200 	add	r0, r3, r0, lsl #4
    90a8:	e1a01000 	mov	r1, r0
    90ac:	e5d03004 	ldrb	r3, [r0, #4]
    90b0:	e7c0301f 	bfc	r3, #0, #1
    90b4:	e5c03004 	strb	r3, [r0, #4]
    90b8:	e79c0002 	ldr	r0, [ip, r2]
    90bc:	eaffffac 	b	8f74 <append_page_list>
    90c0:	0000c2c8 	andeq	ip, r0, r8, asr #5
    90c4:	00002f68 	andeq	r2, r0, r8, ror #30
    90c8:	00000004 	andeq	r0, r0, r4

000090cc <get_mem_size>:
    90cc:	e92d4010 	push	{r4, lr}
    90d0:	e59f4040 	ldr	r4, [pc, #64]	; 9118 <get_mem_size+0x4c>
    90d4:	e08f4004 	add	r4, pc, r4
    90d8:	e5940004 	ldr	r0, [r4, #4]
    90dc:	e3500000 	cmp	r0, #0
    90e0:	18bd8010 	popne	{r4, pc}
    90e4:	ebfffd77 	bl	86c8 <RPI_PropertyInit>
    90e8:	e3a00005 	mov	r0, #5
    90ec:	e3400001 	movt	r0, #1
    90f0:	ebfffd82 	bl	8700 <RPI_PropertyAddTag>
    90f4:	ebfffea9 	bl	8ba0 <RPI_PropertyProcess>
    90f8:	e3a00005 	mov	r0, #5
    90fc:	e3400001 	movt	r0, #1
    9100:	ebfffeb9 	bl	8bec <RPI_PropertyGet>
    9104:	e3500000 	cmp	r0, #0
    9108:	1590000c 	ldrne	r0, [r0, #12]
    910c:	03e00000 	mvneq	r0, #0
    9110:	15840004 	strne	r0, [r4, #4]
    9114:	e8bd8010 	pop	{r4, pc}
    9118:	0000c288 	andeq	ip, r0, r8, lsl #5

0000911c <mem_init>:
    911c:	e92d41f0 	push	{r4, r5, r6, r7, r8, lr}
    9120:	ebffffe9 	bl	90cc <get_mem_size>
    9124:	e1a01000 	mov	r1, r0
    9128:	e1a04000 	mov	r4, r0
    912c:	e59f00e4 	ldr	r0, [pc, #228]	; 9218 <mem_init+0xfc>
    9130:	e59f60e4 	ldr	r6, [pc, #228]	; 921c <mem_init+0x100>
    9134:	e08f0000 	add	r0, pc, r0
    9138:	e1a04624 	lsr	r4, r4, #12
    913c:	eb000329 	bl	9de8 <printf>
    9140:	e08f6006 	add	r6, pc, r6
    9144:	e59f00d4 	ldr	r0, [pc, #212]	; 9220 <mem_init+0x104>
    9148:	e1a01004 	mov	r1, r4
    914c:	e59f50d0 	ldr	r5, [pc, #208]	; 9224 <mem_init+0x108>
    9150:	e08f0000 	add	r0, pc, r0
    9154:	e5864008 	str	r4, [r6, #8]
    9158:	e08f5005 	add	r5, pc, r5
    915c:	eb000321 	bl	9de8 <printf>
    9160:	e59f30c0 	ldr	r3, [pc, #192]	; 9228 <mem_init+0x10c>
    9164:	e5961008 	ldr	r1, [r6, #8]
    9168:	e7954003 	ldr	r4, [r5, r3]
    916c:	e1a01201 	lsl	r1, r1, #4
    9170:	e5864000 	str	r4, [r6]
    9174:	e1a00004 	mov	r0, r4
    9178:	ebfffd1a 	bl	85e8 <bzero>
    917c:	e59f20a8 	ldr	r2, [pc, #168]	; 922c <mem_init+0x110>
    9180:	e1b04624 	lsrs	r4, r4, #12
    9184:	e3a03000 	mov	r3, #0
    9188:	e7955002 	ldr	r5, [r5, r2]
    918c:	e5853004 	str	r3, [r5, #4]
    9190:	e5853000 	str	r3, [r5]
    9194:	e5853008 	str	r3, [r5, #8]
    9198:	0a00000a 	beq	91c8 <mem_init+0xac>
    919c:	e5960000 	ldr	r0, [r6]
    91a0:	e1a02000 	mov	r2, r0
    91a4:	e1a01603 	lsl	r1, r3, #12
    91a8:	e7801203 	str	r1, [r0, r3, lsl #4]
    91ac:	e2833001 	add	r3, r3, #1
    91b0:	e5d21004 	ldrb	r1, [r2, #4]
    91b4:	e1540003 	cmp	r4, r3
    91b8:	e2822010 	add	r2, r2, #16
    91bc:	e3811003 	orr	r1, r1, #3
    91c0:	e542100c 	strb	r1, [r2, #-12]
    91c4:	1afffff6 	bne	91a4 <mem_init+0x88>
    91c8:	e59f7060 	ldr	r7, [pc, #96]	; 9230 <mem_init+0x114>
    91cc:	e08f7007 	add	r7, pc, r7
    91d0:	e5973008 	ldr	r3, [r7, #8]
    91d4:	e1540003 	cmp	r4, r3
    91d8:	28bd81f0 	popcs	{r4, r5, r6, r7, r8, pc}
    91dc:	e1a06204 	lsl	r6, r4, #4
    91e0:	e5973000 	ldr	r3, [r7]
    91e4:	e1a00005 	mov	r0, r5
    91e8:	e2844001 	add	r4, r4, #1
    91ec:	e0833006 	add	r3, r3, r6
    91f0:	e2866010 	add	r6, r6, #16
    91f4:	e1a01003 	mov	r1, r3
    91f8:	e5d32004 	ldrb	r2, [r3, #4]
    91fc:	e7c0201f 	bfc	r2, #0, #1
    9200:	e5c32004 	strb	r2, [r3, #4]
    9204:	ebffff5a 	bl	8f74 <append_page_list>
    9208:	e5973008 	ldr	r3, [r7, #8]
    920c:	e1530004 	cmp	r3, r4
    9210:	8afffff2 	bhi	91e0 <mem_init+0xc4>
    9214:	e8bd81f0 	pop	{r4, r5, r6, r7, r8, pc}
    9218:	00002044 	andeq	r2, r0, r4, asr #32
    921c:	0000c21c 	andeq	ip, r0, ip, lsl r2
    9220:	00002044 	andeq	r2, r0, r4, asr #32
    9224:	00002eac 	andeq	r2, r0, ip, lsr #29
    9228:	0000000c 	andeq	r0, r0, ip
    922c:	00000004 	andeq	r0, r0, r4
    9230:	0000c190 	muleq	r0, r0, r1

00009234 <uart_init>:
    9234:	e3a03a01 	mov	r3, #4096	; 0x1000
    9238:	e3433f20 	movt	r3, #16160	; 0x3f20
    923c:	e3a01000 	mov	r1, #0
    9240:	e3431f20 	movt	r1, #16160	; 0x3f20
    9244:	e3a02096 	mov	r2, #150	; 0x96
    9248:	e3a00000 	mov	r0, #0
    924c:	e1a0c002 	mov	ip, r2
    9250:	e5830030 	str	r0, [r3, #48]	; 0x30
    9254:	e5810094 	str	r0, [r1, #148]	; 0x94

00009258 <__delay_53>:
    9258:	e25cc001 	subs	ip, ip, #1
    925c:	1afffffd 	bne	9258 <__delay_53>
    9260:	e3a0c903 	mov	ip, #49152	; 0xc000
    9264:	e581c098 	str	ip, [r1, #152]	; 0x98

00009268 <__delay_70>:
    9268:	e2522001 	subs	r2, r2, #1
    926c:	1afffffd 	bne	9268 <__delay_70>
    9270:	e3a02001 	mov	r2, #1
    9274:	e5810098 	str	r0, [r1, #152]	; 0x98
    9278:	e300c7ff 	movw	ip, #2047	; 0x7ff
    927c:	e3a01028 	mov	r1, #40	; 0x28
    9280:	e583c044 	str	ip, [r3, #68]	; 0x44
    9284:	e5832024 	str	r2, [r3, #36]	; 0x24
    9288:	e3a02070 	mov	r2, #112	; 0x70
    928c:	e5831028 	str	r1, [r3, #40]	; 0x28
    9290:	e30017f2 	movw	r1, #2034	; 0x7f2
    9294:	e583202c 	str	r2, [r3, #44]	; 0x2c
    9298:	e3002301 	movw	r2, #769	; 0x301
    929c:	e5831038 	str	r1, [r3, #56]	; 0x38
    92a0:	e5832030 	str	r2, [r3, #48]	; 0x30
    92a4:	e12fff1e 	bx	lr

000092a8 <uart_putc>:
    92a8:	e3a01a01 	mov	r1, #4096	; 0x1000
    92ac:	e3431f20 	movt	r1, #16160	; 0x3f20
    92b0:	e5912018 	ldr	r2, [r1, #24]
    92b4:	e3a03a01 	mov	r3, #4096	; 0x1000
    92b8:	e3433f20 	movt	r3, #16160	; 0x3f20
    92bc:	e3120020 	tst	r2, #32
    92c0:	1afffffa 	bne	92b0 <uart_putc+0x8>
    92c4:	e5830000 	str	r0, [r3]
    92c8:	e12fff1e 	bx	lr

000092cc <uart_getc>:
    92cc:	e3a01a01 	mov	r1, #4096	; 0x1000
    92d0:	e3431f20 	movt	r1, #16160	; 0x3f20
    92d4:	e5912018 	ldr	r2, [r1, #24]
    92d8:	e3a03a01 	mov	r3, #4096	; 0x1000
    92dc:	e3433f20 	movt	r3, #16160	; 0x3f20
    92e0:	e3120010 	tst	r2, #16
    92e4:	1afffffa 	bne	92d4 <uart_getc+0x8>
    92e8:	e5930000 	ldr	r0, [r3]
    92ec:	e6ef0070 	uxtb	r0, r0
    92f0:	e12fff1e 	bx	lr

000092f4 <uart_puts>:
    92f4:	e92d4010 	push	{r4, lr}
    92f8:	e1a04000 	mov	r4, r0
    92fc:	e5d00000 	ldrb	r0, [r0]
    9300:	e3500000 	cmp	r0, #0
    9304:	08bd8010 	popeq	{r4, pc}
    9308:	ebffffe6 	bl	92a8 <uart_putc>
    930c:	e5f40001 	ldrb	r0, [r4, #1]!
    9310:	e3500000 	cmp	r0, #0
    9314:	1afffffb 	bne	9308 <uart_puts+0x14>
    9318:	e8bd8010 	pop	{r4, pc}

0000931c <hexstrings>:
    931c:	e92d4070 	push	{r4, r5, r6, lr}
    9320:	e1a05000 	mov	r5, r0
    9324:	e3a04020 	mov	r4, #32
    9328:	e2444004 	sub	r4, r4, #4
    932c:	e1a03435 	lsr	r3, r5, r4
    9330:	e203300f 	and	r3, r3, #15
    9334:	e3530009 	cmp	r3, #9
    9338:	e2830030 	add	r0, r3, #48	; 0x30
    933c:	82830037 	addhi	r0, r3, #55	; 0x37
    9340:	e6ef0070 	uxtb	r0, r0
    9344:	ebffffd7 	bl	92a8 <uart_putc>
    9348:	e3540000 	cmp	r4, #0
    934c:	1afffff5 	bne	9328 <hexstrings+0xc>
    9350:	e3a00020 	mov	r0, #32
    9354:	e8bd4070 	pop	{r4, r5, r6, lr}
    9358:	eaffffd2 	b	92a8 <uart_putc>

0000935c <dma_0_irq_clearer>:
    935c:	e59f302c 	ldr	r3, [pc, #44]	; 9390 <dma_0_irq_clearer+0x34>
    9360:	e3a01004 	mov	r1, #4
    9364:	e59f2028 	ldr	r2, [pc, #40]	; 9394 <dma_0_irq_clearer+0x38>
    9368:	e08f3003 	add	r3, pc, r3
    936c:	e59f0024 	ldr	r0, [pc, #36]	; 9398 <dma_0_irq_clearer+0x3c>
    9370:	e08f0000 	add	r0, pc, r0
    9374:	e7933002 	ldr	r3, [r3, r2]
    9378:	e5933000 	ldr	r3, [r3]
    937c:	e1a03403 	lsl	r3, r3, #8
    9380:	e283343f 	add	r3, r3, #1056964608	; 0x3f000000
    9384:	e2833a07 	add	r3, r3, #28672	; 0x7000
    9388:	e5831000 	str	r1, [r3]
    938c:	ea000295 	b	9de8 <printf>
    9390:	00002c9c 	muleq	r0, ip, ip
    9394:	00000024 	andeq	r0, r0, r4, lsr #32
    9398:	00001e4c 	andeq	r1, r0, ip, asr #28

0000939c <dma_0_irq_handler>:
    939c:	e59f0004 	ldr	r0, [pc, #4]	; 93a8 <dma_0_irq_handler+0xc>
    93a0:	e08f0000 	add	r0, pc, r0
    93a4:	ea00028f 	b	9de8 <printf>
    93a8:	00001e58 	andeq	r1, r0, r8, asr lr

000093ac <print_area>:
    93ac:	e92d4070 	push	{r4, r5, r6, lr}
    93b0:	e1a04000 	mov	r4, r0
    93b4:	e59f0034 	ldr	r0, [pc, #52]	; 93f0 <print_area+0x44>
    93b8:	e1a05001 	mov	r5, r1
    93bc:	e08f0000 	add	r0, pc, r0
    93c0:	ebffffcb 	bl	92f4 <uart_puts>
    93c4:	e3550000 	cmp	r5, #0
    93c8:	c0845005 	addgt	r5, r4, r5
    93cc:	da000003 	ble	93e0 <print_area+0x34>
    93d0:	e4d40001 	ldrb	r0, [r4], #1
    93d4:	ebffffb3 	bl	92a8 <uart_putc>
    93d8:	e1550004 	cmp	r5, r4
    93dc:	1afffffb 	bne	93d0 <print_area+0x24>
    93e0:	e59f000c 	ldr	r0, [pc, #12]	; 93f4 <print_area+0x48>
    93e4:	e8bd4070 	pop	{r4, r5, r6, lr}
    93e8:	e08f0000 	add	r0, pc, r0
    93ec:	eaffffc0 	b	92f4 <uart_puts>
    93f0:	00001e7c 	andeq	r1, r0, ip, ror lr
    93f4:	00001e50 	andeq	r1, r0, r0, asr lr

000093f8 <copy>:
    93f8:	e3520000 	cmp	r2, #0
    93fc:	d12fff1e 	bxle	lr
    9400:	e2400001 	sub	r0, r0, #1
    9404:	e0812002 	add	r2, r1, r2
    9408:	e5f03001 	ldrb	r3, [r0, #1]!
    940c:	e4c13001 	strb	r3, [r1], #1
    9410:	e1510002 	cmp	r1, r2
    9414:	1afffffb 	bne	9408 <copy+0x10>
    9418:	e12fff1e 	bx	lr

0000941c <writeBitmasked>:
    941c:	e5903000 	ldr	r3, [r0]
    9420:	e0222003 	eor	r2, r2, r3
    9424:	e0011002 	and	r1, r1, r2
    9428:	e0233001 	eor	r3, r3, r1
    942c:	e5803000 	str	r3, [r0]
    9430:	e5803000 	str	r3, [r0]
    9434:	e12fff1e 	bx	lr

00009438 <show_dma_demo>:
    9438:	e92d4ff0 	push	{r4, r5, r6, r7, r8, r9, sl, fp, lr}
    943c:	e59f21ec 	ldr	r2, [pc, #492]	; 9630 <show_dma_demo+0x1f8>
    9440:	e3a00014 	mov	r0, #20
    9444:	e59f11e8 	ldr	r1, [pc, #488]	; 9634 <show_dma_demo+0x1fc>
    9448:	e24dd014 	sub	sp, sp, #20
    944c:	e08f2002 	add	r2, pc, r2
    9450:	e59f51e0 	ldr	r5, [pc, #480]	; 9638 <show_dma_demo+0x200>
    9454:	e08f1001 	add	r1, pc, r1
    9458:	e3a0600c 	mov	r6, #12
    945c:	ebfffbf7 	bl	8440 <register_irq_handler>
    9460:	e59f21d4 	ldr	r2, [pc, #468]	; 963c <show_dma_demo+0x204>
    9464:	e28d3004 	add	r3, sp, #4
    9468:	e08f5005 	add	r5, pc, r5
    946c:	e08f2002 	add	r2, pc, r2
    9470:	e59f41c8 	ldr	r4, [pc, #456]	; 9640 <show_dma_demo+0x208>
    9474:	e3a09001 	mov	r9, #1
    9478:	e59fa1c4 	ldr	sl, [pc, #452]	; 9644 <show_dma_demo+0x20c>
    947c:	e08f4004 	add	r4, pc, r4
    9480:	e5920000 	ldr	r0, [r2]
    9484:	e08fa00a 	add	sl, pc, sl
    9488:	e5921004 	ldr	r1, [r2, #4]
    948c:	e5922008 	ldr	r2, [r2, #8]
    9490:	e8a30007 	stmia	r3!, {r0, r1, r2}
    9494:	e59f01ac 	ldr	r0, [pc, #428]	; 9648 <show_dma_demo+0x210>
    9498:	e08f0000 	add	r0, pc, r0
    949c:	ebffff94 	bl	92f4 <uart_puts>
    94a0:	e59f31a4 	ldr	r3, [pc, #420]	; 964c <show_dma_demo+0x214>
    94a4:	e1a01006 	mov	r1, r6
    94a8:	e795b003 	ldr	fp, [r5, r3]
    94ac:	e1a0000b 	mov	r0, fp
    94b0:	ebffffbd 	bl	93ac <print_area>
    94b4:	e1a02006 	mov	r2, r6
    94b8:	e1a0100b 	mov	r1, fp
    94bc:	e28d0004 	add	r0, sp, #4
    94c0:	ebffffcc 	bl	93f8 <copy>
    94c4:	e59f0184 	ldr	r0, [pc, #388]	; 9650 <show_dma_demo+0x218>
    94c8:	e08f0000 	add	r0, pc, r0
    94cc:	ebffff88 	bl	92f4 <uart_puts>
    94d0:	e1a01006 	mov	r1, r6
    94d4:	e1a0000b 	mov	r0, fp
    94d8:	ebffffb3 	bl	93ac <print_area>
    94dc:	e1a00004 	mov	r0, r4
    94e0:	ebffff83 	bl	92f4 <uart_puts>
    94e4:	e59f3168 	ldr	r3, [pc, #360]	; 9654 <show_dma_demo+0x21c>
    94e8:	e1a01006 	mov	r1, r6
    94ec:	e7958003 	ldr	r8, [r5, r3]
    94f0:	e1a00008 	mov	r0, r8
    94f4:	ebffffac 	bl	93ac <print_area>
    94f8:	e1a00004 	mov	r0, r4
    94fc:	ebffff7c 	bl	92f4 <uart_puts>
    9500:	e59f3150 	ldr	r3, [pc, #336]	; 9658 <show_dma_demo+0x220>
    9504:	e1a01006 	mov	r1, r6
    9508:	e7957003 	ldr	r7, [r5, r3]
    950c:	e1a00007 	mov	r0, r7
    9510:	ebffffa5 	bl	93ac <print_area>
    9514:	e59f3140 	ldr	r3, [pc, #320]	; 965c <show_dma_demo+0x224>
    9518:	e59f0140 	ldr	r0, [pc, #320]	; 9660 <show_dma_demo+0x228>
    951c:	e3002111 	movw	r2, #273	; 0x111
    9520:	e3a01e11 	mov	r1, #272	; 0x110
    9524:	e7954003 	ldr	r4, [r5, r3]
    9528:	e08f0000 	add	r0, pc, r0
    952c:	e3a03000 	mov	r3, #0
    9530:	e5842020 	str	r2, [r4, #32]
    9534:	e5843010 	str	r3, [r4, #16]
    9538:	e5843030 	str	r3, [r4, #48]	; 0x30
    953c:	e5843034 	str	r3, [r4, #52]	; 0x34
    9540:	e584b004 	str	fp, [r4, #4]
    9544:	e584b024 	str	fp, [r4, #36]	; 0x24
    9548:	e284b020 	add	fp, r4, #32
    954c:	e5841000 	str	r1, [r4]
    9550:	e1a01004 	mov	r1, r4
    9554:	e5848008 	str	r8, [r4, #8]
    9558:	e5847028 	str	r7, [r4, #40]	; 0x28
    955c:	e584b014 	str	fp, [r4, #20]
    9560:	e584600c 	str	r6, [r4, #12]
    9564:	e584602c 	str	r6, [r4, #44]	; 0x2c
    9568:	eb00021e 	bl	9de8 <printf>
    956c:	e59f00f0 	ldr	r0, [pc, #240]	; 9664 <show_dma_demo+0x22c>
    9570:	e1a0100b 	mov	r1, fp
    9574:	e08f0000 	add	r0, pc, r0
    9578:	eb00021a 	bl	9de8 <printf>
    957c:	e59f30e4 	ldr	r3, [pc, #228]	; 9668 <show_dma_demo+0x230>
    9580:	e3070ff0 	movw	r0, #32752	; 0x7ff0
    9584:	e3430f00 	movt	r0, #16128	; 0x3f00
    9588:	e7955003 	ldr	r5, [r5, r3]
    958c:	e5952000 	ldr	r2, [r5]
    9590:	e1a02219 	lsl	r2, r9, r2
    9594:	e1a01002 	mov	r1, r2
    9598:	ebffff9f 	bl	941c <writeBitmasked>
    959c:	e5955000 	ldr	r5, [r5]
    95a0:	e59f00c4 	ldr	r0, [pc, #196]	; 966c <show_dma_demo+0x234>
    95a4:	e3a03102 	mov	r3, #-2147483648	; 0x80000000
    95a8:	e1a05405 	lsl	r5, r5, #8
    95ac:	e08f0000 	add	r0, pc, r0
    95b0:	e285543f 	add	r5, r5, #1056964608	; 0x3f000000
    95b4:	e2855a07 	add	r5, r5, #28672	; 0x7000
    95b8:	e5853000 	str	r3, [r5]
    95bc:	ebffff4c 	bl	92f4 <uart_puts>
    95c0:	e59f00a8 	ldr	r0, [pc, #168]	; 9670 <show_dma_demo+0x238>
    95c4:	e3a03007 	mov	r3, #7
    95c8:	e5853020 	str	r3, [r5, #32]
    95cc:	e08f0000 	add	r0, pc, r0
    95d0:	ebffff47 	bl	92f4 <uart_puts>
    95d4:	e59f0098 	ldr	r0, [pc, #152]	; 9674 <show_dma_demo+0x23c>
    95d8:	e5854004 	str	r4, [r5, #4]
    95dc:	e08f0000 	add	r0, pc, r0
    95e0:	ebffff43 	bl	92f4 <uart_puts>
    95e4:	e59f008c 	ldr	r0, [pc, #140]	; 9678 <show_dma_demo+0x240>
    95e8:	e5859000 	str	r9, [r5]
    95ec:	e08f0000 	add	r0, pc, r0
    95f0:	ebffff3f 	bl	92f4 <uart_puts>
    95f4:	e59f0080 	ldr	r0, [pc, #128]	; 967c <show_dma_demo+0x244>
    95f8:	e08f0000 	add	r0, pc, r0
    95fc:	ebffff3c 	bl	92f4 <uart_puts>
    9600:	e1a0000a 	mov	r0, sl
    9604:	ebffff3a 	bl	92f4 <uart_puts>
    9608:	e1a01006 	mov	r1, r6
    960c:	e1a00008 	mov	r0, r8
    9610:	ebffff65 	bl	93ac <print_area>
    9614:	e1a0000a 	mov	r0, sl
    9618:	ebffff35 	bl	92f4 <uart_puts>
    961c:	e1a01006 	mov	r1, r6
    9620:	e1a00007 	mov	r0, r7
    9624:	ebffff60 	bl	93ac <print_area>
    9628:	e28dd014 	add	sp, sp, #20
    962c:	e8bd8ff0 	pop	{r4, r5, r6, r7, r8, r9, sl, fp, pc}
    9630:	ffffff08 			; <UNDEFINED> instruction: 0xffffff08
    9634:	ffffff40 			; <UNDEFINED> instruction: 0xffffff40
    9638:	00002b9c 	muleq	r0, ip, fp
    963c:	00001bec 	andeq	r1, r0, ip, ror #23
    9640:	00001e14 	andeq	r1, r0, r4, lsl lr
    9644:	00001eb0 			; <UNDEFINED> instruction: 0x00001eb0
    9648:	00001db8 			; <UNDEFINED> instruction: 0x00001db8
    964c:	00000018 	andeq	r0, r0, r8, lsl r0
    9650:	00001da8 	andeq	r1, r0, r8, lsr #27
    9654:	00000014 	andeq	r0, r0, r4, lsl r0
    9658:	00000030 	andeq	r0, r0, r0, lsr r0
    965c:	00000038 	andeq	r0, r0, r8, lsr r0
    9660:	00001d90 	muleq	r0, r0, sp
    9664:	00001d50 	andeq	r1, r0, r0, asr sp
    9668:	00000024 	andeq	r0, r0, r4, lsr #32
    966c:	00001d24 	andeq	r1, r0, r4, lsr #26
    9670:	00001d18 	andeq	r1, r0, r8, lsl sp
    9674:	00001d1c 	andeq	r1, r0, ip, lsl sp
    9678:	00001d20 	andeq	r1, r0, r0, lsr #26
    967c:	00001d2c 	andeq	r1, r0, ip, lsr #26

00009680 <turn_off_usb>:
    9680:	e92d4010 	push	{r4, lr}
    9684:	ebfffc0f 	bl	86c8 <RPI_PropertyInit>
    9688:	e59f3030 	ldr	r3, [pc, #48]	; 96c0 <turn_off_usb+0x40>
    968c:	e59f1030 	ldr	r1, [pc, #48]	; 96c4 <turn_off_usb+0x44>
    9690:	e3084001 	movw	r4, #32769	; 0x8001
    9694:	e3404002 	movt	r4, #2
    9698:	e08f3003 	add	r3, pc, r3
    969c:	e1a00004 	mov	r0, r4
    96a0:	e3a02000 	mov	r2, #0
    96a4:	e7931001 	ldr	r1, [r3, r1]
    96a8:	e5911000 	ldr	r1, [r1]
    96ac:	ebfffc13 	bl	8700 <RPI_PropertyAddTag>
    96b0:	ebfffd3a 	bl	8ba0 <RPI_PropertyProcess>
    96b4:	e1a00004 	mov	r0, r4
    96b8:	e8bd4010 	pop	{r4, lr}
    96bc:	eafffd4a 	b	8bec <RPI_PropertyGet>
    96c0:	0000296c 	andeq	r2, r0, ip, ror #18
    96c4:	00000000 	andeq	r0, r0, r0

000096c8 <turn_on_usb>:
    96c8:	e92d4010 	push	{r4, lr}
    96cc:	ebfffbfd 	bl	86c8 <RPI_PropertyInit>
    96d0:	e59f3030 	ldr	r3, [pc, #48]	; 9708 <turn_on_usb+0x40>
    96d4:	e59f1030 	ldr	r1, [pc, #48]	; 970c <turn_on_usb+0x44>
    96d8:	e3084001 	movw	r4, #32769	; 0x8001
    96dc:	e3404002 	movt	r4, #2
    96e0:	e08f3003 	add	r3, pc, r3
    96e4:	e1a00004 	mov	r0, r4
    96e8:	e3a02001 	mov	r2, #1
    96ec:	e7931001 	ldr	r1, [r3, r1]
    96f0:	e5911000 	ldr	r1, [r1]
    96f4:	ebfffc01 	bl	8700 <RPI_PropertyAddTag>
    96f8:	ebfffd28 	bl	8ba0 <RPI_PropertyProcess>
    96fc:	e1a00004 	mov	r0, r4
    9700:	e8bd4010 	pop	{r4, lr}
    9704:	eafffd38 	b	8bec <RPI_PropertyGet>
    9708:	00002924 	andeq	r2, r0, r4, lsr #18
    970c:	00000000 	andeq	r0, r0, r0

00009710 <print_usb_power_state>:
    9710:	e92d4010 	push	{r4, lr}
    9714:	ebfffbeb 	bl	86c8 <RPI_PropertyInit>
    9718:	e59f3050 	ldr	r3, [pc, #80]	; 9770 <print_usb_power_state+0x60>
    971c:	e59f2050 	ldr	r2, [pc, #80]	; 9774 <print_usb_power_state+0x64>
    9720:	e3a04001 	mov	r4, #1
    9724:	e3404002 	movt	r4, #2
    9728:	e08f3003 	add	r3, pc, r3
    972c:	e1a00004 	mov	r0, r4
    9730:	e7933002 	ldr	r3, [r3, r2]
    9734:	e5931000 	ldr	r1, [r3]
    9738:	ebfffbf0 	bl	8700 <RPI_PropertyAddTag>
    973c:	ebfffd17 	bl	8ba0 <RPI_PropertyProcess>
    9740:	e1a00004 	mov	r0, r4
    9744:	ebfffd28 	bl	8bec <RPI_PropertyGet>
    9748:	e1a04000 	mov	r4, r0
    974c:	e59f0024 	ldr	r0, [pc, #36]	; 9778 <print_usb_power_state+0x68>
    9750:	e5941008 	ldr	r1, [r4, #8]
    9754:	e08f0000 	add	r0, pc, r0
    9758:	eb0001a2 	bl	9de8 <printf>
    975c:	e59f0018 	ldr	r0, [pc, #24]	; 977c <print_usb_power_state+0x6c>
    9760:	e594100c 	ldr	r1, [r4, #12]
    9764:	e08f0000 	add	r0, pc, r0
    9768:	e8bd4010 	pop	{r4, lr}
    976c:	ea00019d 	b	9de8 <printf>
    9770:	000028dc 	ldrdeq	r2, [r0], -ip
    9774:	00000000 	andeq	r0, r0, r0
    9778:	00001c04 	andeq	r1, r0, r4, lsl #24
    977c:	00001c04 	andeq	r1, r0, r4, lsl #24

00009780 <power_on_host_controller>:
    9780:	e92d4010 	push	{r4, lr}
    9784:	ebffffcf 	bl	96c8 <turn_on_usb>
    9788:	ebffffe0 	bl	9710 <print_usb_power_state>
    978c:	e3a02000 	mov	r2, #0
    9790:	e3432f98 	movt	r2, #16280	; 0x3f98
    9794:	e3a00a02 	mov	r0, #8192	; 0x2000
    9798:	e3440f54 	movt	r0, #20308	; 0x4f54
    979c:	e5921040 	ldr	r1, [r2, #64]	; 0x40
    97a0:	e3c13eff 	bic	r3, r1, #4080	; 0xff0
    97a4:	e3c3300f 	bic	r3, r3, #15
    97a8:	e1530000 	cmp	r3, r0
    97ac:	1a000006 	bne	97cc <power_on_host_controller+0x4c>
    97b0:	e592103c 	ldr	r1, [r2, #60]	; 0x3c
    97b4:	e3a03a0a 	mov	r3, #40960	; 0xa000
    97b8:	e3423708 	movt	r3, #9992	; 0x2708
    97bc:	e1510003 	cmp	r1, r3
    97c0:	1a000006 	bne	97e0 <power_on_host_controller+0x60>
    97c4:	e3a00000 	mov	r0, #0
    97c8:	e8bd8010 	pop	{r4, pc}
    97cc:	e59f0020 	ldr	r0, [pc, #32]	; 97f4 <power_on_host_controller+0x74>
    97d0:	e08f0000 	add	r0, pc, r0
    97d4:	eb000183 	bl	9de8 <printf>
    97d8:	e3e00000 	mvn	r0, #0
    97dc:	e8bd8010 	pop	{r4, pc}
    97e0:	e59f0010 	ldr	r0, [pc, #16]	; 97f8 <power_on_host_controller+0x78>
    97e4:	e08f0000 	add	r0, pc, r0
    97e8:	eb00017e 	bl	9de8 <printf>
    97ec:	e3e00000 	mvn	r0, #0
    97f0:	e8bd8010 	pop	{r4, pc}
    97f4:	00001bac 	andeq	r1, r0, ip, lsr #23
    97f8:	00001bdc 	ldrdeq	r1, [r0], -ip

000097fc <tick_difference>:
    97fc:	e0520000 	subs	r0, r2, r0
    9800:	e0c31001 	sbc	r1, r3, r1
    9804:	e12fff1e 	bx	lr

00009808 <hcd_start>:
    9808:	e92d4010 	push	{r4, lr}
    980c:	ebffffdb 	bl	9780 <power_on_host_controller>
    9810:	e3a00000 	mov	r0, #0
    9814:	e8bd8010 	pop	{r4, pc}

00009818 <HcdStart>:
    9818:	e92d4010 	push	{r4, lr}
    981c:	ebfffff9 	bl	9808 <hcd_start>
    9820:	e2900000 	adds	r0, r0, #0
    9824:	13a00001 	movne	r0, #1
    9828:	e2600000 	rsb	r0, r0, #0
    982c:	e8bd8010 	pop	{r4, pc}

00009830 <HcdInitialize>:
    9830:	e52de004 	push	{lr}		; (str lr, [sp, #-4]!)
    9834:	e59f0020 	ldr	r0, [pc, #32]	; 985c <HcdInitialize+0x2c>
    9838:	e3a03000 	mov	r3, #0
    983c:	e24dd00c 	sub	sp, sp, #12
    9840:	e08f0000 	add	r0, pc, r0
    9844:	e5cd3007 	strb	r3, [sp, #7]
    9848:	eb000166 	bl	9de8 <printf>
    984c:	e5dd0007 	ldrb	r0, [sp, #7]
    9850:	e6af0070 	sxtb	r0, r0
    9854:	e28dd00c 	add	sp, sp, #12
    9858:	e49df004 	pop	{pc}		; (ldr pc, [sp], #4)
    985c:	00001bc0 	andeq	r1, r0, r0, asr #23

00009860 <UsbInitialise>:
    9860:	e92d4010 	push	{r4, lr}
    9864:	eb00012f 	bl	9d28 <PlatformLoad>
    9868:	e59f0034 	ldr	r0, [pc, #52]	; 98a4 <UsbInitialise+0x44>
    986c:	e3a01008 	mov	r1, #8
    9870:	e08f0000 	add	r0, pc, r0
    9874:	eb00015b 	bl	9de8 <printf>
    9878:	ebffffec 	bl	9830 <HcdInitialize>
    987c:	e2504000 	subs	r4, r0, #0
    9880:	1a000002 	bne	9890 <UsbInitialise+0x30>
    9884:	ebffffe3 	bl	9818 <HcdStart>
    9888:	e1a00004 	mov	r0, r4
    988c:	e8bd8010 	pop	{r4, pc}
    9890:	e59f0010 	ldr	r0, [pc, #16]	; 98a8 <UsbInitialise+0x48>
    9894:	e08f0000 	add	r0, pc, r0
    9898:	eb000152 	bl	9de8 <printf>
    989c:	e1a00004 	mov	r0, r4
    98a0:	e8bd8010 	pop	{r4, pc}
    98a4:	00001bb8 			; <UNDEFINED> instruction: 0x00001bb8
    98a8:	00001bbc 			; <UNDEFINED> instruction: 0x00001bbc

000098ac <MemoryReserve>:
    98ac:	e92d4010 	push	{r4, lr}
    98b0:	e1a04001 	mov	r4, r1
    98b4:	e1a01000 	mov	r1, r0
    98b8:	e59f000c 	ldr	r0, [pc, #12]	; 98cc <MemoryReserve+0x20>
    98bc:	e08f0000 	add	r0, pc, r0
    98c0:	eb000148 	bl	9de8 <printf>
    98c4:	e1a00004 	mov	r0, r4
    98c8:	e8bd8010 	pop	{r4, pc}
    98cc:	00001bbc 			; <UNDEFINED> instruction: 0x00001bbc

000098d0 <MemoryAllocate>:
    98d0:	e92d43f0 	push	{r4, r5, r6, r7, r8, r9, lr}
    98d4:	e59f62dc 	ldr	r6, [pc, #732]	; 9bb8 <MemoryAllocate+0x2e8>
    98d8:	e1a04000 	mov	r4, r0
    98dc:	e59f32d8 	ldr	r3, [pc, #728]	; 9bbc <MemoryAllocate+0x2ec>
    98e0:	e24dd014 	sub	sp, sp, #20
    98e4:	e08f6006 	add	r6, pc, r6
    98e8:	e7967003 	ldr	r7, [r6, r3]
    98ec:	e5973000 	ldr	r3, [r7]
    98f0:	e3530000 	cmp	r3, #0
    98f4:	0a00006e 	beq	9ab4 <MemoryAllocate+0x1e4>
    98f8:	e59f32c0 	ldr	r3, [pc, #704]	; 9bc0 <MemoryAllocate+0x2f0>
    98fc:	e2641000 	rsb	r1, r4, #0
    9900:	e2011007 	and	r1, r1, #7
    9904:	e0841001 	add	r1, r4, r1
    9908:	e7965003 	ldr	r5, [r6, r3]
    990c:	e595e000 	ldr	lr, [r5]
    9910:	e081e00e 	add	lr, r1, lr
    9914:	e35e0901 	cmp	lr, #16384	; 0x4000
    9918:	8a00008d 	bhi	9b54 <MemoryAllocate+0x284>
    991c:	e5974000 	ldr	r4, [r7]
    9920:	e3740001 	cmn	r4, #1
    9924:	0a00009e 	beq	9ba4 <MemoryAllocate+0x2d4>
    9928:	e59f3294 	ldr	r3, [pc, #660]	; 9bc4 <MemoryAllocate+0x2f4>
    992c:	e7968003 	ldr	r8, [r6, r3]
    9930:	e5989000 	ldr	r9, [r8]
    9934:	e3790001 	cmn	r9, #1
    9938:	0a000033 	beq	9a0c <MemoryAllocate+0x13c>
    993c:	e599c008 	ldr	ip, [r9, #8]
    9940:	e37c0001 	cmn	ip, #1
    9944:	0a000087 	beq	9b68 <MemoryAllocate+0x298>
    9948:	e5998004 	ldr	r8, [r9, #4]
    994c:	e59c3004 	ldr	r3, [ip, #4]
    9950:	e5992000 	ldr	r2, [r9]
    9954:	e0683003 	rsb	r3, r8, r3
    9958:	e0623003 	rsb	r3, r2, r3
    995c:	e1510003 	cmp	r1, r3
    9960:	8a000008 	bhi	9988 <MemoryAllocate+0xb8>
    9964:	ea00003d 	b	9a60 <MemoryAllocate+0x190>
    9968:	e59c8004 	ldr	r8, [ip, #4]
    996c:	e5903004 	ldr	r3, [r0, #4]
    9970:	e59c2000 	ldr	r2, [ip]
    9974:	e0683003 	rsb	r3, r8, r3
    9978:	e0623003 	rsb	r3, r2, r3
    997c:	e1510003 	cmp	r1, r3
    9980:	9a000038 	bls	9a68 <MemoryAllocate+0x198>
    9984:	e1a0c000 	mov	ip, r0
    9988:	e59c0008 	ldr	r0, [ip, #8]
    998c:	e3700001 	cmn	r0, #1
    9990:	1afffff4 	bne	9968 <MemoryAllocate+0x98>
    9994:	e59f322c 	ldr	r3, [pc, #556]	; 9bc8 <MemoryAllocate+0x2f8>
    9998:	e3a08901 	mov	r8, #16384	; 0x4000
    999c:	e59c2000 	ldr	r2, [ip]
    99a0:	e7963003 	ldr	r3, [r6, r3]
    99a4:	e0833008 	add	r3, r3, r8
    99a8:	e2833001 	add	r3, r3, #1
    99ac:	e0623003 	rsb	r3, r2, r3
    99b0:	e1510003 	cmp	r1, r3
    99b4:	8a00006d 	bhi	9b70 <MemoryAllocate+0x2a0>
    99b8:	e5943008 	ldr	r3, [r4, #8]
    99bc:	e59c0004 	ldr	r0, [ip, #4]
    99c0:	e3530000 	cmp	r3, #0
    99c4:	e5841000 	str	r1, [r4]
    99c8:	e0802002 	add	r2, r0, r2
    99cc:	15873000 	strne	r3, [r7]
    99d0:	e5842004 	str	r2, [r4, #4]
    99d4:	0a00004c 	beq	9b0c <MemoryAllocate+0x23c>
    99d8:	e3e00000 	mvn	r0, #0
    99dc:	e5840008 	str	r0, [r4, #8]
    99e0:	e3a00901 	mov	r0, #16384	; 0x4000
    99e4:	e58c4008 	str	r4, [ip, #8]
    99e8:	e58d0000 	str	r0, [sp]
    99ec:	e1a0300e 	mov	r3, lr
    99f0:	e59f01d4 	ldr	r0, [pc, #468]	; 9bcc <MemoryAllocate+0x2fc>
    99f4:	e585e000 	str	lr, [r5]
    99f8:	e08f0000 	add	r0, pc, r0
    99fc:	eb0000f9 	bl	9de8 <printf>
    9a00:	e5940004 	ldr	r0, [r4, #4]
    9a04:	e28dd014 	add	sp, sp, #20
    9a08:	e8bd83f0 	pop	{r4, r5, r6, r7, r8, r9, pc}
    9a0c:	e5940008 	ldr	r0, [r4, #8]
    9a10:	e59f31b0 	ldr	r3, [pc, #432]	; 9bc8 <MemoryAllocate+0x2f8>
    9a14:	e5884000 	str	r4, [r8]
    9a18:	e3500000 	cmp	r0, #0
    9a1c:	e5841000 	str	r1, [r4]
    9a20:	e5849008 	str	r9, [r4, #8]
    9a24:	e7962003 	ldr	r2, [r6, r3]
    9a28:	e5842004 	str	r2, [r4, #4]
    9a2c:	15870000 	strne	r0, [r7]
    9a30:	0a00002d 	beq	9aec <MemoryAllocate+0x21c>
    9a34:	e3a00901 	mov	r0, #16384	; 0x4000
    9a38:	e58d0000 	str	r0, [sp]
    9a3c:	e59f018c 	ldr	r0, [pc, #396]	; 9bd0 <MemoryAllocate+0x300>
    9a40:	e1a0300e 	mov	r3, lr
    9a44:	e585e000 	str	lr, [r5]
    9a48:	e08f0000 	add	r0, pc, r0
    9a4c:	eb0000e5 	bl	9de8 <printf>
    9a50:	e5983000 	ldr	r3, [r8]
    9a54:	e5930004 	ldr	r0, [r3, #4]
    9a58:	e28dd014 	add	sp, sp, #20
    9a5c:	e8bd83f0 	pop	{r4, r5, r6, r7, r8, r9, pc}
    9a60:	e1a0000c 	mov	r0, ip
    9a64:	e1a0c009 	mov	ip, r9
    9a68:	e5943008 	ldr	r3, [r4, #8]
    9a6c:	e0882002 	add	r2, r8, r2
    9a70:	e5841000 	str	r1, [r4]
    9a74:	e3530000 	cmp	r3, #0
    9a78:	e5842004 	str	r2, [r4, #4]
    9a7c:	15873000 	strne	r3, [r7]
    9a80:	0a00002a 	beq	9b30 <MemoryAllocate+0x260>
    9a84:	e5840008 	str	r0, [r4, #8]
    9a88:	e3a00901 	mov	r0, #16384	; 0x4000
    9a8c:	e58c4008 	str	r4, [ip, #8]
    9a90:	e1a0300e 	mov	r3, lr
    9a94:	e58d0000 	str	r0, [sp]
    9a98:	e59f0134 	ldr	r0, [pc, #308]	; 9bd4 <MemoryAllocate+0x304>
    9a9c:	e585e000 	str	lr, [r5]
    9aa0:	e08f0000 	add	r0, pc, r0
    9aa4:	eb0000cf 	bl	9de8 <printf>
    9aa8:	e5940004 	ldr	r0, [r4, #4]
    9aac:	e28dd014 	add	sp, sp, #20
    9ab0:	e8bd83f0 	pop	{r4, r5, r6, r7, r8, r9, pc}
    9ab4:	e59f011c 	ldr	r0, [pc, #284]	; 9bd8 <MemoryAllocate+0x308>
    9ab8:	e08f0000 	add	r0, pc, r0
    9abc:	eb0000c9 	bl	9de8 <printf>
    9ac0:	e59f3100 	ldr	r3, [pc, #256]	; 9bc8 <MemoryAllocate+0x2f8>
    9ac4:	e3a00901 	mov	r0, #16384	; 0x4000
    9ac8:	e7961003 	ldr	r1, [r6, r3]
    9acc:	ebffff76 	bl	98ac <MemoryReserve>
    9ad0:	e59f3104 	ldr	r3, [pc, #260]	; 9bdc <MemoryAllocate+0x30c>
    9ad4:	e3a00b03 	mov	r0, #3072	; 0xc00
    9ad8:	e7965003 	ldr	r5, [r6, r3]
    9adc:	e1a01005 	mov	r1, r5
    9ae0:	ebffff71 	bl	98ac <MemoryReserve>
    9ae4:	e5875000 	str	r5, [r7]
    9ae8:	eaffff82 	b	98f8 <MemoryAllocate+0x28>
    9aec:	e59f30e8 	ldr	r3, [pc, #232]	; 9bdc <MemoryAllocate+0x30c>
    9af0:	e284400c 	add	r4, r4, #12
    9af4:	e7963003 	ldr	r3, [r6, r3]
    9af8:	e2833b03 	add	r3, r3, #3072	; 0xc00
    9afc:	e1540003 	cmp	r4, r3
    9b00:	23e04000 	mvncs	r4, #0
    9b04:	e5874000 	str	r4, [r7]
    9b08:	eaffffc9 	b	9a34 <MemoryAllocate+0x164>
    9b0c:	e59f30c8 	ldr	r3, [pc, #200]	; 9bdc <MemoryAllocate+0x30c>
    9b10:	e284000c 	add	r0, r4, #12
    9b14:	e7963003 	ldr	r3, [r6, r3]
    9b18:	e2833b03 	add	r3, r3, #3072	; 0xc00
    9b1c:	e1500003 	cmp	r0, r3
    9b20:	35870000 	strcc	r0, [r7]
    9b24:	23e03000 	mvncs	r3, #0
    9b28:	25873000 	strcs	r3, [r7]
    9b2c:	eaffffa9 	b	99d8 <MemoryAllocate+0x108>
    9b30:	e59f30a4 	ldr	r3, [pc, #164]	; 9bdc <MemoryAllocate+0x30c>
    9b34:	e284800c 	add	r8, r4, #12
    9b38:	e7963003 	ldr	r3, [r6, r3]
    9b3c:	e2833b03 	add	r3, r3, #3072	; 0xc00
    9b40:	e1580003 	cmp	r8, r3
    9b44:	35878000 	strcc	r8, [r7]
    9b48:	23e03000 	mvncs	r3, #0
    9b4c:	25873000 	strcs	r3, [r7]
    9b50:	eaffffcb 	b	9a84 <MemoryAllocate+0x1b4>
    9b54:	e59f0084 	ldr	r0, [pc, #132]	; 9be0 <MemoryAllocate+0x310>
    9b58:	e08f0000 	add	r0, pc, r0
    9b5c:	eb0000a1 	bl	9de8 <printf>
    9b60:	e3a00000 	mov	r0, #0
    9b64:	eaffffa6 	b	9a04 <MemoryAllocate+0x134>
    9b68:	e1a0c009 	mov	ip, r9
    9b6c:	eaffff88 	b	9994 <MemoryAllocate+0xc4>
    9b70:	e59f006c 	ldr	r0, [pc, #108]	; 9be4 <MemoryAllocate+0x314>
    9b74:	e58d100c 	str	r1, [sp, #12]
    9b78:	e08f0000 	add	r0, pc, r0
    9b7c:	eb000099 	bl	9de8 <printf>
    9b80:	e59f0060 	ldr	r0, [pc, #96]	; 9be8 <MemoryAllocate+0x318>
    9b84:	e5953000 	ldr	r3, [r5]
    9b88:	e3a02000 	mov	r2, #0
    9b8c:	e58d8000 	str	r8, [sp]
    9b90:	e08f0000 	add	r0, pc, r0
    9b94:	e59d100c 	ldr	r1, [sp, #12]
    9b98:	eb000092 	bl	9de8 <printf>
    9b9c:	e3a00000 	mov	r0, #0
    9ba0:	eaffff97 	b	9a04 <MemoryAllocate+0x134>
    9ba4:	e59f0040 	ldr	r0, [pc, #64]	; 9bec <MemoryAllocate+0x31c>
    9ba8:	e08f0000 	add	r0, pc, r0
    9bac:	eb00008d 	bl	9de8 <printf>
    9bb0:	e3a00000 	mov	r0, #0
    9bb4:	eaffff92 	b	9a04 <MemoryAllocate+0x134>
    9bb8:	00002720 	andeq	r2, r0, r0, lsr #14
    9bbc:	00000028 	andeq	r0, r0, r8, lsr #32
    9bc0:	0000003c 	andeq	r0, r0, ip, lsr r0
    9bc4:	00000020 	andeq	r0, r0, r0, lsr #32
    9bc8:	0000002c 	andeq	r0, r0, ip, lsr #32
    9bcc:	00001b74 	andeq	r1, r0, r4, ror fp
    9bd0:	00001b24 	andeq	r1, r0, r4, lsr #22
    9bd4:	00001acc 	andeq	r1, r0, ip, asr #21
    9bd8:	000019d0 	ldrdeq	r1, [r0], -r0
    9bdc:	00000034 	andeq	r0, r0, r4, lsr r0
    9be0:	0000197c 	andeq	r1, r0, ip, ror r9
    9be4:	0000195c 	andeq	r1, r0, ip, asr r9
    9be8:	000019dc 	ldrdeq	r1, [r0], -ip
    9bec:	00001978 	andeq	r1, r0, r8, ror r9

00009bf0 <MemoryDeallocate>:
    9bf0:	e92d41f0 	push	{r4, r5, r6, r7, r8, lr}
    9bf4:	e59f40c4 	ldr	r4, [pc, #196]	; 9cc0 <MemoryDeallocate+0xd0>
    9bf8:	e59f30c4 	ldr	r3, [pc, #196]	; 9cc4 <MemoryDeallocate+0xd4>
    9bfc:	e08f4004 	add	r4, pc, r4
    9c00:	e794e003 	ldr	lr, [r4, r3]
    9c04:	e59ec000 	ldr	ip, [lr]
    9c08:	e37c0001 	cmn	ip, #1
    9c0c:	0a00000c 	beq	9c44 <MemoryDeallocate+0x54>
    9c10:	e59c3004 	ldr	r3, [ip, #4]
    9c14:	e1500003 	cmp	r0, r3
    9c18:	0a000015 	beq	9c74 <MemoryDeallocate+0x84>
    9c1c:	e1a0300c 	mov	r3, ip
    9c20:	ea000003 	b	9c34 <MemoryDeallocate+0x44>
    9c24:	e59c2004 	ldr	r2, [ip, #4]
    9c28:	e1520000 	cmp	r2, r0
    9c2c:	0a000010 	beq	9c74 <MemoryDeallocate+0x84>
    9c30:	e5933008 	ldr	r3, [r3, #8]
    9c34:	e59cc008 	ldr	ip, [ip, #8]
    9c38:	e283e008 	add	lr, r3, #8
    9c3c:	e37c0001 	cmn	ip, #1
    9c40:	1afffff7 	bne	9c24 <MemoryDeallocate+0x34>
    9c44:	e59f207c 	ldr	r2, [pc, #124]	; 9cc8 <MemoryDeallocate+0xd8>
    9c48:	e1a01000 	mov	r1, r0
    9c4c:	e59f0078 	ldr	r0, [pc, #120]	; 9ccc <MemoryDeallocate+0xdc>
    9c50:	e3a03901 	mov	r3, #16384	; 0x4000
    9c54:	e7942002 	ldr	r2, [r4, r2]
    9c58:	e08f0000 	add	r0, pc, r0
    9c5c:	e5922000 	ldr	r2, [r2]
    9c60:	eb000060 	bl	9de8 <printf>
    9c64:	e59f0064 	ldr	r0, [pc, #100]	; 9cd0 <MemoryDeallocate+0xe0>
    9c68:	e8bd41f0 	pop	{r4, r5, r6, r7, r8, lr}
    9c6c:	e08f0000 	add	r0, pc, r0
    9c70:	ea00005c 	b	9de8 <printf>
    9c74:	e59f504c 	ldr	r5, [pc, #76]	; 9cc8 <MemoryDeallocate+0xd8>
    9c78:	e1a01000 	mov	r1, r0
    9c7c:	e59c7000 	ldr	r7, [ip]
    9c80:	e3a03901 	mov	r3, #16384	; 0x4000
    9c84:	e59c6008 	ldr	r6, [ip, #8]
    9c88:	e7940005 	ldr	r0, [r4, r5]
    9c8c:	e59f5040 	ldr	r5, [pc, #64]	; 9cd4 <MemoryDeallocate+0xe4>
    9c90:	e5902000 	ldr	r2, [r0]
    9c94:	e0672002 	rsb	r2, r7, r2
    9c98:	e5802000 	str	r2, [r0]
    9c9c:	e58e6000 	str	r6, [lr]
    9ca0:	e59f0030 	ldr	r0, [pc, #48]	; 9cd8 <MemoryDeallocate+0xe8>
    9ca4:	e794e005 	ldr	lr, [r4, r5]
    9ca8:	e08f0000 	add	r0, pc, r0
    9cac:	e59e4000 	ldr	r4, [lr]
    9cb0:	e58c4008 	str	r4, [ip, #8]
    9cb4:	e58ec000 	str	ip, [lr]
    9cb8:	e8bd41f0 	pop	{r4, r5, r6, r7, r8, lr}
    9cbc:	ea000049 	b	9de8 <printf>
    9cc0:	00002408 	andeq	r2, r0, r8, lsl #8
    9cc4:	00000020 	andeq	r0, r0, r0, lsr #32
    9cc8:	0000003c 	andeq	r0, r0, ip, lsr r0
    9ccc:	0000193c 	andeq	r1, r0, ip, lsr r9
    9cd0:	00001948 	andeq	r1, r0, r8, asr #18
    9cd4:	00000028 	andeq	r0, r0, r8, lsr #32
    9cd8:	000018ec 	andeq	r1, r0, ip, ror #17

00009cdc <MemoryCopy>:
    9cdc:	e3520000 	cmp	r2, #0
    9ce0:	012fff1e 	bxeq	lr
    9ce4:	e1510000 	cmp	r1, r0
    9ce8:	2a000006 	bcs	9d08 <MemoryCopy+0x2c>
    9cec:	e2400001 	sub	r0, r0, #1
    9cf0:	e0812002 	add	r2, r1, r2
    9cf4:	e4d13001 	ldrb	r3, [r1], #1
    9cf8:	e5e03001 	strb	r3, [r0, #1]!
    9cfc:	e1510002 	cmp	r1, r2
    9d00:	1afffffb 	bne	9cf4 <MemoryCopy+0x18>
    9d04:	e12fff1e 	bx	lr
    9d08:	e0811002 	add	r1, r1, r2
    9d0c:	e0800002 	add	r0, r0, r2
    9d10:	e0622001 	rsb	r2, r2, r1
    9d14:	e5713001 	ldrb	r3, [r1, #-1]!
    9d18:	e5603001 	strb	r3, [r0, #-1]!
    9d1c:	e1520001 	cmp	r2, r1
    9d20:	1afffffb 	bne	9d14 <MemoryCopy+0x38>
    9d24:	e12fff1e 	bx	lr

00009d28 <PlatformLoad>:
    9d28:	e59f3024 	ldr	r3, [pc, #36]	; 9d54 <PlatformLoad+0x2c>
    9d2c:	e3e0c000 	mvn	ip, #0
    9d30:	e59f1020 	ldr	r1, [pc, #32]	; 9d58 <PlatformLoad+0x30>
    9d34:	e3a00000 	mov	r0, #0
    9d38:	e08f3003 	add	r3, pc, r3
    9d3c:	e59f2018 	ldr	r2, [pc, #24]	; 9d5c <PlatformLoad+0x34>
    9d40:	e7931001 	ldr	r1, [r3, r1]
    9d44:	e581c000 	str	ip, [r1]
    9d48:	e7933002 	ldr	r3, [r3, r2]
    9d4c:	e5830000 	str	r0, [r3]
    9d50:	e12fff1e 	bx	lr
    9d54:	000022cc 	andeq	r2, r0, ip, asr #5
    9d58:	00000020 	andeq	r0, r0, r0, lsr #32
    9d5c:	00000028 	andeq	r0, r0, r8, lsr #32

00009d60 <kernel_main>:
    9d60:	e59f0034 	ldr	r0, [pc, #52]	; 9d9c <kernel_main+0x3c>
    9d64:	e92d4010 	push	{r4, lr}
    9d68:	e59f4030 	ldr	r4, [pc, #48]	; 9da0 <kernel_main+0x40>
    9d6c:	e08f0000 	add	r0, pc, r0
    9d70:	eb00001c 	bl	9de8 <printf>
    9d74:	e08f4004 	add	r4, pc, r4
    9d78:	ebfffd2d 	bl	9234 <uart_init>
    9d7c:	ebfffbc5 	bl	8c98 <timer_init>
    9d80:	e59f301c 	ldr	r3, [pc, #28]	; 9da4 <kernel_main+0x44>
    9d84:	e59f001c 	ldr	r0, [pc, #28]	; 9da8 <kernel_main+0x48>
    9d88:	e7941003 	ldr	r1, [r4, r3]
    9d8c:	e08f0000 	add	r0, pc, r0
    9d90:	eb000014 	bl	9de8 <printf>
    9d94:	ebfffeb1 	bl	9860 <UsbInitialise>
    9d98:	eafffffe 	b	9d98 <kernel_main+0x38>
    9d9c:	000018a8 	andeq	r1, r0, r8, lsr #17
    9da0:	00002290 	muleq	r0, r0, r2
    9da4:	0000000c 	andeq	r0, r0, ip
    9da8:	000018c8 	andeq	r1, r0, r8, asr #17

00009dac <memcpy>:
    9dac:	e3520000 	cmp	r2, #0
    9db0:	012fff1e 	bxeq	lr
    9db4:	e2403001 	sub	r3, r0, #1
    9db8:	e0812002 	add	r2, r1, r2
    9dbc:	e4d1c001 	ldrb	ip, [r1], #1
    9dc0:	e1510002 	cmp	r1, r2
    9dc4:	e5e3c001 	strb	ip, [r3, #1]!
    9dc8:	1afffffb 	bne	9dbc <memcpy+0x10>
    9dcc:	e12fff1e 	bx	lr

00009dd0 <fputc>:
    9dd0:	e92d4010 	push	{r4, lr}
    9dd4:	e20000ff 	and	r0, r0, #255	; 0xff
    9dd8:	ebfffd32 	bl	92a8 <uart_putc>
    9ddc:	e3a00001 	mov	r0, #1
    9de0:	e8bd4010 	pop	{r4, lr}
    9de4:	e12fff1e 	bx	lr

00009de8 <printf>:
    9de8:	e92d000f 	push	{r0, r1, r2, r3}
    9dec:	e52de004 	push	{lr}		; (str lr, [sp, #-4]!)
    9df0:	e24dd00c 	sub	sp, sp, #12
    9df4:	e28dc014 	add	ip, sp, #20
    9df8:	e1a0100c 	mov	r1, ip
    9dfc:	e3a03001 	mov	r3, #1
    9e00:	e59f2018 	ldr	r2, [pc, #24]	; 9e20 <printf+0x38>
    9e04:	e59d0010 	ldr	r0, [sp, #16]
    9e08:	e58dc004 	str	ip, [sp, #4]
    9e0c:	eb000004 	bl	9e24 <_doprnt>
    9e10:	e28dd00c 	add	sp, sp, #12
    9e14:	e49de004 	pop	{lr}		; (ldr lr, [sp], #4)
    9e18:	e28dd010 	add	sp, sp, #16
    9e1c:	e12fff1e 	bx	lr
    9e20:	00009dd0 	ldrdeq	r9, [r0], -r0

00009e24 <_doprnt>:
    9e24:	e92d4ff0 	push	{r4, r5, r6, r7, r8, r9, sl, fp, lr}
    9e28:	e3a0b000 	mov	fp, #0
    9e2c:	e1a07002 	mov	r7, r2
    9e30:	e1a0a003 	mov	sl, r3
    9e34:	e24dd074 	sub	sp, sp, #116	; 0x74
    9e38:	e58d0004 	str	r0, [sp, #4]
    9e3c:	e58d1010 	str	r1, [sp, #16]
    9e40:	e59d3004 	ldr	r3, [sp, #4]
    9e44:	e5d30000 	ldrb	r0, [r3]
    9e48:	e3500000 	cmp	r0, #0
    9e4c:	0a0001ac 	beq	a504 <_doprnt+0x6e0>
    9e50:	e3500025 	cmp	r0, #37	; 0x25
    9e54:	1a000014 	bne	9eac <_doprnt+0x88>
    9e58:	e59d3004 	ldr	r3, [sp, #4]
    9e5c:	e5d30001 	ldrb	r0, [r3, #1]
    9e60:	e3500025 	cmp	r0, #37	; 0x25
    9e64:	e2833001 	add	r3, r3, #1
    9e68:	0a0000aa 	beq	a118 <_doprnt+0x2f4>
    9e6c:	e3a02020 	mov	r2, #32
    9e70:	e58d2008 	str	r2, [sp, #8]
    9e74:	e3a02000 	mov	r2, #0
    9e78:	e350002d 	cmp	r0, #45	; 0x2d
    9e7c:	e58d200c 	str	r2, [sp, #12]
    9e80:	0a000005 	beq	9e9c <_doprnt+0x78>
    9e84:	e3500030 	cmp	r0, #48	; 0x30
    9e88:	1a000011 	bne	9ed4 <_doprnt+0xb0>
    9e8c:	e58d0008 	str	r0, [sp, #8]
    9e90:	e5f30001 	ldrb	r0, [r3, #1]!
    9e94:	e350002d 	cmp	r0, #45	; 0x2d
    9e98:	1afffff9 	bne	9e84 <_doprnt+0x60>
    9e9c:	e3a02001 	mov	r2, #1
    9ea0:	e58d200c 	str	r2, [sp, #12]
    9ea4:	eafffff9 	b	9e90 <_doprnt+0x6c>
    9ea8:	e3a00025 	mov	r0, #37	; 0x25
    9eac:	e1a0100a 	mov	r1, sl
    9eb0:	e1a0e00f 	mov	lr, pc
    9eb4:	e12fff17 	bx	r7
    9eb8:	e3700001 	cmn	r0, #1
    9ebc:	0a000091 	beq	a108 <_doprnt+0x2e4>
    9ec0:	e59d3004 	ldr	r3, [sp, #4]
    9ec4:	e2833001 	add	r3, r3, #1
    9ec8:	e28bb001 	add	fp, fp, #1
    9ecc:	e58d3004 	str	r3, [sp, #4]
    9ed0:	eaffffda 	b	9e40 <_doprnt+0x1c>
    9ed4:	e350002a 	cmp	r0, #42	; 0x2a
    9ed8:	0a000090 	beq	a120 <_doprnt+0x2fc>
    9edc:	e2402030 	sub	r2, r0, #48	; 0x30
    9ee0:	e20210ff 	and	r1, r2, #255	; 0xff
    9ee4:	e3510009 	cmp	r1, #9
    9ee8:	e3a05000 	mov	r5, #0
    9eec:	8a000006 	bhi	9f0c <_doprnt+0xe8>
    9ef0:	e5f30001 	ldrb	r0, [r3, #1]!
    9ef4:	e0855105 	add	r5, r5, r5, lsl #2
    9ef8:	e0825085 	add	r5, r2, r5, lsl #1
    9efc:	e2402030 	sub	r2, r0, #48	; 0x30
    9f00:	e20210ff 	and	r1, r2, #255	; 0xff
    9f04:	e3510009 	cmp	r1, #9
    9f08:	9afffff8 	bls	9ef0 <_doprnt+0xcc>
    9f0c:	e59d100c 	ldr	r1, [sp, #12]
    9f10:	e3510000 	cmp	r1, #0
    9f14:	e59d2008 	ldr	r2, [sp, #8]
    9f18:	13a02020 	movne	r2, #32
    9f1c:	e350002e 	cmp	r0, #46	; 0x2e
    9f20:	e58d2008 	str	r2, [sp, #8]
    9f24:	13e08000 	mvnne	r8, #0
    9f28:	0a00008a 	beq	a158 <_doprnt+0x334>
    9f2c:	e350006c 	cmp	r0, #108	; 0x6c
    9f30:	0a000085 	beq	a14c <_doprnt+0x328>
    9f34:	e3500068 	cmp	r0, #104	; 0x68
    9f38:	0a000097 	beq	a19c <_doprnt+0x378>
    9f3c:	e2400058 	sub	r0, r0, #88	; 0x58
    9f40:	e3500020 	cmp	r0, #32
    9f44:	979ff100 	ldrls	pc, [pc, r0, lsl #2]
    9f48:	eaffffd6 	b	9ea8 <_doprnt+0x84>
    9f4c:	0000a2cc 	andeq	sl, r0, ip, asr #5
    9f50:	00009ea8 	andeq	r9, r0, r8, lsr #29
    9f54:	00009ea8 	andeq	r9, r0, r8, lsr #29
    9f58:	00009ea8 	andeq	r9, r0, r8, lsr #29
    9f5c:	00009ea8 	andeq	r9, r0, r8, lsr #29
    9f60:	00009ea8 	andeq	r9, r0, r8, lsr #29
    9f64:	00009ea8 	andeq	r9, r0, r8, lsr #29
    9f68:	00009ea8 	andeq	r9, r0, r8, lsr #29
    9f6c:	00009ea8 	andeq	r9, r0, r8, lsr #29
    9f70:	00009ea8 	andeq	r9, r0, r8, lsr #29
    9f74:	0000a2e0 	andeq	sl, r0, r0, ror #5
    9f78:	0000a2f4 	strdeq	sl, [r0], -r4
    9f7c:	0000a318 	andeq	sl, r0, r8, lsl r3
    9f80:	00009ea8 	andeq	r9, r0, r8, lsr #29
    9f84:	00009ea8 	andeq	r9, r0, r8, lsr #29
    9f88:	00009ea8 	andeq	r9, r0, r8, lsr #29
    9f8c:	00009ea8 	andeq	r9, r0, r8, lsr #29
    9f90:	00009ea8 	andeq	r9, r0, r8, lsr #29
    9f94:	00009ea8 	andeq	r9, r0, r8, lsr #29
    9f98:	00009ea8 	andeq	r9, r0, r8, lsr #29
    9f9c:	00009ea8 	andeq	r9, r0, r8, lsr #29
    9fa0:	00009ea8 	andeq	r9, r0, r8, lsr #29
    9fa4:	00009ea8 	andeq	r9, r0, r8, lsr #29
    9fa8:	00009fd0 	ldrdeq	r9, [r0], -r0
    9fac:	00009ea8 	andeq	r9, r0, r8, lsr #29
    9fb0:	00009ea8 	andeq	r9, r0, r8, lsr #29
    9fb4:	00009ea8 	andeq	r9, r0, r8, lsr #29
    9fb8:	0000a1b4 			; <UNDEFINED> instruction: 0x0000a1b4
    9fbc:	00009ea8 	andeq	r9, r0, r8, lsr #29
    9fc0:	0000a2a4 	andeq	sl, r0, r4, lsr #5
    9fc4:	00009ea8 	andeq	r9, r0, r8, lsr #29
    9fc8:	00009ea8 	andeq	r9, r0, r8, lsr #29
    9fcc:	0000a2b8 			; <UNDEFINED> instruction: 0x0000a2b8
    9fd0:	e3a00008 	mov	r0, #8
    9fd4:	e3a01003 	mov	r1, #3
    9fd8:	e3a06000 	mov	r6, #0
    9fdc:	e58d001c 	str	r0, [sp, #28]
    9fe0:	e59d2010 	ldr	r2, [sp, #16]
    9fe4:	e5924000 	ldr	r4, [r2]
    9fe8:	e282e004 	add	lr, r2, #4
    9fec:	e59f2574 	ldr	r2, [pc, #1396]	; a568 <_doprnt+0x744>
    9ff0:	e3560000 	cmp	r6, #0
    9ff4:	e2833001 	add	r3, r3, #1
    9ff8:	e2420010 	sub	r0, r2, #16
    9ffc:	11a02000 	movne	r2, r0
    a000:	e58d3004 	str	r3, [sp, #4]
    a004:	e3a03000 	mov	r3, #0
    a008:	e3510000 	cmp	r1, #0
    a00c:	e1a06002 	mov	r6, r2
    a010:	e5cd304c 	strb	r3, [sp, #76]	; 0x4c
    a014:	0a000148 	beq	a53c <_doprnt+0x718>
    a018:	e3a03001 	mov	r3, #1
    a01c:	e1a0c113 	lsl	ip, r3, r1
    a020:	e24cc001 	sub	ip, ip, #1
    a024:	e00c3004 	and	r3, ip, r4
    a028:	e7d29003 	ldrb	r9, [r2, r3]
    a02c:	e1b02134 	lsrs	r2, r4, r1
    a030:	e5cd904d 	strb	r9, [sp, #77]	; 0x4d
    a034:	0a000146 	beq	a554 <_doprnt+0x730>
    a038:	e3a04001 	mov	r4, #1
    a03c:	e28d004d 	add	r0, sp, #77	; 0x4d
    a040:	e00c3002 	and	r3, ip, r2
    a044:	e7d69003 	ldrb	r9, [r6, r3]
    a048:	e1b02132 	lsrs	r2, r2, r1
    a04c:	e2844001 	add	r4, r4, #1
    a050:	e5e09001 	strb	r9, [r0, #1]!
    a054:	1afffff9 	bne	a040 <_doprnt+0x21c>
    a058:	e58d2014 	str	r2, [sp, #20]
    a05c:	e58de010 	str	lr, [sp, #16]
    a060:	e58d2018 	str	r2, [sp, #24]
    a064:	e28d104c 	add	r1, sp, #76	; 0x4c
    a068:	e0814004 	add	r4, r1, r4
    a06c:	e28d2027 	add	r2, sp, #39	; 0x27
    a070:	ea000000 	b	a078 <_doprnt+0x254>
    a074:	e5749001 	ldrb	r9, [r4, #-1]!
    a078:	e1540001 	cmp	r4, r1
    a07c:	e5e29001 	strb	r9, [r2, #1]!
    a080:	1afffffb 	bne	a074 <_doprnt+0x250>
    a084:	e28d0028 	add	r0, sp, #40	; 0x28
    a088:	eb000138 	bl	a570 <strlen>
    a08c:	e3580000 	cmp	r8, #0
    a090:	e1a06000 	mov	r6, r0
    a094:	ba0000ec 	blt	a44c <_doprnt+0x628>
    a098:	e1580000 	cmp	r8, r0
    a09c:	c0608008 	rsbgt	r8, r0, r8
    a0a0:	d3a08000 	movle	r8, #0
    a0a4:	e59d3014 	ldr	r3, [sp, #20]
    a0a8:	e0864008 	add	r4, r6, r8
    a0ac:	e0844003 	add	r4, r4, r3
    a0b0:	e1550004 	cmp	r5, r4
    a0b4:	e28d9028 	add	r9, sp, #40	; 0x28
    a0b8:	ca0000fe 	bgt	a4b8 <_doprnt+0x694>
    a0bc:	e3a03020 	mov	r3, #32
    a0c0:	e3a05000 	mov	r5, #0
    a0c4:	e58d3008 	str	r3, [sp, #8]
    a0c8:	e59d3018 	ldr	r3, [sp, #24]
    a0cc:	e3530000 	cmp	r3, #0
    a0d0:	1a0000d5 	bne	a42c <_doprnt+0x608>
    a0d4:	e3580000 	cmp	r8, #0
    a0d8:	0a0000c3 	beq	a3ec <_doprnt+0x5c8>
    a0dc:	e088800b 	add	r8, r8, fp
    a0e0:	ea000001 	b	a0ec <_doprnt+0x2c8>
    a0e4:	e15b0008 	cmp	fp, r8
    a0e8:	0a0000c0 	beq	a3f0 <_doprnt+0x5cc>
    a0ec:	e1a0100a 	mov	r1, sl
    a0f0:	e3a00030 	mov	r0, #48	; 0x30
    a0f4:	e1a0e00f 	mov	lr, pc
    a0f8:	e12fff17 	bx	r7
    a0fc:	e3700001 	cmn	r0, #1
    a100:	e28bb001 	add	fp, fp, #1
    a104:	1afffff6 	bne	a0e4 <_doprnt+0x2c0>
    a108:	e3e00000 	mvn	r0, #0
    a10c:	e28dd074 	add	sp, sp, #116	; 0x74
    a110:	e8bd4ff0 	pop	{r4, r5, r6, r7, r8, r9, sl, fp, lr}
    a114:	e12fff1e 	bx	lr
    a118:	e58d3004 	str	r3, [sp, #4]
    a11c:	eaffff62 	b	9eac <_doprnt+0x88>
    a120:	e59d2010 	ldr	r2, [sp, #16]
    a124:	e5925000 	ldr	r5, [r2]
    a128:	e3550000 	cmp	r5, #0
    a12c:	b3a01001 	movlt	r1, #1
    a130:	e2822004 	add	r2, r2, #4
    a134:	e5d30001 	ldrb	r0, [r3, #1]
    a138:	b58d100c 	strlt	r1, [sp, #12]
    a13c:	b2655000 	rsblt	r5, r5, #0
    a140:	e58d2010 	str	r2, [sp, #16]
    a144:	e2833001 	add	r3, r3, #1
    a148:	eaffff6f 	b	9f0c <_doprnt+0xe8>
    a14c:	e5d30001 	ldrb	r0, [r3, #1]
    a150:	e2833001 	add	r3, r3, #1
    a154:	eaffff78 	b	9f3c <_doprnt+0x118>
    a158:	e5d30001 	ldrb	r0, [r3, #1]
    a15c:	e350002a 	cmp	r0, #42	; 0x2a
    a160:	0a0000d8 	beq	a4c8 <_doprnt+0x6a4>
    a164:	e2402030 	sub	r2, r0, #48	; 0x30
    a168:	e20210ff 	and	r1, r2, #255	; 0xff
    a16c:	e3510009 	cmp	r1, #9
    a170:	e3a08000 	mov	r8, #0
    a174:	e2833001 	add	r3, r3, #1
    a178:	8affff6b 	bhi	9f2c <_doprnt+0x108>
    a17c:	e5f30001 	ldrb	r0, [r3, #1]!
    a180:	e0888108 	add	r8, r8, r8, lsl #2
    a184:	e0828088 	add	r8, r2, r8, lsl #1
    a188:	e2402030 	sub	r2, r0, #48	; 0x30
    a18c:	e20210ff 	and	r1, r2, #255	; 0xff
    a190:	e3510009 	cmp	r1, #9
    a194:	9afffff8 	bls	a17c <_doprnt+0x358>
    a198:	eaffff63 	b	9f2c <_doprnt+0x108>
    a19c:	e5d30001 	ldrb	r0, [r3, #1]
    a1a0:	e3500068 	cmp	r0, #104	; 0x68
    a1a4:	05d30002 	ldrbeq	r0, [r3, #2]
    a1a8:	12833001 	addne	r3, r3, #1
    a1ac:	02833002 	addeq	r3, r3, #2
    a1b0:	eaffff61 	b	9f3c <_doprnt+0x118>
    a1b4:	e59d2010 	ldr	r2, [sp, #16]
    a1b8:	e5929000 	ldr	r9, [r2]
    a1bc:	e2822004 	add	r2, r2, #4
    a1c0:	e3590000 	cmp	r9, #0
    a1c4:	e58d2010 	str	r2, [sp, #16]
    a1c8:	0a0000df 	beq	a54c <_doprnt+0x728>
    a1cc:	e2833001 	add	r3, r3, #1
    a1d0:	e1a00009 	mov	r0, r9
    a1d4:	e58d3004 	str	r3, [sp, #4]
    a1d8:	eb0000e4 	bl	a570 <strlen>
    a1dc:	e3a03000 	mov	r3, #0
    a1e0:	e3580000 	cmp	r8, #0
    a1e4:	e1a06000 	mov	r6, r0
    a1e8:	e1a02003 	mov	r2, r3
    a1ec:	e58d3014 	str	r3, [sp, #20]
    a1f0:	ba0000bb 	blt	a4e4 <_doprnt+0x6c0>
    a1f4:	e59d300c 	ldr	r3, [sp, #12]
    a1f8:	e58d2018 	str	r2, [sp, #24]
    a1fc:	e59d2008 	ldr	r2, [sp, #8]
    a200:	e1560008 	cmp	r6, r8
    a204:	e2233001 	eor	r3, r3, #1
    a208:	a1a06008 	movge	r6, r8
    a20c:	e3520030 	cmp	r2, #48	; 0x30
    a210:	13a03000 	movne	r3, #0
    a214:	02033001 	andeq	r3, r3, #1
    a218:	e3a08000 	mov	r8, #0
    a21c:	e59d2014 	ldr	r2, [sp, #20]
    a220:	e0864002 	add	r4, r6, r2
    a224:	e1550004 	cmp	r5, r4
    a228:	d1a05008 	movle	r5, r8
    a22c:	da000000 	ble	a234 <_doprnt+0x410>
    a230:	e0645005 	rsb	r5, r4, r5
    a234:	e3530000 	cmp	r3, #0
    a238:	11a08005 	movne	r8, r5
    a23c:	13a05000 	movne	r5, #0
    a240:	1affffa0 	bne	a0c8 <_doprnt+0x2a4>
    a244:	e59d300c 	ldr	r3, [sp, #12]
    a248:	e3530000 	cmp	r3, #0
    a24c:	1affff9d 	bne	a0c8 <_doprnt+0x2a4>
    a250:	e3550000 	cmp	r5, #0
    a254:	0affff9b 	beq	a0c8 <_doprnt+0x2a4>
    a258:	e085400b 	add	r4, r5, fp
    a25c:	e58d6014 	str	r6, [sp, #20]
    a260:	e1a0600b 	mov	r6, fp
    a264:	e1a0b009 	mov	fp, r9
    a268:	e1a09008 	mov	r9, r8
    a26c:	e1a08005 	mov	r8, r5
    a270:	e1a05004 	mov	r5, r4
    a274:	e59d4008 	ldr	r4, [sp, #8]
    a278:	ea000001 	b	a284 <_doprnt+0x460>
    a27c:	e1560005 	cmp	r6, r5
    a280:	0a0000a1 	beq	a50c <_doprnt+0x6e8>
    a284:	e1a0100a 	mov	r1, sl
    a288:	e1a00004 	mov	r0, r4
    a28c:	e1a0e00f 	mov	lr, pc
    a290:	e12fff17 	bx	r7
    a294:	e3700001 	cmn	r0, #1
    a298:	e2866001 	add	r6, r6, #1
    a29c:	1afffff6 	bne	a27c <_doprnt+0x458>
    a2a0:	eaffff98 	b	a108 <_doprnt+0x2e4>
    a2a4:	e3a01000 	mov	r1, #0
    a2a8:	e3a0000a 	mov	r0, #10
    a2ac:	e1a06001 	mov	r6, r1
    a2b0:	e58d001c 	str	r0, [sp, #28]
    a2b4:	eaffff49 	b	9fe0 <_doprnt+0x1bc>
    a2b8:	e3a00010 	mov	r0, #16
    a2bc:	e3a01004 	mov	r1, #4
    a2c0:	e58d001c 	str	r0, [sp, #28]
    a2c4:	e3a06000 	mov	r6, #0
    a2c8:	eaffff44 	b	9fe0 <_doprnt+0x1bc>
    a2cc:	e3a00010 	mov	r0, #16
    a2d0:	e3a01004 	mov	r1, #4
    a2d4:	e58d001c 	str	r0, [sp, #28]
    a2d8:	e3a06001 	mov	r6, #1
    a2dc:	eaffff3f 	b	9fe0 <_doprnt+0x1bc>
    a2e0:	e3a00002 	mov	r0, #2
    a2e4:	e3a01001 	mov	r1, #1
    a2e8:	e58d001c 	str	r0, [sp, #28]
    a2ec:	e3a06000 	mov	r6, #0
    a2f0:	eaffff3a 	b	9fe0 <_doprnt+0x1bc>
    a2f4:	e3a00000 	mov	r0, #0
    a2f8:	e59d1010 	ldr	r1, [sp, #16]
    a2fc:	e5912000 	ldr	r2, [r1]
    a300:	e5cd2028 	strb	r2, [sp, #40]	; 0x28
    a304:	e2812004 	add	r2, r1, #4
    a308:	e5cd0029 	strb	r0, [sp, #41]	; 0x29
    a30c:	e58d2010 	str	r2, [sp, #16]
    a310:	e28d9028 	add	r9, sp, #40	; 0x28
    a314:	eaffffac 	b	a1cc <_doprnt+0x3a8>
    a318:	e59d2010 	ldr	r2, [sp, #16]
    a31c:	e5924000 	ldr	r4, [r2]
    a320:	e2822004 	add	r2, r2, #4
    a324:	e3540000 	cmp	r4, #0
    a328:	e58d2010 	str	r2, [sp, #16]
    a32c:	a3a02000 	movge	r2, #0
    a330:	a58d2014 	strge	r2, [sp, #20]
    a334:	a58d2018 	strge	r2, [sp, #24]
    a338:	ba000079 	blt	a524 <_doprnt+0x700>
    a33c:	e2833001 	add	r3, r3, #1
    a340:	e58d3004 	str	r3, [sp, #4]
    a344:	e3a03000 	mov	r3, #0
    a348:	e5cd304c 	strb	r3, [sp, #76]	; 0x4c
    a34c:	e3a0300a 	mov	r3, #10
    a350:	e59f6210 	ldr	r6, [pc, #528]	; a568 <_doprnt+0x744>
    a354:	e58d301c 	str	r3, [sp, #28]
    a358:	e1a00004 	mov	r0, r4
    a35c:	e59d101c 	ldr	r1, [sp, #28]
    a360:	eb0000cb 	bl	a694 <__aeabi_uidivmod>
    a364:	e7d69001 	ldrb	r9, [r6, r1]
    a368:	e1a00004 	mov	r0, r4
    a36c:	e59d101c 	ldr	r1, [sp, #28]
    a370:	e5cd904d 	strb	r9, [sp, #77]	; 0x4d
    a374:	eb000089 	bl	a5a0 <__aeabi_uidiv>
    a378:	e2502000 	subs	r2, r0, #0
    a37c:	e3a04001 	mov	r4, #1
    a380:	0affff37 	beq	a064 <_doprnt+0x240>
    a384:	e28d304d 	add	r3, sp, #77	; 0x4d
    a388:	e58db020 	str	fp, [sp, #32]
    a38c:	e1a09003 	mov	r9, r3
    a390:	e1a0b002 	mov	fp, r2
    a394:	e58d5024 	str	r5, [sp, #36]	; 0x24
    a398:	e1a05004 	mov	r5, r4
    a39c:	e1a04006 	mov	r4, r6
    a3a0:	e59d601c 	ldr	r6, [sp, #28]
    a3a4:	e58d701c 	str	r7, [sp, #28]
    a3a8:	e1a0000b 	mov	r0, fp
    a3ac:	e1a01006 	mov	r1, r6
    a3b0:	eb0000b7 	bl	a694 <__aeabi_uidivmod>
    a3b4:	e7d47001 	ldrb	r7, [r4, r1]
    a3b8:	e1a0000b 	mov	r0, fp
    a3bc:	e1a01006 	mov	r1, r6
    a3c0:	e5e97001 	strb	r7, [r9, #1]!
    a3c4:	eb000075 	bl	a5a0 <__aeabi_uidiv>
    a3c8:	e250b000 	subs	fp, r0, #0
    a3cc:	e2855001 	add	r5, r5, #1
    a3d0:	1afffff4 	bne	a3a8 <_doprnt+0x584>
    a3d4:	e1a04005 	mov	r4, r5
    a3d8:	e1a09007 	mov	r9, r7
    a3dc:	e59db020 	ldr	fp, [sp, #32]
    a3e0:	e59d5024 	ldr	r5, [sp, #36]	; 0x24
    a3e4:	e59d701c 	ldr	r7, [sp, #28]
    a3e8:	eaffff1d 	b	a064 <_doprnt+0x240>
    a3ec:	e1a0800b 	mov	r8, fp
    a3f0:	e3560000 	cmp	r6, #0
    a3f4:	da00001c 	ble	a46c <_doprnt+0x648>
    a3f8:	e2499001 	sub	r9, r9, #1
    a3fc:	e086b008 	add	fp, r6, r8
    a400:	ea000001 	b	a40c <_doprnt+0x5e8>
    a404:	e158000b 	cmp	r8, fp
    a408:	0a000018 	beq	a470 <_doprnt+0x64c>
    a40c:	e1a0100a 	mov	r1, sl
    a410:	e5f90001 	ldrb	r0, [r9, #1]!
    a414:	e1a0e00f 	mov	lr, pc
    a418:	e12fff17 	bx	r7
    a41c:	e3700001 	cmn	r0, #1
    a420:	e2888001 	add	r8, r8, #1
    a424:	1afffff6 	bne	a404 <_doprnt+0x5e0>
    a428:	eaffff36 	b	a108 <_doprnt+0x2e4>
    a42c:	e1a00003 	mov	r0, r3
    a430:	e1a0100a 	mov	r1, sl
    a434:	e1a0e00f 	mov	lr, pc
    a438:	e12fff17 	bx	r7
    a43c:	e3700001 	cmn	r0, #1
    a440:	0affff30 	beq	a108 <_doprnt+0x2e4>
    a444:	e28bb001 	add	fp, fp, #1
    a448:	eaffff21 	b	a0d4 <_doprnt+0x2b0>
    a44c:	e59d300c 	ldr	r3, [sp, #12]
    a450:	e59d2008 	ldr	r2, [sp, #8]
    a454:	e2233001 	eor	r3, r3, #1
    a458:	e28d9028 	add	r9, sp, #40	; 0x28
    a45c:	e3520030 	cmp	r2, #48	; 0x30
    a460:	13a03000 	movne	r3, #0
    a464:	02033001 	andeq	r3, r3, #1
    a468:	eaffff6a 	b	a218 <_doprnt+0x3f4>
    a46c:	e1a0b008 	mov	fp, r8
    a470:	e59d300c 	ldr	r3, [sp, #12]
    a474:	e3530000 	cmp	r3, #0
    a478:	0afffe70 	beq	9e40 <_doprnt+0x1c>
    a47c:	e3550000 	cmp	r5, #0
    a480:	0afffe6e 	beq	9e40 <_doprnt+0x1c>
    a484:	e085500b 	add	r5, r5, fp
    a488:	e59d4008 	ldr	r4, [sp, #8]
    a48c:	ea000001 	b	a498 <_doprnt+0x674>
    a490:	e15b0005 	cmp	fp, r5
    a494:	0afffe69 	beq	9e40 <_doprnt+0x1c>
    a498:	e1a0100a 	mov	r1, sl
    a49c:	e1a00004 	mov	r0, r4
    a4a0:	e1a0e00f 	mov	lr, pc
    a4a4:	e12fff17 	bx	r7
    a4a8:	e3700001 	cmn	r0, #1
    a4ac:	e28bb001 	add	fp, fp, #1
    a4b0:	1afffff6 	bne	a490 <_doprnt+0x66c>
    a4b4:	eaffff13 	b	a108 <_doprnt+0x2e4>
    a4b8:	e3a02020 	mov	r2, #32
    a4bc:	e3a03000 	mov	r3, #0
    a4c0:	e58d2008 	str	r2, [sp, #8]
    a4c4:	eaffff59 	b	a230 <_doprnt+0x40c>
    a4c8:	e59d2010 	ldr	r2, [sp, #16]
    a4cc:	e5928000 	ldr	r8, [r2]
    a4d0:	e2822004 	add	r2, r2, #4
    a4d4:	e5d30002 	ldrb	r0, [r3, #2]
    a4d8:	e58d2010 	str	r2, [sp, #16]
    a4dc:	e2833002 	add	r3, r3, #2
    a4e0:	eafffe91 	b	9f2c <_doprnt+0x108>
    a4e4:	e59d300c 	ldr	r3, [sp, #12]
    a4e8:	e58d2018 	str	r2, [sp, #24]
    a4ec:	e59d2008 	ldr	r2, [sp, #8]
    a4f0:	e2233001 	eor	r3, r3, #1
    a4f4:	e3520030 	cmp	r2, #48	; 0x30
    a4f8:	13a03000 	movne	r3, #0
    a4fc:	02033001 	andeq	r3, r3, #1
    a500:	eaffff44 	b	a218 <_doprnt+0x3f4>
    a504:	e1a0000b 	mov	r0, fp
    a508:	eafffeff 	b	a10c <_doprnt+0x2e8>
    a50c:	e1a05008 	mov	r5, r8
    a510:	e1a08009 	mov	r8, r9
    a514:	e1a0900b 	mov	r9, fp
    a518:	e1a0b006 	mov	fp, r6
    a51c:	e59d6014 	ldr	r6, [sp, #20]
    a520:	eafffee8 	b	a0c8 <_doprnt+0x2a4>
    a524:	e3a02001 	mov	r2, #1
    a528:	e58d2014 	str	r2, [sp, #20]
    a52c:	e3a0202d 	mov	r2, #45	; 0x2d
    a530:	e2644000 	rsb	r4, r4, #0
    a534:	e58d2018 	str	r2, [sp, #24]
    a538:	eaffff7f 	b	a33c <_doprnt+0x518>
    a53c:	e58d1014 	str	r1, [sp, #20]
    a540:	e58de010 	str	lr, [sp, #16]
    a544:	e58d1018 	str	r1, [sp, #24]
    a548:	eaffff82 	b	a358 <_doprnt+0x534>
    a54c:	e59f9018 	ldr	r9, [pc, #24]	; a56c <_doprnt+0x748>
    a550:	eaffff1d 	b	a1cc <_doprnt+0x3a8>
    a554:	e58d2014 	str	r2, [sp, #20]
    a558:	e58de010 	str	lr, [sp, #16]
    a55c:	e58d2018 	str	r2, [sp, #24]
    a560:	e3a04001 	mov	r4, #1
    a564:	eafffebe 	b	a064 <_doprnt+0x240>
    a568:	0000b07c 	andeq	fp, r0, ip, ror r0
    a56c:	0000b674 	andeq	fp, r0, r4, ror r6

0000a570 <strlen>:
    a570:	e5d03000 	ldrb	r3, [r0]
    a574:	e3530000 	cmp	r3, #0
    a578:	0a000006 	beq	a598 <strlen+0x28>
    a57c:	e1a03000 	mov	r3, r0
    a580:	e3a00000 	mov	r0, #0
    a584:	e5f32001 	ldrb	r2, [r3, #1]!
    a588:	e3520000 	cmp	r2, #0
    a58c:	e2800001 	add	r0, r0, #1
    a590:	1afffffb 	bne	a584 <strlen+0x14>
    a594:	e12fff1e 	bx	lr
    a598:	e1a00003 	mov	r0, r3
    a59c:	e12fff1e 	bx	lr

0000a5a0 <__aeabi_uidiv>:
    a5a0:	e2512001 	subs	r2, r1, #1
    a5a4:	012fff1e 	bxeq	lr
    a5a8:	3a000036 	bcc	a688 <__aeabi_uidiv+0xe8>
    a5ac:	e1500001 	cmp	r0, r1
    a5b0:	9a000022 	bls	a640 <__aeabi_uidiv+0xa0>
    a5b4:	e1110002 	tst	r1, r2
    a5b8:	0a000023 	beq	a64c <__aeabi_uidiv+0xac>
    a5bc:	e311020e 	tst	r1, #-536870912	; 0xe0000000
    a5c0:	01a01181 	lsleq	r1, r1, #3
    a5c4:	03a03008 	moveq	r3, #8
    a5c8:	13a03001 	movne	r3, #1
    a5cc:	e3510201 	cmp	r1, #268435456	; 0x10000000
    a5d0:	31510000 	cmpcc	r1, r0
    a5d4:	31a01201 	lslcc	r1, r1, #4
    a5d8:	31a03203 	lslcc	r3, r3, #4
    a5dc:	3afffffa 	bcc	a5cc <__aeabi_uidiv+0x2c>
    a5e0:	e3510102 	cmp	r1, #-2147483648	; 0x80000000
    a5e4:	31510000 	cmpcc	r1, r0
    a5e8:	31a01081 	lslcc	r1, r1, #1
    a5ec:	31a03083 	lslcc	r3, r3, #1
    a5f0:	3afffffa 	bcc	a5e0 <__aeabi_uidiv+0x40>
    a5f4:	e3a02000 	mov	r2, #0
    a5f8:	e1500001 	cmp	r0, r1
    a5fc:	20400001 	subcs	r0, r0, r1
    a600:	21822003 	orrcs	r2, r2, r3
    a604:	e15000a1 	cmp	r0, r1, lsr #1
    a608:	204000a1 	subcs	r0, r0, r1, lsr #1
    a60c:	218220a3 	orrcs	r2, r2, r3, lsr #1
    a610:	e1500121 	cmp	r0, r1, lsr #2
    a614:	20400121 	subcs	r0, r0, r1, lsr #2
    a618:	21822123 	orrcs	r2, r2, r3, lsr #2
    a61c:	e15001a1 	cmp	r0, r1, lsr #3
    a620:	204001a1 	subcs	r0, r0, r1, lsr #3
    a624:	218221a3 	orrcs	r2, r2, r3, lsr #3
    a628:	e3500000 	cmp	r0, #0
    a62c:	11b03223 	lsrsne	r3, r3, #4
    a630:	11a01221 	lsrne	r1, r1, #4
    a634:	1affffef 	bne	a5f8 <__aeabi_uidiv+0x58>
    a638:	e1a00002 	mov	r0, r2
    a63c:	e12fff1e 	bx	lr
    a640:	03a00001 	moveq	r0, #1
    a644:	13a00000 	movne	r0, #0
    a648:	e12fff1e 	bx	lr
    a64c:	e3510801 	cmp	r1, #65536	; 0x10000
    a650:	21a01821 	lsrcs	r1, r1, #16
    a654:	23a02010 	movcs	r2, #16
    a658:	33a02000 	movcc	r2, #0
    a65c:	e3510c01 	cmp	r1, #256	; 0x100
    a660:	21a01421 	lsrcs	r1, r1, #8
    a664:	22822008 	addcs	r2, r2, #8
    a668:	e3510010 	cmp	r1, #16
    a66c:	21a01221 	lsrcs	r1, r1, #4
    a670:	22822004 	addcs	r2, r2, #4
    a674:	e3510004 	cmp	r1, #4
    a678:	82822003 	addhi	r2, r2, #3
    a67c:	908220a1 	addls	r2, r2, r1, lsr #1
    a680:	e1a00230 	lsr	r0, r0, r2
    a684:	e12fff1e 	bx	lr
    a688:	e3500000 	cmp	r0, #0
    a68c:	13e00000 	mvnne	r0, #0
    a690:	ea000007 	b	a6b4 <__aeabi_idiv0>

0000a694 <__aeabi_uidivmod>:
    a694:	e3510000 	cmp	r1, #0
    a698:	0afffffa 	beq	a688 <__aeabi_uidiv+0xe8>
    a69c:	e92d4003 	push	{r0, r1, lr}
    a6a0:	ebffffbe 	bl	a5a0 <__aeabi_uidiv>
    a6a4:	e8bd4006 	pop	{r1, r2, lr}
    a6a8:	e0030092 	mul	r3, r2, r0
    a6ac:	e0411003 	sub	r1, r1, r3
    a6b0:	e12fff1e 	bx	lr

0000a6b4 <__aeabi_idiv0>:
    a6b4:	e12fff1e 	bx	lr

Disassembly of section .rodata:

0000b000 <__rodata_start>:
    b000:	6974200a 	ldmdbvs	r4!, {r1, r3, sp}^
    b004:	5f72656d 	svcpl	0x0072656d
    b008:	73676572 	cmnvc	r7, #478150656	; 0x1c800000
    b00c:	6f633e2d 	svcvs	0x00633e2d
    b010:	65746e75 	ldrbvs	r6, [r4, #-3701]!	; 0xfffff18b
    b014:	6f6c5f72 	svcvs	0x006c5f72
    b018:	25203a77 	strcs	r3, [r0, #-2679]!	; 0xfffff589
    b01c:	00000078 	andeq	r0, r0, r8, ror r0
    b020:	6974200a 	ldmdbvs	r4!, {r1, r3, sp}^
    b024:	5f72656d 	svcpl	0x0072656d
    b028:	73676572 	cmnvc	r7, #478150656	; 0x1c800000
    b02c:	6f633e2d 	svcvs	0x00633e2d
    b030:	65746e75 	ldrbvs	r6, [r4, #-3701]!	; 0xfffff18b
    b034:	69685f72 	stmdbvs	r8!, {r1, r4, r5, r6, r8, r9, sl, fp, ip, lr}^
    b038:	203a6867 	eorscs	r6, sl, r7, ror #16
    b03c:	00007825 	andeq	r7, r0, r5, lsr #16
    b040:	3436200a 	ldrtcc	r2, [r6], #-10
    b044:	74696220 	strbtvc	r6, [r9], #-544	; 0xfffffde0
    b048:	6c25203a 	stcvs	0, cr2, [r5], #-232	; 0xffffff18
    b04c:	00000078 	andeq	r0, r0, r8, ror r0
    b050:	656d6974 	strbvs	r6, [sp, #-2420]!	; 0xfffff68c
    b054:	65725f72 	ldrbvs	r5, [r2, #-3954]!	; 0xfffff08e
    b058:	253a7367 	ldrcs	r7, [sl, #-871]!	; 0xfffffc99
    b05c:	00000078 	andeq	r0, r0, r8, ror r0
    b060:	44434241 	strbmi	r4, [r3], #-577	; 0xfffffdbf
    b064:	5a474645 	bpl	11dc980 <__kernel_end+0x1076980>
    b068:	004b4a49 	subeq	r4, fp, r9, asr #20

0000b06c <digits_uc>:
    b06c:	33323130 	teqcc	r2, #48, 2
    b070:	37363534 			; <UNDEFINED> instruction: 0x37363534
    b074:	42413938 	submi	r3, r1, #56, 18	; 0xe0000
    b078:	46454443 	strbmi	r4, [r5], -r3, asr #8

0000b07c <digits_lc>:
    b07c:	33323130 	teqcc	r2, #48, 2
    b080:	37363534 			; <UNDEFINED> instruction: 0x37363534
    b084:	62613938 	rsbvs	r3, r1, #56, 18	; 0xe0000
    b088:	66656463 	strbtvs	r6, [r5], -r3, ror #8

Disassembly of section .rodata.str1.4:

0000b08c <.rodata.str1.4>:
    b08c:	524f4241 	subpl	r4, pc, #268435460	; 0x10000004
    b090:	4e492054 	mcrmi	0, 2, r2, cr9, cr4, {2}
    b094:	52524554 	subspl	r4, r2, #84, 10	; 0x15000000
    b098:	20545055 	subscs	r5, r4, r5, asr r0
    b09c:	5543434f 	strbpl	r4, [r3, #-847]	; 0xfffffcb1
    b0a0:	44455252 	strbmi	r5, [r5], #-594	; 0xfffffdae
    b0a4:	00000000 	andeq	r0, r0, r0
    b0a8:	65646e55 	strbvs	r6, [r4, #-3669]!	; 0xfffff1ab
    b0ac:	6e492066 	cdpvs	0, 4, cr2, cr9, cr6, {3}
    b0b0:	72726574 	rsbsvc	r6, r2, #116, 10	; 0x1d000000
    b0b4:	20747075 	rsbscs	r7, r4, r5, ror r0
    b0b8:	7563634f 	strbvc	r6, [r3, #-847]!	; 0xfffffcb1
    b0bc:	64657272 	strbtvs	r7, [r5], #-626	; 0xfffffd8e
    b0c0:	00000000 	andeq	r0, r0, r0
    b0c4:	74666f53 	strbtvc	r6, [r6], #-3923	; 0xfffff0ad
    b0c8:	65726177 	ldrbvs	r6, [r2, #-375]!	; 0xfffffe89
    b0cc:	746e4920 	strbtvc	r4, [lr], #-2336	; 0xfffff6e0
    b0d0:	75727265 	ldrbvc	r7, [r2, #-613]!	; 0xfffffd9b
    b0d4:	4f207470 	svcmi	0x00207470
    b0d8:	72756363 	rsbsvc	r6, r5, #-1946157055	; 0x8c000001
    b0dc:	00646572 	rsbeq	r6, r4, r2, ror r5
    b0e0:	66657270 			; <UNDEFINED> instruction: 0x66657270
    b0e4:	68637465 	stmdavs	r3!, {r0, r2, r5, r6, sl, ip, sp, lr}^
    b0e8:	6f62615f 	svcvs	0x0062615f
    b0ec:	765f7472 			; <UNDEFINED> instruction: 0x765f7472
    b0f0:	6f746365 	svcvs	0x00746365
    b0f4:	6e492072 	mcrvs	0, 2, r2, cr9, cr2, {3}
    b0f8:	72726574 	rsbsvc	r6, r2, #116, 10	; 0x1d000000
    b0fc:	20747075 	rsbscs	r7, r4, r5, ror r0
    b100:	7563634f 	strbvc	r6, [r3, #-847]!	; 0xfffffcb1
    b104:	64657272 	strbtvs	r7, [r5], #-626	; 0xfffffd8e
    b108:	00000000 	andeq	r0, r0, r0
    b10c:	61746164 	cmnvs	r4, r4, ror #2
    b110:	6f62615f 	svcvs	0x0062615f
    b114:	765f7472 			; <UNDEFINED> instruction: 0x765f7472
    b118:	6f746365 	svcvs	0x00746365
    b11c:	6e492072 	mcrvs	0, 2, r2, cr9, cr2, {3}
    b120:	72726574 	rsbsvc	r6, r2, #116, 10	; 0x1d000000
    b124:	20747075 	rsbscs	r7, r4, r5, ror r0
    b128:	7563634f 	strbvc	r6, [r3, #-847]!	; 0xfffffcb1
    b12c:	64657272 	strbtvs	r7, [r5], #-626	; 0xfffffd8e
    b130:	00000000 	andeq	r0, r0, r0
    b134:	74736166 	ldrbtvc	r6, [r3], #-358	; 0xfffffe9a
    b138:	746e695f 	strbtvc	r6, [lr], #-2399	; 0xfffff6a1
    b13c:	75727265 	ldrbvc	r7, [r2, #-613]!	; 0xfffffd9b
    b140:	765f7470 			; <UNDEFINED> instruction: 0x765f7470
    b144:	6f746365 	svcvs	0x00746365
    b148:	6e492072 	mcrvs	0, 2, r2, cr9, cr2, {3}
    b14c:	72726574 	rsbsvc	r6, r2, #116, 10	; 0x1d000000
    b150:	20747075 	rsbscs	r7, r4, r5, ror r0
    b154:	7563634f 	strbvc	r6, [r3, #-847]!	; 0xfffffcb1
    b158:	64657272 	strbtvs	r7, [r5], #-626	; 0xfffffd8e
    b15c:	00000000 	andeq	r0, r0, r0
    b160:	20515249 	subscs	r5, r1, r9, asr #4
    b164:	67697274 			; <UNDEFINED> instruction: 0x67697274
    b168:	65726567 	ldrbvs	r6, [r2, #-1383]!	; 0xfffffa99
    b16c:	00000064 	andeq	r0, r0, r4, rrx
    b170:	62616e45 	rsbvs	r6, r1, #1104	; 0x450
    b174:	676e696c 	strbvs	r6, [lr, -ip, ror #18]!
    b178:	554d4d20 	strbpl	r4, [sp, #-3360]	; 0xfffff2e0
    b17c:	00200a20 	eoreq	r0, r0, r0, lsr #20
    b180:	61746f54 	cmnvs	r4, r4, asr pc
    b184:	654d206c 	strbvs	r2, [sp, #-108]	; 0xffffff94
    b188:	6953206d 	ldmdbvs	r3, {r0, r2, r3, r5, r6, sp}^
    b18c:	203a657a 	eorscs	r6, sl, sl, ror r5
    b190:	42206425 	eormi	r6, r0, #620756992	; 0x25000000
    b194:	73657479 	cmnvc	r5, #2030043136	; 0x79000000
    b198:	00000a20 	andeq	r0, r0, r0, lsr #20
    b19c:	61746f54 	cmnvs	r4, r4, asr pc
    b1a0:	7641206c 	strbvc	r2, [r1], -ip, rrx
    b1a4:	616c6961 	cmnvs	ip, r1, ror #18
    b1a8:	20656c62 	rsbcs	r6, r5, r2, ror #24
    b1ac:	294b3428 	stmdbcs	fp, {r3, r5, sl, ip, sp}^
    b1b0:	67615020 	strbvs	r5, [r1, -r0, lsr #32]!
    b1b4:	72462065 	subvc	r2, r6, #101	; 0x65
    b1b8:	73656d61 	cmnvc	r5, #6208	; 0x1840
    b1bc:	6425203a 	strtvs	r2, [r5], #-58	; 0xffffffc6
    b1c0:	00000a20 	andeq	r0, r0, r0, lsr #20
    b1c4:	414d440a 	cmpmi	sp, sl, lsl #8
    b1c8:	71726920 	cmnvc	r2, r0, lsr #18
    b1cc:	656c6320 	strbvs	r6, [ip, #-800]!	; 0xfffffce0
    b1d0:	72657261 	rsbvc	r7, r5, #268435462	; 0x10000006
    b1d4:	6c616320 	stclvs	3, cr6, [r1], #-128	; 0xffffff80
    b1d8:	2e64656c 	cdpcs	5, 6, cr6, cr4, cr12, {3}
    b1dc:	6f685320 	svcvs	0x00685320
    b1e0:	20646c75 	rsbcs	r6, r4, r5, ror ip
    b1e4:	63206562 			; <UNDEFINED> instruction: 0x63206562
    b1e8:	656c6c61 	strbvs	r6, [ip, #-3169]!	; 0xfffff39f
    b1ec:	65622064 	strbvs	r2, [r2, #-100]!	; 0xffffff9c
    b1f0:	65726f66 	ldrbvs	r6, [r2, #-3942]!	; 0xfffff09a
    b1f4:	6e616820 	cdpvs	8, 6, cr6, cr1, cr0, {1}
    b1f8:	72656c64 	rsbvc	r6, r5, #100, 24	; 0x6400
    b1fc:	00000a20 	andeq	r0, r0, r0, lsr #20
    b200:	414d440a 	cmpmi	sp, sl, lsl #8
    b204:	71726920 	cmnvc	r2, r0, lsr #18
    b208:	6e616820 	cdpvs	8, 6, cr6, cr1, cr0, {1}
    b20c:	72656c64 	rsbvc	r6, r5, #100, 24	; 0x6400
    b210:	6c616320 	stclvs	3, cr6, [r1], #-128	; 0xffffff80
    b214:	2e64656c 	cdpcs	5, 6, cr6, cr4, cr12, {3}
    b218:	69685420 	stmdbvs	r8!, {r5, sl, ip, lr}^
    b21c:	68732073 	ldmdavs	r3!, {r0, r1, r4, r5, r6, sp}^
    b220:	646c756f 	strbtvs	r7, [ip], #-1391	; 0xfffffa91
    b224:	20656220 	rsbcs	r6, r5, r0, lsr #4
    b228:	6c6c6163 	stfvse	f6, [ip], #-396	; 0xfffffe74
    b22c:	61206465 			; <UNDEFINED> instruction: 0x61206465
    b230:	72657466 	rsbvc	r7, r5, #1711276032	; 0x66000000
    b234:	656c6320 	strbvs	r6, [ip, #-800]!	; 0xfffffce0
    b238:	72657261 	rsbvc	r7, r5, #268435462	; 0x10000006
    b23c:	000a202e 	andeq	r2, sl, lr, lsr #32
    b240:	2d2d200a 	stccs	0, cr2, [sp, #-40]!	; 0xffffffd8
    b244:	2d2d2d2d 	stccs	13, cr2, [sp, #-180]!	; 0xffffff4c
    b248:	2d2d2d2d 	stccs	13, cr2, [sp, #-180]!	; 0xffffff4c
    b24c:	2d2d2d2d 	stccs	13, cr2, [sp, #-180]!	; 0xffffff4c
    b250:	202d2d2d 	eorcs	r2, sp, sp, lsr #26
    b254:	0000000a 	andeq	r0, r0, sl
    b258:	6f666542 	svcvs	0x00666542
    b25c:	73206572 			; <UNDEFINED> instruction: 0x73206572
    b260:	69747465 	ldmdbvs	r4!, {r0, r2, r5, r6, sl, ip, sp, lr}^
    b264:	7320676e 			; <UNDEFINED> instruction: 0x7320676e
    b268:	6372756f 	cmnvs	r2, #465567744	; 0x1bc00000
    b26c:	64612065 	strbtvs	r2, [r1], #-101	; 0xffffff9b
    b270:	73657264 	cmnvc	r5, #100, 4	; 0x40000006
    b274:	000a2073 	andeq	r2, sl, r3, ror r0
    b278:	65746641 	ldrbvs	r6, [r4, #-1601]!	; 0xfffff9bf
    b27c:	65732072 	ldrbvs	r2, [r3, #-114]!	; 0xffffff8e
    b280:	6e697474 	mcrvs	4, 3, r7, cr9, cr4, {3}
    b284:	6f732067 	svcvs	0x00732067
    b288:	65637275 	strbvs	r7, [r3, #-629]!	; 0xfffffd8b
    b28c:	64646120 	strbtvs	r6, [r4], #-288	; 0xfffffee0
    b290:	73736572 	cmnvc	r3, #478150656	; 0x1c800000
    b294:	00000a20 	andeq	r0, r0, r0, lsr #20
    b298:	6f666542 	svcvs	0x00666542
    b29c:	63206572 			; <UNDEFINED> instruction: 0x63206572
    b2a0:	6979706f 	ldmdbvs	r9!, {r0, r1, r2, r3, r5, r6, ip, sp, lr}^
    b2a4:	6420676e 	strtvs	r6, [r0], #-1902	; 0xfffff892
    b2a8:	69747365 	ldmdbvs	r4!, {r0, r2, r5, r6, r8, r9, ip, sp, lr}^
    b2ac:	6974616e 	ldmdbvs	r4!, {r1, r2, r3, r5, r6, r8, sp, lr}^
    b2b0:	6c206e6f 	stcvs	14, cr6, [r0], #-444	; 0xfffffe44
    b2b4:	736b6f6f 	cmnvc	fp, #444	; 0x1bc
    b2b8:	656b696c 	strbvs	r6, [fp, #-2412]!	; 0xfffff694
    b2bc:	00000a20 	andeq	r0, r0, r0, lsr #20
    b2c0:	6263200a 	rsbvs	r2, r3, #10
    b2c4:	25203a31 	strcs	r3, [r0, #-2609]!	; 0xfffff5cf
    b2c8:	00000078 	andeq	r0, r0, r8, ror r0
    b2cc:	6263200a 	rsbvs	r2, r3, #10
    b2d0:	25203a32 	strcs	r3, [r0, #-2610]!	; 0xfffff5ce
    b2d4:	00000078 	andeq	r0, r0, r8, ror r0
    b2d8:	65746641 	ldrbvs	r6, [r4, #-1601]!	; 0xfffff9bf
    b2dc:	4d442072 	stclmi	0, cr2, [r4, #-456]	; 0xfffffe38
    b2e0:	65722041 	ldrbvs	r2, [r2, #-65]!	; 0xffffffbf
    b2e4:	20746573 	rsbscs	r6, r4, r3, ror r5
    b2e8:	0000000a 	andeq	r0, r0, sl
    b2ec:	65746641 	ldrbvs	r6, [r4, #-1601]!	; 0xfffff9bf
    b2f0:	4d442072 	stclmi	0, cr2, [r4, #-456]	; 0xfffffe38
    b2f4:	65642041 	strbvs	r2, [r4, #-65]!	; 0xffffffbf
    b2f8:	20677562 	rsbcs	r7, r7, r2, ror #10
    b2fc:	0000000a 	andeq	r0, r0, sl
    b300:	65746641 	ldrbvs	r6, [r4, #-1601]!	; 0xfffff9bf
    b304:	4d442072 	stclmi	0, cr2, [r4, #-456]	; 0xfffffe38
    b308:	64612041 	strbtvs	r2, [r1], #-65	; 0xffffffbf
    b30c:	73657264 	cmnvc	r5, #100, 4	; 0x40000006
    b310:	000a2073 	andeq	r2, sl, r3, ror r0
    b314:	65746641 	ldrbvs	r6, [r4, #-1601]!	; 0xfffff9bf
    b318:	4d442072 	stclmi	0, cr2, [r4, #-456]	; 0xfffffe38
    b31c:	63612041 	cmnvs	r1, #65	; 0x41
    b320:	61766974 	cmnvs	r6, r4, ror r9
    b324:	0a206574 	beq	8248fc <__kernel_end+0x6be8fc>
    b328:	00000000 	andeq	r0, r0, r0
    b32c:	65746641 	ldrbvs	r6, [r4, #-1601]!	; 0xfffff9bf
    b330:	4d442072 	stclmi	0, cr2, [r4, #-456]	; 0xfffffe38
    b334:	706f2041 	rsbvc	r2, pc, r1, asr #32
    b338:	000a2073 	andeq	r2, sl, r3, ror r0
    b33c:	65746641 	ldrbvs	r6, [r4, #-1601]!	; 0xfffff9bf
    b340:	4d442072 	stclmi	0, cr2, [r4, #-456]	; 0xfffffe38
    b344:	65642041 	strbvs	r2, [r4, #-65]!	; 0xffffffbf
    b348:	6e697473 	mcrvs	4, 3, r7, cr9, cr3, {3}
    b34c:	6f697461 	svcvs	0x00697461
    b350:	6f6c206e 	svcvs	0x006c206e
    b354:	6c736b6f 	ldclvs	11, cr6, [r3], #-444	; 0xfffffe44
    b358:	20656b69 	rsbcs	r6, r5, r9, ror #22
    b35c:	0000000a 	andeq	r0, r0, sl
    b360:	6564200a 	strbvs	r2, [r4, #-10]!
    b364:	65636976 	strbvs	r6, [r3, #-2422]!	; 0xfffff68a
    b368:	3a646920 	bcc	19257f0 <__kernel_end+0x17bf7f0>
    b36c:	00782520 	rsbseq	r2, r8, r0, lsr #10
    b370:	6564200a 	strbvs	r2, [r4, #-10]!
    b374:	65636976 	strbvs	r6, [r3, #-2422]!	; 0xfffff68a
    b378:	61747320 	cmnvs	r4, r0, lsr #6
    b37c:	203a6574 	eorscs	r6, sl, r4, ror r5
    b380:	00007825 	andeq	r7, r0, r5, lsr #16
    b384:	6f48200a 	svcvs	0x0048200a
    b388:	63207473 			; <UNDEFINED> instruction: 0x63207473
    b38c:	72746e6f 	rsbsvc	r6, r4, #1776	; 0x6f0
    b390:	656c6c6f 	strbvs	r6, [ip, #-3183]!	; 0xfffff391
    b394:	69772072 	ldmdbvs	r7!, {r1, r4, r5, r6, sp}^
    b398:	65206874 	strvs	r6, [r0, #-2164]!	; 0xfffff78c
    b39c:	63657078 	cmnvs	r5, #120	; 0x78
    b3a0:	20646574 	rsbcs	r6, r4, r4, ror r5
    b3a4:	646e6576 	strbtvs	r6, [lr], #-1398	; 0xfffffa8a
    b3a8:	6920726f 	stmdbvs	r0!, {r0, r1, r2, r3, r5, r6, r9, ip, sp, lr}
    b3ac:	6f6e2064 	svcvs	0x006e2064
    b3b0:	6f662074 	svcvs	0x00662074
    b3b4:	2e646e75 	mcrcs	14, 3, r6, cr4, cr5, {3}
    b3b8:	6e657620 	cdpvs	6, 6, cr7, cr5, cr0, {1}
    b3bc:	5f726f64 	svcpl	0x00726f64
    b3c0:	203a6469 	eorscs	r6, sl, r9, ror #8
    b3c4:	00207825 	eoreq	r7, r0, r5, lsr #16
    b3c8:	6f48200a 	svcvs	0x0048200a
    b3cc:	63207473 			; <UNDEFINED> instruction: 0x63207473
    b3d0:	72746e6f 	rsbsvc	r6, r4, #1776	; 0x6f0
    b3d4:	656c6c6f 	strbvs	r6, [ip, #-3183]!	; 0xfffff391
    b3d8:	69772072 	ldmdbvs	r7!, {r1, r4, r5, r6, sp}^
    b3dc:	65206874 	strvs	r6, [r0, #-2164]!	; 0xfffff78c
    b3e0:	63657078 	cmnvs	r5, #120	; 0x78
    b3e4:	20646574 	rsbcs	r6, r4, r4, ror r5
    b3e8:	72657375 	rsbvc	r7, r5, #-738197503	; 0xd4000001
    b3ec:	20646920 	rsbcs	r6, r4, r0, lsr #18
    b3f0:	20746f6e 	rsbscs	r6, r4, lr, ror #30
    b3f4:	6e756f66 	cdpvs	15, 7, cr6, cr5, cr6, {3}
    b3f8:	75202e64 	strvc	r2, [r0, #-3684]!	; 0xfffff19c
    b3fc:	5f726573 	svcpl	0x00726573
    b400:	203a6469 	eorscs	r6, sl, r9, ror #8
    b404:	00207825 	eoreq	r7, r0, r5, lsr #16
    b408:	3a444348 	bcc	111c130 <__kernel_end+0xfb6130>
    b40c:	67657220 	strbvs	r7, [r5, -r0, lsr #4]!
    b410:	65747369 	ldrbvs	r7, [r4, #-873]!	; 0xfffffc97
    b414:	61207372 			; <UNDEFINED> instruction: 0x61207372
    b418:	636f6c6c 	cmnvs	pc, #108, 24	; 0x6c00
    b41c:	64657461 	strbtvs	r7, [r5], #-1121	; 0xfffffb9f
    b420:	6f727020 	svcvs	0x00727020
    b424:	20726570 	rsbscs	r6, r2, r0, ror r5
    b428:	6f6d656d 	svcvs	0x006d656d
    b42c:	00007972 	andeq	r7, r0, r2, ror r9
    b430:	44425355 	strbmi	r5, [r2], #-853	; 0xfffffcab
    b434:	6953203a 	ldmdbvs	r3, {r1, r3, r4, r5, sp}^
    b438:	6f20657a 	svcvs	0x0020657a
    b43c:	73752066 	cmnvc	r5, #102	; 0x66
    b440:	65642062 	strbvs	r2, [r4, #-98]!	; 0xffffff9e
    b444:	65636976 	strbvs	r6, [r3, #-2422]!	; 0xfffff68a
    b448:	71657220 	cmnvc	r5, r0, lsr #4
    b44c:	74736575 	ldrbtvc	r6, [r3], #-1397	; 0xfffffa8b
    b450:	64253a20 	strtvs	r3, [r5], #-2592	; 0xfffff5e0
    b454:	00000000 	andeq	r0, r0, r0
    b458:	44425355 	strbmi	r5, [r2], #-853	; 0xfffffcab
    b45c:	6241203a 	subvs	r2, r1, #58	; 0x3a
    b460:	2c74726f 	lfmcs	f7, 2, [r4], #-444	; 0xfffffe44
    b464:	44434820 	strbmi	r4, [r3], #-2080	; 0xfffff7e0
    b468:	69616620 	stmdbvs	r1!, {r5, r9, sl, sp, lr}^
    b46c:	2064656c 	rsbcs	r6, r4, ip, ror #10
    b470:	69206f74 	stmdbvs	r0!, {r2, r4, r5, r6, r8, r9, sl, fp, sp, lr}
    b474:	6974696e 	ldmdbvs	r4!, {r1, r2, r3, r5, r6, r8, fp, sp, lr}^
    b478:	73696c61 	cmnvc	r9, #24832	; 0x6100
    b47c:	000a2e65 	andeq	r2, sl, r5, ror #28
    b480:	6c41200a 	mcrrvs	0, 0, r2, r1, cr10
    b484:	61636f6c 	cmnvs	r3, ip, ror #30
    b488:	676e6974 			; <UNDEFINED> instruction: 0x676e6974
    b48c:	00642520 	rsbeq	r2, r4, r0, lsr #10
    b490:	74616c50 	strbtvc	r6, [r1], #-3152	; 0xfffff3b0
    b494:	6d726f66 	ldclvs	15, cr6, [r2, #-408]!	; 0xfffffe68
    b498:	6946203a 	stmdbvs	r6, {r1, r3, r4, r5, sp}^
    b49c:	20747372 	rsbscs	r7, r4, r2, ror r3
    b4a0:	6f6d656d 	svcvs	0x006d656d
    b4a4:	61207972 			; <UNDEFINED> instruction: 0x61207972
    b4a8:	636f6c6c 	cmnvs	pc, #108, 24	; 0x6c00
    b4ac:	6f697461 	svcvs	0x00697461
    b4b0:	72202c6e 	eorvc	r2, r0, #28160	; 0x6e00
    b4b4:	72657365 	rsbvc	r7, r5, #-1811939327	; 0x94000001
    b4b8:	676e6976 			; <UNDEFINED> instruction: 0x676e6976
    b4bc:	4b363120 	blmi	d97944 <__kernel_end+0xc31944>
    b4c0:	6f204269 	svcvs	0x00204269
    b4c4:	65682066 	strbvs	r2, [r8, #-102]!	; 0xffffff9a
    b4c8:	202c7061 	eorcs	r7, ip, r1, rrx
    b4cc:	20363532 	eorscs	r3, r6, r2, lsr r5
    b4d0:	72746e65 	rsbsvc	r6, r4, #1616	; 0x650
    b4d4:	2e736569 	cdpcs	5, 7, cr6, cr3, cr9, {3}
    b4d8:	0000000a 	andeq	r0, r0, sl
    b4dc:	74616c50 	strbtvc	r6, [r1], #-3152	; 0xfffff3b0
    b4e0:	6d726f66 	ldclvs	15, cr6, [r2, #-408]!	; 0xfffffe68
    b4e4:	754f203a 	strbvc	r2, [pc, #-58]	; b4b2 <digits_lc+0x436>
    b4e8:	666f2074 			; <UNDEFINED> instruction: 0x666f2074
    b4ec:	6d656d20 	stclvs	13, cr6, [r5, #-128]!	; 0xffffff80
    b4f0:	2179726f 	cmncs	r9, pc, ror #4
    b4f4:	20655720 	rsbcs	r5, r5, r0, lsr #14
    b4f8:	756f6873 	strbvc	r6, [pc, #-2163]!	; ac8d <__aeabi_idiv0+0x5d9>
    b4fc:	7627646c 	strtvc	r6, [r7], -ip, ror #8
    b500:	61682065 	cmnvs	r8, r5, rrx
    b504:	6f6d2064 	svcvs	0x006d2064
    b508:	68206572 	stmdavs	r0!, {r1, r4, r5, r6, r8, sl, sp, lr}
    b50c:	20706165 	rsbscs	r6, r0, r5, ror #2
    b510:	63617073 	cmnvs	r1, #115	; 0x73
    b514:	6e692065 	cdpvs	0, 6, cr2, cr9, cr5, {3}
    b518:	616c7020 	cmnvs	ip, r0, lsr #32
    b51c:	726f6674 	rsbvc	r6, pc, #116, 12	; 0x7400000
    b520:	2e632e6d 	cdpcs	14, 6, cr2, cr3, cr13, {3}
    b524:	0000000a 	andeq	r0, r0, sl
    b528:	74616c50 	strbtvc	r6, [r1], #-3152	; 0xfffff3b0
    b52c:	6d726f66 	ldclvs	15, cr6, [r2, #-408]!	; 0xfffffe68
    b530:	754f203a 	strbvc	r2, [pc, #-58]	; b4fe <digits_lc+0x482>
    b534:	666f2074 			; <UNDEFINED> instruction: 0x666f2074
    b538:	6d656d20 	stclvs	13, cr6, [r5, #-128]!	; 0xffffff80
    b53c:	2179726f 	cmncs	r9, pc, ror #4
    b540:	20655720 	rsbcs	r5, r5, r0, lsr #14
    b544:	756f6873 	strbvc	r6, [pc, #-2163]!	; acd9 <__aeabi_idiv0+0x625>
    b548:	7627646c 	strtvc	r6, [r7], -ip, ror #8
    b54c:	61682065 	cmnvs	r8, r5, rrx
    b550:	6f6d2064 	svcvs	0x006d2064
    b554:	61206572 			; <UNDEFINED> instruction: 0x61206572
    b558:	636f6c6c 	cmnvs	pc, #108, 24	; 0x6c00
    b55c:	6f697461 	svcvs	0x00697461
    b560:	6920736e 	stmdbvs	r0!, {r1, r2, r3, r5, r6, r8, r9, ip, sp, lr}
    b564:	6c70206e 	ldclvs	0, cr2, [r0], #-440	; 0xfffffe48
    b568:	6f667461 	svcvs	0x00667461
    b56c:	632e6d72 			; <UNDEFINED> instruction: 0x632e6d72
    b570:	00000a2e 	andeq	r0, r0, lr, lsr #20
    b574:	74616c50 	strbtvc	r6, [r1], #-3152	; 0xfffff3b0
    b578:	6d726f66 	ldclvs	15, cr6, [r2, #-408]!	; 0xfffffe68
    b57c:	616d203a 	cmnvs	sp, sl, lsr r0
    b580:	636f6c6c 	cmnvs	pc, #108, 24	; 0x6c00
    b584:	78232528 	stmdavc	r3!, {r3, r5, r8, sl, sp}
    b588:	203d2029 	eorscs	r2, sp, r9, lsr #32
    b58c:	2e782325 	cdpcs	3, 7, cr2, cr8, cr5, {1}
    b590:	64252820 	strtvs	r2, [r5], #-2080	; 0xfffff7e0
    b594:	2964252f 	stmdbcs	r4!, {r0, r1, r2, r3, r5, r8, sl, sp}^
    b598:	0000000a 	andeq	r0, r0, sl
    b59c:	74616c50 	strbtvc	r6, [r1], #-3152	; 0xfffff3b0
    b5a0:	6d726f66 	ldclvs	15, cr6, [r2, #-408]!	; 0xfffffe68
    b5a4:	7266203a 	rsbvc	r2, r6, #58	; 0x3a
    b5a8:	25286565 	strcs	r6, [r8, #-1381]!	; 0xfffffa9b
    b5ac:	20297823 	eorcs	r7, r9, r3, lsr #16
    b5b0:	2f642528 	svccs	0x00642528
    b5b4:	0a296425 	beq	a64650 <__kernel_end+0x8fe650>
    b5b8:	00000000 	andeq	r0, r0, r0
    b5bc:	74616c50 	strbtvc	r6, [r1], #-3152	; 0xfffff3b0
    b5c0:	6d726f66 	ldclvs	15, cr6, [r2, #-408]!	; 0xfffffe68
    b5c4:	6544203a 	strbvs	r2, [r4, #-58]	; 0xffffffc6
    b5c8:	6f6c6c61 	svcvs	0x006c6c61
    b5cc:	65746163 	ldrbvs	r6, [r4, #-355]!	; 0xfffffe9d
    b5d0:	656d2064 	strbvs	r2, [sp, #-100]!	; 0xffffff9c
    b5d4:	79726f6d 	ldmdbvc	r2!, {r0, r2, r3, r5, r6, r8, r9, sl, fp, sp, lr}^
    b5d8:	61687420 	cmnvs	r8, r0, lsr #8
    b5dc:	61772074 	cmnvs	r7, r4, ror r0
    b5e0:	656e2073 	strbvs	r2, [lr, #-115]!	; 0xffffff8d
    b5e4:	20726576 	rsbscs	r6, r2, r6, ror r5
    b5e8:	6f6c6c61 	svcvs	0x006c6c61
    b5ec:	65746163 	ldrbvs	r6, [r4, #-355]!	; 0xfffffe9d
    b5f0:	49202e64 	stmdbmi	r0!, {r2, r5, r6, r9, sl, fp, sp}
    b5f4:	726f6e67 	rsbvc	r6, pc, #1648	; 0x670
    b5f8:	202c6465 	eorcs	r6, ip, r5, ror #8
    b5fc:	20747562 	rsbscs	r7, r4, r2, ror #10
    b600:	20756f79 	rsbscs	r6, r5, r9, ror pc
    b604:	756f6873 	strbvc	r6, [pc, #-2163]!	; ad99 <__aeabi_idiv0+0x6e5>
    b608:	6c20646c 	cfstrsvs	mvf6, [r0], #-432	; 0xfffffe50
    b60c:	206b6f6f 	rsbcs	r6, fp, pc, ror #30
    b610:	6f746e69 	svcvs	0x00746e69
    b614:	2e746920 	cdpcs	9, 7, cr6, cr4, cr0, {1}
    b618:	0000000a 	andeq	r0, r0, sl
    b61c:	2d2d2d0a 	stccs	13, cr2, [sp, #-40]!	; 0xffffffd8
    b620:	2d2d2d2d 	stccs	13, cr2, [sp, #-180]!	; 0xffffff4c
    b624:	2d2d2d2d 	stccs	13, cr2, [sp, #-180]!	; 0xffffff4c
    b628:	2d2d2d2d 	stccs	13, cr2, [sp, #-180]!	; 0xffffff4c
    b62c:	654b2d2d 	strbvs	r2, [fp, #-3373]	; 0xfffff2d3
    b630:	6c656e72 	stclvs	14, cr6, [r5], #-456	; 0xfffffe38
    b634:	61745320 	cmnvs	r4, r0, lsr #6
    b638:	64657472 	strbtvs	r7, [r5], #-1138	; 0xfffffb8e
    b63c:	64754420 	ldrbtvs	r4, [r5], #-1056	; 0xfffffbe0
    b640:	2e2e2e65 	cdpcs	14, 2, cr2, cr14, cr5, {3}
    b644:	2e2e2e2e 	cdpcs	14, 2, cr2, cr14, cr14, {1}
    b648:	2e2e2e2e 	cdpcs	14, 2, cr2, cr14, cr14, {1}
    b64c:	2e2e2e2e 	cdpcs	14, 2, cr2, cr14, cr14, {1}
    b650:	2e2e2e2e 	cdpcs	14, 2, cr2, cr14, cr14, {1}
    b654:	2e2e2e2e 	cdpcs	14, 2, cr2, cr14, cr14, {1}
    b658:	00000a2e 	andeq	r0, r0, lr, lsr #20
    b65c:	654b200a 	strbvs	r2, [fp, #-10]
    b660:	6c656e72 	stclvs	14, cr6, [r5], #-456	; 0xfffffe38
    b664:	646e4520 	strbtvs	r4, [lr], #-1312	; 0xfffffae0
    b668:	7830203a 	ldmdavc	r0!, {r1, r3, r4, r5, sp}
    b66c:	0a207825 	beq	829708 <__kernel_end+0x6c3708>
    b670:	00000000 	andeq	r0, r0, r0
    b674:	6c756e28 	ldclvs	14, cr6, [r5], #-160	; 0xffffff60
    b678:	0000296c 	andeq	r2, r0, ip, ror #18

Disassembly of section .data:

0000c000 <__data_start>:
    c000:	00000004 	andeq	r0, r0, r4

0000c004 <usb_hcd_device_id>:
    c004:	00000003 	andeq	r0, r0, r3

0000c008 <FirstAllocation>:
    c008:	ffffffff 			; <UNDEFINED> instruction: 0xffffffff

Disassembly of section .got:

0000c00c <.got>:
    c00c:	0000c004 	andeq	ip, r0, r4
    c010:	0001538c 	andeq	r5, r1, ip, lsl #7
    c014:	00024000 	andeq	r4, r2, r0
    c018:	00166000 	andseq	r6, r6, r0
    c01c:	0001a000 	andeq	sl, r1, r0
    c020:	00146000 	andseq	r6, r4, r0
    c024:	00126000 	andseq	r6, r2, r0
    c028:	0000d000 	andeq	sp, r0, r0
    c02c:	0000c008 	andeq	ip, r0, r8
    c030:	0000c000 	andeq	ip, r0, r0
    c034:	00015388 	andeq	r5, r1, r8, lsl #7
    c038:	000153a8 	andeq	r5, r1, r8, lsr #7
    c03c:	00156000 	andseq	r6, r5, r0
    c040:	000193a8 	andeq	r9, r1, r8, lsr #7
    c044:	00125000 	andseq	r5, r2, r0
    c048:	00015384 	andeq	r5, r1, r4, lsl #7

Disassembly of section .got.plt:

0000c04c <_GLOBAL_OFFSET_TABLE_>:
	...

Disassembly of section .bss:

0000d000 <__bss_start>:
	...

0000d120 <clearers>:
	...

0000d240 <count_irqs>:
	...

0000d250 <pt>:
	...

00015250 <pt_index>:
   15250:	00000000 	andeq	r0, r0, r0

00015254 <property.4299>:
	...

0001535c <timer_regs>:
   1535c:	00000000 	andeq	r0, r0, r0

00015360 <MMUTABLEBASE>:
   15360:	00000000 	andeq	r0, r0, r0

00015364 <all_pages_array>:
   15364:	00000000 	andeq	r0, r0, r0

00015368 <arm_mem_size>:
   15368:	00000000 	andeq	r0, r0, r0

0001536c <num_pages>:
   1536c:	00000000 	andeq	r0, r0, r0

00015370 <databuffer>:
   15370:	00000000 	andeq	r0, r0, r0

00015374 <PhyInitialised>:
   15374:	00000000 	andeq	r0, r0, r0

00015378 <Power>:
   15378:	00000000 	andeq	r0, r0, r0

0001537c <Host>:
   1537c:	00000000 	andeq	r0, r0, r0

00015380 <Core>:
   15380:	00000000 	andeq	r0, r0, r0

00015384 <allocated>:
   15384:	00000000 	andeq	r0, r0, r0

00015388 <FirstFreeAllocation>:
   15388:	00000000 	andeq	r0, r0, r0

0001538c <free_pages>:
	...

00015398 <CorePhysical>:
   15398:	00000000 	andeq	r0, r0, r0

0001539c <HostPhysical>:
   1539c:	00000000 	andeq	r0, r0, r0

000153a0 <PowerPhysical>:
	...

000153a8 <Heap>:
	...

000193a8 <Allocations>:
	...

Disassembly of section .ARM.attributes:

00000000 <.ARM.attributes>:
   0:	00003241 	andeq	r3, r0, r1, asr #4
   4:	61656100 	cmnvs	r5, r0, lsl #2
   8:	01006962 	tsteq	r0, r2, ror #18
   c:	00000028 	andeq	r0, r0, r8, lsr #32
  10:	412d3805 			; <UNDEFINED> instruction: 0x412d3805
  14:	070e0600 	streq	r0, [lr, -r0, lsl #12]
  18:	09010841 	stmdbeq	r1, {r0, r6, fp}
  1c:	0c070a02 	stceq	10, cr0, [r7], {2}
  20:	14041203 	strne	r1, [r4], #-515	; 0xfffffdfd
  24:	17011501 	strne	r1, [r1, -r1, lsl #10]
  28:	1a011803 	bne	4603c <__first_lvl_tbl_end+0x2103c>
  2c:	2a012201 	bcs	48838 <__first_lvl_tbl_end+0x23838>
  30:	Address 0x0000000000000030 is out of bounds.


Disassembly of section .comment:

00000000 <.comment>:
   0:	3a434347 	bcc	10d0d24 <__kernel_end+0xf6ad24>
   4:	4e472820 	cdpmi	8, 4, cr2, cr7, cr0, {1}
   8:	6f542055 	svcvs	0x00542055
   c:	20736c6f 	rsbscs	r6, r3, pc, ror #24
  10:	20726f66 	rsbscs	r6, r2, r6, ror #30
  14:	204d5241 	subcs	r5, sp, r1, asr #4
  18:	65626d45 	strbvs	r6, [r2, #-3397]!	; 0xfffff2bb
  1c:	64656464 	strbtvs	r6, [r5], #-1124	; 0xfffffb9c
  20:	6f725020 	svcvs	0x00725020
  24:	73736563 	cmnvc	r3, #415236096	; 0x18c00000
  28:	2973726f 	ldmdbcs	r3!, {r0, r1, r2, r3, r5, r6, r9, ip, sp, lr}^
  2c:	342e3520 	strtcc	r3, [lr], #-1312	; 0xfffffae0
  30:	3220312e 	eorcc	r3, r0, #-2147483637	; 0x8000000b
  34:	30363130 	eorscc	r3, r6, r0, lsr r1
  38:	20393139 	eorscs	r3, r9, r9, lsr r1
  3c:	6c657228 	sfmvs	f7, 2, [r5], #-160	; 0xffffff60
  40:	65736165 	ldrbvs	r6, [r3, #-357]!	; 0xfffffe9b
  44:	415b2029 	cmpmi	fp, r9, lsr #32
  48:	652f4d52 	strvs	r4, [pc, #-3410]!	; fffff2fe <__kernel_end+0xffe992fe>
  4c:	6465626d 	strbtvs	r6, [r5], #-621	; 0xfffffd93
  50:	2d646564 	cfstr64cs	mvdx6, [r4, #-400]!	; 0xfffffe70
  54:	72622d35 	rsbvc	r2, r2, #3392	; 0xd40
  58:	68636e61 	stmdavs	r3!, {r0, r5, r6, r9, sl, fp, sp, lr}^
  5c:	76657220 	strbtvc	r7, [r5], -r0, lsr #4
  60:	6f697369 	svcvs	0x00697369
  64:	3432206e 	ldrtcc	r2, [r2], #-110	; 0xffffff92
  68:	36393430 			; <UNDEFINED> instruction: 0x36393430
  6c:	Address 0x000000000000006c is out of bounds.


Disassembly of section .debug_line:

00000000 <.debug_line>:
       0:	000000bd 	strheq	r0, [r0], -sp
       4:	00260002 	eoreq	r0, r6, r2
       8:	01020000 	mrseq	r0, (UNDEF: 2)
       c:	000d0efb 	strdeq	r0, [sp], -fp
      10:	01010101 	tsteq	r1, r1, lsl #2
      14:	01000000 	mrseq	r0, (UNDEF: 0)
      18:	61010000 	mrsvs	r0, (UNDEF: 1)
      1c:	2f686372 	svccs	0x00686372
      20:	006d7261 	rsbeq	r7, sp, r1, ror #4
      24:	6f6f6200 	svcvs	0x006f6200
      28:	00532e74 	subseq	r2, r3, r4, ror lr
      2c:	00000001 	andeq	r0, r0, r1
      30:	00020500 	andeq	r0, r2, r0, lsl #10
      34:	03000080 	movweq	r0, #128	; 0x80
      38:	2f2f012a 	svccs	0x002f012a
      3c:	2f2f2f2f 	svccs	0x002f2f2f
      40:	080d032f 	stmdaeq	sp, {r0, r1, r2, r3, r5, r8, r9}
      44:	2f2f2f20 	svccs	0x002f2f20
      48:	322f302f 	eorcc	r3, pc, #47	; 0x2f
      4c:	302f2f2f 	eorcc	r2, pc, pc, lsr #30
      50:	2f2f2f2f 	svccs	0x002f2f2f
      54:	312f302f 			; <UNDEFINED> instruction: 0x312f302f
      58:	2f2f2f2f 	svccs	0x002f2f2f
      5c:	2f2f312f 	svccs	0x002f312f
      60:	312f2f32 			; <UNDEFINED> instruction: 0x312f2f32
      64:	30332f2f 	eorscc	r2, r3, pc, lsr #30
      68:	31302f30 	teqcc	r0, r0, lsr pc
      6c:	32333230 	eorscc	r3, r3, #48, 4
      70:	322f322f 	eorcc	r3, pc, #-268435454	; 0xf0000002
      74:	2f2f2f32 	svccs	0x002f2f32
      78:	32312f32 	eorscc	r2, r1, #50, 30	; 0xc8
      7c:	312f2f2f 			; <UNDEFINED> instruction: 0x312f2f2f
      80:	2f2f2f2f 	svccs	0x002f2f2f
      84:	2f2f2f2f 	svccs	0x002f2f2f
      88:	322f2f2f 	eorcc	r2, pc, #47, 30	; 0xbc
      8c:	2f312f2f 	svccs	0x00312f2f
      90:	302f302f 	eorcc	r3, pc, pc, lsr #32
      94:	31302f2f 	teqcc	r0, pc, lsr #30
      98:	2f2f2f2f 	svccs	0x002f2f2f
      9c:	2f2f2f2f 	svccs	0x002f2f2f
      a0:	2f2f2f2f 	svccs	0x002f2f2f
      a4:	302f2f2f 	eorcc	r2, pc, pc, lsr #30
      a8:	2f2f2f32 	svccs	0x002f2f32
      ac:	2f322f2f 	svccs	0x00322f2f
      b0:	2f342f2f 	svccs	0x00342f2f
      b4:	032f2f32 			; <UNDEFINED> instruction: 0x032f2f32
      b8:	342e7ee4 	strtcc	r7, [lr], #-3812	; 0xfffff11c
      bc:	01000202 	tsteq	r0, r2, lsl #4
      c0:	00009f01 	andeq	r9, r0, r1, lsl #30
      c4:	86000200 	strhi	r0, [r0], -r0, lsl #4
      c8:	02000000 	andeq	r0, r0, #0
      cc:	0d0efb01 	vstreq	d15, [lr, #-4]
      d0:	01010100 	mrseq	r0, (UNDEF: 17)
      d4:	00000001 	andeq	r0, r0, r1
      d8:	01000001 	tsteq	r0, r1
      dc:	68637261 	stmdavs	r3!, {r0, r5, r6, r9, ip, sp, lr}^
      e0:	6d72612f 	ldfvse	f6, [r2, #-188]!	; 0xffffff44
      e4:	73552f00 	cmpvc	r5, #0, 30
      e8:	2f737265 	svccs	0x00737265
      ec:	6b617270 	blvs	185cab4 <__kernel_end+0x16f6ab4>
      f0:	62687361 	rsbvs	r7, r8, #-2080374783	; 0x84000001
      f4:	616b726f 	cmnvs	fp, pc, ror #4
      f8:	63672f72 	cmnvs	r7, #456	; 0x1c8
      fc:	72612d63 	rsbvc	r2, r1, #6336	; 0x18c0
     100:	6f6e2d6d 	svcvs	0x006e2d6d
     104:	652d656e 	strvs	r6, [sp, #-1390]!	; 0xfffffa92
     108:	2f696261 	svccs	0x00696261
     10c:	2f62696c 	svccs	0x0062696c
     110:	2f636367 	svccs	0x00636367
     114:	2d6d7261 	sfmcs	f7, 2, [sp, #-388]!	; 0xfffffe7c
     118:	656e6f6e 	strbvs	r6, [lr, #-3950]!	; 0xfffff092
     11c:	6261652d 	rsbvs	r6, r1, #188743680	; 0xb400000
     120:	2e352f69 	cdpcs	15, 3, cr2, cr5, cr9, {3}
     124:	2f312e34 	svccs	0x00312e34
     128:	6c636e69 	stclvs	14, cr6, [r3], #-420	; 0xfffffe5c
     12c:	00656475 	rsbeq	r6, r5, r5, ror r4
     130:	73736200 	cmnvc	r3, #0, 4
     134:	656c632d 	strbvs	r6, [ip, #-813]!	; 0xfffffcd3
     138:	632e7261 			; <UNDEFINED> instruction: 0x632e7261
     13c:	00000100 	andeq	r0, r0, r0, lsl #2
     140:	69647473 	stmdbvs	r4!, {r0, r1, r4, r5, r6, sl, ip, sp, lr}^
     144:	672d746e 	strvs	r7, [sp, -lr, ror #8]!
     148:	682e6363 	stmdavs	lr!, {r0, r1, r5, r6, r8, r9, sp, lr}
     14c:	00000200 	andeq	r0, r0, r0, lsl #4
     150:	02050000 	andeq	r0, r5, #0
     154:	00008214 	andeq	r8, r0, r4, lsl r2
     158:	08324a19 	ldmdaeq	r2!, {r0, r3, r4, r9, fp, lr}
     15c:	024d9d21 	subeq	r9, sp, #2112	; 0x840
     160:	0101000a 	tsteq	r1, sl
     164:	000000d6 	ldrdeq	r0, [r0], -r6
     168:	00be0002 	adcseq	r0, lr, r2
     16c:	01020000 	mrseq	r0, (UNDEF: 2)
     170:	000d0efb 	strdeq	r0, [sp], -fp
     174:	01010101 	tsteq	r1, r1, lsl #2
     178:	01000000 	mrseq	r0, (UNDEF: 0)
     17c:	61010000 	mrsvs	r0, (UNDEF: 1)
     180:	2f686372 	svccs	0x00686372
     184:	006d7261 	rsbeq	r7, sp, r1, ror #4
     188:	6c636e69 	stclvs	14, cr6, [r3], #-420	; 0xfffffe5c
     18c:	2f656475 	svccs	0x00656475
     190:	6e72656b 	cdpvs	5, 7, cr6, cr2, cr11, {3}
     194:	2f006c65 	svccs	0x00006c65
     198:	72657355 	rsbvc	r7, r5, #1409286145	; 0x54000001
     19c:	72702f73 	rsbsvc	r2, r0, #460	; 0x1cc
     1a0:	73616b61 	cmnvc	r1, #99328	; 0x18400
     1a4:	726f6268 	rsbvc	r6, pc, #104, 4	; 0x80000006
     1a8:	2f72616b 	svccs	0x0072616b
     1ac:	2d636367 	stclcs	3, cr6, [r3, #-412]!	; 0xfffffe64
     1b0:	2d6d7261 	sfmcs	f7, 2, [sp, #-388]!	; 0xfffffe7c
     1b4:	656e6f6e 	strbvs	r6, [lr, #-3950]!	; 0xfffff092
     1b8:	6261652d 	rsbvs	r6, r1, #188743680	; 0xb400000
     1bc:	696c2f69 	stmdbvs	ip!, {r0, r3, r5, r6, r8, r9, sl, fp, sp}^
     1c0:	63672f62 	cmnvs	r7, #392	; 0x188
     1c4:	72612f63 	rsbvc	r2, r1, #396	; 0x18c
     1c8:	6f6e2d6d 	svcvs	0x006e2d6d
     1cc:	652d656e 	strvs	r6, [sp, #-1390]!	; 0xfffffa92
     1d0:	2f696261 	svccs	0x00696261
     1d4:	2e342e35 	mrccs	14, 1, r2, cr4, cr5, {1}
     1d8:	6e692f31 	mcrvs	15, 3, r2, cr9, cr1, {1}
     1dc:	64756c63 	ldrbtvs	r6, [r5], #-3171	; 0xfffff39d
     1e0:	72000065 	andvc	r0, r0, #101	; 0x65
     1e4:	612d6970 			; <UNDEFINED> instruction: 0x612d6970
     1e8:	69746d72 	ldmdbvs	r4!, {r1, r4, r5, r6, r8, sl, fp, sp, lr}^
     1ec:	2e72656d 	cdpcs	5, 7, cr6, cr2, cr13, {3}
     1f0:	00010063 	andeq	r0, r1, r3, rrx
     1f4:	69707200 	ldmdbvs	r0!, {r9, ip, sp, lr}^
     1f8:	6d72612d 	ldfvse	f6, [r2, #-180]!	; 0xffffff4c
     1fc:	656d6974 	strbvs	r6, [sp, #-2420]!	; 0xfffff68c
     200:	00682e72 	rsbeq	r2, r8, r2, ror lr
     204:	73000002 	movwvc	r0, #2
     208:	6e696474 	mcrvs	4, 3, r6, cr9, cr4, {3}
     20c:	63672d74 	cmnvs	r7, #116, 26	; 0x1d00
     210:	00682e63 	rsbeq	r2, r8, r3, ror #28
     214:	72000003 	andvc	r0, r0, #3
     218:	692d6970 	pushvs	{r4, r5, r6, r8, fp, sp, lr}
     21c:	7265746e 	rsbvc	r7, r5, #1845493760	; 0x6e000000
     220:	74707572 	ldrbtvc	r7, [r0], #-1394	; 0xfffffa8e
     224:	00682e73 	rsbeq	r2, r8, r3, ror lr
     228:	00000002 	andeq	r0, r0, r2
     22c:	74020500 	strvc	r0, [r2], #-1280	; 0xfffffb00
     230:	19000082 	stmdbne	r0, {r1, r7}
     234:	672f6914 			; <UNDEFINED> instruction: 0x672f6914
     238:	00080267 	andeq	r0, r8, r7, ror #4
     23c:	023d0101 	eorseq	r0, sp, #1073741824	; 0x40000000
     240:	00020000 	andeq	r0, r2, r0
     244:	00000143 	andeq	r0, r0, r3, asr #2
     248:	0efb0102 	cdpeq	1, 15, cr0, cr11, cr2, {0}
     24c:	0101000d 	tsteq	r1, sp
     250:	00000101 	andeq	r0, r0, r1, lsl #2
     254:	00000100 	andeq	r0, r0, r0, lsl #2
     258:	63726101 	cmnvs	r2, #1073741824	; 0x40000000
     25c:	72612f68 	rsbvc	r2, r1, #104, 30	; 0x1a0
     260:	6e69006d 	cdpvs	0, 6, cr0, cr9, cr13, {3}
     264:	64756c63 	ldrbtvs	r6, [r5], #-3171	; 0xfffff39d
     268:	656b2f65 	strbvs	r2, [fp, #-3941]!	; 0xfffff09b
     26c:	6c656e72 	stclvs	14, cr6, [r5], #-456	; 0xfffffe38
     270:	73552f00 	cmpvc	r5, #0, 30
     274:	2f737265 	svccs	0x00737265
     278:	6b617270 	blvs	185cc40 <__kernel_end+0x16f6c40>
     27c:	62687361 	rsbvs	r7, r8, #-2080374783	; 0x84000001
     280:	616b726f 	cmnvs	fp, pc, ror #4
     284:	63672f72 	cmnvs	r7, #456	; 0x1c8
     288:	72612d63 	rsbvc	r2, r1, #6336	; 0x18c0
     28c:	6f6e2d6d 	svcvs	0x006e2d6d
     290:	652d656e 	strvs	r6, [sp, #-1390]!	; 0xfffffa92
     294:	2f696261 	svccs	0x00696261
     298:	2f62696c 	svccs	0x0062696c
     29c:	2f636367 	svccs	0x00636367
     2a0:	2d6d7261 	sfmcs	f7, 2, [sp, #-388]!	; 0xfffffe7c
     2a4:	656e6f6e 	strbvs	r6, [lr, #-3950]!	; 0xfffff092
     2a8:	6261652d 	rsbvs	r6, r1, #188743680	; 0xb400000
     2ac:	2e352f69 	cdpcs	15, 3, cr2, cr5, cr9, {3}
     2b0:	2f312e34 	svccs	0x00312e34
     2b4:	6c636e69 	stclvs	14, cr6, [r3], #-420	; 0xfffffe5c
     2b8:	00656475 	rsbeq	r6, r5, r5, ror r4
     2bc:	6c636e69 	stclvs	14, cr6, [r3], #-420	; 0xfffffe5c
     2c0:	2f656475 	svccs	0x00656475
     2c4:	69766564 	ldmdbvs	r6!, {r2, r5, r6, r8, sl, sp, lr}^
     2c8:	2f006563 	svccs	0x00006563
     2cc:	72657355 	rsbvc	r7, r5, #1409286145	; 0x54000001
     2d0:	72702f73 	rsbsvc	r2, r0, #460	; 0x1cc
     2d4:	73616b61 	cmnvc	r1, #99328	; 0x18400
     2d8:	726f6268 	rsbvc	r6, pc, #104, 4	; 0x80000006
     2dc:	2f72616b 	svccs	0x0072616b
     2e0:	6b736544 	blvs	1cd97f8 <__kernel_end+0x1b737f8>
     2e4:	2f706f74 	svccs	0x00706f74
     2e8:	6f6d6552 	svcvs	0x006d6552
     2ec:	525f6574 	subspl	r6, pc, #116, 10	; 0x1d000000
     2f0:	2f6f7065 	svccs	0x006f7065
     2f4:	2d697072 	stclcs	0, cr7, [r9, #-456]!	; 0xfffffe38
     2f8:	752d736f 	strvc	r7, [sp, #-879]!	; 0xfffffc91
     2fc:	2f747261 	svccs	0x00747261
     300:	33697072 	cmncc	r9, #114	; 0x72
     304:	656d2d62 	strbvs	r2, [sp, #-3426]!	; 0xfffff29e
     308:	2d797461 	cfldrdcs	mvd7, [r9, #-388]!	; 0xfffffe7c
     30c:	6c656b73 	stclvs	11, cr6, [r5], #-460	; 0xfffffe34
     310:	6e6f7465 	cdpvs	4, 6, cr7, cr15, cr5, {3}
     314:	7379732f 	cmnvc	r9, #-1140850688	; 0xbc000000
     318:	746f6f72 	strbtvc	r6, [pc], #-3954	; 320 <ARM_I_BIT+0x2a0>
     31c:	7273752f 	rsbsvc	r7, r3, #197132288	; 0xbc00000
     320:	636e692f 	cmnvs	lr, #770048	; 0xbc000
     324:	6564756c 	strbvs	r7, [r4, #-1388]!	; 0xfffffa94
     328:	696c702f 	stmdbvs	ip!, {r0, r1, r2, r3, r5, ip, sp, lr}^
     32c:	00006362 	andeq	r6, r0, r2, ror #6
     330:	2d697072 	stclcs	0, cr7, [r9, #-456]!	; 0xfffffe38
     334:	65746e69 	ldrbvs	r6, [r4, #-3689]!	; 0xfffff197
     338:	70757272 	rsbsvc	r7, r5, r2, ror r2
     33c:	632e7374 			; <UNDEFINED> instruction: 0x632e7374
     340:	00000100 	andeq	r0, r0, r0, lsl #2
     344:	2d697072 	stclcs	0, cr7, [r9, #-456]!	; 0xfffffe38
     348:	65746e69 	ldrbvs	r6, [r4, #-3689]!	; 0xfffff197
     34c:	70757272 	rsbsvc	r7, r5, r2, ror r2
     350:	682e7374 	stmdavs	lr!, {r2, r4, r5, r6, r8, r9, ip, sp, lr}
     354:	00000200 	andeq	r0, r0, r0, lsl #4
     358:	64647473 	strbtvs	r7, [r4], #-1139	; 0xfffffb8d
     35c:	682e6665 	stmdavs	lr!, {r0, r2, r5, r6, r9, sl, sp, lr}
     360:	00000300 	andeq	r0, r0, r0, lsl #6
     364:	69647473 	stmdbvs	r4!, {r0, r1, r4, r5, r6, sl, ip, sp, lr}^
     368:	672d746e 	strvs	r7, [sp, -lr, ror #8]!
     36c:	682e6363 	stmdavs	lr!, {r0, r1, r5, r6, r8, r9, sp, lr}
     370:	00000300 	andeq	r0, r0, r0, lsl #6
     374:	74726175 	ldrbtvc	r6, [r2], #-373	; 0xfffffe8b
     378:	00682e30 	rsbeq	r2, r8, r0, lsr lr
     37c:	73000004 	movwvc	r0, #4
     380:	6f696474 	svcvs	0x00696474
     384:	0500682e 	streq	r6, [r0, #-2094]	; 0xfffff7d2
     388:	00000000 	andeq	r0, r0, r0
     38c:	82ac0205 	adchi	r0, ip, #1342177280	; 0x50000000
     390:	21030000 	mrscs	r0, (UNDEF: 3)
     394:	0a031401 	beq	c53a0 <__first_lvl_tbl_end+0xa03a0>
     398:	0c034b66 	stceq	11, cr4, [r3], {102}	; 0x66
     39c:	0c032f9e 	stceq	15, cr2, [r3], {158}	; 0x9e
     3a0:	4ba22f9e 	blmi	fe88c220 <__kernel_end+0xfe726220>
     3a4:	4ba44ba4 	blmi	fe91323c <__kernel_end+0xfe7ad23c>
     3a8:	139e1303 	orrsne	r1, lr, #201326592	; 0xc000000
     3ac:	2c302f2d 	ldccs	15, cr2, [r0], #-180	; 0xffffff4c
     3b0:	00337d33 	eorseq	r7, r3, r3, lsr sp
     3b4:	47020402 	strmi	r0, [r2, -r2, lsl #8]
     3b8:	04020085 	streq	r0, [r2], #-133	; 0xffffff7b
     3bc:	004a0604 	subeq	r0, sl, r4, lsl #12
     3c0:	4a080402 	bmi	2013d0 <__kernel_end+0x9b3d0>
     3c4:	09040200 	stmdbeq	r4, {r9}
     3c8:	0402004a 	streq	r0, [r2], #-74	; 0xffffffb6
     3cc:	8406660a 	strhi	r6, [r6], #-1546	; 0xfffff9f6
     3d0:	4e030204 	cdpmi	2, 0, cr0, cr3, cr4, {0}
     3d4:	044c3566 	strbeq	r3, [ip], #-1382	; 0xfffffa9a
     3d8:	2e2b0301 	cdpcs	3, 2, cr0, cr11, cr1, {0}
     3dc:	4c030204 	sfmmi	f0, 4, [r3], {4}
     3e0:	2e110382 	cdpcs	3, 1, cr0, cr1, cr2, {4}
     3e4:	0001044c 	andeq	r0, r1, ip, asr #8
     3e8:	03010402 	movweq	r0, #5122	; 0x1402
     3ec:	02004a1d 	andeq	r4, r0, #118784	; 0x1d000
     3f0:	ba060504 	blt	181808 <__kernel_end+0x1b808>
     3f4:	d60c0306 	strle	r0, [ip], -r6, lsl #6
     3f8:	35302c14 	ldrcc	r2, [r0, #-3092]!	; 0xfffff3ec
     3fc:	30820a03 	addcc	r0, r2, r3, lsl #20
     400:	2f2d3048 	svccs	0x002d3048
     404:	032f2f2c 			; <UNDEFINED> instruction: 0x032f2f2c
     408:	48306677 	ldmdami	r0!, {r0, r1, r2, r4, r5, r6, r9, sl, sp, lr}
     40c:	2c2f2d30 	stccs	13, cr2, [pc], #-192	; 354 <ARM_I_BIT+0x2d4>
     410:	032f2d30 			; <UNDEFINED> instruction: 0x032f2d30
     414:	48304a77 	ldmdami	r0!, {r0, r1, r2, r4, r5, r6, r9, fp, lr}
     418:	482f2d30 	stmdami	pc!, {r4, r5, r8, sl, fp, sp}	; <UNPREDICTABLE>
     41c:	16032f2f 	strne	r2, [r3], -pc, lsr #30
     420:	302c14ba 	strhtcc	r1, [ip], -sl
     424:	820a0336 	andhi	r0, sl, #-671088640	; 0xd8000000
     428:	2d304830 	ldccs	8, cr4, [r0, #-192]!	; 0xffffff40
     42c:	2f2c302d 	svccs	0x002c302d
     430:	6677032f 	ldrbtvs	r0, [r7], -pc, lsr #6
     434:	2d304830 	ldccs	8, cr4, [r0, #-192]!	; 0xffffff40
     438:	302c302d 	eorcc	r3, ip, sp, lsr #32
     43c:	76032f2d 	strvc	r2, [r3], -sp, lsr #30
     440:	3147314a 	cmpcc	r7, sl, asr #2
     444:	4b47302c 	blmi	11cc4fc <__kernel_end+0x10664fc>
     448:	ba170330 	blt	5c1110 <__kernel_end+0x45b110>
     44c:	00312b17 	eorseq	r2, r1, r7, lsl fp
     450:	68030402 	stmdavs	r3, {r1, sl}
     454:	03040200 	movweq	r0, #16896	; 0x4200
     458:	13314f2c 	teqne	r1, #44, 30	; 0xb0
     45c:	667f9503 	ldrbtvs	r9, [pc], -r3, lsl #10
     460:	0302042f 	movweq	r0, #9263	; 0x242f
     464:	11032e64 	tstne	r3, r4, ror #28
     468:	01044c2e 	tsteq	r4, lr, lsr #24
     46c:	9f2e0b03 	svcls	0x002e0b03
     470:	042f8367 	strteq	r8, [pc], #-871	; 478 <ARM_I_BIT+0x3f8>
     474:	2e5e0302 	cdpcs	3, 5, cr0, cr14, cr2, {0}
     478:	06024c35 			; <UNDEFINED> instruction: 0x06024c35
     47c:	d4010100 	strle	r0, [r1], #-256	; 0xffffff00
     480:	02000000 	andeq	r0, r0, #0
     484:	0000a800 	andeq	sl, r0, r0, lsl #16
     488:	fb010200 	blx	40c92 <__first_lvl_tbl_end+0x1bc92>
     48c:	01000d0e 	tsteq	r0, lr, lsl #26
     490:	00010101 	andeq	r0, r1, r1, lsl #2
     494:	00010000 	andeq	r0, r1, r0
     498:	72610100 	rsbvc	r0, r1, #0, 2
     49c:	612f6863 			; <UNDEFINED> instruction: 0x612f6863
     4a0:	2f006d72 	svccs	0x00006d72
     4a4:	72657355 	rsbvc	r7, r5, #1409286145	; 0x54000001
     4a8:	72702f73 	rsbsvc	r2, r0, #460	; 0x1cc
     4ac:	73616b61 	cmnvc	r1, #99328	; 0x18400
     4b0:	726f6268 	rsbvc	r6, pc, #104, 4	; 0x80000006
     4b4:	2f72616b 	svccs	0x0072616b
     4b8:	2d636367 	stclcs	3, cr6, [r3, #-412]!	; 0xfffffe64
     4bc:	2d6d7261 	sfmcs	f7, 2, [sp, #-388]!	; 0xfffffe7c
     4c0:	656e6f6e 	strbvs	r6, [lr, #-3950]!	; 0xfffff092
     4c4:	6261652d 	rsbvs	r6, r1, #188743680	; 0xb400000
     4c8:	696c2f69 	stmdbvs	ip!, {r0, r3, r5, r6, r8, r9, sl, fp, sp}^
     4cc:	63672f62 	cmnvs	r7, #392	; 0x188
     4d0:	72612f63 	rsbvc	r2, r1, #396	; 0x18c
     4d4:	6f6e2d6d 	svcvs	0x006e2d6d
     4d8:	652d656e 	strvs	r6, [sp, #-1390]!	; 0xfffffa92
     4dc:	2f696261 	svccs	0x00696261
     4e0:	2e342e35 	mrccs	14, 1, r2, cr4, cr5, {1}
     4e4:	6e692f31 	mcrvs	15, 3, r2, cr9, cr1, {1}
     4e8:	64756c63 	ldrbtvs	r6, [r5], #-3171	; 0xfffff39d
     4ec:	6e690065 	cdpvs	0, 6, cr0, cr9, cr5, {3}
     4f0:	64756c63 	ldrbtvs	r6, [r5], #-3171	; 0xfffff39d
     4f4:	656b2f65 	strbvs	r2, [fp, #-3941]!	; 0xfffff09b
     4f8:	6c656e72 	stclvs	14, cr6, [r5], #-456	; 0xfffffe38
     4fc:	70720000 	rsbsvc	r0, r2, r0
     500:	616d2d69 	cmnvs	sp, r9, ror #26
     504:	6f626c69 	svcvs	0x00626c69
     508:	00632e78 	rsbeq	r2, r3, r8, ror lr
     50c:	73000001 	movwvc	r0, #1
     510:	6e696474 	mcrvs	4, 3, r6, cr9, cr4, {3}
     514:	63672d74 	cmnvs	r7, #116, 26	; 0x1d00
     518:	00682e63 	rsbeq	r2, r8, r3, ror #28
     51c:	72000002 	andvc	r0, r0, #2
     520:	6d2d6970 	stcvs	9, cr6, [sp, #-448]!	; 0xfffffe40
     524:	626c6961 	rsbvs	r6, ip, #1589248	; 0x184000
     528:	682e786f 	stmdavs	lr!, {r0, r1, r2, r3, r5, r6, fp, ip, sp, lr}
     52c:	00000300 	andeq	r0, r0, r0, lsl #6
     530:	02050000 	andeq	r0, r5, #0
     534:	0000865c 	andeq	r8, r0, ip, asr r6
     538:	17010a03 	strne	r0, [r1, -r3, lsl #20]
     53c:	02004633 	andeq	r4, r0, #53477376	; 0x3300000
     540:	a3320104 	teqge	r2, #4, 2
     544:	0200184e 	andeq	r1, r0, #5111808	; 0x4e0000
     548:	c04e0104 	subgt	r0, lr, r4, lsl #2
     54c:	032e7603 			; <UNDEFINED> instruction: 0x032e7603
     550:	0202ba0f 	andeq	fp, r2, #61440	; 0xf000
     554:	67010100 	strvs	r0, [r1, -r0, lsl #2]
     558:	02000002 	andeq	r0, r0, #2
     55c:	00013000 	andeq	r3, r1, r0
     560:	fb010200 	blx	40d6a <__first_lvl_tbl_end+0x1bd6a>
     564:	01000d0e 	tsteq	r0, lr, lsl #26
     568:	00010101 	andeq	r0, r1, r1, lsl #2
     56c:	00010000 	andeq	r0, r1, r0
     570:	72610100 	rsbvc	r0, r1, #0, 2
     574:	612f6863 			; <UNDEFINED> instruction: 0x612f6863
     578:	2f006d72 	svccs	0x00006d72
     57c:	72657355 	rsbvc	r7, r5, #1409286145	; 0x54000001
     580:	72702f73 	rsbsvc	r2, r0, #460	; 0x1cc
     584:	73616b61 	cmnvc	r1, #99328	; 0x18400
     588:	726f6268 	rsbvc	r6, pc, #104, 4	; 0x80000006
     58c:	2f72616b 	svccs	0x0072616b
     590:	2d636367 	stclcs	3, cr6, [r3, #-412]!	; 0xfffffe64
     594:	2d6d7261 	sfmcs	f7, 2, [sp, #-388]!	; 0xfffffe7c
     598:	656e6f6e 	strbvs	r6, [lr, #-3950]!	; 0xfffff092
     59c:	6261652d 	rsbvs	r6, r1, #188743680	; 0xb400000
     5a0:	696c2f69 	stmdbvs	ip!, {r0, r3, r5, r6, r8, r9, sl, fp, sp}^
     5a4:	63672f62 	cmnvs	r7, #392	; 0x188
     5a8:	72612f63 	rsbvc	r2, r1, #396	; 0x18c
     5ac:	6f6e2d6d 	svcvs	0x006e2d6d
     5b0:	652d656e 	strvs	r6, [sp, #-1390]!	; 0xfffffa92
     5b4:	2f696261 	svccs	0x00696261
     5b8:	2e342e35 	mrccs	14, 1, r2, cr4, cr5, {1}
     5bc:	6e692f31 	mcrvs	15, 3, r2, cr9, cr1, {1}
     5c0:	64756c63 	ldrbtvs	r6, [r5], #-3171	; 0xfffff39d
     5c4:	6e690065 	cdpvs	0, 6, cr0, cr9, cr5, {3}
     5c8:	64756c63 	ldrbtvs	r6, [r5], #-3171	; 0xfffff39d
     5cc:	656b2f65 	strbvs	r2, [fp, #-3941]!	; 0xfffff09b
     5d0:	6c656e72 	stclvs	14, cr6, [r5], #-456	; 0xfffffe38
     5d4:	73552f00 	cmpvc	r5, #0, 30
     5d8:	2f737265 	svccs	0x00737265
     5dc:	6b617270 	blvs	185cfa4 <__kernel_end+0x16f6fa4>
     5e0:	62687361 	rsbvs	r7, r8, #-2080374783	; 0x84000001
     5e4:	616b726f 	cmnvs	fp, pc, ror #4
     5e8:	63672f72 	cmnvs	r7, #456	; 0x1c8
     5ec:	72612d63 	rsbvc	r2, r1, #6336	; 0x18c0
     5f0:	6f6e2d6d 	svcvs	0x006e2d6d
     5f4:	652d656e 	strvs	r6, [sp, #-1390]!	; 0xfffffa92
     5f8:	2f696261 	svccs	0x00696261
     5fc:	2d6d7261 	sfmcs	f7, 2, [sp, #-388]!	; 0xfffffe7c
     600:	656e6f6e 	strbvs	r6, [lr, #-3950]!	; 0xfffff092
     604:	6261652d 	rsbvs	r6, r1, #188743680	; 0xb400000
     608:	6e692f69 	cdpvs	15, 6, cr2, cr9, cr9, {3}
     60c:	64756c63 	ldrbtvs	r6, [r5], #-3171	; 0xfffff39d
     610:	72000065 	andvc	r0, r0, #101	; 0x65
     614:	6d2d6970 	stcvs	9, cr6, [sp, #-448]!	; 0xfffffe40
     618:	626c6961 	rsbvs	r6, ip, #1589248	; 0x184000
     61c:	692d786f 	pushvs	{r0, r1, r2, r3, r5, r6, fp, ip, sp, lr}
     620:	7265746e 	rsbvc	r7, r5, #1845493760	; 0x6e000000
     624:	65636166 	strbvs	r6, [r3, #-358]!	; 0xfffffe9a
     628:	0100632e 	tsteq	r0, lr, lsr #6
     62c:	74730000 	ldrbtvc	r0, [r3], #-0
     630:	67726164 	ldrbvs	r6, [r2, -r4, ror #2]!
     634:	0200682e 	andeq	r6, r0, #3014656	; 0x2e0000
     638:	74730000 	ldrbtvc	r0, [r3], #-0
     63c:	746e6964 	strbtvc	r6, [lr], #-2404	; 0xfffff69c
     640:	6363672d 	cmnvs	r3, #11796480	; 0xb40000
     644:	0200682e 	andeq	r6, r0, #3014656	; 0x2e0000
     648:	70720000 	rsbsvc	r0, r2, r0
     64c:	616d2d69 	cmnvs	sp, r9, ror #26
     650:	6f626c69 	svcvs	0x00626c69
     654:	00682e78 	rsbeq	r2, r8, r8, ror lr
     658:	72000003 	andvc	r0, r0, #3
     65c:	6d2d6970 	stcvs	9, cr6, [sp, #-448]!	; 0xfffffe40
     660:	626c6961 	rsbvs	r6, ip, #1589248	; 0x184000
     664:	692d786f 	pushvs	{r0, r1, r2, r3, r5, r6, fp, ip, sp, lr}
     668:	7265746e 	rsbvc	r7, r5, #1845493760	; 0x6e000000
     66c:	65636166 	strbvs	r6, [r3, #-358]!	; 0xfffffe9a
     670:	0300682e 	movweq	r6, #2094	; 0x82e
     674:	74730000 	ldrbtvc	r0, [r3], #-0
     678:	676e6972 			; <UNDEFINED> instruction: 0x676e6972
     67c:	0400682e 	streq	r6, [r0], #-2094	; 0xfffff7d2
     680:	623c0000 	eorsvs	r0, ip, #0
     684:	746c6975 	strbtvc	r6, [ip], #-2421	; 0xfffff68b
     688:	3e6e692d 	cdpcc	9, 6, cr6, cr14, cr13, {1}
     68c:	00000000 	andeq	r0, r0, r0
     690:	02050000 	andeq	r0, r5, #0
     694:	000086c8 	andeq	r8, r0, r8, asr #13
     698:	14011803 	strne	r1, [r1], #-2051	; 0xfffff7fd
     69c:	7a033131 	bvc	ccb68 <__first_lvl_tbl_end+0xa7b68>
     6a0:	7a03502e 	bvc	d4760 <__first_lvl_tbl_end+0xaf760>
     6a4:	2b34314a 	blcs	d0cbd4 <__kernel_end+0xba6bd4>
     6a8:	32820b03 	addcc	r0, r2, #3072	; 0xc00
     6ac:	4a7a0330 	bmi	1e81374 <__kernel_end+0x1d1b374>
     6b0:	2c324632 	ldccs	6, cr4, [r2], #-200	; 0xffffff38
     6b4:	32302a30 	eorscc	r2, r0, #48, 20	; 0x30000
     6b8:	f003682c 			; <UNDEFINED> instruction: 0xf003682c
     6bc:	012c0200 			; <UNDEFINED> instruction: 0x012c0200
     6c0:	2b31482f 	blcs	c52784 <__kernel_end+0xaec784>
     6c4:	2c302c31 	ldccs	12, cr2, [r0], #-196	; 0xffffff3c
     6c8:	0a032f2f 	beq	cc38c <__first_lvl_tbl_end+0xa738c>
     6cc:	8103852e 	tsthi	r3, lr, lsr #10
     6d0:	1d03827f 	sfmne	f0, 1, [r3, #-508]	; 0xfffffe04
     6d4:	302f9008 	eorcc	r9, pc, r8
     6d8:	2f30482d 	svccs	0x0030482d
     6dc:	2f2d312b 	svccs	0x002d312b
     6e0:	2f4b2f2b 	svccs	0x004b2f2b
     6e4:	2e5f032f 	cdpcs	3, 5, cr0, cr15, cr15, {1}
     6e8:	0200de03 	andeq	sp, r0, #3, 28	; 0x30
     6ec:	4c2f012a 	stfmis	f0, [pc], #-168	; 64c <ARM_I_BIT+0x5cc>
     6f0:	2b302f47 	blcs	c0c414 <__kernel_end+0xaa6414>
     6f4:	032f2d2f 			; <UNDEFINED> instruction: 0x032f2d2f
     6f8:	75034a0b 	strvc	r4, [r3, #-2571]	; 0xfffff5f5
     6fc:	2e0b032e 	cdpcs	3, 0, cr0, cr11, cr14, {1}
     700:	302e7703 	eorcc	r7, lr, r3, lsl #14
     704:	474b2f2f 	strbmi	r2, [fp, -pc, lsr #30]
     708:	2c2f2f4b 	stccs	15, cr2, [pc], #-300	; 5e4 <ARM_I_BIT+0x564>
     70c:	bf032f2f 	svclt	0x00032f2f
     710:	2f2f4a7f 	svccs	0x002f4a7f
     714:	2f2a3247 	svccs	0x002a3247
     718:	302f2b31 	eorcc	r2, pc, r1, lsr fp	; <UNPREDICTABLE>
     71c:	2f2f2f2c 	svccs	0x002f2f2c
     720:	032e5703 			; <UNDEFINED> instruction: 0x032e5703
     724:	318200cc 	orrcc	r0, r2, ip, asr #1
     728:	312b302c 			; <UNDEFINED> instruction: 0x312b302c
     72c:	2f2d2f2b 	svccs	0x002d2f2b
     730:	2e790351 	mrccs	3, 3, r0, cr9, cr1, {2}
     734:	2a2e0b03 	bcs	b83348 <__kernel_end+0xa1d348>
     738:	352e7903 	strcc	r7, [lr, #-2307]!	; 0xfffff6fd
     73c:	7fa8036a 	svcvc	0x00a8036a
     740:	00f7034a 	rscseq	r0, r7, sl, asr #6
     744:	88036782 	stmdahi	r3, {r1, r7, r8, r9, sl, sp, lr}
     748:	33032e7f 	movwcc	r2, #15999	; 0x3e7f
     74c:	4c2f9008 	stcmi	0, cr9, [pc], #-32	; 734 <ARM_I_BIT+0x6b4>
     750:	2c302f47 	ldccs	15, cr2, [r0], #-284	; 0xfffffee4
     754:	31684b2d 	cmncc	r8, sp, lsr #22
     758:	4a78038a 	bmi	1e01588 <__kernel_end+0x1c9b588>
     75c:	4b494b31 	blmi	1253428 <__kernel_end+0x10ed428>
     760:	2f492f2d 	svccs	0x00492f2d
     764:	034a4303 	movteq	r4, #41731	; 0xa303
     768:	2f2f820b 	svccs	0x002f820b
     76c:	2d494c2c 	stclcs	12, cr4, [r9, #-176]	; 0xffffff50
     770:	33302d30 	teqcc	r0, #48, 26	; 0xc00
     774:	4c2c2f2f 	stcmi	15, cr2, [ip], #-188	; 0xffffff44
     778:	2d302d49 	ldccs	13, cr2, [r0, #-292]!	; 0xfffffedc
     77c:	2e6a0330 	mcrcs	3, 3, r0, cr10, cr0, {1}
     780:	02018203 	andeq	r8, r1, #805306368	; 0x30000000
     784:	31160138 	tstcc	r6, r8, lsr r1
     788:	2a2d2f2b 	bcs	b4c43c <__kernel_end+0x9e643c>
     78c:	2f2b4d32 	svccs	0x002b4d32
     790:	302f4d2d 	eorcc	r4, pc, sp, lsr #26
     794:	09036b2c 	stmdbeq	r3, {r2, r3, r5, r8, r9, fp, sp, lr}
     798:	29332901 	ldmdbcs	r3!, {r0, r8, fp, sp}
     79c:	2e09032a 	cdpcs	3, 0, cr0, cr9, cr10, {1}
     7a0:	45693329 	strbmi	r3, [r9, #-809]!	; 0xfffffcd7
     7a4:	7603a533 			; <UNDEFINED> instruction: 0x7603a533
     7a8:	4a0f0382 	bmi	3c15b8 <__kernel_end+0x25b5b8>
     7ac:	2e6f0335 	mcrcs	3, 3, r0, cr15, cr5, {1}
     7b0:	032e0d03 			; <UNDEFINED> instruction: 0x032e0d03
     7b4:	0d032e73 	stceq	14, cr2, [r3, #-460]	; 0xfffffe34
     7b8:	4b652f4a 	blmi	194c4e8 <__kernel_end+0x17e64e8>
     7bc:	000c0230 	andeq	r0, ip, r0, lsr r2
     7c0:	01570101 	cmpeq	r7, r1, lsl #2
     7c4:	00020000 	andeq	r0, r2, r0
     7c8:	00000111 	andeq	r0, r0, r1, lsl r1
     7cc:	0efb0102 	cdpeq	1, 15, cr0, cr11, cr2, {0}
     7d0:	0101000d 	tsteq	r1, sp
     7d4:	00000101 	andeq	r0, r0, r1, lsl #2
     7d8:	00000100 	andeq	r0, r0, r0, lsl #2
     7dc:	63726101 	cmnvs	r2, #1073741824	; 0x40000000
     7e0:	72612f68 	rsbvc	r2, r1, #104, 30	; 0x1a0
     7e4:	552f006d 	strpl	r0, [pc, #-109]!	; 77f <ARM_I_BIT+0x6ff>
     7e8:	73726573 	cmnvc	r2, #482344960	; 0x1cc00000
     7ec:	6172702f 	cmnvs	r2, pc, lsr #32
     7f0:	6873616b 	ldmdavs	r3!, {r0, r1, r3, r5, r6, r8, sp, lr}^
     7f4:	6b726f62 	blvs	1c9c584 <__kernel_end+0x1b36584>
     7f8:	672f7261 	strvs	r7, [pc, -r1, ror #4]!
     7fc:	612d6363 			; <UNDEFINED> instruction: 0x612d6363
     800:	6e2d6d72 	mcrvs	13, 1, r6, cr13, cr2, {3}
     804:	2d656e6f 	stclcs	14, cr6, [r5, #-444]!	; 0xfffffe44
     808:	69626165 	stmdbvs	r2!, {r0, r2, r5, r6, r8, sp, lr}^
     80c:	62696c2f 	rsbvs	r6, r9, #12032	; 0x2f00
     810:	6363672f 	cmnvs	r3, #12320768	; 0xbc0000
     814:	6d72612f 	ldfvse	f6, [r2, #-188]!	; 0xffffff44
     818:	6e6f6e2d 	cdpvs	14, 6, cr6, cr15, cr13, {1}
     81c:	61652d65 	cmnvs	r5, r5, ror #26
     820:	352f6962 	strcc	r6, [pc, #-2402]!	; fffffec6 <__kernel_end+0xffe99ec6>
     824:	312e342e 			; <UNDEFINED> instruction: 0x312e342e
     828:	636e692f 	cmnvs	lr, #770048	; 0xbc000
     82c:	6564756c 	strbvs	r7, [r4, #-1388]!	; 0xfffffa94
     830:	636e6900 	cmnvs	lr, #0, 18
     834:	6564756c 	strbvs	r7, [r4, #-1388]!	; 0xfffffa94
     838:	72656b2f 	rsbvc	r6, r5, #48128	; 0xbc00
     83c:	006c656e 	rsbeq	r6, ip, lr, ror #10
     840:	6573552f 	ldrbvs	r5, [r3, #-1327]!	; 0xfffffad1
     844:	702f7372 	eorvc	r7, pc, r2, ror r3	; <UNPREDICTABLE>
     848:	616b6172 	smcvs	46610	; 0xb612
     84c:	6f626873 	svcvs	0x00626873
     850:	72616b72 	rsbvc	r6, r1, #116736	; 0x1c800
     854:	7365442f 	cmnvc	r5, #788529152	; 0x2f000000
     858:	706f746b 	rsbvc	r7, pc, fp, ror #8
     85c:	6d65522f 	sfmvs	f5, 2, [r5, #-188]!	; 0xffffff44
     860:	5f65746f 	svcpl	0x0065746f
     864:	6f706552 	svcvs	0x00706552
     868:	6970722f 	ldmdbvs	r0!, {r0, r1, r2, r3, r5, r9, ip, sp, lr}^
     86c:	2d736f2d 	ldclcs	15, cr6, [r3, #-180]!	; 0xffffff4c
     870:	74726175 	ldrbtvc	r6, [r2], #-373	; 0xfffffe8b
     874:	6970722f 	ldmdbvs	r0!, {r0, r1, r2, r3, r5, r9, ip, sp, lr}^
     878:	6d2d6233 	sfmvs	f6, 4, [sp, #-204]!	; 0xffffff34
     87c:	79746165 	ldmdbvc	r4!, {r0, r2, r5, r6, r8, sp, lr}^
     880:	656b732d 	strbvs	r7, [fp, #-813]!	; 0xfffffcd3
     884:	6f74656c 	svcvs	0x0074656c
     888:	79732f6e 	ldmdbvc	r3!, {r1, r2, r3, r5, r6, r8, r9, sl, fp, sp}^
     88c:	6f6f7273 	svcvs	0x006f7273
     890:	73752f74 	cmnvc	r5, #116, 30	; 0x1d0
     894:	6e692f72 	mcrvs	15, 3, r2, cr9, cr2, {3}
     898:	64756c63 	ldrbtvs	r6, [r5], #-3171	; 0xfffff39d
     89c:	6c702f65 	ldclvs	15, cr2, [r0], #-404	; 0xfffffe6c
     8a0:	00636269 	rsbeq	r6, r3, r9, ror #4
     8a4:	73797300 	cmnvc	r9, #0, 6
     8a8:	656d6974 	strbvs	r6, [sp, #-2420]!	; 0xfffff68c
     8ac:	00632e72 	rsbeq	r2, r3, r2, ror lr
     8b0:	73000001 	movwvc	r0, #1
     8b4:	6e696474 	mcrvs	4, 3, r6, cr9, cr4, {3}
     8b8:	63672d74 	cmnvs	r7, #116, 26	; 0x1d00
     8bc:	00682e63 	rsbeq	r2, r8, r3, ror #28
     8c0:	73000002 	movwvc	r0, #2
     8c4:	69747379 	ldmdbvs	r4!, {r0, r3, r4, r5, r6, r8, r9, ip, sp, lr}^
     8c8:	2e72656d 	cdpcs	5, 7, cr6, cr2, cr13, {3}
     8cc:	00030068 	andeq	r0, r3, r8, rrx
     8d0:	64747300 	ldrbtvs	r7, [r4], #-768	; 0xfffffd00
     8d4:	682e6f69 	stmdavs	lr!, {r0, r3, r5, r6, r8, r9, sl, fp, sp, lr}
     8d8:	00000400 	andeq	r0, r0, r0, lsl #8
     8dc:	02050000 	andeq	r0, r5, #0
     8e0:	00008c98 	muleq	r0, r8, ip
     8e4:	13011503 	movwne	r1, #5379	; 0x1503
     8e8:	6b2f6583 	blvs	bd9efc <__kernel_end+0xa73efc>
     8ec:	9f83da13 	svcls	0x0083da13
     8f0:	304b4bd7 	ldrdcc	r4, [fp], #-183	; 0xffffff49
     8f4:	bbbb9f9f 	bllt	feee8778 <__kernel_end+0xfed82778>
     8f8:	d67903bb 			; <UNDEFINED> instruction: 0xd67903bb
     8fc:	08820903 	stmeq	r2, {r0, r1, r8, fp}
     900:	696915af 	stmdbvs	r9!, {r0, r1, r2, r3, r5, r7, r8, sl, ip}^
     904:	00832d4c 	addeq	r2, r3, ip, asr #26
     908:	a1010402 	tstge	r1, r2, lsl #8
     90c:	01040200 	mrseq	r0, R12_usr
     910:	0402002f 	streq	r0, [r2], #-47	; 0xffffffd1
     914:	bc832f01 	stclt	15, cr2, [r3], {1}
     918:	01000802 	tsteq	r0, r2, lsl #16
     91c:	00014601 	andeq	r4, r1, r1, lsl #12
     920:	07000200 	streq	r0, [r0, -r0, lsl #4]
     924:	02000001 	andeq	r0, r0, #1
     928:	0d0efb01 	vstreq	d15, [lr, #-4]
     92c:	01010100 	mrseq	r0, (UNDEF: 17)
     930:	00000001 	andeq	r0, r0, r1
     934:	01000001 	tsteq	r0, r1
     938:	006d656d 	rsbeq	r6, sp, sp, ror #10
     93c:	6c636e69 	stclvs	14, cr6, [r3], #-420	; 0xfffffe5c
     940:	2f656475 	svccs	0x00656475
     944:	006d656d 	rsbeq	r6, sp, sp, ror #10
     948:	6573552f 	ldrbvs	r5, [r3, #-1327]!	; 0xfffffad1
     94c:	702f7372 	eorvc	r7, pc, r2, ror r3	; <UNPREDICTABLE>
     950:	616b6172 	smcvs	46610	; 0xb612
     954:	6f626873 	svcvs	0x00626873
     958:	72616b72 	rsbvc	r6, r1, #116736	; 0x1c800
     95c:	7365442f 	cmnvc	r5, #788529152	; 0x2f000000
     960:	706f746b 	rsbvc	r7, pc, fp, ror #8
     964:	6d65522f 	sfmvs	f5, 2, [r5, #-188]!	; 0xffffff44
     968:	5f65746f 	svcpl	0x0065746f
     96c:	6f706552 	svcvs	0x00706552
     970:	6970722f 	ldmdbvs	r0!, {r0, r1, r2, r3, r5, r9, ip, sp, lr}^
     974:	2d736f2d 	ldclcs	15, cr6, [r3, #-180]!	; 0xffffff4c
     978:	74726175 	ldrbtvc	r6, [r2], #-373	; 0xfffffe8b
     97c:	6970722f 	ldmdbvs	r0!, {r0, r1, r2, r3, r5, r9, ip, sp, lr}^
     980:	6d2d6233 	sfmvs	f6, 4, [sp, #-204]!	; 0xffffff34
     984:	79746165 	ldmdbvc	r4!, {r0, r2, r5, r6, r8, sp, lr}^
     988:	656b732d 	strbvs	r7, [fp, #-813]!	; 0xfffffcd3
     98c:	6f74656c 	svcvs	0x0074656c
     990:	79732f6e 	ldmdbvc	r3!, {r1, r2, r3, r5, r6, r8, r9, sl, fp, sp}^
     994:	6f6f7273 	svcvs	0x006f7273
     998:	73752f74 	cmnvc	r5, #116, 30	; 0x1d0
     99c:	6e692f72 	mcrvs	15, 3, r2, cr9, cr2, {3}
     9a0:	64756c63 	ldrbtvs	r6, [r5], #-3171	; 0xfffff39d
     9a4:	6c702f65 	ldclvs	15, cr2, [r0], #-404	; 0xfffffe6c
     9a8:	00636269 	rsbeq	r6, r3, r9, ror #4
     9ac:	6573552f 	ldrbvs	r5, [r3, #-1327]!	; 0xfffffad1
     9b0:	702f7372 	eorvc	r7, pc, r2, ror r3	; <UNPREDICTABLE>
     9b4:	616b6172 	smcvs	46610	; 0xb612
     9b8:	6f626873 	svcvs	0x00626873
     9bc:	72616b72 	rsbvc	r6, r1, #116736	; 0x1c800
     9c0:	6363672f 	cmnvs	r3, #12320768	; 0xbc0000
     9c4:	6d72612d 	ldfvse	f6, [r2, #-180]!	; 0xffffff4c
     9c8:	6e6f6e2d 	cdpvs	14, 6, cr6, cr15, cr13, {1}
     9cc:	61652d65 	cmnvs	r5, r5, ror #26
     9d0:	6c2f6962 	stcvs	9, cr6, [pc], #-392	; 850 <SCTLR_ENABLE_BRANCH_PREDICTION+0x50>
     9d4:	672f6269 	strvs	r6, [pc, -r9, ror #4]!
     9d8:	612f6363 			; <UNDEFINED> instruction: 0x612f6363
     9dc:	6e2d6d72 	mcrvs	13, 1, r6, cr13, cr2, {3}
     9e0:	2d656e6f 	stclcs	14, cr6, [r5, #-444]!	; 0xfffffe44
     9e4:	69626165 	stmdbvs	r2!, {r0, r2, r5, r6, r8, sp, lr}^
     9e8:	342e352f 	strtcc	r3, [lr], #-1327	; 0xfffffad1
     9ec:	692f312e 	stmdbvs	pc!, {r1, r2, r3, r5, r8, ip, sp}	; <UNPREDICTABLE>
     9f0:	756c636e 	strbvc	r6, [ip, #-878]!	; 0xfffffc92
     9f4:	00006564 	andeq	r6, r0, r4, ror #10
     9f8:	74726976 	ldrbtvc	r6, [r2], #-2422	; 0xfffff68a
     9fc:	2e6d656d 	cdpcs	5, 6, cr6, cr13, cr13, {3}
     a00:	00010063 	andeq	r0, r1, r3, rrx
     a04:	72697600 	rsbvc	r7, r9, #0, 12
     a08:	6d656d74 	stclvs	13, cr6, [r5, #-464]!	; 0xfffffe30
     a0c:	0200682e 	andeq	r6, r0, #3014656	; 0x2e0000
     a10:	74730000 	ldrbtvc	r0, [r3], #-0
     a14:	2e6f6964 	cdpcs	9, 6, cr6, cr15, cr4, {3}
     a18:	00030068 	andeq	r0, r3, r8, rrx
     a1c:	64747300 	ldrbtvs	r7, [r4], #-768	; 0xfffffd00
     a20:	2d746e69 	ldclcs	14, cr6, [r4, #-420]!	; 0xfffffe5c
     a24:	2e636367 	cdpcs	3, 6, cr6, cr3, cr7, {3}
     a28:	00040068 	andeq	r0, r4, r8, rrx
     a2c:	05000000 	streq	r0, [r0, #-0]
     a30:	008e9002 	addeq	r9, lr, r2
     a34:	011f0300 	tsteq	pc, r0, lsl #6
     a38:	31010903 	tstcc	r1, r3, lsl #18
     a3c:	032e0d03 			; <UNDEFINED> instruction: 0x032e0d03
     a40:	10034a70 	andne	r4, r3, r0, ror sl
     a44:	2e73032e 	cdpcs	3, 7, cr0, cr3, cr14, {1}
     a48:	032e7403 			; <UNDEFINED> instruction: 0x032e7403
     a4c:	03842e19 	orreq	r2, r4, #400	; 0x190
     a50:	2d2f664f 	stccs	6, cr6, [pc, #-316]!	; 91c <SCTLR_ENABLE_BRANCH_PREDICTION+0x11c>
     a54:	2b692f2e 	blcs	1a4c714 <__kernel_end+0x18e6714>
     a58:	312b836b 			; <UNDEFINED> instruction: 0x312b836b
     a5c:	67a08335 			; <UNDEFINED> instruction: 0x67a08335
     a60:	10022d67 	andne	r2, r2, r7, ror #26
     a64:	eb010100 	bl	40e6c <__first_lvl_tbl_end+0x1be6c>
     a68:	02000001 	andeq	r0, r0, #1
     a6c:	00013100 	andeq	r3, r1, r0, lsl #2
     a70:	fb010200 	blx	4127a <__first_lvl_tbl_end+0x1c27a>
     a74:	01000d0e 	tsteq	r0, lr, lsl #26
     a78:	00010101 	andeq	r0, r1, r1, lsl #2
     a7c:	00010000 	andeq	r0, r1, r0
     a80:	656d0100 	strbvs	r0, [sp, #-256]!	; 0xffffff00
     a84:	552f006d 	strpl	r0, [pc, #-109]!	; a1f <SCTLR_ENABLE_BRANCH_PREDICTION+0x21f>
     a88:	73726573 	cmnvc	r2, #482344960	; 0x1cc00000
     a8c:	6172702f 	cmnvs	r2, pc, lsr #32
     a90:	6873616b 	ldmdavs	r3!, {r0, r1, r3, r5, r6, r8, sp, lr}^
     a94:	6b726f62 	blvs	1c9c824 <__kernel_end+0x1b36824>
     a98:	672f7261 	strvs	r7, [pc, -r1, ror #4]!
     a9c:	612d6363 			; <UNDEFINED> instruction: 0x612d6363
     aa0:	6e2d6d72 	mcrvs	13, 1, r6, cr13, cr2, {3}
     aa4:	2d656e6f 	stclcs	14, cr6, [r5, #-444]!	; 0xfffffe44
     aa8:	69626165 	stmdbvs	r2!, {r0, r2, r5, r6, r8, sp, lr}^
     aac:	62696c2f 	rsbvs	r6, r9, #12032	; 0x2f00
     ab0:	6363672f 	cmnvs	r3, #12320768	; 0xbc0000
     ab4:	6d72612f 	ldfvse	f6, [r2, #-188]!	; 0xffffff44
     ab8:	6e6f6e2d 	cdpvs	14, 6, cr6, cr15, cr13, {1}
     abc:	61652d65 	cmnvs	r5, r5, ror #26
     ac0:	352f6962 	strcc	r6, [pc, #-2402]!	; 166 <ARM_I_BIT+0xe6>
     ac4:	312e342e 			; <UNDEFINED> instruction: 0x312e342e
     ac8:	636e692f 	cmnvs	lr, #770048	; 0xbc000
     acc:	6564756c 	strbvs	r7, [r4, #-1388]!	; 0xfffffa94
     ad0:	636e6900 	cmnvs	lr, #0, 18
     ad4:	6564756c 	strbvs	r7, [r4, #-1388]!	; 0xfffffa94
     ad8:	6d656d2f 	stclvs	13, cr6, [r5, #-188]!	; 0xffffff44
     adc:	636e6900 	cmnvs	lr, #0, 18
     ae0:	6564756c 	strbvs	r7, [r4, #-1388]!	; 0xfffffa94
     ae4:	72656b2f 	rsbvc	r6, r5, #48128	; 0xbc00
     ae8:	006c656e 	rsbeq	r6, ip, lr, ror #10
     aec:	6573552f 	ldrbvs	r5, [r3, #-1327]!	; 0xfffffad1
     af0:	702f7372 	eorvc	r7, pc, r2, ror r3	; <UNPREDICTABLE>
     af4:	616b6172 	smcvs	46610	; 0xb612
     af8:	6f626873 	svcvs	0x00626873
     afc:	72616b72 	rsbvc	r6, r1, #116736	; 0x1c800
     b00:	7365442f 	cmnvc	r5, #788529152	; 0x2f000000
     b04:	706f746b 	rsbvc	r7, pc, fp, ror #8
     b08:	6d65522f 	sfmvs	f5, 2, [r5, #-188]!	; 0xffffff44
     b0c:	5f65746f 	svcpl	0x0065746f
     b10:	6f706552 	svcvs	0x00706552
     b14:	6970722f 	ldmdbvs	r0!, {r0, r1, r2, r3, r5, r9, ip, sp, lr}^
     b18:	2d736f2d 	ldclcs	15, cr6, [r3, #-180]!	; 0xffffff4c
     b1c:	74726175 	ldrbtvc	r6, [r2], #-373	; 0xfffffe8b
     b20:	6970722f 	ldmdbvs	r0!, {r0, r1, r2, r3, r5, r9, ip, sp, lr}^
     b24:	6d2d6233 	sfmvs	f6, 4, [sp, #-204]!	; 0xffffff34
     b28:	79746165 	ldmdbvc	r4!, {r0, r2, r5, r6, r8, sp, lr}^
     b2c:	656b732d 	strbvs	r7, [fp, #-813]!	; 0xfffffcd3
     b30:	6f74656c 	svcvs	0x0074656c
     b34:	79732f6e 	ldmdbvc	r3!, {r1, r2, r3, r5, r6, r8, r9, sl, fp, sp}^
     b38:	6f6f7273 	svcvs	0x006f7273
     b3c:	73752f74 	cmnvc	r5, #116, 30	; 0x1d0
     b40:	6e692f72 	mcrvs	15, 3, r2, cr9, cr2, {3}
     b44:	64756c63 	ldrbtvs	r6, [r5], #-3171	; 0xfffff39d
     b48:	6c702f65 	ldclvs	15, cr2, [r0], #-404	; 0xfffffe6c
     b4c:	00636269 	rsbeq	r6, r3, r9, ror #4
     b50:	79687000 	stmdbvc	r8!, {ip, sp, lr}^
     b54:	6d656d73 	stclvs	13, cr6, [r5, #-460]!	; 0xfffffe34
     b58:	0100632e 	tsteq	r0, lr, lsr #6
     b5c:	74730000 	ldrbtvc	r0, [r3], #-0
     b60:	746e6964 	strbtvc	r6, [lr], #-2404	; 0xfffff69c
     b64:	6363672d 	cmnvs	r3, #11796480	; 0xb40000
     b68:	0200682e 	andeq	r6, r0, #3014656	; 0x2e0000
     b6c:	68700000 	ldmdavs	r0!, {}^	; <UNPREDICTABLE>
     b70:	656d7379 	strbvs	r7, [sp, #-889]!	; 0xfffffc87
     b74:	00682e6d 	rsbeq	r2, r8, sp, ror #28
     b78:	72000003 	andvc	r0, r0, #3
     b7c:	6d2d6970 	stcvs	9, cr6, [sp, #-448]!	; 0xfffffe40
     b80:	626c6961 	rsbvs	r6, ip, #1589248	; 0x184000
     b84:	692d786f 	pushvs	{r0, r1, r2, r3, r5, r6, fp, ip, sp, lr}
     b88:	7265746e 	rsbvc	r7, r5, #1845493760	; 0x6e000000
     b8c:	65636166 	strbvs	r6, [r3, #-358]!	; 0xfffffe9a
     b90:	0400682e 	streq	r6, [r0], #-2094	; 0xfffff7d2
     b94:	74730000 	ldrbtvc	r0, [r3], #-0
     b98:	2e6f6964 	cdpcs	9, 6, cr6, cr15, cr4, {3}
     b9c:	00050068 	andeq	r0, r5, r8, rrx
     ba0:	05000000 	streq	r0, [r0, #-0]
     ba4:	008f7402 	addeq	r7, pc, r2, lsl #8
     ba8:	010e0300 	mrseq	r0, ELR_hyp
     bac:	01200801 			; <UNDEFINED> instruction: 0x01200801
     bb0:	4a012008 	bmi	48bd8 <__first_lvl_tbl_end+0x23bd8>
     bb4:	01580801 	cmpeq	r8, r1, lsl #16
     bb8:	0150014a 	cmpeq	r0, sl, asr #2
     bbc:	032f2d2f 			; <UNDEFINED> instruction: 0x032f2d2f
     bc0:	324a8225 	subcc	r8, sl, #1342177282	; 0x50000002
     bc4:	352a4fbe 	strcc	r4, [sl, #-4030]!	; 0xfffff042
     bc8:	694d2b2b 	stmdbvs	sp, {r0, r1, r3, r5, r8, r9, fp, sp}^
     bcc:	16852f4c 	strne	r2, [r5], ip, asr #30
     bd0:	03323246 	teqeq	r2, #1610612740	; 0x60000004
     bd4:	4e322e78 	mrcmi	14, 1, r2, cr2, cr8, {3}
     bd8:	2fa2672d 	svccs	0x00a2672d
     bdc:	31672fa3 	cmncc	r7, r3, lsr #31
     be0:	2b313068 	blcs	c4cd88 <__kernel_end+0xae6d88>
     be4:	7faa0332 	svcvc	0x00aa0332
     be8:	2d2f324a 	sfmcs	f3, 4, [pc, #-296]!	; ac8 <SCTLR_ENABLE_BRANCH_PREDICTION+0x2c8>
     bec:	2f2d2f2f 	svccs	0x002d2f2f
     bf0:	032f2f2d 			; <UNDEFINED> instruction: 0x032f2f2d
     bf4:	2d354a79 	vldmdbcs	r5!, {s8-s128}
     bf8:	352e7a03 	strcc	r7, [lr, #-2563]!	; 0xfffff5fd
     bfc:	2f2f2d32 	svccs	0x002f2d32
     c00:	334b2f2d 	movtcc	r2, #48941	; 0xbf2d
     c04:	0200a329 	andeq	sl, r0, #-1543503872	; 0xa4000000
     c08:	00680304 	rsbeq	r0, r8, r4, lsl #6
     c0c:	48030402 	stmdami	r3, {r1, sl}
     c10:	03040200 	movweq	r0, #16896	; 0x4200
     c14:	04020031 	streq	r0, [r2], #-49	; 0xffffffcf
     c18:	02002b03 	andeq	r2, r0, #3072	; 0xc00
     c1c:	004e0304 	subeq	r0, lr, r4, lsl #6
     c20:	46030402 	strmi	r0, [r3], -r2, lsl #8
     c24:	01040200 	mrseq	r0, R12_usr
     c28:	04020035 	streq	r0, [r2], #-53	; 0xffffffcb
     c2c:	0200bc02 	andeq	fp, r0, #512	; 0x200
     c30:	002f0204 	eoreq	r0, pc, r4, lsl #4
     c34:	2b020402 	blcs	81c44 <__first_lvl_tbl_end+0x5cc44>
     c38:	02040200 	andeq	r0, r4, #0, 4
     c3c:	04020030 	streq	r0, [r2], #-48	; 0xffffffd0
     c40:	02002f02 	andeq	r2, r0, #2, 30
     c44:	00490204 	subeq	r0, r9, r4, lsl #4
     c48:	67020402 	strvs	r0, [r2, -r2, lsl #8]
     c4c:	02040200 	andeq	r0, r4, #0, 4
     c50:	0016022b 	andseq	r0, r6, fp, lsr #4
     c54:	01290101 			; <UNDEFINED> instruction: 0x01290101
     c58:	00020000 	andeq	r0, r2, r0
     c5c:	000000a6 	andeq	r0, r0, r6, lsr #1
     c60:	0efb0102 	cdpeq	1, 15, cr0, cr11, cr2, {0}
     c64:	0101000d 	tsteq	r1, sp
     c68:	00000101 	andeq	r0, r0, r1, lsl #2
     c6c:	00000100 	andeq	r0, r0, r0, lsl #2
     c70:	76656401 	strbtvc	r6, [r5], -r1, lsl #8
     c74:	00656369 	rsbeq	r6, r5, r9, ror #6
     c78:	6573552f 	ldrbvs	r5, [r3, #-1327]!	; 0xfffffad1
     c7c:	702f7372 	eorvc	r7, pc, r2, ror r3	; <UNPREDICTABLE>
     c80:	616b6172 	smcvs	46610	; 0xb612
     c84:	6f626873 	svcvs	0x00626873
     c88:	72616b72 	rsbvc	r6, r1, #116736	; 0x1c800
     c8c:	6363672f 	cmnvs	r3, #12320768	; 0xbc0000
     c90:	6d72612d 	ldfvse	f6, [r2, #-180]!	; 0xffffff4c
     c94:	6e6f6e2d 	cdpvs	14, 6, cr6, cr15, cr13, {1}
     c98:	61652d65 	cmnvs	r5, r5, ror #26
     c9c:	6c2f6962 	stcvs	9, cr6, [pc], #-392	; b1c <SCTLR_ENABLE_BRANCH_PREDICTION+0x31c>
     ca0:	672f6269 	strvs	r6, [pc, -r9, ror #4]!
     ca4:	612f6363 			; <UNDEFINED> instruction: 0x612f6363
     ca8:	6e2d6d72 	mcrvs	13, 1, r6, cr13, cr2, {3}
     cac:	2d656e6f 	stclcs	14, cr6, [r5, #-444]!	; 0xfffffe44
     cb0:	69626165 	stmdbvs	r2!, {r0, r2, r5, r6, r8, sp, lr}^
     cb4:	342e352f 	strtcc	r3, [lr], #-1327	; 0xfffffad1
     cb8:	692f312e 	stmdbvs	pc!, {r1, r2, r3, r5, r8, ip, sp}	; <UNPREDICTABLE>
     cbc:	756c636e 	strbvc	r6, [ip, #-878]!	; 0xfffffc92
     cc0:	69006564 	stmdbvs	r0, {r2, r5, r6, r8, sl, sp, lr}
     cc4:	756c636e 	strbvc	r6, [ip, #-878]!	; 0xfffffc92
     cc8:	642f6564 	strtvs	r6, [pc], #-1380	; cd0 <SCTLR_ENABLE_BRANCH_PREDICTION+0x4d0>
     ccc:	63697665 	cmnvs	r9, #105906176	; 0x6500000
     cd0:	75000065 	strvc	r0, [r0, #-101]	; 0xffffff9b
     cd4:	30747261 	rsbscc	r7, r4, r1, ror #4
     cd8:	0100632e 	tsteq	r0, lr, lsr #6
     cdc:	74730000 	ldrbtvc	r0, [r3], #-0
     ce0:	746e6964 	strbtvc	r6, [lr], #-2404	; 0xfffff69c
     ce4:	6363672d 	cmnvs	r3, #11796480	; 0xb40000
     ce8:	0200682e 	andeq	r6, r0, #3014656	; 0x2e0000
     cec:	74730000 	ldrbtvc	r0, [r3], #-0
     cf0:	66656464 	strbtvs	r6, [r5], -r4, ror #8
     cf4:	0200682e 	andeq	r6, r0, #3014656	; 0x2e0000
     cf8:	61750000 	cmnvs	r5, r0
     cfc:	2e307472 	mrccs	4, 1, r7, cr0, cr2, {3}
     d00:	00030068 	andeq	r0, r3, r8, rrx
     d04:	05000000 	streq	r0, [r0, #-0]
     d08:	00923402 	addseq	r3, r2, r2, lsl #8
     d0c:	01230300 			; <UNDEFINED> instruction: 0x01230300
     d10:	03016903 	movweq	r6, #6403	; 0x1903
     d14:	7403820c 	strvc	r8, [r3], #-524	; 0xfffffdf4
     d18:	2e0c032e 	cdpcs	3, 0, cr0, cr12, cr14, {1}
     d1c:	032e7403 			; <UNDEFINED> instruction: 0x032e7403
     d20:	74034a0c 	strvc	r4, [r3], #-2572	; 0xfffff5f4
     d24:	4a0c034a 	bmi	301a54 <__kernel_end+0x19ba54>
     d28:	034a7403 	movteq	r7, #41987	; 0xa403
     d2c:	ac0800c0 	stcge	0, cr0, [r8], {192}	; 0xc0
     d30:	00014603 	andeq	r4, r1, r3, lsl #12
     d34:	06010402 	streq	r0, [r1], -r2, lsl #8
     d38:	0402004a 	streq	r0, [r2], #-74	; 0xffffffb6
     d3c:	3c030601 	stccc	6, cr0, [r3], {1}
     d40:	7fbe0366 	svcvc	0x00be0366
     d44:	00c9034a 	sbceq	r0, r9, sl, asr #6
     d48:	7fbd034a 	svcvc	0x00bd034a
     d4c:	04020001 	streq	r0, [r2], #-1
     d50:	004a0601 	subeq	r0, sl, r1, lsl #12
     d54:	06010402 	streq	r0, [r1], -r2, lsl #8
     d58:	6600c503 	strvs	ip, [r0], -r3, lsl #10
     d5c:	4a7fbb03 	bmi	1fef970 <__kernel_end+0x1e89970>
     d60:	2e00c903 	cdpcs	9, 0, cr12, cr0, cr3, {0}
     d64:	002f2e4d 	eoreq	r2, pc, sp, asr #28
     d68:	67030402 	strvs	r0, [r3, -r2, lsl #8]
     d6c:	03040200 	movweq	r0, #16896	; 0x4200
     d70:	332e872d 			; <UNDEFINED> instruction: 0x332e872d
     d74:	314b2f31 	cmpcc	fp, r1, lsr pc
     d78:	4d4b312c 	stfmie	f3, [fp, #-176]	; 0xffffff50
     d7c:	02022d2f 	andeq	r2, r2, #3008	; 0xbc0
     d80:	eb010100 	bl	41188 <__first_lvl_tbl_end+0x1c188>
     d84:	02000001 	andeq	r0, r0, #1
     d88:	00013300 	andeq	r3, r1, r0, lsl #6
     d8c:	fb010200 	blx	41596 <__first_lvl_tbl_end+0x1c596>
     d90:	01000d0e 	tsteq	r0, lr, lsl #26
     d94:	00010101 	andeq	r0, r1, r1, lsl #2
     d98:	00010000 	andeq	r0, r1, r0
     d9c:	65640100 	strbvs	r0, [r4, #-256]!	; 0xffffff00
     da0:	65636976 	strbvs	r6, [r3, #-2422]!	; 0xfffff68a
     da4:	636e6900 	cmnvs	lr, #0, 18
     da8:	6564756c 	strbvs	r7, [r4, #-1388]!	; 0xfffffa94
     dac:	7665642f 	strbtvc	r6, [r5], -pc, lsr #8
     db0:	00656369 	rsbeq	r6, r5, r9, ror #6
     db4:	6573552f 	ldrbvs	r5, [r3, #-1327]!	; 0xfffffad1
     db8:	702f7372 	eorvc	r7, pc, r2, ror r3	; <UNPREDICTABLE>
     dbc:	616b6172 	smcvs	46610	; 0xb612
     dc0:	6f626873 	svcvs	0x00626873
     dc4:	72616b72 	rsbvc	r6, r1, #116736	; 0x1c800
     dc8:	7365442f 	cmnvc	r5, #788529152	; 0x2f000000
     dcc:	706f746b 	rsbvc	r7, pc, fp, ror #8
     dd0:	6d65522f 	sfmvs	f5, 2, [r5, #-188]!	; 0xffffff44
     dd4:	5f65746f 	svcpl	0x0065746f
     dd8:	6f706552 	svcvs	0x00706552
     ddc:	6970722f 	ldmdbvs	r0!, {r0, r1, r2, r3, r5, r9, ip, sp, lr}^
     de0:	2d736f2d 	ldclcs	15, cr6, [r3, #-180]!	; 0xffffff4c
     de4:	74726175 	ldrbtvc	r6, [r2], #-373	; 0xfffffe8b
     de8:	6970722f 	ldmdbvs	r0!, {r0, r1, r2, r3, r5, r9, ip, sp, lr}^
     dec:	6d2d6233 	sfmvs	f6, 4, [sp, #-204]!	; 0xffffff34
     df0:	79746165 	ldmdbvc	r4!, {r0, r2, r5, r6, r8, sp, lr}^
     df4:	656b732d 	strbvs	r7, [fp, #-813]!	; 0xfffffcd3
     df8:	6f74656c 	svcvs	0x0074656c
     dfc:	79732f6e 	ldmdbvc	r3!, {r1, r2, r3, r5, r6, r8, r9, sl, fp, sp}^
     e00:	6f6f7273 	svcvs	0x006f7273
     e04:	73752f74 	cmnvc	r5, #116, 30	; 0x1d0
     e08:	6e692f72 	mcrvs	15, 3, r2, cr9, cr2, {3}
     e0c:	64756c63 	ldrbtvs	r6, [r5], #-3171	; 0xfffff39d
     e10:	6c702f65 	ldclvs	15, cr2, [r0], #-404	; 0xfffffe6c
     e14:	00636269 	rsbeq	r6, r3, r9, ror #4
     e18:	6c636e69 	stclvs	14, cr6, [r3], #-420	; 0xfffffe5c
     e1c:	2f656475 	svccs	0x00656475
     e20:	6e72656b 	cdpvs	5, 7, cr6, cr2, cr11, {3}
     e24:	2f006c65 	svccs	0x00006c65
     e28:	72657355 	rsbvc	r7, r5, #1409286145	; 0x54000001
     e2c:	72702f73 	rsbsvc	r2, r0, #460	; 0x1cc
     e30:	73616b61 	cmnvc	r1, #99328	; 0x18400
     e34:	726f6268 	rsbvc	r6, pc, #104, 4	; 0x80000006
     e38:	2f72616b 	svccs	0x0072616b
     e3c:	2d636367 	stclcs	3, cr6, [r3, #-412]!	; 0xfffffe64
     e40:	2d6d7261 	sfmcs	f7, 2, [sp, #-388]!	; 0xfffffe7c
     e44:	656e6f6e 	strbvs	r6, [lr, #-3950]!	; 0xfffff092
     e48:	6261652d 	rsbvs	r6, r1, #188743680	; 0xb400000
     e4c:	696c2f69 	stmdbvs	ip!, {r0, r3, r5, r6, r8, r9, sl, fp, sp}^
     e50:	63672f62 	cmnvs	r7, #392	; 0x188
     e54:	72612f63 	rsbvc	r2, r1, #396	; 0x18c
     e58:	6f6e2d6d 	svcvs	0x006e2d6d
     e5c:	652d656e 	strvs	r6, [sp, #-1390]!	; 0xfffffa92
     e60:	2f696261 	svccs	0x00696261
     e64:	2e342e35 	mrccs	14, 1, r2, cr4, cr5, {1}
     e68:	6e692f31 	mcrvs	15, 3, r2, cr9, cr1, {1}
     e6c:	64756c63 	ldrbtvs	r6, [r5], #-3171	; 0xfffff39d
     e70:	64000065 	strvs	r0, [r0], #-101	; 0xffffff9b
     e74:	632e616d 			; <UNDEFINED> instruction: 0x632e616d
     e78:	00000100 	andeq	r0, r0, r0, lsl #2
     e7c:	2e616d64 	cdpcs	13, 6, cr6, cr1, cr4, {3}
     e80:	00020068 	andeq	r0, r2, r8, rrx
     e84:	64747300 	ldrbtvs	r7, [r4], #-768	; 0xfffffd00
     e88:	682e6f69 	stmdavs	lr!, {r0, r3, r5, r6, r8, r9, sl, fp, sp, lr}
     e8c:	00000300 	andeq	r0, r0, r0, lsl #6
     e90:	74726175 	ldrbtvc	r6, [r2], #-373	; 0xfffffe8b
     e94:	00682e30 	rsbeq	r2, r8, r0, lsr lr
     e98:	72000002 	andvc	r0, r0, #2
     e9c:	692d6970 	pushvs	{r4, r5, r6, r8, fp, sp, lr}
     ea0:	7265746e 	rsbvc	r7, r5, #1845493760	; 0x6e000000
     ea4:	74707572 	ldrbtvc	r7, [r0], #-1394	; 0xfffffa8e
     ea8:	00682e73 	rsbeq	r2, r8, r3, ror lr
     eac:	73000004 	movwvc	r0, #4
     eb0:	6e696474 	mcrvs	4, 3, r6, cr9, cr4, {3}
     eb4:	63672d74 	cmnvs	r7, #116, 26	; 0x1d00
     eb8:	00682e63 	rsbeq	r2, r8, r3, ror #28
     ebc:	00000005 	andeq	r0, r0, r5
     ec0:	5c020500 	cfstr32pl	mvfx0, [r2], {-0}
     ec4:	03000093 	movweq	r0, #147	; 0x93
     ec8:	31010131 	tstcc	r1, r1, lsr r1
     ecc:	48322c2d 	ldmdami	r2!, {r0, r2, r3, r5, sl, fp, sp}
     ed0:	77032f9f 			; <UNDEFINED> instruction: 0x77032f9f
     ed4:	62031382 	andvs	r1, r3, #134217730	; 0x8000002
     ed8:	2d2f2e82 	stccs	14, cr2, [pc, #-520]!	; cd8 <SCTLR_ENABLE_BRANCH_PREDICTION+0x4d8>
     edc:	02004b2f 	andeq	r4, r0, #48128	; 0xbc00
     ee0:	00680304 	rsbeq	r0, r8, r4, lsl #6
     ee4:	48030402 	stmdami	r3, {r1, sl}
     ee8:	862d2f4e 	strthi	r2, [sp], -lr, asr #30
     eec:	03488413 	movteq	r8, #33811	; 0x8413
     ef0:	2f13660a 	svccs	0x0013660a
     ef4:	11032f67 	tstne	r3, r7, ror #30
     ef8:	3064304a 	rsbcc	r3, r4, sl, asr #32
     efc:	1d03302c 	stcne	0, cr3, [r3, #-176]	; 0xffffff50
     f00:	2e63032e 	cdpcs	3, 6, cr0, cr3, cr14, {1}
     f04:	03324630 	teqeq	r2, #48, 12	; 0x3000000
     f08:	1d032e0e 	stcne	14, cr2, [r3, #-56]	; 0xffffffc8
     f0c:	2e1b032e 	cdpcs	3, 1, cr0, cr11, cr14, {1}
     f10:	032e4803 			; <UNDEFINED> instruction: 0x032e4803
     f14:	c6032e72 			; <UNDEFINED> instruction: 0xc6032e72
     f18:	ba032e00 	blt	cc720 <__first_lvl_tbl_end+0xa7720>
     f1c:	696a2e7f 	stmdbvs	sl!, {r0, r1, r2, r3, r4, r5, r6, r9, sl, fp, sp}^
     f20:	686784a0 	stmdavs	r7!, {r5, r7, sl, pc}^
     f24:	a44ba04b 	strbge	sl, [fp], #-75	; 0xffffffb5
     f28:	032e0e03 			; <UNDEFINED> instruction: 0x032e0e03
     f2c:	79032e79 	stmdbvc	r3, {r0, r3, r4, r5, r6, r9, sl, fp, sp}
     f30:	4a0e032e 	bmi	381bf0 <__kernel_end+0x21bbf0>
     f34:	312e7603 			; <UNDEFINED> instruction: 0x312e7603
     f38:	032f352b 			; <UNDEFINED> instruction: 0x032f352b
     f3c:	2b352e75 	blcs	d4c918 <__kernel_end+0xbe6918>
     f40:	2e0e0329 	cdpcs	3, 0, cr0, cr14, cr9, {1}
     f44:	352e7403 	strcc	r7, [lr, #-1027]!	; 0xfffffbfd
     f48:	32352c2a 	eorscc	r2, r5, #10752	; 0x2a00
     f4c:	03f5862f 	mvnseq	r8, #49283072	; 0x2f00000
     f50:	78032e09 	stmdavc	r3, {r0, r3, r9, sl, fp, sp}
     f54:	09032d2e 	stmdbeq	r3, {r1, r2, r3, r5, r8, sl, fp, sp}
     f58:	2e77032e 	cdpcs	3, 7, cr0, cr7, cr14, {1}
     f5c:	2d31364b 	ldccs	6, cr3, [r1, #-300]!	; 0xfffffed4
     f60:	2f2d4c4b 	svccs	0x002d4c4b
     f64:	512f2d4c 			; <UNDEFINED> instruction: 0x512f2d4c
     f68:	4b684b67 	blmi	1a13d0c <__kernel_end+0x18add0c>
     f6c:	002c0267 	eoreq	r0, ip, r7, ror #4
     f70:	01910101 	orrseq	r0, r1, r1, lsl #2
     f74:	00020000 	andeq	r0, r2, r0
     f78:	0000013a 	andeq	r0, r0, sl, lsr r1
     f7c:	0efb0102 	cdpeq	1, 15, cr0, cr11, cr2, {0}
     f80:	0101000d 	tsteq	r1, sp
     f84:	00000101 	andeq	r0, r0, r1, lsl #2
     f88:	00000100 	andeq	r0, r0, r0, lsl #2
     f8c:	76656401 	strbtvc	r6, [r5], -r1, lsl #8
     f90:	00656369 	rsbeq	r6, r5, r9, ror #6
     f94:	6573552f 	ldrbvs	r5, [r3, #-1327]!	; 0xfffffad1
     f98:	702f7372 	eorvc	r7, pc, r2, ror r3	; <UNPREDICTABLE>
     f9c:	616b6172 	smcvs	46610	; 0xb612
     fa0:	6f626873 	svcvs	0x00626873
     fa4:	72616b72 	rsbvc	r6, r1, #116736	; 0x1c800
     fa8:	6363672f 	cmnvs	r3, #12320768	; 0xbc0000
     fac:	6d72612d 	ldfvse	f6, [r2, #-180]!	; 0xffffff4c
     fb0:	6e6f6e2d 	cdpvs	14, 6, cr6, cr15, cr13, {1}
     fb4:	61652d65 	cmnvs	r5, r5, ror #26
     fb8:	6c2f6962 	stcvs	9, cr6, [pc], #-392	; e38 <SCTLR_ENABLE_BRANCH_PREDICTION+0x638>
     fbc:	672f6269 	strvs	r6, [pc, -r9, ror #4]!
     fc0:	612f6363 			; <UNDEFINED> instruction: 0x612f6363
     fc4:	6e2d6d72 	mcrvs	13, 1, r6, cr13, cr2, {3}
     fc8:	2d656e6f 	stclcs	14, cr6, [r5, #-444]!	; 0xfffffe44
     fcc:	69626165 	stmdbvs	r2!, {r0, r2, r5, r6, r8, sp, lr}^
     fd0:	342e352f 	strtcc	r3, [lr], #-1327	; 0xfffffad1
     fd4:	692f312e 	stmdbvs	pc!, {r1, r2, r3, r5, r8, ip, sp}	; <UNPREDICTABLE>
     fd8:	756c636e 	strbvc	r6, [ip, #-878]!	; 0xfffffc92
     fdc:	69006564 	stmdbvs	r0, {r2, r5, r6, r8, sl, sp, lr}
     fe0:	756c636e 	strbvc	r6, [ip, #-878]!	; 0xfffffc92
     fe4:	6b2f6564 	blvs	bda57c <__kernel_end+0xa7457c>
     fe8:	656e7265 	strbvs	r7, [lr, #-613]!	; 0xfffffd9b
     fec:	6e69006c 	cdpvs	0, 6, cr0, cr9, cr12, {3}
     ff0:	64756c63 	ldrbtvs	r6, [r5], #-3171	; 0xfffff39d
     ff4:	65642f65 	strbvs	r2, [r4, #-3941]!	; 0xfffff09b
     ff8:	65636976 	strbvs	r6, [r3, #-2422]!	; 0xfffff68a
     ffc:	73552f00 	cmpvc	r5, #0, 30
    1000:	2f737265 	svccs	0x00737265
    1004:	6b617270 	blvs	185d9cc <__kernel_end+0x16f79cc>
    1008:	62687361 	rsbvs	r7, r8, #-2080374783	; 0x84000001
    100c:	616b726f 	cmnvs	fp, pc, ror #4
    1010:	65442f72 	strbvs	r2, [r4, #-3954]	; 0xfffff08e
    1014:	6f746b73 	svcvs	0x00746b73
    1018:	65522f70 	ldrbvs	r2, [r2, #-3952]	; 0xfffff090
    101c:	65746f6d 	ldrbvs	r6, [r4, #-3949]!	; 0xfffff093
    1020:	7065525f 	rsbvc	r5, r5, pc, asr r2
    1024:	70722f6f 	rsbsvc	r2, r2, pc, ror #30
    1028:	736f2d69 	cmnvc	pc, #6720	; 0x1a40
    102c:	7261752d 	rsbvc	r7, r1, #188743680	; 0xb400000
    1030:	70722f74 	rsbsvc	r2, r2, r4, ror pc
    1034:	2d623369 	stclcs	3, cr3, [r2, #-420]!	; 0xfffffe5c
    1038:	7461656d 	strbtvc	r6, [r1], #-1389	; 0xfffffa93
    103c:	6b732d79 	blvs	1ccc628 <__kernel_end+0x1b66628>
    1040:	74656c65 	strbtvc	r6, [r5], #-3173	; 0xfffff39b
    1044:	732f6e6f 			; <UNDEFINED> instruction: 0x732f6e6f
    1048:	6f727379 	svcvs	0x00727379
    104c:	752f746f 	strvc	r7, [pc, #-1135]!	; be5 <SCTLR_ENABLE_BRANCH_PREDICTION+0x3e5>
    1050:	692f7273 	stmdbvs	pc!, {r0, r1, r4, r5, r6, r9, ip, sp, lr}	; <UNPREDICTABLE>
    1054:	756c636e 	strbvc	r6, [ip, #-878]!	; 0xfffffc92
    1058:	702f6564 	eorvc	r6, pc, r4, ror #10
    105c:	6362696c 	cmnvs	r2, #108, 18	; 0x1b0000
    1060:	63680000 	cmnvs	r8, #0
    1064:	00632e64 	rsbeq	r2, r3, r4, ror #28
    1068:	73000001 	movwvc	r0, #1
    106c:	6e696474 	mcrvs	4, 3, r6, cr9, cr4, {3}
    1070:	63672d74 	cmnvs	r7, #116, 26	; 0x1d00
    1074:	00682e63 	rsbeq	r2, r8, r3, ror #28
    1078:	74000002 	strvc	r0, [r0], #-2
    107c:	73657079 	cmnvc	r5, #121	; 0x79
    1080:	0300682e 	movweq	r6, #2094	; 0x82e
    1084:	63680000 	cmnvs	r8, #0
    1088:	00682e64 	rsbeq	r2, r8, r4, ror #28
    108c:	72000004 	andvc	r0, r0, #4
    1090:	6d2d6970 	stcvs	9, cr6, [sp, #-448]!	; 0xfffffe40
    1094:	626c6961 	rsbvs	r6, ip, #1589248	; 0x184000
    1098:	692d786f 	pushvs	{r0, r1, r2, r3, r5, r6, fp, ip, sp, lr}
    109c:	7265746e 	rsbvc	r7, r5, #1845493760	; 0x6e000000
    10a0:	65636166 	strbvs	r6, [r3, #-358]!	; 0xfffffe9a
    10a4:	0300682e 	movweq	r6, #2094	; 0x82e
    10a8:	74730000 	ldrbtvc	r0, [r3], #-0
    10ac:	2e6f6964 	cdpcs	9, 6, cr6, cr15, cr4, {3}
    10b0:	00050068 	andeq	r0, r5, r8, rrx
    10b4:	05000000 	streq	r0, [r0, #-0]
    10b8:	00968002 	addseq	r8, r6, r2
    10bc:	01110300 	tsteq	r1, r0, lsl #6
    10c0:	63312c30 	teqvs	r1, #48, 24	; 0x3000
    10c4:	2f2f9f31 	svccs	0x002f9f31
    10c8:	2c306a2d 	ldccs	10, cr6, [r0], #-180	; 0xffffff4c
    10cc:	9f316331 	svcls	0x00316331
    10d0:	6a2d2f2f 	bvs	b4cd94 <__kernel_end+0x9e6d94>
    10d4:	63312c30 	teqvs	r1, #48, 24	; 0x3000
    10d8:	68308331 	ldmdavs	r0!, {r0, r4, r5, r8, r9, pc}
    10dc:	a22d6783 	eorge	r6, sp, #34340864	; 0x20c0000
    10e0:	08322f2f 	ldmdaeq	r2!, {r0, r1, r2, r3, r5, r8, r9, sl, fp, sp}
    10e4:	032fa325 			; <UNDEFINED> instruction: 0x032fa325
    10e8:	4e672e77 	mcrmi	14, 3, r2, cr7, cr7, {3}
    10ec:	69198867 	ldmdbvs	r9, {r0, r1, r2, r5, r6, fp, pc}
    10f0:	2f4d302f 	svccs	0x004d302f
    10f4:	03364d6b 	teqeq	r6, #6848	; 0x1ac0
    10f8:	362d2e79 			; <UNDEFINED> instruction: 0x362d2e79
    10fc:	352e7903 	strcc	r7, [lr, #-2307]!	; 0xfffff6fd
    1100:	08022f30 	stmdaeq	r2, {r4, r5, r8, r9, sl, fp, sp}
    1104:	f0010100 			; <UNDEFINED> instruction: 0xf0010100
    1108:	02000000 	andeq	r0, r0, #0
    110c:	0000d200 	andeq	sp, r0, r0, lsl #4
    1110:	fb010200 	blx	4191a <__first_lvl_tbl_end+0x1c91a>
    1114:	01000d0e 	tsteq	r0, lr, lsl #26
    1118:	00010101 	andeq	r0, r1, r1, lsl #2
    111c:	00010000 	andeq	r0, r1, r0
    1120:	65640100 	strbvs	r0, [r4, #-256]!	; 0xffffff00
    1124:	65636976 	strbvs	r6, [r3, #-2422]!	; 0xfffff68a
    1128:	636e6900 	cmnvs	lr, #0, 18
    112c:	6564756c 	strbvs	r7, [r4, #-1388]!	; 0xfffffa94
    1130:	7665642f 	strbtvc	r6, [r5], -pc, lsr #8
    1134:	00656369 	rsbeq	r6, r5, r9, ror #6
    1138:	6573552f 	ldrbvs	r5, [r3, #-1327]!	; 0xfffffad1
    113c:	702f7372 	eorvc	r7, pc, r2, ror r3	; <UNPREDICTABLE>
    1140:	616b6172 	smcvs	46610	; 0xb612
    1144:	6f626873 	svcvs	0x00626873
    1148:	72616b72 	rsbvc	r6, r1, #116736	; 0x1c800
    114c:	7365442f 	cmnvc	r5, #788529152	; 0x2f000000
    1150:	706f746b 	rsbvc	r7, pc, fp, ror #8
    1154:	6d65522f 	sfmvs	f5, 2, [r5, #-188]!	; 0xffffff44
    1158:	5f65746f 	svcpl	0x0065746f
    115c:	6f706552 	svcvs	0x00706552
    1160:	6970722f 	ldmdbvs	r0!, {r0, r1, r2, r3, r5, r9, ip, sp, lr}^
    1164:	2d736f2d 	ldclcs	15, cr6, [r3, #-180]!	; 0xffffff4c
    1168:	74726175 	ldrbtvc	r6, [r2], #-373	; 0xfffffe8b
    116c:	6970722f 	ldmdbvs	r0!, {r0, r1, r2, r3, r5, r9, ip, sp, lr}^
    1170:	6d2d6233 	sfmvs	f6, 4, [sp, #-204]!	; 0xffffff34
    1174:	79746165 	ldmdbvc	r4!, {r0, r2, r5, r6, r8, sp, lr}^
    1178:	656b732d 	strbvs	r7, [fp, #-813]!	; 0xfffffcd3
    117c:	6f74656c 	svcvs	0x0074656c
    1180:	79732f6e 	ldmdbvc	r3!, {r1, r2, r3, r5, r6, r8, r9, sl, fp, sp}^
    1184:	6f6f7273 	svcvs	0x006f7273
    1188:	73752f74 	cmnvc	r5, #116, 30	; 0x1d0
    118c:	6e692f72 	mcrvs	15, 3, r2, cr9, cr2, {3}
    1190:	64756c63 	ldrbtvs	r6, [r5], #-3171	; 0xfffff39d
    1194:	6c702f65 	ldclvs	15, cr2, [r0], #-404	; 0xfffffe6c
    1198:	00636269 	rsbeq	r6, r3, r9, ror #4
    119c:	6c636e69 	stclvs	14, cr6, [r3], #-420	; 0xfffffe5c
    11a0:	2f656475 	svccs	0x00656475
    11a4:	6e72656b 	cdpvs	5, 7, cr6, cr2, cr11, {3}
    11a8:	00006c65 	andeq	r6, r0, r5, ror #24
    11ac:	64627375 	strbtvs	r7, [r2], #-885	; 0xfffffc8b
    11b0:	0100632e 	tsteq	r0, lr, lsr #6
    11b4:	73750000 	cmnvc	r5, #0
    11b8:	656d2d62 	strbvs	r2, [sp, #-3426]!	; 0xfffff29e
    11bc:	00682e6d 	rsbeq	r2, r8, sp, ror #28
    11c0:	73000002 	movwvc	r0, #2
    11c4:	6f696474 	svcvs	0x00696474
    11c8:	0300682e 	movweq	r6, #2094	; 0x82e
    11cc:	63680000 	cmnvs	r8, #0
    11d0:	00682e64 	rsbeq	r2, r8, r4, ror #28
    11d4:	74000002 	strvc	r0, [r0], #-2
    11d8:	73657079 	cmnvc	r5, #121	; 0x79
    11dc:	0400682e 	streq	r6, [r0], #-2094	; 0xfffff7d2
    11e0:	00000000 	andeq	r0, r0, r0
    11e4:	98600205 	stmdals	r0!, {r0, r2, r9}^
    11e8:	32180000 	andscc	r0, r8, #0
    11ec:	852e0a03 	strhi	r0, [lr, #-2563]!	; 0xfffff5fd
    11f0:	7a03306c 	bvc	cd3a8 <__first_lvl_tbl_end+0xa83a8>
    11f4:	08026c4a 	stmdaeq	r2, {r1, r3, r6, sl, fp, sp, lr}
    11f8:	c5010100 	strgt	r0, [r1, #-256]	; 0xffffff00
    11fc:	02000001 	andeq	r0, r0, #1
    1200:	0000f100 	andeq	pc, r0, r0, lsl #2
    1204:	fb010200 	blx	41a0e <__first_lvl_tbl_end+0x1ca0e>
    1208:	01000d0e 	tsteq	r0, lr, lsl #26
    120c:	00010101 	andeq	r0, r1, r1, lsl #2
    1210:	00010000 	andeq	r0, r1, r0
    1214:	65640100 	strbvs	r0, [r4, #-256]!	; 0xffffff00
    1218:	65636976 	strbvs	r6, [r3, #-2422]!	; 0xfffff68a
    121c:	73552f00 	cmpvc	r5, #0, 30
    1220:	2f737265 	svccs	0x00737265
    1224:	6b617270 	blvs	185dbec <__kernel_end+0x16f7bec>
    1228:	62687361 	rsbvs	r7, r8, #-2080374783	; 0x84000001
    122c:	616b726f 	cmnvs	fp, pc, ror #4
    1230:	63672f72 	cmnvs	r7, #456	; 0x1c8
    1234:	72612d63 	rsbvc	r2, r1, #6336	; 0x18c0
    1238:	6f6e2d6d 	svcvs	0x006e2d6d
    123c:	652d656e 	strvs	r6, [sp, #-1390]!	; 0xfffffa92
    1240:	2f696261 	svccs	0x00696261
    1244:	2f62696c 	svccs	0x0062696c
    1248:	2f636367 	svccs	0x00636367
    124c:	2d6d7261 	sfmcs	f7, 2, [sp, #-388]!	; 0xfffffe7c
    1250:	656e6f6e 	strbvs	r6, [lr, #-3950]!	; 0xfffff092
    1254:	6261652d 	rsbvs	r6, r1, #188743680	; 0xb400000
    1258:	2e352f69 	cdpcs	15, 3, cr2, cr5, cr9, {3}
    125c:	2f312e34 	svccs	0x00312e34
    1260:	6c636e69 	stclvs	14, cr6, [r3], #-420	; 0xfffffe5c
    1264:	00656475 	rsbeq	r6, r5, r5, ror r4
    1268:	6573552f 	ldrbvs	r5, [r3, #-1327]!	; 0xfffffad1
    126c:	702f7372 	eorvc	r7, pc, r2, ror r3	; <UNPREDICTABLE>
    1270:	616b6172 	smcvs	46610	; 0xb612
    1274:	6f626873 	svcvs	0x00626873
    1278:	72616b72 	rsbvc	r6, r1, #116736	; 0x1c800
    127c:	7365442f 	cmnvc	r5, #788529152	; 0x2f000000
    1280:	706f746b 	rsbvc	r7, pc, fp, ror #8
    1284:	6d65522f 	sfmvs	f5, 2, [r5, #-188]!	; 0xffffff44
    1288:	5f65746f 	svcpl	0x0065746f
    128c:	6f706552 	svcvs	0x00706552
    1290:	6970722f 	ldmdbvs	r0!, {r0, r1, r2, r3, r5, r9, ip, sp, lr}^
    1294:	2d736f2d 	ldclcs	15, cr6, [r3, #-180]!	; 0xffffff4c
    1298:	74726175 	ldrbtvc	r6, [r2], #-373	; 0xfffffe8b
    129c:	6970722f 	ldmdbvs	r0!, {r0, r1, r2, r3, r5, r9, ip, sp, lr}^
    12a0:	6d2d6233 	sfmvs	f6, 4, [sp, #-204]!	; 0xffffff34
    12a4:	79746165 	ldmdbvc	r4!, {r0, r2, r5, r6, r8, sp, lr}^
    12a8:	656b732d 	strbvs	r7, [fp, #-813]!	; 0xfffffcd3
    12ac:	6f74656c 	svcvs	0x0074656c
    12b0:	79732f6e 	ldmdbvc	r3!, {r1, r2, r3, r5, r6, r8, r9, sl, fp, sp}^
    12b4:	6f6f7273 	svcvs	0x006f7273
    12b8:	73752f74 	cmnvc	r5, #116, 30	; 0x1d0
    12bc:	6e692f72 	mcrvs	15, 3, r2, cr9, cr2, {3}
    12c0:	64756c63 	ldrbtvs	r6, [r5], #-3171	; 0xfffff39d
    12c4:	6c702f65 	ldclvs	15, cr2, [r0], #-404	; 0xfffffe6c
    12c8:	00636269 	rsbeq	r6, r3, r9, ror #4
    12cc:	62737500 	rsbsvs	r7, r3, #0, 10
    12d0:	6d656d2d 	stclvs	13, cr6, [r5, #-180]!	; 0xffffff4c
    12d4:	0100632e 	tsteq	r0, lr, lsr #6
    12d8:	74730000 	ldrbtvc	r0, [r3], #-0
    12dc:	746e6964 	strbtvc	r6, [lr], #-2404	; 0xfffff69c
    12e0:	6363672d 	cmnvs	r3, #11796480	; 0xb40000
    12e4:	0200682e 	andeq	r6, r0, #3014656	; 0x2e0000
    12e8:	74730000 	ldrbtvc	r0, [r3], #-0
    12ec:	2e6f6964 	cdpcs	9, 6, cr6, cr15, cr4, {3}
    12f0:	00030068 	andeq	r0, r3, r8, rrx
    12f4:	05000000 	streq	r0, [r0, #-0]
    12f8:	0098ac02 	addseq	sl, r8, r2, lsl #24
    12fc:	01140300 	tsteq	r4, r0, lsl #6
    1300:	69842f2e 	stmibvs	r4, {r1, r2, r3, r5, r8, r9, sl, fp, sp}
    1304:	302e2c68 	eorcc	r2, lr, r8, ror #24
    1308:	2c820a03 	vstmiacs	r2, {s0-s2}
    130c:	686aa368 	stmdavs	sl!, {r3, r5, r6, r8, r9, sp, pc}^
    1310:	e308674b 	movw	r6, #34635	; 0x874b
    1314:	08661503 	stmdaeq	r6!, {r0, r1, r8, sl, ip}^
    1318:	2c312b24 	ldccs	11, cr2, [r1], #-144	; 0xffffff70
    131c:	2e09032d 	cdpcs	3, 0, cr0, cr9, cr13, {1}
    1320:	312e7703 			; <UNDEFINED> instruction: 0x312e7703
    1324:	302c4d35 	eorcc	r4, ip, r5, lsr sp
    1328:	034b2f65 	movteq	r2, #48997	; 0xbf65
    132c:	71032e19 	tstvc	r3, r9, lsl lr
    1330:	322b324a 	eorcc	r3, fp, #-1610612732	; 0xa0000004
    1334:	51302d2c 	teqpl	r0, ip, lsr #26
    1338:	362e7a03 	strtcc	r7, [lr], -r3, lsl #20
    133c:	4b4b2f81 	blmi	12cd148 <__kernel_end+0x1167148>
    1340:	4e4a4403 	cdpmi	4, 4, cr4, cr10, cr3, {0}
    1344:	2b302f2b 	blcs	c0cff8 <__kernel_end+0xaa6ff8>
    1348:	032e0903 			; <UNDEFINED> instruction: 0x032e0903
    134c:	31352e7a 	teqcc	r5, sl, ror lr
    1350:	2f65302c 	svccs	0x0065302c
    1354:	2e2d034b 	cdpcs	3, 2, cr0, cr13, cr11, {2}
    1358:	4a7fae03 	bmi	1fecb6c <__kernel_end+0x1e86b6c>
    135c:	03a08367 	moveq	r8, #-1677721599	; 0x9c000001
    1360:	834a00c5 	movthi	r0, #41157	; 0xa0c5
    1364:	9f826503 	svcls	0x00826503
    1368:	66690330 			; <UNDEFINED> instruction: 0x66690330
    136c:	6c03309f 	stcvs	0, cr3, [r3], {159}	; 0x9f
    1370:	0a036766 	beq	db110 <__first_lvl_tbl_end+0xb6110>
    1374:	4a27034a 	bmi	9c20a4 <__kernel_end+0x85c0a4>
    1378:	5103d783 	smlabbpl	r3, r3, r7, sp
    137c:	c403674a 	strgt	r6, [r3], #-1866	; 0xfffff8b6
    1380:	2ee40800 	cdpcs	8, 14, cr0, cr4, cr0, {0}
    1384:	4c322a32 	ldcmi	10, cr2, [r2], #-200	; 0xffffff38
    1388:	0809034b 	stmdaeq	r9, {r0, r1, r3, r6, r8, r9}
    138c:	75032f20 	strvc	r2, [r3, #-3872]	; 0xfffff0e0
    1390:	4a0f032e 	bmi	3c2050 <__kernel_end+0x25c050>
    1394:	032d2ff3 			; <UNDEFINED> instruction: 0x032d2ff3
    1398:	2a324a72 	bcs	c93d68 <__kernel_end+0xb2dd68>
    139c:	302d2b32 	eorcc	r2, sp, r2, lsr fp
    13a0:	2c31672c 	ldccs	7, cr6, [r1], #-176	; 0xffffff50
    13a4:	034b2c30 	movteq	r2, #48176	; 0xbc30
    13a8:	75032e0c 	strvc	r2, [r3, #-3596]	; 0xfffff1f4
    13ac:	f20d032e 	vcgt.s8	d0, d13, d30
    13b0:	49844f15 	stmibmi	r4, {r0, r2, r4, r8, r9, sl, fp, lr}
    13b4:	6c49686a 	mcrrvs	8, 6, r6, r9, cr10
    13b8:	2c4b2f01 	mcrrcs	15, 0, r2, fp, cr1
    13bc:	024b2d30 	subeq	r2, fp, #48, 26	; 0xc00
    13c0:	0101000c 	tsteq	r1, ip
    13c4:	00000153 	andeq	r0, r0, r3, asr r1
    13c8:	01310002 	teqeq	r1, r2
    13cc:	01020000 	mrseq	r0, (UNDEF: 2)
    13d0:	000d0efb 	strdeq	r0, [sp], -fp
    13d4:	01010101 	tsteq	r1, r1, lsl #2
    13d8:	01000000 	mrseq	r0, (UNDEF: 0)
    13dc:	6b010000 	blvs	413e4 <__first_lvl_tbl_end+0x1c3e4>
    13e0:	656e7265 	strbvs	r7, [lr, #-613]!	; 0xfffffd9b
    13e4:	552f006c 	strpl	r0, [pc, #-108]!	; 1380 <SCTLR_ENABLE_INSTRUCTION_CACHE+0x380>
    13e8:	73726573 	cmnvc	r2, #482344960	; 0x1cc00000
    13ec:	6172702f 	cmnvs	r2, pc, lsr #32
    13f0:	6873616b 	ldmdavs	r3!, {r0, r1, r3, r5, r6, r8, sp, lr}^
    13f4:	6b726f62 	blvs	1c9d184 <__kernel_end+0x1b37184>
    13f8:	442f7261 	strtmi	r7, [pc], #-609	; 1400 <SCTLR_ENABLE_INSTRUCTION_CACHE+0x400>
    13fc:	746b7365 	strbtvc	r7, [fp], #-869	; 0xfffffc9b
    1400:	522f706f 	eorpl	r7, pc, #111	; 0x6f
    1404:	746f6d65 	strbtvc	r6, [pc], #-3429	; 140c <SCTLR_ENABLE_INSTRUCTION_CACHE+0x40c>
    1408:	65525f65 	ldrbvs	r5, [r2, #-3941]	; 0xfffff09b
    140c:	722f6f70 	eorvc	r6, pc, #112, 30	; 0x1c0
    1410:	6f2d6970 	svcvs	0x002d6970
    1414:	61752d73 	cmnvs	r5, r3, ror sp
    1418:	722f7472 	eorvc	r7, pc, #1912602624	; 0x72000000
    141c:	62336970 	eorsvs	r6, r3, #112, 18	; 0x1c0000
    1420:	61656d2d 	cmnvs	r5, sp, lsr #26
    1424:	732d7974 			; <UNDEFINED> instruction: 0x732d7974
    1428:	656c656b 	strbvs	r6, [ip, #-1387]!	; 0xfffffa95
    142c:	2f6e6f74 	svccs	0x006e6f74
    1430:	72737973 	rsbsvc	r7, r3, #1884160	; 0x1cc000
    1434:	2f746f6f 	svccs	0x00746f6f
    1438:	2f727375 	svccs	0x00727375
    143c:	6c636e69 	stclvs	14, cr6, [r3], #-420	; 0xfffffe5c
    1440:	2f656475 	svccs	0x00656475
    1444:	62696c70 	rsbvs	r6, r9, #112, 24	; 0x7000
    1448:	6e690063 	cdpvs	0, 6, cr0, cr9, cr3, {3}
    144c:	64756c63 	ldrbtvs	r6, [r5], #-3171	; 0xfffff39d
    1450:	65642f65 	strbvs	r2, [r4, #-3941]!	; 0xfffff09b
    1454:	65636976 	strbvs	r6, [r3, #-2422]!	; 0xfffff68a
    1458:	636e6900 	cmnvs	lr, #0, 18
    145c:	6564756c 	strbvs	r7, [r4, #-1388]!	; 0xfffffa94
    1460:	72656b2f 	rsbvc	r6, r5, #48128	; 0xbc00
    1464:	006c656e 	rsbeq	r6, ip, lr, ror #10
    1468:	6573552f 	ldrbvs	r5, [r3, #-1327]!	; 0xfffffad1
    146c:	702f7372 	eorvc	r7, pc, r2, ror r3	; <UNPREDICTABLE>
    1470:	616b6172 	smcvs	46610	; 0xb612
    1474:	6f626873 	svcvs	0x00626873
    1478:	72616b72 	rsbvc	r6, r1, #116736	; 0x1c800
    147c:	6363672f 	cmnvs	r3, #12320768	; 0xbc0000
    1480:	6d72612d 	ldfvse	f6, [r2, #-180]!	; 0xffffff4c
    1484:	6e6f6e2d 	cdpvs	14, 6, cr6, cr15, cr13, {1}
    1488:	61652d65 	cmnvs	r5, r5, ror #26
    148c:	6c2f6962 	stcvs	9, cr6, [pc], #-392	; 130c <SCTLR_ENABLE_INSTRUCTION_CACHE+0x30c>
    1490:	672f6269 	strvs	r6, [pc, -r9, ror #4]!
    1494:	612f6363 			; <UNDEFINED> instruction: 0x612f6363
    1498:	6e2d6d72 	mcrvs	13, 1, r6, cr13, cr2, {3}
    149c:	2d656e6f 	stclcs	14, cr6, [r5, #-444]!	; 0xfffffe44
    14a0:	69626165 	stmdbvs	r2!, {r0, r2, r5, r6, r8, sp, lr}^
    14a4:	342e352f 	strtcc	r3, [lr], #-1327	; 0xfffffad1
    14a8:	692f312e 	stmdbvs	pc!, {r1, r2, r3, r5, r8, ip, sp}	; <UNPREDICTABLE>
    14ac:	756c636e 	strbvc	r6, [ip, #-878]!	; 0xfffffc92
    14b0:	00006564 	andeq	r6, r0, r4, ror #10
    14b4:	6e72656b 	cdpvs	5, 7, cr6, cr2, cr11, {3}
    14b8:	632e6c65 			; <UNDEFINED> instruction: 0x632e6c65
    14bc:	00000100 	andeq	r0, r0, r0, lsl #2
    14c0:	69647473 	stmdbvs	r4!, {r0, r1, r4, r5, r6, sl, ip, sp, lr}^
    14c4:	00682e6f 	rsbeq	r2, r8, pc, ror #28
    14c8:	75000002 	strvc	r0, [r0, #-2]
    14cc:	30747261 	rsbscc	r7, r4, r1, ror #4
    14d0:	0300682e 	movweq	r6, #2094	; 0x82e
    14d4:	79730000 	ldmdbvc	r3!, {}^	; <UNPREDICTABLE>
    14d8:	6d697473 	cfstrdvs	mvd7, [r9, #-460]!	; 0xfffffe34
    14dc:	682e7265 	stmdavs	lr!, {r0, r2, r5, r6, r9, ip, sp, lr}
    14e0:	00000400 	andeq	r0, r0, r0, lsl #8
    14e4:	64627375 	strbtvs	r7, [r2], #-885	; 0xfffffc8b
    14e8:	0300682e 	movweq	r6, #2094	; 0x82e
    14ec:	74730000 	ldrbtvc	r0, [r3], #-0
    14f0:	746e6964 	strbtvc	r6, [lr], #-2404	; 0xfffff69c
    14f4:	6363672d 	cmnvs	r3, #11796480	; 0xb40000
    14f8:	0500682e 	streq	r6, [r0, #-2094]	; 0xfffff7d2
    14fc:	00000000 	andeq	r0, r0, r0
    1500:	9d600205 	sfmls	f0, 2, [r0, #-20]!	; 0xffffffec
    1504:	10030000 	andne	r0, r3, r0
    1508:	7a031801 	bvc	c7514 <__first_lvl_tbl_end+0xa2514>
    150c:	03342e2e 	teqeq	r4, #736	; 0x2e0
    1510:	31354a7a 	teqcc	r5, sl, ror sl
    1514:	0c02a630 	stceq	6, cr10, [r2], {48}	; 0x30
    1518:	ef010100 	svc	0x00010100
    151c:	02000000 	andeq	r0, r0, #0
    1520:	0000c600 	andeq	ip, r0, r0, lsl #12
    1524:	fb010200 	blx	41d2e <__first_lvl_tbl_end+0x1cd2e>
    1528:	01000d0e 	tsteq	r0, lr, lsl #26
    152c:	00010101 	andeq	r0, r1, r1, lsl #2
    1530:	00010000 	andeq	r0, r1, r0
    1534:	74730100 	ldrbtvc	r0, [r3], #-256	; 0xffffff00
    1538:	676e6972 			; <UNDEFINED> instruction: 0x676e6972
    153c:	73552f00 	cmpvc	r5, #0, 30
    1540:	2f737265 	svccs	0x00737265
    1544:	6b617270 	blvs	185df0c <__kernel_end+0x16f7f0c>
    1548:	62687361 	rsbvs	r7, r8, #-2080374783	; 0x84000001
    154c:	616b726f 	cmnvs	fp, pc, ror #4
    1550:	63672f72 	cmnvs	r7, #456	; 0x1c8
    1554:	72612d63 	rsbvc	r2, r1, #6336	; 0x18c0
    1558:	6f6e2d6d 	svcvs	0x006e2d6d
    155c:	652d656e 	strvs	r6, [sp, #-1390]!	; 0xfffffa92
    1560:	2f696261 	svccs	0x00696261
    1564:	2f62696c 	svccs	0x0062696c
    1568:	2f636367 	svccs	0x00636367
    156c:	2d6d7261 	sfmcs	f7, 2, [sp, #-388]!	; 0xfffffe7c
    1570:	656e6f6e 	strbvs	r6, [lr, #-3950]!	; 0xfffff092
    1574:	6261652d 	rsbvs	r6, r1, #188743680	; 0xb400000
    1578:	2e352f69 	cdpcs	15, 3, cr2, cr5, cr9, {3}
    157c:	2f312e34 	svccs	0x00312e34
    1580:	6c636e69 	stclvs	14, cr6, [r3], #-420	; 0xfffffe5c
    1584:	00656475 	rsbeq	r6, r5, r5, ror r4
    1588:	6573552f 	ldrbvs	r5, [r3, #-1327]!	; 0xfffffad1
    158c:	702f7372 	eorvc	r7, pc, r2, ror r3	; <UNPREDICTABLE>
    1590:	616b6172 	smcvs	46610	; 0xb612
    1594:	6f626873 	svcvs	0x00626873
    1598:	72616b72 	rsbvc	r6, r1, #116736	; 0x1c800
    159c:	6363672f 	cmnvs	r3, #12320768	; 0xbc0000
    15a0:	6d72612d 	ldfvse	f6, [r2, #-180]!	; 0xffffff4c
    15a4:	6e6f6e2d 	cdpvs	14, 6, cr6, cr15, cr13, {1}
    15a8:	61652d65 	cmnvs	r5, r5, ror #26
    15ac:	612f6962 			; <UNDEFINED> instruction: 0x612f6962
    15b0:	6e2d6d72 	mcrvs	13, 1, r6, cr13, cr2, {3}
    15b4:	2d656e6f 	stclcs	14, cr6, [r5, #-444]!	; 0xfffffe44
    15b8:	69626165 	stmdbvs	r2!, {r0, r2, r5, r6, r8, sp, lr}^
    15bc:	636e692f 	cmnvs	lr, #770048	; 0xbc000
    15c0:	6564756c 	strbvs	r7, [r4, #-1388]!	; 0xfffffa94
    15c4:	656d0000 	strbvs	r0, [sp, #-0]!
    15c8:	7970636d 	ldmdbvc	r0!, {r0, r2, r3, r5, r6, r8, r9, sp, lr}^
    15cc:	0100632e 	tsteq	r0, lr, lsr #6
    15d0:	74730000 	ldrbtvc	r0, [r3], #-0
    15d4:	66656464 	strbtvs	r6, [r5], -r4, ror #8
    15d8:	0200682e 	andeq	r6, r0, #3014656	; 0x2e0000
    15dc:	74730000 	ldrbtvc	r0, [r3], #-0
    15e0:	676e6972 			; <UNDEFINED> instruction: 0x676e6972
    15e4:	0300682e 	movweq	r6, #2094	; 0x82e
    15e8:	00000000 	andeq	r0, r0, r0
    15ec:	9dac0205 	sfmls	f0, 4, [ip, #20]!
    15f0:	15140000 	ldrne	r0, [r4, #-0]
    15f4:	03040200 	movweq	r0, #16896	; 0x4200
    15f8:	04020083 	streq	r0, [r2], #-131	; 0xffffff7d
    15fc:	02002d03 	andeq	r2, r0, #3, 26	; 0xc0
    1600:	002f0304 	eoreq	r0, pc, r4, lsl #6
    1604:	2d030402 	cfstrscs	mvf0, [r3, #-8]
    1608:	00020231 	andeq	r0, r2, r1, lsr r2
    160c:	01170101 	tsteq	r7, r1, lsl #2
    1610:	00020000 	andeq	r0, r2, r0
    1614:	000000fa 	strdeq	r0, [r0], -sl
    1618:	0efb0102 	cdpeq	1, 15, cr0, cr11, cr2, {0}
    161c:	0101000d 	tsteq	r1, sp
    1620:	00000101 	andeq	r0, r0, r1, lsl #2
    1624:	00000100 	andeq	r0, r0, r0, lsl #2
    1628:	64747301 	ldrbtvs	r7, [r4], #-769	; 0xfffffcff
    162c:	2f006f69 	svccs	0x00006f69
    1630:	72657355 	rsbvc	r7, r5, #1409286145	; 0x54000001
    1634:	72702f73 	rsbsvc	r2, r0, #460	; 0x1cc
    1638:	73616b61 	cmnvc	r1, #99328	; 0x18400
    163c:	726f6268 	rsbvc	r6, pc, #104, 4	; 0x80000006
    1640:	2f72616b 	svccs	0x0072616b
    1644:	2d636367 	stclcs	3, cr6, [r3, #-412]!	; 0xfffffe64
    1648:	2d6d7261 	sfmcs	f7, 2, [sp, #-388]!	; 0xfffffe7c
    164c:	656e6f6e 	strbvs	r6, [lr, #-3950]!	; 0xfffff092
    1650:	6261652d 	rsbvs	r6, r1, #188743680	; 0xb400000
    1654:	696c2f69 	stmdbvs	ip!, {r0, r3, r5, r6, r8, r9, sl, fp, sp}^
    1658:	63672f62 	cmnvs	r7, #392	; 0x188
    165c:	72612f63 	rsbvc	r2, r1, #396	; 0x18c
    1660:	6f6e2d6d 	svcvs	0x006e2d6d
    1664:	652d656e 	strvs	r6, [sp, #-1390]!	; 0xfffffa92
    1668:	2f696261 	svccs	0x00696261
    166c:	2e342e35 	mrccs	14, 1, r2, cr4, cr5, {1}
    1670:	6e692f31 	mcrvs	15, 3, r2, cr9, cr1, {1}
    1674:	64756c63 	ldrbtvs	r6, [r5], #-3171	; 0xfffff39d
    1678:	552f0065 	strpl	r0, [pc, #-101]!	; 161b <SCTLR_ENABLE_INSTRUCTION_CACHE+0x61b>
    167c:	73726573 	cmnvc	r2, #482344960	; 0x1cc00000
    1680:	6172702f 	cmnvs	r2, pc, lsr #32
    1684:	6873616b 	ldmdavs	r3!, {r0, r1, r3, r5, r6, r8, sp, lr}^
    1688:	6b726f62 	blvs	1c9d418 <__kernel_end+0x1b37418>
    168c:	442f7261 	strtmi	r7, [pc], #-609	; 1694 <SCTLR_ENABLE_INSTRUCTION_CACHE+0x694>
    1690:	746b7365 	strbtvc	r7, [fp], #-869	; 0xfffffc9b
    1694:	522f706f 	eorpl	r7, pc, #111	; 0x6f
    1698:	746f6d65 	strbtvc	r6, [pc], #-3429	; 16a0 <SCTLR_ENABLE_INSTRUCTION_CACHE+0x6a0>
    169c:	65525f65 	ldrbvs	r5, [r2, #-3941]	; 0xfffff09b
    16a0:	722f6f70 	eorvc	r6, pc, #112, 30	; 0x1c0
    16a4:	6f2d6970 	svcvs	0x002d6970
    16a8:	61752d73 	cmnvs	r5, r3, ror sp
    16ac:	722f7472 	eorvc	r7, pc, #1912602624	; 0x72000000
    16b0:	62336970 	eorsvs	r6, r3, #112, 18	; 0x1c0000
    16b4:	61656d2d 	cmnvs	r5, sp, lsr #26
    16b8:	732d7974 			; <UNDEFINED> instruction: 0x732d7974
    16bc:	656c656b 	strbvs	r6, [ip, #-1387]!	; 0xfffffa95
    16c0:	2f6e6f74 	svccs	0x006e6f74
    16c4:	72737973 	rsbsvc	r7, r3, #1884160	; 0x1cc000
    16c8:	2f746f6f 	svccs	0x00746f6f
    16cc:	2f727375 	svccs	0x00727375
    16d0:	6c636e69 	stclvs	14, cr6, [r3], #-420	; 0xfffffe5c
    16d4:	2f656475 	svccs	0x00656475
    16d8:	69766564 	ldmdbvs	r6!, {r2, r5, r6, r8, sl, sp, lr}^
    16dc:	00006563 	andeq	r6, r0, r3, ror #10
    16e0:	6e697270 	mcrvs	2, 3, r7, cr9, cr0, {3}
    16e4:	632e6674 			; <UNDEFINED> instruction: 0x632e6674
    16e8:	00000100 	andeq	r0, r0, r0, lsl #2
    16ec:	61647473 	smcvs	18243	; 0x4743
    16f0:	682e6772 	stmdavs	lr!, {r1, r4, r5, r6, r8, r9, sl, sp, lr}
    16f4:	00000200 	andeq	r0, r0, r0, lsl #4
    16f8:	74726175 	ldrbtvc	r6, [r2], #-373	; 0xfffffe8b
    16fc:	00682e30 	rsbeq	r2, r8, r0, lsr lr
    1700:	3c000003 	stccc	0, cr0, [r0], {3}
    1704:	6c697562 	cfstr64vs	mvdx7, [r9], #-392	; 0xfffffe78
    1708:	6e692d74 	mcrvs	13, 3, r2, cr9, cr4, {3}
    170c:	0000003e 	andeq	r0, r0, lr, lsr r0
    1710:	05000000 	streq	r0, [r0, #-0]
    1714:	009dd002 	addseq	sp, sp, r2
    1718:	011c0300 	tsteq	ip, r0, lsl #6
    171c:	6a6c4c30 	bvs	1b147e4 <__kernel_end+0x19ae7e4>
    1720:	322f812f 	eorcc	r8, pc, #-1073741813	; 0xc000000b
    1724:	01000a02 	tsteq	r0, r2, lsl #20
    1728:	00029c01 	andeq	r9, r2, r1, lsl #24
    172c:	d3000200 	movwle	r0, #512	; 0x200
    1730:	02000000 	andeq	r0, r0, #0
    1734:	0d0efb01 	vstreq	d15, [lr, #-4]
    1738:	01010100 	mrseq	r0, (UNDEF: 17)
    173c:	00000001 	andeq	r0, r0, r1
    1740:	01000001 	tsteq	r0, r1
    1744:	69647473 	stmdbvs	r4!, {r0, r1, r4, r5, r6, sl, ip, sp, lr}^
    1748:	552f006f 	strpl	r0, [pc, #-111]!	; 16e1 <SCTLR_ENABLE_INSTRUCTION_CACHE+0x6e1>
    174c:	73726573 	cmnvc	r2, #482344960	; 0x1cc00000
    1750:	6172702f 	cmnvs	r2, pc, lsr #32
    1754:	6873616b 	ldmdavs	r3!, {r0, r1, r3, r5, r6, r8, sp, lr}^
    1758:	6b726f62 	blvs	1c9d4e8 <__kernel_end+0x1b374e8>
    175c:	672f7261 	strvs	r7, [pc, -r1, ror #4]!
    1760:	612d6363 			; <UNDEFINED> instruction: 0x612d6363
    1764:	6e2d6d72 	mcrvs	13, 1, r6, cr13, cr2, {3}
    1768:	2d656e6f 	stclcs	14, cr6, [r5, #-444]!	; 0xfffffe44
    176c:	69626165 	stmdbvs	r2!, {r0, r2, r5, r6, r8, sp, lr}^
    1770:	62696c2f 	rsbvs	r6, r9, #12032	; 0x2f00
    1774:	6363672f 	cmnvs	r3, #12320768	; 0xbc0000
    1778:	6d72612f 	ldfvse	f6, [r2, #-188]!	; 0xffffff44
    177c:	6e6f6e2d 	cdpvs	14, 6, cr6, cr15, cr13, {1}
    1780:	61652d65 	cmnvs	r5, r5, ror #26
    1784:	352f6962 	strcc	r6, [pc, #-2402]!	; e2a <SCTLR_ENABLE_BRANCH_PREDICTION+0x62a>
    1788:	312e342e 			; <UNDEFINED> instruction: 0x312e342e
    178c:	636e692f 	cmnvs	lr, #770048	; 0xbc000
    1790:	6564756c 	strbvs	r7, [r4, #-1388]!	; 0xfffffa94
    1794:	73552f00 	cmpvc	r5, #0, 30
    1798:	2f737265 	svccs	0x00737265
    179c:	6b617270 	blvs	185e164 <__kernel_end+0x16f8164>
    17a0:	62687361 	rsbvs	r7, r8, #-2080374783	; 0x84000001
    17a4:	616b726f 	cmnvs	fp, pc, ror #4
    17a8:	63672f72 	cmnvs	r7, #456	; 0x1c8
    17ac:	72612d63 	rsbvc	r2, r1, #6336	; 0x18c0
    17b0:	6f6e2d6d 	svcvs	0x006e2d6d
    17b4:	652d656e 	strvs	r6, [sp, #-1390]!	; 0xfffffa92
    17b8:	2f696261 	svccs	0x00696261
    17bc:	2d6d7261 	sfmcs	f7, 2, [sp, #-388]!	; 0xfffffe7c
    17c0:	656e6f6e 	strbvs	r6, [lr, #-3950]!	; 0xfffff092
    17c4:	6261652d 	rsbvs	r6, r1, #188743680	; 0xb400000
    17c8:	6e692f69 	cdpvs	15, 6, cr2, cr9, cr9, {3}
    17cc:	64756c63 	ldrbtvs	r6, [r5], #-3171	; 0xfffff39d
    17d0:	64000065 	strvs	r0, [r0], #-101	; 0xffffff9b
    17d4:	6e72706f 	cdpvs	0, 7, cr7, cr2, cr15, {3}
    17d8:	00632e74 	rsbeq	r2, r3, r4, ror lr
    17dc:	73000001 	movwvc	r0, #1
    17e0:	72616474 	rsbvc	r6, r1, #116, 8	; 0x74000000
    17e4:	00682e67 	rsbeq	r2, r8, r7, ror #28
    17e8:	3c000002 	stccc	0, cr0, [r0], {2}
    17ec:	6c697562 	cfstr64vs	mvdx7, [r9], #-392	; 0xfffffe78
    17f0:	6e692d74 	mcrvs	13, 3, r2, cr9, cr4, {3}
    17f4:	0000003e 	andeq	r0, r0, lr, lsr r0
    17f8:	72747300 	rsbsvc	r7, r4, #0, 6
    17fc:	2e676e69 	cdpcs	14, 6, cr6, cr7, cr9, {3}
    1800:	00030068 	andeq	r0, r3, r8, rrx
    1804:	05000000 	streq	r0, [r0, #-0]
    1808:	009e2402 	addseq	r2, lr, r2, lsl #8
    180c:	00dc0300 	sbcseq	r0, ip, r0, lsl #6
    1810:	662d2f01 	strtvs	r2, [sp], -r1, lsl #30
    1814:	844a1d03 	strbhi	r1, [sl], #-3331	; 0xfffff2fd
    1818:	01040200 	mrseq	r0, R12_usr
    181c:	03064a06 	movweq	r4, #27142	; 0x6a06
    1820:	0a03f210 	beq	fe068 <__first_lvl_tbl_end+0xd9068>
    1824:	4a76039e 	bmi	1d826a4 <__kernel_end+0x1c1c6a4>
    1828:	00f1034e 	rscseq	r0, r1, lr, asr #6
    182c:	01d40366 	bicseq	r0, r4, r6, ror #6
    1830:	2f49a32e 	svccs	0x0049a32e
    1834:	4a7dcb03 	bmi	1f74448 <__kernel_end+0x1e0e448>
    1838:	bc4a0e03 	mcrrlt	14, 0, r0, sl, cr3
    183c:	0c032b2f 	stceq	11, cr2, [r3], {47}	; 0x2f
    1840:	79038982 	stmdbvc	r3, {r1, r7, r8, fp, pc}
    1844:	032f342e 			; <UNDEFINED> instruction: 0x032f342e
    1848:	034f2e1d 	movteq	r2, #65053	; 0xfe1d
    184c:	32034a19 	andcc	r4, r3, #102400	; 0x19000
    1850:	03014a02 	movweq	r4, #6658	; 0x1a02
    1854:	032b2e4e 			; <UNDEFINED> instruction: 0x032b2e4e
    1858:	16032e35 			; <UNDEFINED> instruction: 0x16032e35
    185c:	01b9032e 			; <UNDEFINED> instruction: 0x01b9032e
    1860:	7edb0366 	cdpvc	3, 13, cr0, cr11, cr6, {3}
    1864:	01a5034a 			; <UNDEFINED> instruction: 0x01a5034a
    1868:	7edb032e 	cdpvc	3, 13, cr0, cr11, cr14, {1}
    186c:	01a6034a 			; <UNDEFINED> instruction: 0x01a6034a
    1870:	7a03332e 	bvc	ce530 <__first_lvl_tbl_end+0xa9530>
    1874:	03332f2e 	teqeq	r3, #46, 30	; 0xb8
    1878:	4c692e13 	stclmi	14, cr2, [r9], #-76	; 0xffffffb4
    187c:	4c64302c 	stclmi	0, cr3, [r4], #-176	; 0xffffff50
    1880:	2e7a0332 	mrccs	3, 3, r0, cr10, cr2, {1}
    1884:	080c0330 	stmdaeq	ip, {r4, r5, r8, r9}
    1888:	032f2d20 			; <UNDEFINED> instruction: 0x032f2d20
    188c:	4b2e7ebd 	blmi	ba1388 <__kernel_end+0xa3b388>
    1890:	10032f2d 	andne	r2, r3, sp, lsr #30
    1894:	032c302e 			; <UNDEFINED> instruction: 0x032c302e
    1898:	1d03016e 	stfnes	f0, [r3, #-440]	; 0xfffffe48
    189c:	2f816a2e 	svccs	0x00816a2e
    18a0:	002e1d03 	eoreq	r1, lr, r3, lsl #26
    18a4:	03010402 	movweq	r0, #5122	; 0x1402
    18a8:	0200660b 	andeq	r6, r0, #11534336	; 0xb00000
    18ac:	82060204 	andhi	r0, r6, #4, 4	; 0x40000000
    18b0:	2aa24c06 	bcs	fe8948d0 <__kernel_end+0xfe72e8d0>
    18b4:	032e6c03 			; <UNDEFINED> instruction: 0x032e6c03
    18b8:	9e032e3f 	mcrls	14, 0, r2, cr3, cr15, {1}
    18bc:	2b03667d 	blcs	db2b8 <__first_lvl_tbl_end+0xb62b8>
    18c0:	03334b4a 	teqeq	r3, #75776	; 0x12800
    18c4:	2d502e7a 	ldclcs	14, cr2, [r0, #-488]	; 0xfffffe18
    18c8:	37033629 	strcc	r3, [r3, -r9, lsr #12]
    18cc:	4a630366 	bmi	18c266c <__kernel_end+0x175c66c>
    18d0:	03660a03 	cmneq	r6, #12288	; 0x3000
    18d4:	0b038275 	bleq	e22b0 <__first_lvl_tbl_end+0xbd2b0>
    18d8:	2b2f4c2e 	blcs	bd4998 <__kernel_end+0xa6e998>
    18dc:	659e1803 	ldrvs	r1, [lr, #2051]	; 0x803
    18e0:	4a1f0332 	bmi	7c25b0 <__kernel_end+0x65c5b0>
    18e4:	032f2d67 			; <UNDEFINED> instruction: 0x032f2d67
    18e8:	032e00cf 			; <UNDEFINED> instruction: 0x032e00cf
    18ec:	74032e0c 	strvc	r2, [r3], #-3596	; 0xfffff1f4
    18f0:	2e0c032e 	cdpcs	3, 0, cr0, cr12, cr14, {1}
    18f4:	03672d4b 	cmneq	r7, #4800	; 0x12c0
    18f8:	4e58081b 	mrcmi	8, 2, r0, cr8, cr11, {0}
    18fc:	35302f2d 	ldrcc	r2, [r0, #-3885]!	; 0xfffff0d3
    1900:	00352b4d 	eorseq	r2, r5, sp, asr #22
    1904:	68010402 	stmdavs	r1, {r1, sl}
    1908:	02040200 	andeq	r0, r4, #0, 4
    190c:	06580806 	ldrbeq	r0, [r8], -r6, lsl #16
    1910:	032aa24c 			; <UNDEFINED> instruction: 0x032aa24c
    1914:	034a7ee4 	movteq	r7, #44772	; 0xaee4
    1918:	50032e2d 	andpl	r2, r3, sp, lsr #28
    191c:	2e30032e 	cdpcs	3, 3, cr0, cr0, cr14, {1}
    1920:	2f4a0a03 	svccs	0x004a0a03
    1924:	2e46032d 	cdpcs	3, 4, cr0, cr6, cr13, {1}
    1928:	322e3b03 	eorcc	r3, lr, #3072	; 0xc00
    192c:	2f2f2c30 	svccs	0x002f2c30
    1930:	032d2f32 			; <UNDEFINED> instruction: 0x032d2f32
    1934:	032e7fbb 			; <UNDEFINED> instruction: 0x032e7fbb
    1938:	032e00c6 			; <UNDEFINED> instruction: 0x032e00c6
    193c:	832d2e44 			; <UNDEFINED> instruction: 0x832d2e44
    1940:	2e76032d 	cdpcs	3, 7, cr0, cr6, cr13, {1}
    1944:	032e0c03 			; <UNDEFINED> instruction: 0x032e0c03
    1948:	09032e10 	stmdbeq	r3, {r4, r9, sl, fp, sp}
    194c:	2e770366 	cdpcs	3, 7, cr0, cr7, cr6, {3}
    1950:	03666303 	cmneq	r6, #201326592	; 0xc000000
    1954:	3b032e26 	blcc	cd1f4 <__first_lvl_tbl_end+0xa81f4>
    1958:	01a6032e 			; <UNDEFINED> instruction: 0x01a6032e
    195c:	032f654a 			; <UNDEFINED> instruction: 0x032f654a
    1960:	49832e0b 	stmibmi	r3, {r0, r1, r3, r9, sl, fp, sp}
    1964:	72082f2f 	andvc	r2, r8, #47, 30	; 0xbc
    1968:	2f2f4983 	svccs	0x002f4983
    196c:	a1032a32 	tstge	r3, r2, lsr sl
    1970:	0200d67f 	andeq	sp, r0, #133169152	; 0x7f00000
    1974:	0a030104 	beq	c1d8c <__first_lvl_tbl_end+0x9cd8c>
    1978:	0402002e 	streq	r0, [r2], #-46	; 0xffffffd2
    197c:	069e0602 	ldreq	r0, [lr], r2, lsl #12
    1980:	032aa24c 			; <UNDEFINED> instruction: 0x032aa24c
    1984:	03be4a6b 			; <UNDEFINED> instruction: 0x03be4a6b
    1988:	039e7fbe 	orrseq	r7, lr, #760	; 0x2f8
    198c:	039e00d1 	orrseq	r0, lr, #209	; 0xd1
    1990:	02002e0a 	andeq	r2, r0, #10, 28	; 0xa0
    1994:	00680104 	rsbeq	r0, r8, r4, lsl #2
    1998:	06020402 	streq	r0, [r2], -r2, lsl #8
    199c:	a24c069e 	subge	r0, ip, #165675008	; 0x9e00000
    19a0:	4a40032a 	bmi	1002650 <__kernel_end+0xe9c650>
    19a4:	827ec203 	rsbshi	ip, lr, #805306368	; 0x30000000
    19a8:	019e039f 			; <UNDEFINED> instruction: 0x019e039f
    19ac:	7fbb0366 	svcvc	0x00bb0366
    19b0:	2f49c808 	svccs	0x0049c808
    19b4:	01e4032d 	mvneq	r0, sp, lsr #6
    19b8:	7e88034a 	cdpvc	3, 8, cr0, cr8, cr10, {2}
    19bc:	02900382 	addseq	r0, r0, #134217730	; 0x8000002
    19c0:	6664034a 	strbtvs	r0, [r4], -sl, asr #6
    19c4:	01000802 	tsteq	r0, r2, lsl #16
    19c8:	0000de01 	andeq	sp, r0, r1, lsl #28
    19cc:	c6000200 	strgt	r0, [r0], -r0, lsl #4
    19d0:	02000000 	andeq	r0, r0, #0
    19d4:	0d0efb01 	vstreq	d15, [lr, #-4]
    19d8:	01010100 	mrseq	r0, (UNDEF: 17)
    19dc:	00000001 	andeq	r0, r0, r1
    19e0:	01000001 	tsteq	r0, r1
    19e4:	69727473 	ldmdbvs	r2!, {r0, r1, r4, r5, r6, sl, ip, sp, lr}^
    19e8:	2f00676e 	svccs	0x0000676e
    19ec:	72657355 	rsbvc	r7, r5, #1409286145	; 0x54000001
    19f0:	72702f73 	rsbsvc	r2, r0, #460	; 0x1cc
    19f4:	73616b61 	cmnvc	r1, #99328	; 0x18400
    19f8:	726f6268 	rsbvc	r6, pc, #104, 4	; 0x80000006
    19fc:	2f72616b 	svccs	0x0072616b
    1a00:	2d636367 	stclcs	3, cr6, [r3, #-412]!	; 0xfffffe64
    1a04:	2d6d7261 	sfmcs	f7, 2, [sp, #-388]!	; 0xfffffe7c
    1a08:	656e6f6e 	strbvs	r6, [lr, #-3950]!	; 0xfffff092
    1a0c:	6261652d 	rsbvs	r6, r1, #188743680	; 0xb400000
    1a10:	696c2f69 	stmdbvs	ip!, {r0, r3, r5, r6, r8, r9, sl, fp, sp}^
    1a14:	63672f62 	cmnvs	r7, #392	; 0x188
    1a18:	72612f63 	rsbvc	r2, r1, #396	; 0x18c
    1a1c:	6f6e2d6d 	svcvs	0x006e2d6d
    1a20:	652d656e 	strvs	r6, [sp, #-1390]!	; 0xfffffa92
    1a24:	2f696261 	svccs	0x00696261
    1a28:	2e342e35 	mrccs	14, 1, r2, cr4, cr5, {1}
    1a2c:	6e692f31 	mcrvs	15, 3, r2, cr9, cr1, {1}
    1a30:	64756c63 	ldrbtvs	r6, [r5], #-3171	; 0xfffff39d
    1a34:	552f0065 	strpl	r0, [pc, #-101]!	; 19d7 <SCTLR_ENABLE_INSTRUCTION_CACHE+0x9d7>
    1a38:	73726573 	cmnvc	r2, #482344960	; 0x1cc00000
    1a3c:	6172702f 	cmnvs	r2, pc, lsr #32
    1a40:	6873616b 	ldmdavs	r3!, {r0, r1, r3, r5, r6, r8, sp, lr}^
    1a44:	6b726f62 	blvs	1c9d7d4 <__kernel_end+0x1b377d4>
    1a48:	672f7261 	strvs	r7, [pc, -r1, ror #4]!
    1a4c:	612d6363 			; <UNDEFINED> instruction: 0x612d6363
    1a50:	6e2d6d72 	mcrvs	13, 1, r6, cr13, cr2, {3}
    1a54:	2d656e6f 	stclcs	14, cr6, [r5, #-444]!	; 0xfffffe44
    1a58:	69626165 	stmdbvs	r2!, {r0, r2, r5, r6, r8, sp, lr}^
    1a5c:	6d72612f 	ldfvse	f6, [r2, #-188]!	; 0xffffff44
    1a60:	6e6f6e2d 	cdpvs	14, 6, cr6, cr15, cr13, {1}
    1a64:	61652d65 	cmnvs	r5, r5, ror #26
    1a68:	692f6962 	stmdbvs	pc!, {r1, r5, r6, r8, fp, sp, lr}	; <UNPREDICTABLE>
    1a6c:	756c636e 	strbvc	r6, [ip, #-878]!	; 0xfffffc92
    1a70:	00006564 	andeq	r6, r0, r4, ror #10
    1a74:	6c727473 	cfldrdvs	mvd7, [r2], #-460	; 0xfffffe34
    1a78:	632e6e65 			; <UNDEFINED> instruction: 0x632e6e65
    1a7c:	00000100 	andeq	r0, r0, r0, lsl #2
    1a80:	64647473 	strbtvs	r7, [r4], #-1139	; 0xfffffb8d
    1a84:	682e6665 	stmdavs	lr!, {r0, r2, r5, r6, r9, sl, sp, lr}
    1a88:	00000200 	andeq	r0, r0, r0, lsl #4
    1a8c:	69727473 	ldmdbvs	r2!, {r0, r1, r4, r5, r6, sl, ip, sp, lr}^
    1a90:	682e676e 	stmdavs	lr!, {r1, r2, r3, r5, r6, r8, r9, sl, sp, lr}
    1a94:	00000300 	andeq	r0, r0, r0, lsl #6
    1a98:	02050000 	andeq	r0, r5, #0
    1a9c:	0000a570 	andeq	sl, r0, r0, ror r5
    1aa0:	2dd71414 	cfldrdcs	mvd1, [r7, #80]	; 0x50
    1aa4:	02023249 	andeq	r3, r2, #-1879048188	; 0x90000004
    1aa8:	Address 0x0000000000001aa8 is out of bounds.


Disassembly of section .debug_info:

00000000 <.debug_info>:
       0:	00000085 	andeq	r0, r0, r5, lsl #1
       4:	00000002 	andeq	r0, r0, r2
       8:	01040000 	mrseq	r0, (UNDEF: 4)
       c:	00000000 	andeq	r0, r0, r0
      10:	00008000 	andeq	r8, r0, r0
      14:	00008214 	andeq	r8, r0, r4, lsl r2
      18:	68637261 	stmdavs	r3!, {r0, r5, r6, r9, ip, sp, lr}^
      1c:	6d72612f 	ldfvse	f6, [r2, #-188]!	; 0xffffff44
      20:	6f6f622f 	svcvs	0x006f622f
      24:	00532e74 	subseq	r2, r3, r4, ror lr
      28:	6573552f 	ldrbvs	r5, [r3, #-1327]!	; 0xfffffad1
      2c:	702f7372 	eorvc	r7, pc, r2, ror r3	; <UNPREDICTABLE>
      30:	616b6172 	smcvs	46610	; 0xb612
      34:	6f626873 	svcvs	0x00626873
      38:	72616b72 	rsbvc	r6, r1, #116736	; 0x1c800
      3c:	7365442f 	cmnvc	r5, #788529152	; 0x2f000000
      40:	706f746b 	rsbvc	r7, pc, fp, ror #8
      44:	6d65522f 	sfmvs	f5, 2, [r5, #-188]!	; 0xffffff44
      48:	5f65746f 	svcpl	0x0065746f
      4c:	6f706552 	svcvs	0x00706552
      50:	6970722f 	ldmdbvs	r0!, {r0, r1, r2, r3, r5, r9, ip, sp, lr}^
      54:	2d736f2d 	ldclcs	15, cr6, [r3, #-180]!	; 0xffffff4c
      58:	74726175 	ldrbtvc	r6, [r2], #-373	; 0xfffffe8b
      5c:	6970722f 	ldmdbvs	r0!, {r0, r1, r2, r3, r5, r9, ip, sp, lr}^
      60:	6d2d6233 	sfmvs	f6, 4, [sp, #-204]!	; 0xffffff34
      64:	79746165 	ldmdbvc	r4!, {r0, r2, r5, r6, r8, sp, lr}^
      68:	656b732d 	strbvs	r7, [fp, #-813]!	; 0xfffffcd3
      6c:	6f74656c 	svcvs	0x0074656c
      70:	656b2f6e 	strbvs	r2, [fp, #-3950]!	; 0xfffff092
      74:	6c656e72 	stclvs	14, cr6, [r5], #-456	; 0xfffffe38
      78:	554e4700 	strbpl	r4, [lr, #-1792]	; 0xfffff900
      7c:	20534120 	subscs	r4, r3, r0, lsr #2
      80:	36322e32 			; <UNDEFINED> instruction: 0x36322e32
      84:	0100322e 	tsteq	r0, lr, lsr #4
      88:	00010880 	andeq	r0, r1, r0, lsl #17
      8c:	14000400 	strne	r0, [r0], #-1024	; 0xfffffc00
      90:	04000000 	streq	r0, [r0], #-0
      94:	00006401 	andeq	r6, r0, r1, lsl #8
      98:	002c0c00 	eoreq	r0, ip, r0, lsl #24
      9c:	011a0000 	tsteq	sl, r0
      a0:	82140000 	andshi	r0, r4, #0
      a4:	00600000 	rsbeq	r0, r0, r0
      a8:	00c10000 	sbceq	r0, r1, r0
      ac:	01020000 	mrseq	r0, (UNDEF: 2)
      b0:	00000d06 	andeq	r0, r0, r6, lsl #26
      b4:	05020200 	streq	r0, [r2, #-512]	; 0xfffffe00
      b8:	0000016b 	andeq	r0, r0, fp, ror #2
      bc:	00017603 	andeq	r7, r1, r3, lsl #12
      c0:	3e280200 	cdpcc	2, 2, cr0, cr8, cr0, {0}
      c4:	02000000 	andeq	r0, r0, #0
      c8:	01110504 	tsteq	r1, r4, lsl #10
      cc:	08020000 	stmdaeq	r2, {}	; <UNPREDICTABLE>
      d0:	00010c05 	andeq	r0, r1, r5, lsl #24
      d4:	08010200 	stmdaeq	r1, {r9}
      d8:	0000000b 	andeq	r0, r0, fp
      dc:	19070202 	stmdbne	r7, {r1, r9}
      e0:	03000000 	movweq	r0, #0
      e4:	00000175 	andeq	r0, r0, r5, ror r1
      e8:	00653402 	rsbeq	r3, r5, r2, lsl #8
      ec:	04020000 	streq	r0, [r2], #-0
      f0:	00005207 	andeq	r5, r0, r7, lsl #4
      f4:	07080200 	streq	r0, [r8, -r0, lsl #4]
      f8:	0000004d 	andeq	r0, r0, sp, asr #32
      fc:	69050404 	stmdbvs	r5, {r2, sl}
     100:	0200746e 	andeq	r7, r0, #1845493760	; 0x6e000000
     104:	00570704 	subseq	r0, r7, r4, lsl #14
     108:	00050000 	andeq	r0, r5, r0
     10c:	01000000 	mrseq	r0, (UNDEF: 0)
     110:	00821407 	addeq	r1, r2, r7, lsl #8
     114:	00006000 	andeq	r6, r0, r0
     118:	e49c0100 	ldr	r0, [ip], #256	; 0x100
     11c:	06000000 	streq	r0, [r0], -r0
     120:	01003072 	tsteq	r0, r2, ror r0
     124:	00005a07 	andeq	r5, r0, r7, lsl #20
     128:	00000000 	andeq	r0, r0, r0
     12c:	31720600 	cmncc	r2, r0, lsl #12
     130:	5a070100 	bpl	1c0538 <__kernel_end+0x5a538>
     134:	21000000 	mrscs	r0, (UNDEF: 0)
     138:	06000000 	streq	r0, [r0], -r0
     13c:	01003272 	tsteq	r0, r2, ror r2
     140:	00005a07 	andeq	r5, r0, r7, lsl #20
     144:	00004200 	andeq	r4, r0, r0, lsl #4
     148:	73620700 	cmnvc	r2, #0, 14
     14c:	09010073 	stmdbeq	r1, {r0, r1, r4, r5, r6}
     150:	000000e4 	andeq	r0, r0, r4, ror #1
     154:	00000063 	andeq	r0, r0, r3, rrx
     158:	00010408 	andeq	r0, r1, r8, lsl #8
     15c:	e40a0100 	str	r0, [sl], #-256	; 0xffffff00
     160:	09000000 	stmdbeq	r0, {}	; <UNPREDICTABLE>
     164:	00008264 	andeq	r8, r0, r4, ror #4
     168:	00000100 	andeq	r0, r0, r0, lsl #2
     16c:	33040a00 	movwcc	r0, #18944	; 0x4a00
     170:	0b000000 	bleq	178 <ARM_I_BIT+0xf8>
     174:	00000041 	andeq	r0, r0, r1, asr #32
     178:	00330201 	eorseq	r0, r3, r1, lsl #4
     17c:	020b0000 	andeq	r0, fp, #0
     180:	01000001 	tsteq	r0, r1
     184:	00003303 	andeq	r3, r0, r3, lsl #6
     188:	017e0c00 	cmneq	lr, r0, lsl #24
     18c:	017e0000 	cmneq	lr, r0
     190:	05010000 	streq	r0, [r1, #-0]
     194:	0001a000 	andeq	sl, r1, r0
     198:	c6000400 	strgt	r0, [r0], -r0, lsl #8
     19c:	04000000 	streq	r0, [r0], #-0
     1a0:	00006401 	andeq	r6, r0, r1, lsl #8
     1a4:	026c0c00 	rsbeq	r0, ip, #0, 24
     1a8:	011a0000 	tsteq	sl, r0
     1ac:	82740000 	rsbshi	r0, r4, #0
     1b0:	00380000 	eorseq	r0, r8, r0
     1b4:	01640000 	cmneq	r4, r0
     1b8:	01020000 	mrseq	r0, (UNDEF: 2)
     1bc:	00000d06 	andeq	r0, r0, r6, lsl #26
     1c0:	05020200 	streq	r0, [r2, #-512]	; 0xfffffe00
     1c4:	0000016b 	andeq	r0, r0, fp, ror #2
     1c8:	11050402 	tstne	r5, r2, lsl #8
     1cc:	02000001 	andeq	r0, r0, #1
     1d0:	010c0508 	tsteq	ip, r8, lsl #10
     1d4:	01020000 	mrseq	r0, (UNDEF: 2)
     1d8:	00000b08 	andeq	r0, r0, r8, lsl #22
     1dc:	07020200 	streq	r0, [r2, -r0, lsl #4]
     1e0:	00000019 	andeq	r0, r0, r9, lsl r0
     1e4:	00017503 	andeq	r7, r1, r3, lsl #10
     1e8:	5a340300 	bpl	d00df0 <__kernel_end+0xb9adf0>
     1ec:	02000000 	andeq	r0, r0, #0
     1f0:	00520704 	subseq	r0, r2, r4, lsl #14
     1f4:	08020000 	stmdaeq	r2, {}	; <UNPREDICTABLE>
     1f8:	00004d07 	andeq	r4, r0, r7, lsl #26
     1fc:	05040400 	streq	r0, [r4, #-1024]	; 0xfffffc00
     200:	00746e69 	rsbseq	r6, r4, r9, ror #28
     204:	57070402 	strpl	r0, [r7, -r2, lsl #8]
     208:	05000000 	streq	r0, [r0, #-0]
     20c:	0000004f 	andeq	r0, r0, pc, asr #32
     210:	20022406 	andcs	r2, r2, r6, lsl #8
     214:	000000f0 	strdeq	r0, [r0], -r0	; <UNPREDICTABLE>
     218:	0029c407 	eoreq	ip, r9, r7, lsl #8
     21c:	76220200 	strtvc	r0, [r2], -r0, lsl #4
     220:	00000000 	andeq	r0, r0, r0
     224:	00022007 	andeq	r2, r2, r7
     228:	76230200 	strtvc	r0, [r3], -r0, lsl #4
     22c:	04000000 	streq	r0, [r0], #-0
     230:	0026f307 	eoreq	pc, r6, r7, lsl #6
     234:	76240200 	strtvc	r0, [r4], -r0, lsl #4
     238:	08000000 	stmdaeq	r0, {}	; <UNPREDICTABLE>
     23c:	0002ad07 	andeq	sl, r2, r7, lsl #26
     240:	76250200 	strtvc	r0, [r5], -r0, lsl #4
     244:	0c000000 	stceq	0, cr0, [r0], {-0}
     248:	0001b207 	andeq	fp, r1, r7, lsl #4
     24c:	76260200 	strtvc	r0, [r6], -r0, lsl #4
     250:	10000000 	andne	r0, r0, r0
     254:	0002e807 	andeq	lr, r2, r7, lsl #16
     258:	76270200 	strtvc	r0, [r7], -r0, lsl #4
     25c:	14000000 	strne	r0, [r0], #-0
     260:	0014d207 	andseq	sp, r4, r7, lsl #4
     264:	76280200 	strtvc	r0, [r8], -r0, lsl #4
     268:	18000000 	stmdane	r0, {}	; <UNPREDICTABLE>
     26c:	00021507 	andeq	r1, r2, r7, lsl #10
     270:	76290200 	strtvc	r0, [r9], -r0, lsl #4
     274:	1c000000 	stcne	0, cr0, [r0], {-0}
     278:	0001e507 	andeq	lr, r1, r7, lsl #10
     27c:	762a0200 	strtvc	r0, [sl], -r0, lsl #4
     280:	20000000 	andcs	r0, r0, r0
     284:	01a20300 			; <UNDEFINED> instruction: 0x01a20300
     288:	2b020000 	blcs	80290 <__first_lvl_tbl_end+0x5b290>
     28c:	0000007b 	andeq	r0, r0, fp, ror r0
     290:	00410108 	subeq	r0, r1, r8, lsl #2
     294:	26040000 	strcs	r0, [r4], -r0
     298:	00000138 	andeq	r0, r0, r8, lsr r1
     29c:	00018a09 	andeq	r8, r1, r9, lsl #20
     2a0:	f2090100 	vrhadd.s8	d0, d9, d0
     2a4:	02000002 	andeq	r0, r0, #2
     2a8:	00028409 	andeq	r8, r2, r9, lsl #8
     2ac:	c8090400 	stmdagt	r9, {sl}
     2b0:	08000001 	stmdaeq	r0, {r0}
     2b4:	00022609 	andeq	r2, r2, r9, lsl #12
     2b8:	41091000 	mrsmi	r1, (UNDEF: 9)
     2bc:	20000002 	andcs	r0, r0, r2
     2c0:	0001f809 	andeq	pc, r1, r9, lsl #16
     2c4:	b6094000 	strlt	r4, [r9], -r0
     2c8:	80000002 	andhi	r0, r0, r2
     2cc:	025c0a00 	subseq	r0, ip, #0, 20
     2d0:	07010000 	streq	r0, [r1, -r0]
     2d4:	0000014d 	andeq	r0, r0, sp, asr #2
     2d8:	00008274 	andeq	r8, r0, r4, ror r2
     2dc:	0000000c 	andeq	r0, r0, ip
     2e0:	040b9c01 	streq	r9, [fp], #-3073	; 0xfffff3ff
     2e4:	000000f0 	strdeq	r0, [r0], -r0	; <UNPREDICTABLE>
     2e8:	0001b90c 	andeq	fp, r1, ip, lsl #18
     2ec:	800c0100 	andhi	r0, ip, r0, lsl #2
     2f0:	2c000082 	stccs	0, cr0, [r0], {130}	; 0x82
     2f4:	01000000 	mrseq	r0, (UNDEF: 0)
     2f8:	0001849c 	muleq	r1, ip, r4
     2fc:	82880d00 	addhi	r0, r8, #0, 26
     300:	01980000 	orrseq	r0, r8, r0
     304:	940d0000 	strls	r0, [sp], #-0
     308:	38000082 	stmdacc	r0, {r1, r7}
     30c:	0d000001 	stceq	0, cr0, [r0, #-4]
     310:	000082a0 	andeq	r8, r0, r0, lsr #5
     314:	00000138 	andeq	r0, r0, r8, lsr r1
     318:	02a10e00 	adceq	r0, r1, #0, 28
     31c:	05010000 	streq	r0, [r1, #-0]
     320:	00000193 	muleq	r0, r3, r1
     324:	3f00b400 	svccc	0x0000b400
     328:	00014d0f 	andeq	r4, r1, pc, lsl #26
     32c:	02d31000 	sbcseq	r1, r3, #0
     330:	02d30000 	sbcseq	r0, r3, #0
     334:	3f040000 	svccc	0x00040000
     338:	0005ab00 	andeq	sl, r5, r0, lsl #22
     33c:	a7000400 	strge	r0, [r0, -r0, lsl #8]
     340:	04000001 	streq	r0, [r0], #-1
     344:	00006401 	andeq	r6, r0, r1, lsl #8
     348:	04980c00 	ldreq	r0, [r8], #3072	; 0xc00
     34c:	011a0000 	tsteq	sl, r0
     350:	82ac0000 	adchi	r0, ip, #0
     354:	03b00000 	movseq	r0, #0
     358:	023e0000 	eorseq	r0, lr, #0
     35c:	01020000 	mrseq	r0, (UNDEF: 2)
     360:	00000d06 	andeq	r0, r0, r6, lsl #26
     364:	08010200 	stmdaeq	r1, {r9}
     368:	0000000b 	andeq	r0, r0, fp
     36c:	6b050202 	blvs	140b7c <dma_src_page_2+0xab7c>
     370:	02000001 	andeq	r0, r0, #1
     374:	00190702 	andseq	r0, r9, r2, lsl #14
     378:	04020000 	streq	r0, [r2], #-0
     37c:	00011105 	andeq	r1, r1, r5, lsl #2
     380:	07040200 	streq	r0, [r4, -r0, lsl #4]
     384:	00000052 	andeq	r0, r0, r2, asr r0
     388:	0c050802 	stceq	8, cr0, [r5], {2}
     38c:	02000001 	andeq	r0, r0, #1
     390:	004d0708 	subeq	r0, sp, r8, lsl #14
     394:	04030000 	streq	r0, [r3], #-0
     398:	746e6905 	strbtvc	r6, [lr], #-2309	; 0xfffff6fb
     39c:	07040200 	streq	r0, [r4, -r0, lsl #4]
     3a0:	00000057 	andeq	r0, r0, r7, asr r0
     3a4:	00033c04 	andeq	r3, r3, r4, lsl #24
     3a8:	64d80300 	ldrbvs	r0, [r8], #768	; 0x300
     3ac:	02000000 	andeq	r0, r0, #0
     3b0:	041a0408 	ldreq	r0, [sl], #-1032	; 0xfffffbf8
     3b4:	76040000 	strvc	r0, [r4], -r0
     3b8:	04000001 	streq	r0, [r0], #-1
     3bc:	00004128 	andeq	r4, r0, r8, lsr #2
     3c0:	035e0400 	cmpeq	lr, #0, 8
     3c4:	2e040000 	cdpcs	0, 0, cr0, cr4, cr0, {0}
     3c8:	0000002c 	andeq	r0, r0, ip, lsr #32
     3cc:	00017504 	andeq	r7, r1, r4, lsl #10
     3d0:	48340400 	ldmdami	r4!, {sl}
     3d4:	05000000 	streq	r0, [r0, #-0]
     3d8:	00000093 	muleq	r0, r3, r0
     3dc:	00036604 	andeq	r6, r3, r4, lsl #12
     3e0:	ae0a0200 	cdpge	2, 0, cr0, cr10, cr0, {0}
     3e4:	06000000 	streq	r0, [r0], -r0
     3e8:	0000b404 	andeq	fp, r0, r4, lsl #8
     3ec:	5c040700 	stcpl	7, cr0, [r4], {-0}
     3f0:	02000004 	andeq	r0, r0, #4
     3f4:	0000ae0b 	andeq	sl, r0, fp, lsl #28
     3f8:	2c010800 	stccs	8, cr0, [r1], {-0}
     3fc:	02000000 	andeq	r0, r0, #0
     400:	0000fd26 	andeq	pc, r0, r6, lsr #26
     404:	018a0900 	orreq	r0, sl, r0, lsl #18
     408:	09010000 	stmdbeq	r1, {}	; <UNPREDICTABLE>
     40c:	000002f2 	strdeq	r0, [r0], -r2
     410:	02840902 	addeq	r0, r4, #32768	; 0x8000
     414:	09040000 	stmdbeq	r4, {}	; <UNPREDICTABLE>
     418:	000001c8 	andeq	r0, r0, r8, asr #3
     41c:	02260908 	eoreq	r0, r6, #8, 18	; 0x20000
     420:	09100000 	ldmdbeq	r0, {}	; <UNPREDICTABLE>
     424:	00000241 	andeq	r0, r0, r1, asr #4
     428:	01f80920 	mvnseq	r0, r0, lsr #18
     42c:	09400000 	stmdbeq	r0, {}^	; <UNPREDICTABLE>
     430:	000002b6 			; <UNDEFINED> instruction: 0x000002b6
     434:	30040080 	andcc	r0, r4, r0, lsl #1
     438:	02000005 	andeq	r0, r0, #5
     43c:	0000c02f 	andeq	ip, r0, pc, lsr #32
     440:	02280a00 	eoreq	r0, r8, #0, 20
     444:	00018931 	andeq	r8, r1, r1, lsr r9
     448:	05700b00 	ldrbeq	r0, [r0, #-2816]!	; 0xfffff500
     44c:	33020000 	movwcc	r0, #8192	; 0x2000
     450:	0000009e 	muleq	r0, lr, r0
     454:	05620b00 	strbeq	r0, [r2, #-2816]!	; 0xfffff500
     458:	34020000 	strcc	r0, [r2], #-0
     45c:	0000009e 	muleq	r0, lr, r0
     460:	04700b04 	ldrbteq	r0, [r0], #-2820	; 0xfffff4fc
     464:	35020000 	strcc	r0, [r2, #-0]
     468:	0000009e 	muleq	r0, lr, r0
     46c:	03520b08 	cmpeq	r2, #8, 22	; 0x2000
     470:	36020000 	strcc	r0, [r2], -r0
     474:	0000009e 	muleq	r0, lr, r0
     478:	03fe0b0c 	mvnseq	r0, #12, 22	; 0x3000
     47c:	37020000 	strcc	r0, [r2, -r0]
     480:	0000009e 	muleq	r0, lr, r0
     484:	040c0b10 	streq	r0, [ip], #-2832	; 0xfffff4f0
     488:	38020000 	stmdacc	r2, {}	; <UNPREDICTABLE>
     48c:	0000009e 	muleq	r0, lr, r0
     490:	04d40b14 	ldrbeq	r0, [r4], #2836	; 0xb14
     494:	39020000 	stmdbcc	r2, {}	; <UNPREDICTABLE>
     498:	0000009e 	muleq	r0, lr, r0
     49c:	04c50b18 	strbeq	r0, [r5], #2840	; 0xb18
     4a0:	3a020000 	bcc	804a8 <__first_lvl_tbl_end+0x5b4a8>
     4a4:	0000009e 	muleq	r0, lr, r0
     4a8:	032d0b1c 			; <UNDEFINED> instruction: 0x032d0b1c
     4ac:	3b020000 	blcc	804b4 <__first_lvl_tbl_end+0x5b4b4>
     4b0:	0000009e 	muleq	r0, lr, r0
     4b4:	04260b20 	strteq	r0, [r6], #-2848	; 0xfffff4e0
     4b8:	3c020000 	stccc	0, cr0, [r2], {-0}
     4bc:	0000009e 	muleq	r0, lr, r0
     4c0:	f8040024 			; <UNDEFINED> instruction: 0xf8040024
     4c4:	02000004 	andeq	r0, r0, #4
     4c8:	0001083d 	andeq	r0, r1, sp, lsr r8
     4cc:	053d0c00 	ldreq	r0, [sp, #-3072]!	; 0xfffff400
     4d0:	42020000 	andmi	r0, r2, #0
     4d4:	0000007d 	andeq	r0, r0, sp, ror r0
     4d8:	0001b003 	andeq	fp, r1, r3
     4dc:	65720d00 	ldrbvs	r0, [r2, #-3328]!	; 0xfffff300
     4e0:	44020073 	strmi	r0, [r2], #-115	; 0xffffff8d
     4e4:	0000007d 	andeq	r0, r0, sp, ror r0
     4e8:	04850e00 	streq	r0, [r5], #3584	; 0xe00
     4ec:	54020000 	strpl	r0, [r2], #-0
     4f0:	04e60e03 	strbteq	r0, [r6], #3587	; 0xe03
     4f4:	4a020000 	bmi	804fc <__first_lvl_tbl_end+0x5b4fc>
     4f8:	02d30f03 	sbcseq	r0, r3, #3, 30
     4fc:	21010000 	mrscs	r0, (UNDEF: 1)
     500:	000001d5 	ldrdeq	r0, [r0], -r5
     504:	000082ac 	andeq	r8, r0, ip, lsr #5
     508:	0000000c 	andeq	r0, r0, ip
     50c:	04069c01 	streq	r9, [r6], #-3073	; 0xfffff3ff
     510:	00000189 	andeq	r0, r0, r9, lsl #3
     514:	00044f10 	andeq	r4, r4, r0, lsl pc
     518:	b82d0100 	stmdalt	sp!, {r8}
     51c:	1c000082 	stcne	0, cr0, [r0], {130}	; 0x82
     520:	01000000 	mrseq	r0, (UNDEF: 0)
     524:	0001fa9c 	muleq	r1, ip, sl
     528:	82cc1100 	sbchi	r1, ip, #0, 2
     52c:	058d0000 	streq	r0, [sp]
     530:	10000000 	andne	r0, r0, r0
     534:	000003bc 			; <UNDEFINED> instruction: 0x000003bc
     538:	82d43a01 	sbcshi	r3, r4, #4096	; 0x1000
     53c:	00180000 	andseq	r0, r8, r0
     540:	9c010000 	stcls	0, cr0, [r1], {-0}
     544:	00000219 	andeq	r0, r0, r9, lsl r2
     548:	0082e411 	addeq	lr, r2, r1, lsl r4
     54c:	00058d00 	andeq	r8, r5, r0, lsl #26
     550:	a2100000 	andsge	r0, r0, #0
     554:	01000003 	tsteq	r0, r3
     558:	0082ec47 	addeq	lr, r2, r7, asr #24
     55c:	00001800 	andeq	r1, r0, r0, lsl #16
     560:	389c0100 	ldmcc	ip, {r8}
     564:	11000002 	tstne	r0, r2
     568:	000082fc 	strdeq	r8, [r0], -ip
     56c:	0000058d 	andeq	r0, r0, sp, lsl #11
     570:	030c1000 	movweq	r1, #49152	; 0xc000
     574:	4c010000 	stcmi	0, cr0, [r1], {-0}
     578:	00008304 	andeq	r8, r0, r4, lsl #6
     57c:	0000001c 	andeq	r0, r0, ip, lsl r0
     580:	02579c01 	subseq	r9, r7, #256	; 0x100
     584:	18110000 	ldmdane	r1, {}	; <UNPREDICTABLE>
     588:	8d000083 	stchi	0, cr0, [r0, #-524]	; 0xfffffdf4
     58c:	00000005 	andeq	r0, r0, r5
     590:	00055010 	andeq	r5, r5, r0, lsl r0
     594:	20530100 	subscs	r0, r3, r0, lsl #2
     598:	1c000083 	stcne	0, cr0, [r0], {131}	; 0x83
     59c:	01000000 	mrseq	r0, (UNDEF: 0)
     5a0:	0002769c 	muleq	r2, ip, r6
     5a4:	83341100 	teqhi	r4, #0, 2
     5a8:	058d0000 	streq	r0, [sp]
     5ac:	10000000 	andne	r0, r0, r0
     5b0:	000003e0 	andeq	r0, r0, r0, ror #7
     5b4:	833c5a01 	teqhi	ip, #4096	; 0x1000
     5b8:	001c0000 	andseq	r0, ip, r0
     5bc:	9c010000 	stcls	0, cr0, [r1], {-0}
     5c0:	00000295 	muleq	r0, r5, r2
     5c4:	00835011 	addeq	r5, r3, r1, lsl r0
     5c8:	00058d00 	andeq	r8, r5, r0, lsl #26
     5cc:	be120000 	cdplt	0, 1, cr0, cr2, cr0, {0}
     5d0:	01000012 	tsteq	r0, r2, lsl r0
     5d4:	0083586e 	addeq	r5, r3, lr, ror #16
     5d8:	0000e800 	andeq	lr, r0, r0, lsl #16
     5dc:	279c0100 	ldrcs	r0, [ip, r0, lsl #2]
     5e0:	13000003 	movwne	r0, #3
     5e4:	7101006a 	tstvc	r1, sl, rrx
     5e8:	0000007d 	andeq	r0, r0, sp, ror r0
     5ec:	00000076 	andeq	r0, r0, r6, ror r0
     5f0:	0001b814 	andeq	fp, r1, r4, lsl r8
     5f4:	0083d800 	addeq	sp, r3, r0, lsl #16
     5f8:	00001000 	andeq	r1, r0, r0
     5fc:	ea780100 	b	1e00a04 <__kernel_end+0x1c9aa04>
     600:	15000002 	strne	r0, [r0, #-2]
     604:	00000194 	muleq	r0, r4, r1
     608:	000083d8 	ldrdeq	r8, [r0], -r8	; <UNPREDICTABLE>
     60c:	00000004 	andeq	r0, r0, r4
     610:	d8164c02 	ldmdale	r6, {r1, sl, fp, lr}
     614:	04000083 	streq	r0, [r0], #-131	; 0xffffff7d
     618:	17000000 	strne	r0, [r0, -r0]
     61c:	000001a4 	andeq	r0, r0, r4, lsr #3
     620:	14000000 	strne	r0, [r0], #-0
     624:	000001b0 			; <UNDEFINED> instruction: 0x000001b0
     628:	000083f8 	strdeq	r8, [r0], -r8	; <UNPREDICTABLE>
     62c:	00000014 	andeq	r0, r0, r4, lsl r0
     630:	031d7a01 	tsteq	sp, #4096	; 0x1000
     634:	94150000 	ldrls	r0, [r5], #-0
     638:	f8000001 			; <UNDEFINED> instruction: 0xf8000001
     63c:	04000083 	streq	r0, [r0], #-131	; 0xffffff7d
     640:	02000000 	andeq	r0, r0, #0
     644:	83f81656 	mvnshi	r1, #90177536	; 0x5600000
     648:	00040000 	andeq	r0, r4, r0
     64c:	a4170000 	ldrge	r0, [r7], #-0
     650:	00000001 	andeq	r0, r0, r1
     654:	6c110000 	ldcvs	0, cr0, [r1], {-0}
     658:	98000083 	stmdals	r0, {r0, r1, r7}
     65c:	00000005 	andeq	r0, r0, r5
     660:	00038d10 	andeq	r8, r3, r0, lsl sp
     664:	40800100 	addmi	r0, r0, r0, lsl #2
     668:	bc000084 	stclt	0, cr0, [r0], {132}	; 0x84
     66c:	01000000 	mrseq	r0, (UNDEF: 0)
     670:	0003759c 	muleq	r3, ip, r5
     674:	03f61800 	mvnseq	r1, #0, 16
     678:	80010000 	andhi	r0, r1, r0
     67c:	000000fd 	strdeq	r0, [r0], -sp
     680:	00000095 	muleq	r0, r5, r0
     684:	0012c219 	andseq	ip, r2, r9, lsl r2
     688:	a3800100 	orrge	r0, r0, #0, 2
     68c:	01000000 	mrseq	r0, (UNDEF: 0)
     690:	120e1951 	andne	r1, lr, #1327104	; 0x144000
     694:	80010000 	andhi	r0, r1, r0
     698:	000000b5 	strheq	r0, [r0], -r5
     69c:	471a5201 	ldrmi	r5, [sl, -r1, lsl #4]
     6a0:	01000004 	tsteq	r0, r4
     6a4:	00009382 	andeq	r9, r0, r2, lsl #7
     6a8:	0000c100 	andeq	ip, r0, r0, lsl #2
     6ac:	8b100000 	blhi	4006b4 <__kernel_end+0x29a6b4>
     6b0:	01000003 	tsteq	r0, r3
     6b4:	0084fc9d 	umulleq	pc, r4, sp, ip	; <UNPREDICTABLE>
     6b8:	0000c800 	andeq	ip, r0, r0, lsl #16
     6bc:	a99c0100 	ldmibge	ip, {r8}
     6c0:	18000003 	stmdane	r0, {r0, r1}
     6c4:	000003f6 	strdeq	r0, [r0], -r6
     6c8:	00fd9d01 	rscseq	r9, sp, r1, lsl #26
     6cc:	010f0000 	mrseq	r0, CPSR
     6d0:	471a0000 	ldrmi	r0, [sl, -r0]
     6d4:	01000004 	tsteq	r0, r4
     6d8:	0000939f 	muleq	r0, pc, r3	; <UNPREDICTABLE>
     6dc:	00013b00 	andeq	r3, r1, r0, lsl #22
     6e0:	d91b0000 	ldmdble	fp, {}	; <UNPREDICTABLE>
     6e4:	01000003 	tsteq	r0, r3
     6e8:	00040dbc 			; <UNDEFINED> instruction: 0x00040dbc
     6ec:	0085c400 	addeq	ip, r5, r0, lsl #8
     6f0:	00002400 	andeq	r2, r0, r0, lsl #8
     6f4:	0d9c0100 	ldfeqs	f0, [ip]
     6f8:	1c000004 	stcne	0, cr0, [r0], {4}
     6fc:	bc010073 	stclt	0, cr0, [r1], {115}	; 0x73
     700:	0000040d 	andeq	r0, r0, sp, lsl #8
     704:	631d5001 	tstvs	sp, #1
     708:	7dbc0100 	ldfvcs	f0, [ip]
     70c:	89000000 	stmdbhi	r0, {}	; <UNPREDICTABLE>
     710:	1d000001 	stcne	0, cr0, [r0, #-4]
     714:	bc01006e 	stclt	0, cr0, [r1], {110}	; 0x6e
     718:	0000006b 	andeq	r0, r0, fp, rrx
     71c:	000001aa 	andeq	r0, r0, sl, lsr #3
     720:	0100701e 	tsteq	r0, lr, lsl r0
     724:	00040fbe 			; <UNDEFINED> instruction: 0x00040fbe
     728:	1f500100 	svcne	0x00500100
     72c:	00000442 	andeq	r0, r0, r2, asr #8
     730:	0088bf01 	addeq	fp, r8, r1, lsl #30
     734:	51010000 	mrspl	r0, (UNDEF: 1)
     738:	01006913 	tsteq	r0, r3, lsl r9
     73c:	00006bc0 	andeq	r6, r0, r0, asr #23
     740:	0001cb00 	andeq	ip, r1, r0, lsl #22
     744:	04200000 	strteq	r0, [r0], #-0
     748:	00880406 	addeq	r0, r8, r6, lsl #8
     74c:	4c100000 	ldcmi	0, cr0, [r0], {-0}
     750:	01000003 	tsteq	r0, r3
     754:	0085e8c9 	addeq	lr, r5, r9, asr #17
     758:	00000c00 	andeq	r0, r0, r0, lsl #24
     75c:	629c0100 	addsvs	r0, ip, #0, 2
     760:	1d000004 	stcne	0, cr0, [r0, #-16]
     764:	c9010073 	stmdbgt	r1, {r0, r1, r4, r5, r6}
     768:	0000040d 	andeq	r0, r0, sp, lsl #8
     76c:	000001df 	ldrdeq	r0, [r0], -pc	; <UNPREDICTABLE>
     770:	01006e1d 	tsteq	r0, sp, lsl lr
     774:	00006bc9 	andeq	r6, r0, r9, asr #23
     778:	00020000 	andeq	r0, r2, r0
     77c:	85f42100 	ldrbhi	r2, [r4, #256]!	; 0x100
     780:	03a90000 			; <UNDEFINED> instruction: 0x03a90000
     784:	01220000 			; <UNDEFINED> instruction: 0x01220000
     788:	01f30350 	mvnseq	r0, r0, asr r3
     78c:	51012250 	tstpl	r1, r0, asr r2
     790:	01223001 			; <UNDEFINED> instruction: 0x01223001
     794:	01f30352 	mvnseq	r0, r2, asr r3
     798:	10000051 	andne	r0, r0, r1, asr r0
     79c:	00000517 	andeq	r0, r0, r7, lsl r5
     7a0:	85f45f01 	ldrbhi	r5, [r4, #3841]!	; 0xf01
     7a4:	00680000 	rsbeq	r0, r8, r0
     7a8:	9c010000 	stcls	0, cr0, [r1], {-0}
     7ac:	0000051a 	andeq	r0, r0, sl, lsl r5
     7b0:	0001b014 	andeq	fp, r1, r4, lsl r0
     7b4:	0085fc00 	addeq	pc, r5, r0, lsl #24
     7b8:	00001000 	andeq	r1, r0, r0
     7bc:	aa620100 	bge	1880bc4 <__kernel_end+0x171abc4>
     7c0:	15000004 	strne	r0, [r0, #-4]
     7c4:	00000194 	muleq	r0, r4, r1
     7c8:	000085fc 	strdeq	r8, [r0], -ip
     7cc:	00000004 	andeq	r0, r0, r4
     7d0:	fc165602 	ldc2	6, cr5, [r6], {2}
     7d4:	04000085 	streq	r0, [r0], #-133	; 0xffffff7b
     7d8:	17000000 	strne	r0, [r0, -r0]
     7dc:	000001a4 	andeq	r0, r0, r4, lsr #3
     7e0:	14000000 	strne	r0, [r0], #-0
     7e4:	000001b8 			; <UNDEFINED> instruction: 0x000001b8
     7e8:	00008644 	andeq	r8, r0, r4, asr #12
     7ec:	00000018 	andeq	r0, r0, r8, lsl r0
     7f0:	04dd6801 	ldrbeq	r6, [sp], #2049	; 0x801
     7f4:	94150000 	ldrls	r0, [r5], #-0
     7f8:	44000001 	strmi	r0, [r0], #-1
     7fc:	04000086 	streq	r0, [r0], #-134	; 0xffffff7a
     800:	02000000 	andeq	r0, r0, #0
     804:	8644164c 	strbhi	r1, [r4], -ip, asr #12
     808:	00040000 	andeq	r0, r4, r0
     80c:	a4170000 	ldrge	r0, [r7], #-0
     810:	00000001 	andeq	r0, r0, r1
     814:	fc110000 	ldc2	0, cr0, [r1], {-0}
     818:	a3000085 	movwge	r0, #133	; 0x85
     81c:	23000005 	movwcs	r0, #5
     820:	00008620 	andeq	r8, r0, r0, lsr #12
     824:	00000415 	andeq	r0, r0, r5, lsl r4
     828:	00000501 	andeq	r0, r0, r1, lsl #10
     82c:	02500122 	subseq	r0, r0, #-2147483640	; 0x80000008
     830:	01220074 			; <UNDEFINED> instruction: 0x01220074
     834:	200a0351 	andcs	r0, sl, r1, asr r3
     838:	2c240001 	stccs	0, cr0, [r4], #-4
     83c:	15000086 	strne	r0, [r0, #-134]	; 0xffffff7a
     840:	22000004 	andcs	r0, r0, #4
     844:	74035001 	strvc	r5, [r3], #-1
     848:	012202a0 	smulwbeq	r2, r0, r2
     84c:	200a0351 	andcs	r0, sl, r1, asr r3
     850:	25000001 	strcs	r0, [r0, #-1]
     854:	0000037a 	andeq	r0, r0, sl, ror r3
     858:	05291401 	streq	r1, [r9, #-1025]!	; 0xfffffbff
     85c:	b2000000 	andlt	r0, r0, #0
     860:	d5263f00 	strle	r3, [r6, #-3840]!	; 0xfffff100
     864:	27000001 	strcs	r0, [r0, -r1]
     868:	000000a3 	andeq	r0, r0, r3, lsr #1
     86c:	0000053e 	andeq	r0, r0, lr, lsr r5
     870:	00053e28 	andeq	r3, r5, r8, lsr #28
     874:	02004700 	andeq	r4, r0, #0, 14
     878:	03430704 	movteq	r0, #14084	; 0x3704
     87c:	391f0000 	ldmdbcc	pc, {}	; <UNPREDICTABLE>
     880:	01000004 	tsteq	r0, r4
     884:	00052e17 	andeq	r2, r5, r7, lsl lr
     888:	00030500 	andeq	r0, r3, r0, lsl #10
     88c:	270000d0 			; <UNDEFINED> instruction: 0x270000d0
     890:	000000b5 	strheq	r0, [r0], -r5
     894:	00000566 	andeq	r0, r0, r6, ror #10
     898:	00053e28 	andeq	r3, r5, r8, lsr #28
     89c:	1f004700 	svcne	0x00004700
     8a0:	00000527 	andeq	r0, r0, r7, lsr #10
     8a4:	05561801 	ldrbeq	r1, [r6, #-2049]	; 0xfffff7ff
     8a8:	03050000 	movweq	r0, #20480	; 0x5000
     8ac:	0000d120 	andeq	sp, r0, r0, lsr #2
     8b0:	00032229 	andeq	r2, r3, r9, lsr #4
     8b4:	881a0100 	ldmdahi	sl, {r8}
     8b8:	05000005 	streq	r0, [r0, #-5]
     8bc:	00d24003 	sbcseq	r4, r2, r3
     8c0:	007d0500 	rsbseq	r0, sp, r0, lsl #10
     8c4:	0d2a0000 	stceq	0, cr0, [sl, #-0]
     8c8:	0d000005 	stceq	0, cr0, [r0, #-20]	; 0xffffffec
     8cc:	05000005 	streq	r0, [r0, #-5]
     8d0:	047e2a2c 	ldrbteq	r2, [lr], #-2604	; 0xfffff5d4
     8d4:	047e0000 	ldrbteq	r0, [lr], #-0
     8d8:	0c060000 	stceq	0, cr0, [r6], {-0}
     8dc:	0004b22a 	andeq	fp, r4, sl, lsr #4
     8e0:	0004b200 	andeq	fp, r4, r0, lsl #4
     8e4:	00400200 	subeq	r0, r0, r0, lsl #4
     8e8:	00000212 	andeq	r0, r0, r2, lsl r2
     8ec:	03fc0004 	mvnseq	r0, #4
     8f0:	01040000 	mrseq	r0, (UNDEF: 4)
     8f4:	00000064 	andeq	r0, r0, r4, rrx
     8f8:	00068b0c 	andeq	r8, r6, ip, lsl #22
     8fc:	00011a00 	andeq	r1, r1, r0, lsl #20
     900:	00865c00 	addeq	r5, r6, r0, lsl #24
     904:	00006c00 	andeq	r6, r0, r0, lsl #24
     908:	00047f00 	andeq	r7, r4, r0, lsl #30
     90c:	06010200 	streq	r0, [r1], -r0, lsl #4
     910:	0000000d 	andeq	r0, r0, sp
     914:	6b050202 	blvs	141124 <dma_src_page_2+0xb124>
     918:	03000001 	movweq	r0, #1
     91c:	00000176 	andeq	r0, r0, r6, ror r1
     920:	003e2802 	eorseq	r2, lr, r2, lsl #16
     924:	04020000 	streq	r0, [r2], #-0
     928:	00011105 	andeq	r1, r1, r5, lsl #2
     92c:	05080200 	streq	r0, [r8, #-512]	; 0xfffffe00
     930:	0000010c 	andeq	r0, r0, ip, lsl #2
     934:	0b080102 	bleq	200d44 <__kernel_end+0x9ad44>
     938:	02000000 	andeq	r0, r0, #0
     93c:	00190702 	andseq	r0, r9, r2, lsl #14
     940:	75030000 	strvc	r0, [r3, #-0]
     944:	02000001 	andeq	r0, r0, #1
     948:	00006534 	andeq	r6, r0, r4, lsr r5
     94c:	07040200 	streq	r0, [r4, -r0, lsl #4]
     950:	00000052 	andeq	r0, r0, r2, asr r0
     954:	4d070802 	stcmi	8, cr0, [r7, #-8]
     958:	04000000 	streq	r0, [r0], #-0
     95c:	6e690504 	cdpvs	5, 6, cr0, cr9, cr4, {0}
     960:	04020074 	streq	r0, [r2], #-116	; 0xffffff8c
     964:	00005707 	andeq	r5, r0, r7, lsl #14
     968:	005a0500 	subseq	r0, sl, r0, lsl #10
     96c:	01060000 	mrseq	r0, (UNDEF: 6)
     970:	0000004c 	andeq	r0, r0, ip, asr #32
     974:	00cf0d03 	sbceq	r0, pc, r3, lsl #26
     978:	55070000 	strpl	r0, [r7, #-0]
     97c:	00000006 	andeq	r0, r0, r6
     980:	0005ef07 	andeq	lr, r5, r7, lsl #30
     984:	44070100 	strmi	r0, [r7], #-256	; 0xffffff00
     988:	02000006 	andeq	r0, r0, #6
     98c:	00061007 	andeq	r1, r6, r7
     990:	82070300 	andhi	r0, r7, #0, 6
     994:	04000006 	streq	r0, [r0], #-6
     998:	0006c707 	andeq	ip, r6, r7, lsl #14
     99c:	1a070500 	bne	1c1da4 <__kernel_end+0x5bda4>
     9a0:	06000006 	streq	r0, [r0], -r6
     9a4:	0005e407 	andeq	lr, r5, r7, lsl #8
     9a8:	ae070700 	cdpge	7, 0, cr0, cr7, cr0, {0}
     9ac:	08000005 	stmdaeq	r0, {r0, r2}
     9b0:	0006a207 	andeq	sl, r6, r7, lsl #4
     9b4:	03000900 	movweq	r0, #2304	; 0x900
     9b8:	0000066f 	andeq	r0, r0, pc, ror #12
     9bc:	00861803 	addeq	r1, r6, r3, lsl #16
     9c0:	8e080000 	cdphi	0, 0, cr0, cr8, cr0, {0}
     9c4:	04000005 	streq	r0, [r0], #-5
     9c8:	0000007a 	andeq	r0, r0, sl, ror r0
     9cc:	01061c03 	tsteq	r6, r3, lsl #24
     9d0:	82090000 	andhi	r0, r9, #0
     9d4:	00000005 	andeq	r0, r0, r5
     9d8:	09800000 	stmibeq	r0, {}	; <UNPREDICTABLE>
     9dc:	0000062a 	andeq	r0, r0, sl, lsr #12
     9e0:	40000000 	andmi	r0, r0, r0
     9e4:	00063709 	andeq	r3, r6, r9, lsl #14
     9e8:	0000ff00 	andeq	pc, r0, r0, lsl #30
     9ec:	240a0040 	strcs	r0, [sl], #-64	; 0xffffffc0
     9f0:	01632503 	cmneq	r3, r3, lsl #10
     9f4:	0b0b0000 	bleq	2c09fc <__kernel_end+0x15a9fc>
     9f8:	03000006 	movweq	r0, #6
     9fc:	00008127 	andeq	r8, r0, r7, lsr #2
     a00:	d30b0000 	movwle	r0, #45056	; 0xb000
     a04:	03000006 	movweq	r0, #6
     a08:	00017a28 	andeq	r7, r1, r8, lsr #20
     a0c:	6a0b0400 	bvs	2c1a14 <__kernel_end+0x15ba14>
     a10:	03000006 	movweq	r0, #6
     a14:	00008129 	andeq	r8, r0, r9, lsr #2
     a18:	dd0b1000 	stcle	0, cr1, [fp, #-0]
     a1c:	03000005 	movweq	r0, #5
     a20:	0000812a 	andeq	r8, r0, sl, lsr #2
     a24:	c80b1400 	stmdagt	fp, {sl, ip}
     a28:	03000020 	movweq	r0, #32
     a2c:	0000812b 	andeq	r8, r0, fp, lsr #2
     a30:	d50b1800 	strle	r1, [fp, #-2048]	; 0xfffff800
     a34:	03000027 	movweq	r0, #39	; 0x27
     a38:	0000812c 	andeq	r8, r0, ip, lsr #2
     a3c:	c10b1c00 	tstgt	fp, r0, lsl #24
     a40:	03000006 	movweq	r0, #6
     a44:	0000812d 	andeq	r8, r0, sp, lsr #2
     a48:	0c002000 	stceq	0, cr2, [r0], {-0}
     a4c:	00000081 	andeq	r0, r0, r1, lsl #1
     a50:	00000173 	andeq	r0, r0, r3, ror r1
     a54:	0001730d 	andeq	r7, r1, sp, lsl #6
     a58:	02000200 	andeq	r0, r0, #0, 4
     a5c:	03430704 	movteq	r0, #14084	; 0x3704
     a60:	63050000 	movwvs	r0, #20480	; 0x5000
     a64:	03000001 	movweq	r0, #1
     a68:	000005d3 	ldrdeq	r0, [r0], -r3
     a6c:	01062e03 	tsteq	r6, r3, lsl #28
     a70:	b50e0000 	strlt	r0, [lr, #-0]
     a74:	01000006 	tsteq	r0, r6
     a78:	00865c0a 	addeq	r5, r6, sl, lsl #24
     a7c:	00002c00 	andeq	r2, r0, r0, lsl #24
     a80:	be9c0100 	fmllte	f0, f4, f0
     a84:	0f000001 	svceq	0x00000001
     a88:	000005a6 	andeq	r0, r0, r6, lsr #11
     a8c:	00cf0a01 	sbceq	r0, pc, r1, lsl #20
     a90:	022c0000 	eoreq	r0, ip, #0
     a94:	c10f0000 	mrsgt	r0, CPSR
     a98:	01000005 	tsteq	r0, r5
     a9c:	0000330a 	andeq	r3, r0, sl, lsl #6
     aa0:	00024d00 	andeq	r4, r2, r0, lsl #26
     aa4:	ff100000 			; <UNDEFINED> instruction: 0xff100000
     aa8:	01000005 	tsteq	r0, r5
     aac:	0000331d 	andeq	r3, r0, sp, lsl r3
     ab0:	00868800 	addeq	r8, r6, r0, lsl #16
     ab4:	00004000 	andeq	r4, r0, r0
     ab8:	f69c0100 			; <UNDEFINED> instruction: 0xf69c0100
     abc:	0f000001 	svceq	0x00000001
     ac0:	000005a6 	andeq	r0, r0, r6, lsr #11
     ac4:	00cf1d01 	sbceq	r1, pc, r1, lsl #26
     ac8:	02760000 	rsbseq	r0, r6, #0
     acc:	c1110000 	tstgt	r1, r0
     ad0:	01000005 	tsteq	r0, r5
     ad4:	00003321 	andeq	r3, r0, r1, lsr #6
     ad8:	0002b000 	andeq	fp, r2, r0
     adc:	c7120000 	ldrgt	r0, [r2, -r0]
     ae0:	01000005 	tsteq	r0, r5
     ae4:	00021008 	andeq	r1, r2, r8
     ae8:	00b88000 	adcseq	r8, r8, r0
     aec:	0b04133f 	bleq	1057f0 <__first_lvl_tbl_end+0xe07f0>
     af0:	05000002 	streq	r0, [r0, #-2]
     af4:	0000017f 	andeq	r0, r0, pc, ror r1
     af8:	00020514 	andeq	r0, r2, r4, lsl r5
     afc:	057a0000 	ldrbeq	r0, [sl, #-0]!
     b00:	00040000 	andeq	r0, r4, r0
     b04:	0000050d 	andeq	r0, r0, sp, lsl #10
     b08:	00640104 	rsbeq	r0, r4, r4, lsl #2
     b0c:	510c0000 	mrspl	r0, (UNDEF: 12)
     b10:	1a00000c 	bne	b48 <SCTLR_ENABLE_BRANCH_PREDICTION+0x348>
     b14:	c8000001 	stmdagt	r0, {r0}
     b18:	d0000086 	andle	r0, r0, r6, lsl #1
     b1c:	57000005 	strpl	r0, [r0, -r5]
     b20:	02000005 	andeq	r0, r0, #5
     b24:	000009f5 	strdeq	r0, [r0], -r5
     b28:	00302802 	eorseq	r2, r0, r2, lsl #16
     b2c:	41030000 	mrsmi	r0, (UNDEF: 3)
     b30:	04000008 	streq	r0, [r0], #-8
     b34:	00470007 	subeq	r0, r7, r7
     b38:	e9040000 	stmdb	r4, {}	; <UNPREDICTABLE>
     b3c:	4700000b 	strmi	r0, [r0, -fp]
     b40:	00000000 	andeq	r0, r0, r0
     b44:	02040500 	andeq	r0, r4, #0, 10
     b48:	00000843 	andeq	r0, r0, r3, asr #16
     b4c:	00256202 	eoreq	r6, r5, r2, lsl #4
     b50:	01060000 	mrseq	r0, (UNDEF: 6)
     b54:	00000d06 	andeq	r0, r0, r6, lsl #26
     b58:	05020600 	streq	r0, [r2, #-1536]	; 0xfffffa00
     b5c:	0000016b 	andeq	r0, r0, fp, ror #2
     b60:	00017602 	andeq	r7, r1, r2, lsl #12
     b64:	6d280300 	stcvs	3, cr0, [r8, #-0]
     b68:	06000000 	streq	r0, [r0], -r0
     b6c:	01110504 	tsteq	r1, r4, lsl #10
     b70:	08060000 	stmdaeq	r6, {}	; <UNPREDICTABLE>
     b74:	00010c05 	andeq	r0, r1, r5, lsl #24
     b78:	035e0200 	cmpeq	lr, #0, 4
     b7c:	2e030000 	cdpcs	0, 0, cr0, cr3, cr0, {0}
     b80:	00000086 	andeq	r0, r0, r6, lsl #1
     b84:	0b080106 	bleq	200fa4 <__kernel_end+0x9afa4>
     b88:	06000000 	streq	r0, [r0], -r0
     b8c:	00190702 	andseq	r0, r9, r2, lsl #14
     b90:	75020000 	strvc	r0, [r2, #-0]
     b94:	03000001 	movweq	r0, #1
     b98:	00009f34 	andeq	r9, r0, r4, lsr pc
     b9c:	07040600 	streq	r0, [r4, -r0, lsl #12]
     ba0:	00000052 	andeq	r0, r0, r2, asr r0
     ba4:	4d070806 	stcmi	8, cr0, [r7, #-24]	; 0xffffffe8
     ba8:	07000000 	streq	r0, [r0, -r0]
     bac:	6e690504 	cdpvs	5, 6, cr0, cr9, cr4, {0}
     bb0:	04060074 	streq	r0, [r6], #-116	; 0xffffff8c
     bb4:	00005707 	andeq	r5, r0, r7, lsl #14
     bb8:	86010800 	strhi	r0, [r1], -r0, lsl #16
     bbc:	04000000 	streq	r0, [r0], #-0
     bc0:	0001040d 	andeq	r0, r1, sp, lsl #8
     bc4:	06550900 	ldrbeq	r0, [r5], -r0, lsl #18
     bc8:	09000000 	stmdbeq	r0, {}	; <UNPREDICTABLE>
     bcc:	000005ef 	andeq	r0, r0, pc, ror #11
     bd0:	06440901 	strbeq	r0, [r4], -r1, lsl #18
     bd4:	09020000 	stmdbeq	r2, {}	; <UNPREDICTABLE>
     bd8:	00000610 	andeq	r0, r0, r0, lsl r6
     bdc:	06820903 	streq	r0, [r2], r3, lsl #18
     be0:	09040000 	stmdbeq	r4, {}	; <UNPREDICTABLE>
     be4:	000006c7 	andeq	r0, r0, r7, asr #13
     be8:	061a0905 	ldreq	r0, [sl], -r5, lsl #18
     bec:	09060000 	stmdbeq	r6, {}	; <UNPREDICTABLE>
     bf0:	000005e4 	andeq	r0, r0, r4, ror #11
     bf4:	05ae0907 	streq	r0, [lr, #2311]!	; 0x907
     bf8:	09080000 	stmdbeq	r8, {}	; <UNPREDICTABLE>
     bfc:	000006a2 	andeq	r0, r0, r2, lsr #13
     c00:	04060009 	streq	r0, [r6], #-9
     c04:	00034307 	andeq	r4, r3, r7, lsl #6
     c08:	b4040800 	strlt	r0, [r4], #-2048	; 0xfffff800
     c0c:	05000000 	streq	r0, [r0, #-0]
     c10:	0003510d 	andeq	r5, r3, sp, lsl #2
     c14:	0ab30900 	beq	fecc301c <__kernel_end+0xfeb5d01c>
     c18:	0a010000 	beq	40c20 <__first_lvl_tbl_end+0x1bc20>
     c1c:	00000a9f 	muleq	r0, pc, sl	; <UNPREDICTABLE>
     c20:	00010001 	andeq	r0, r1, r1
     c24:	0007140a 	andeq	r1, r7, sl, lsl #8
     c28:	01000200 	mrseq	r0, R8_usr
     c2c:	0c840a00 	vstmiaeq	r4, {s0-s-1}
     c30:	00030000 	andeq	r0, r3, r0
     c34:	ff0a0001 			; <UNDEFINED> instruction: 0xff0a0001
     c38:	04000006 	streq	r0, [r0], #-6
     c3c:	0a000100 	beq	1044 <SCTLR_ENABLE_INSTRUCTION_CACHE+0x44>
     c40:	00000947 	andeq	r0, r0, r7, asr #18
     c44:	00010005 	andeq	r0, r1, r5
     c48:	0007f40a 	andeq	pc, r7, sl, lsl #8
     c4c:	01000600 	tsteq	r0, r0, lsl #12
     c50:	0bc20a00 	bleq	ff083458 <__kernel_end+0xfef1d458>
     c54:	00070000 	andeq	r0, r7, r0
     c58:	8a0a0001 	bhi	280c64 <__kernel_end+0x11ac64>
     c5c:	0100000a 	tsteq	r0, sl
     c60:	0a000500 	beq	2068 <SCTLR_ENABLE_INSTRUCTION_CACHE+0x1068>
     c64:	00000cac 	andeq	r0, r0, ip, lsr #25
     c68:	00060001 	andeq	r0, r6, r1
     c6c:	000ce40a 	andeq	lr, ip, sl, lsl #8
     c70:	02000100 	andeq	r0, r0, #0, 2
     c74:	0cff0a00 	vldmiaeq	pc!, {s1-s0}
     c78:	00020000 	andeq	r0, r2, r0
     c7c:	900a0002 	andls	r0, sl, r2
     c80:	01000009 	tsteq	r0, r9
     c84:	0a000280 	beq	168c <SCTLR_ENABLE_INSTRUCTION_CACHE+0x68c>
     c88:	00000b4b 	andeq	r0, r0, fp, asr #22
     c8c:	00030001 	andeq	r0, r3, r1
     c90:	0008180a 	andeq	r1, r8, sl, lsl #16
     c94:	03800100 	orreq	r0, r0, #0, 2
     c98:	07c30a00 	strbeq	r0, [r3, r0, lsl #20]
     c9c:	00020000 	andeq	r0, r2, r0
     ca0:	380a0003 	stmdacc	sl, {r0, r1}
     ca4:	0200000b 	andeq	r0, r0, #11
     ca8:	0a000380 	beq	1ab0 <SCTLR_ENABLE_INSTRUCTION_CACHE+0xab0>
     cac:	00000886 	andeq	r0, r0, r6, lsl #17
     cb0:	00030004 	andeq	r0, r3, r4
     cb4:	00072b0a 	andeq	r2, r7, sl, lsl #22
     cb8:	03000700 	movweq	r0, #1792	; 0x700
     cbc:	0c9e0a00 	vldmiaeq	lr, {s0-s-1}
     cc0:	00090000 	andeq	r0, r9, r0
     cc4:	5f0a0003 	svcpl	0x000a0003
     cc8:	0900000b 	stmdbeq	r0, {r0, r1, r3}
     ccc:	0a000380 	beq	1ad4 <SCTLR_ENABLE_INSTRUCTION_CACHE+0xad4>
     cd0:	00000a1a 	andeq	r0, r0, sl, lsl sl
     cd4:	00030003 	andeq	r0, r3, r3
     cd8:	0007b30a 	andeq	fp, r7, sl, lsl #6
     cdc:	03800300 	orreq	r0, r0, #0, 6
     ce0:	0b240a00 	bleq	9034e8 <__kernel_end+0x79d4e8>
     ce4:	00050000 	andeq	r0, r5, r0
     ce8:	ae0a0003 	cdpge	0, 0, cr0, cr10, cr3, {0}
     cec:	0800000b 	stmdaeq	r0, {r0, r1, r3}
     cf0:	0a000300 	beq	18f8 <SCTLR_ENABLE_INSTRUCTION_CACHE+0x8f8>
     cf4:	0000078c 	andeq	r0, r0, ip, lsl #15
     cf8:	00030006 	andeq	r0, r3, r6
     cfc:	000ad60a 	andeq	sp, sl, sl, lsl #12
     d00:	03000a00 	movweq	r0, #2560	; 0xa00
     d04:	0b100a00 	bleq	40350c <__kernel_end+0x29d50c>
     d08:	000c0000 	andeq	r0, ip, r0
     d0c:	a40a0003 	strge	r0, [sl], #-3
     d10:	0d000009 	stceq	0, cr0, [r0, #-36]	; 0xffffffdc
     d14:	0a000300 	beq	191c <SCTLR_ENABLE_INSTRUCTION_CACHE+0x91c>
     d18:	00000c72 	andeq	r0, r0, r2, ror ip
     d1c:	0003000e 	andeq	r0, r3, lr
     d20:	00097d0a 	andeq	r7, r9, sl, lsl #26
     d24:	03000f00 	movweq	r0, #3840	; 0xf00
     d28:	0a530a00 	beq	14c3530 <__kernel_end+0x135d530>
     d2c:	00100000 	andseq	r0, r0, r0
     d30:	2c0a0003 	stccs	0, cr0, [sl], {3}
     d34:	1400000c 	strne	r0, [r0], #-12
     d38:	0a000300 	beq	1940 <SCTLR_ENABLE_INSTRUCTION_CACHE+0x940>
     d3c:	00000873 	andeq	r0, r0, r3, ror r8
     d40:	00030020 	andeq	r0, r3, r0, lsr #32
     d44:	0009e10a 	andeq	lr, r9, sl, lsl #2
     d48:	04000100 	streq	r0, [r0], #-256	; 0xffffff00
     d4c:	07a00a00 	streq	r0, [r0, r0, lsl #20]!
     d50:	80010000 	andhi	r0, r1, r0
     d54:	dd0a0004 	stcle	0, cr0, [sl, #-16]
     d58:	02000006 	andeq	r0, r0, #6
     d5c:	0a000400 	beq	1d64 <SCTLR_ENABLE_INSTRUCTION_CACHE+0xd64>
     d60:	00000771 	andeq	r0, r0, r1, ror r7
     d64:	00040003 	andeq	r0, r4, r3
     d68:	000ccd0a 	andeq	ip, ip, sl, lsl #26
     d6c:	04400300 	strbeq	r0, [r0], #-768	; 0xfffffd00
     d70:	0a040a00 	beq	103578 <__first_lvl_tbl_end+0xde578>
     d74:	80030000 	andhi	r0, r3, r0
     d78:	680a0004 	stmdavs	sl, {r2}
     d7c:	04000009 	streq	r0, [r0], #-9
     d80:	0a000400 	beq	1d88 <SCTLR_ENABLE_INSTRUCTION_CACHE+0xd88>
     d84:	00000bf7 	strdeq	r0, [r0], -r7
     d88:	00044004 	andeq	r4, r4, r4
     d8c:	000a2a0a 	andeq	r2, sl, sl, lsl #20
     d90:	04800400 	streq	r0, [r0], #1024	; 0x400
     d94:	095a0a00 	ldmdbeq	sl, {r9, fp}^
     d98:	00050000 	andeq	r0, r5, r0
     d9c:	1d0a0004 	stcne	0, cr0, [sl, #-16]
     da0:	0500000c 	streq	r0, [r0, #-12]
     da4:	0a000440 	beq	1eac <SCTLR_ENABLE_INSTRUCTION_CACHE+0xeac>
     da8:	000007d6 	ldrdeq	r0, [r0], -r6
     dac:	00048005 	andeq	r8, r4, r5
     db0:	00085f0a 	andeq	r5, r8, sl, lsl #30
     db4:	04000600 	streq	r0, [r0], #-1536	; 0xfffffa00
     db8:	082c0a00 	stmdaeq	ip!, {r9, fp}
     dbc:	40060000 	andmi	r0, r6, r0
     dc0:	fc0a0004 	stc2	0, cr0, [sl], {4}
     dc4:	0600000a 	streq	r0, [r0], -sl
     dc8:	0a000480 	beq	1fd0 <SCTLR_ENABLE_INSTRUCTION_CACHE+0xfd0>
     dcc:	000009c0 	andeq	r0, r0, r0, asr #19
     dd0:	00040007 	andeq	r0, r4, r7
     dd4:	00089d0a 	andeq	r9, r8, sl, lsl #26
     dd8:	04400700 	strbeq	r0, [r0], #-1792	; 0xfffff900
     ddc:	0b860a00 	bleq	fe1835e4 <__kernel_end+0xfe01d5e4>
     de0:	80070000 	andhi	r0, r7, r0
     de4:	d30a0004 	movwle	r0, #40964	; 0xa004
     de8:	08000009 	stmdaeq	r0, {r0, r3}
     dec:	0a000400 	beq	1df4 <SCTLR_ENABLE_INSTRUCTION_CACHE+0xdf4>
     df0:	00000930 	andeq	r0, r0, r0, lsr r9
     df4:	00040009 	andeq	r0, r4, r9
     df8:	0007420a 	andeq	r4, r7, sl, lsl #4
     dfc:	04400900 	strbeq	r0, [r0], #-2304	; 0xfffff700
     e00:	075a0a00 	ldrbeq	r0, [sl, -r0, lsl #20]
     e04:	80090000 	andhi	r0, r9, r0
     e08:	ee0a0004 	cdp	0, 0, cr0, cr10, cr4, {0}
     e0c:	0a000006 	beq	e2c <SCTLR_ENABLE_BRANCH_PREDICTION+0x62c>
     e10:	0a000400 	beq	1e18 <SCTLR_ENABLE_INSTRUCTION_CACHE+0xe18>
     e14:	0000091e 	andeq	r0, r0, lr, lsl r9
     e18:	0004400a 	andeq	r4, r4, sl
     e1c:	000bd10a 	andeq	sp, fp, sl, lsl #2
     e20:	04800a00 	streq	r0, [r0], #2560	; 0xa00
     e24:	07e40a00 	strbeq	r0, [r4, r0, lsl #20]!
     e28:	000b0000 	andeq	r0, fp, r0
     e2c:	cb0a0004 	blgt	280e44 <__kernel_end+0x11ae44>
     e30:	0b000008 	bleq	e58 <SCTLR_ENABLE_BRANCH_PREDICTION+0x658>
     e34:	0a000440 	beq	1f3c <SCTLR_ENABLE_INSTRUCTION_CACHE+0xf3c>
     e38:	00000b76 	andeq	r0, r0, r6, ror fp
     e3c:	0004800b 	andeq	r8, r4, fp
     e40:	00084b0b 	andeq	r4, r8, fp, lsl #22
     e44:	0b801100 	bleq	fe00524c <__kernel_end+0xfde9f24c>
     e48:	00000b99 	muleq	r0, r9, fp
     e4c:	02008010 	andeq	r8, r0, #16
     e50:	00000a64 	andeq	r0, r0, r4, ror #20
     e54:	010b5e05 	tsteq	fp, r5, lsl #28
     e58:	01080000 	mrseq	r0, (UNDEF: 8)
     e5c:	00000086 	andeq	r0, r0, r6, lsl #1
     e60:	03756705 	cmneq	r5, #1310720	; 0x140000
     e64:	c2090000 	andgt	r0, r9, #0
     e68:	00000008 	andeq	r0, r0, r8
     e6c:	00090609 	andeq	r0, r9, r9, lsl #12
     e70:	08000100 	stmdaeq	r0, {r8}
     e74:	00008601 	andeq	r8, r0, r1, lsl #12
     e78:	9a6d0500 	bls	1b42280 <__kernel_end+0x19dc280>
     e7c:	09000003 	stmdbeq	r0, {r0, r1}
     e80:	00000a81 	andeq	r0, r0, r1, lsl #21
     e84:	0aee0900 	beq	ffb8328c <__kernel_end+0xffa1d28c>
     e88:	09010000 	stmdbeq	r1, {}	; <UNPREDICTABLE>
     e8c:	00000cc1 	andeq	r0, r0, r1, asr #25
     e90:	0b6d0902 	bleq	1b432a0 <__kernel_end+0x19dd2a0>
     e94:	00030000 	andeq	r0, r3, r0
     e98:	0501000c 	streq	r0, [r1, #-12]
     e9c:	0003c578 	andeq	ip, r3, r8, ror r5
     ea0:	0bee0d00 	bleq	ffb842a8 <__kernel_end+0xffa1e2a8>
     ea4:	79050000 	stmdbvc	r5, {}	; <UNPREDICTABLE>
     ea8:	00000062 	andeq	r0, r0, r2, rrx
     eac:	0008060d 	andeq	r0, r8, sp, lsl #12
     eb0:	c57a0500 	ldrbgt	r0, [sl, #-1280]!	; 0xfffffb00
     eb4:	0d000003 	stceq	0, cr0, [r0, #-12]
     eb8:	00000acc 	andeq	r0, r0, ip, asr #21
     ebc:	03d57b05 	bicseq	r7, r5, #5120	; 0x1400
     ec0:	0e000000 	cdpeq	0, 0, cr0, cr0, cr0, {0}
     ec4:	0000007b 	andeq	r0, r0, fp, ror r0
     ec8:	000003d5 	ldrdeq	r0, [r0], -r5
     ecc:	0001040f 	andeq	r0, r1, pc, lsl #8
     ed0:	0e00ff00 	cdpeq	15, 0, cr15, cr0, cr0, {0}
     ed4:	00000062 	andeq	r0, r0, r2, rrx
     ed8:	000003e5 	andeq	r0, r0, r5, ror #7
     edc:	0001040f 	andeq	r0, r1, pc, lsl #8
     ee0:	10003f00 	andne	r3, r0, r0, lsl #30
     ee4:	74050108 	strvc	r0, [r5], #-264	; 0xfffffef8
     ee8:	00000413 	andeq	r0, r0, r3, lsl r4
     eec:	67617411 			; <UNDEFINED> instruction: 0x67617411
     ef0:	62760500 	rsbsvs	r0, r6, #0, 10
     ef4:	00000000 	andeq	r0, r0, r0
     ef8:	0009b412 	andeq	fp, r9, r2, lsl r4
     efc:	62770500 	rsbsvs	r0, r7, #0, 10
     f00:	04000000 	streq	r0, [r0], #-0
     f04:	00078712 	andeq	r8, r7, r2, lsl r7
     f08:	9a7c0500 	bls	1f02310 <__kernel_end+0x1d9c310>
     f0c:	08000003 	stmdaeq	r0, {r0, r1}
     f10:	08ef0200 	stmiaeq	pc!, {r9}^	; <UNPREDICTABLE>
     f14:	7d050000 	stcvc	0, cr0, [r5, #-0]
     f18:	000003e5 	andeq	r0, r0, r5, ror #7
     f1c:	1a040806 	bne	102f3c <__first_lvl_tbl_end+0xddf3c>
     f20:	06000004 	streq	r0, [r0], -r4
     f24:	00140801 	andseq	r0, r4, r1, lsl #16
     f28:	b1130000 	tstlt	r3, r0
     f2c:	01000008 	tsteq	r0, r8
     f30:	0086c818 	addeq	ip, r6, r8, lsl r8
     f34:	00003800 	andeq	r3, r0, r0, lsl #16
     f38:	149c0100 	ldrne	r0, [ip], #256	; 0x100
     f3c:	000008dc 	ldrdeq	r0, [r0], -ip
     f40:	87002b01 	strhi	r2, [r0, -r1, lsl #22]
     f44:	04a00000 	strteq	r0, [r0], #0
     f48:	9c010000 	stcls	0, cr0, [r1], {-0}
     f4c:	0000046f 	andeq	r0, r0, pc, ror #8
     f50:	67617415 			; <UNDEFINED> instruction: 0x67617415
     f54:	512b0100 			; <UNDEFINED> instruction: 0x512b0100
     f58:	02000003 	andeq	r0, r0, #3
     f5c:	17167091 			; <UNDEFINED> instruction: 0x17167091
     f60:	01006c76 	tsteq	r0, r6, ror ip
     f64:	0000492d 	andeq	r4, r0, sp, lsr #18
     f68:	54910200 	ldrpl	r0, [r1], #512	; 0x200
     f6c:	0a3f1800 	beq	fc6f74 <__kernel_end+0xe60f74>
     f70:	b3010000 	movwlt	r0, #4096	; 0x1000
     f74:	00000062 	andeq	r0, r0, r2, rrx
     f78:	00008ba0 	andeq	r8, r0, r0, lsr #23
     f7c:	0000004c 	andeq	r0, r0, ip, asr #32
     f80:	04b69c01 	ldrteq	r9, [r6], #3073	; 0xc01
     f84:	f8190000 			; <UNDEFINED> instruction: 0xf8190000
     f88:	0100000c 	tsteq	r0, ip
     f8c:	000062b5 			; <UNDEFINED> instruction: 0x000062b5
     f90:	8bd81a00 	blhi	ff607798 <__kernel_end+0xff4a1798>
     f94:	055c0000 	ldrbeq	r0, [ip, #-0]
     f98:	04a60000 	strteq	r0, [r6], #0
     f9c:	011b0000 	tsteq	fp, r0
     fa0:	00380150 	eorseq	r0, r8, r0, asr r1
     fa4:	008be41c 	addeq	lr, fp, ip, lsl r4
     fa8:	00056700 	andeq	r6, r5, r0, lsl #14
     fac:	50011b00 	andpl	r1, r1, r0, lsl #22
     fb0:	00003801 	andeq	r3, r0, r1, lsl #16
     fb4:	000c0d18 	andeq	r0, ip, r8, lsl sp
     fb8:	1ec00100 	polnes	f0, f0, f0
     fbc:	ec000005 	stc	0, cr0, [r0], {5}
     fc0:	ac00008b 	stcge	0, cr0, [r0], {139}	; 0x8b
     fc4:	01000000 	mrseq	r0, (UNDEF: 0)
     fc8:	00051e9c 	muleq	r5, ip, lr
     fcc:	61741d00 	cmnvs	r4, r0, lsl #26
     fd0:	c0010067 	andgt	r0, r1, r7, rrx
     fd4:	00000351 	andeq	r0, r0, r1, asr r3
     fd8:	000002dd 	ldrdeq	r0, [r0], -sp
     fdc:	00080f1e 	andeq	r0, r8, lr, lsl pc
     fe0:	13c20100 	bicne	r0, r2, #0, 2
     fe4:	05000004 	streq	r0, [r0, #-4]
     fe8:	01525403 	cmpeq	r2, r3, lsl #8
     fec:	0a761f00 	beq	1d88bf4 <__kernel_end+0x1c22bf4>
     ff0:	c3010000 	movwgt	r0, #4096	; 0x1000
     ff4:	00000524 	andeq	r0, r0, r4, lsr #10
     ff8:	00000327 	andeq	r0, r0, r7, lsr #6
     ffc:	000c4b1f 	andeq	r4, ip, pc, lsl fp
    1000:	62c80100 	sbcvs	r0, r8, #0, 2
    1004:	46000000 	strmi	r0, [r0], -r0
    1008:	20000003 	andcs	r0, r0, r3
    100c:	00008c80 	andeq	r8, r0, r0, lsl #25
    1010:	00000572 	andeq	r0, r0, r2, ror r5
    1014:	0250011b 	subseq	r0, r0, #-1073741818	; 0xc0000006
    1018:	00000874 	andeq	r0, r0, r4, ror r8
    101c:	04130421 	ldreq	r0, [r3], #-1057	; 0xfffffbdf
    1020:	04210000 	strteq	r0, [r1], #-0
    1024:	00000062 	andeq	r0, r0, r2, rrx
    1028:	0000620e 	andeq	r6, r0, lr, lsl #4
    102c:	00053b00 	andeq	r3, r5, r0, lsl #22
    1030:	01042200 	mrseq	r2, R12_usr
    1034:	1fff0000 	svcne	0x00ff0000
    1038:	74701700 	ldrbtvc	r1, [r0], #-1792	; 0xfffff900
    103c:	2a0c0100 	bcs	301444 <__kernel_end+0x19b444>
    1040:	05000005 	streq	r0, [r0, #-5]
    1044:	00d25003 	sbcseq	r5, r2, r3
    1048:	0c481e00 	mcrreq	14, 0, r1, r8, cr0
    104c:	0d010000 	stceq	0, cr0, [r1, #-0]
    1050:	00000062 	andeq	r0, r0, r2, rrx
    1054:	52500305 	subspl	r0, r0, #335544320	; 0x14000000
    1058:	b5230001 	strlt	r0, [r3, #-1]!
    105c:	b5000006 	strlt	r0, [r0, #-6]
    1060:	04000006 	streq	r0, [r0], #-6
    1064:	05ff2330 	ldrbeq	r2, [pc, #816]!	; 139c <SCTLR_ENABLE_INSTRUCTION_CACHE+0x39c>
    1068:	05ff0000 	ldrbeq	r0, [pc, #0]!	; 1070 <SCTLR_ENABLE_INSTRUCTION_CACHE+0x70>
    106c:	31040000 	mrscc	r0, (UNDEF: 4)
    1070:	000be223 	andeq	lr, fp, r3, lsr #4
    1074:	000be200 	andeq	lr, fp, r0, lsl #4
    1078:	001b0600 	andseq	r0, fp, r0, lsl #12
    107c:	000002b6 			; <UNDEFINED> instruction: 0x000002b6
    1080:	06e80004 	strbteq	r0, [r8], r4
    1084:	01040000 	mrseq	r0, (UNDEF: 4)
    1088:	00000064 	andeq	r0, r0, r4, rrx
    108c:	000dc00c 	andeq	ip, sp, ip
    1090:	00011a00 	andeq	r1, r1, r0, lsl #20
    1094:	008c9800 	addeq	r9, ip, r0, lsl #16
    1098:	0001f800 	andeq	pc, r1, r0, lsl #16
    109c:	0007c200 	andeq	ip, r7, r0, lsl #4
    10a0:	07080200 	streq	r0, [r8, -r0, lsl #4]
    10a4:	0000004d 	andeq	r0, r0, sp, asr #32
    10a8:	0d060102 	stfeqs	f0, [r6, #-8]
    10ac:	02000000 	andeq	r0, r0, #0
    10b0:	016b0502 	cmneq	fp, r2, lsl #10
    10b4:	04020000 	streq	r0, [r2], #-0
    10b8:	00011105 	andeq	r1, r1, r5, lsl #2
    10bc:	05080200 	streq	r0, [r8, #-512]	; 0xfffffe00
    10c0:	0000010c 	andeq	r0, r0, ip, lsl #2
    10c4:	00035e03 	andeq	r5, r3, r3, lsl #28
    10c8:	532e0200 			; <UNDEFINED> instruction: 0x532e0200
    10cc:	02000000 	andeq	r0, r0, #0
    10d0:	000b0801 	andeq	r0, fp, r1, lsl #16
    10d4:	02020000 	andeq	r0, r2, #0
    10d8:	00001907 	andeq	r1, r0, r7, lsl #18
    10dc:	01750300 	cmneq	r5, r0, lsl #6
    10e0:	34020000 	strcc	r0, [r2], #-0
    10e4:	0000006c 	andeq	r0, r0, ip, rrx
    10e8:	52070402 	andpl	r0, r7, #33554432	; 0x2000000
    10ec:	03000000 	movweq	r0, #0
    10f0:	00000d2a 	andeq	r0, r0, sl, lsr #26
    10f4:	00253702 	eoreq	r3, r5, r2, lsl #14
    10f8:	04040000 	streq	r0, [r4], #-0
    10fc:	746e6905 	strbtvc	r6, [lr], #-2309	; 0xfffff6fb
    1100:	07040200 	streq	r0, [r4, -r0, lsl #4]
    1104:	00000057 	andeq	r0, r0, r7, asr r0
    1108:	00006105 	andeq	r6, r0, r5, lsl #2
    110c:	00730500 	rsbseq	r0, r3, r0, lsl #10
    1110:	04060000 	streq	r0, [r6], #-0
    1114:	00ea1103 	rsceq	r1, sl, r3, lsl #2
    1118:	33070000 	movwcc	r0, #28672	; 0x7000
    111c:	0300000d 	movweq	r0, #13
    1120:	00004813 	andeq	r4, r0, r3, lsl r8
    1124:	07010100 	streq	r0, [r1, -r0, lsl #2]
    1128:	0e2d0700 	cdpeq	7, 2, cr0, cr13, cr0, {0}
    112c:	14030000 	strne	r0, [r3], #-0
    1130:	00000048 	andeq	r0, r0, r8, asr #32
    1134:	00060101 	andeq	r0, r6, r1, lsl #2
    1138:	000d9007 	andeq	r9, sp, r7
    113c:	48150300 	ldmdami	r5, {r8, r9}
    1140:	01000000 	mrseq	r0, (UNDEF: 0)
    1144:	07000501 	streq	r0, [r0, -r1, lsl #10]
    1148:	00000da5 	andeq	r0, r0, r5, lsr #27
    114c:	00481603 	subeq	r1, r8, r3, lsl #12
    1150:	01010000 	mrseq	r0, (UNDEF: 1)
    1154:	24070004 	strcs	r0, [r7], #-4
    1158:	0300000e 	movweq	r0, #14
    115c:	00006117 	andeq	r6, r0, r7, lsl r1
    1160:	001c0400 	andseq	r0, ip, r0, lsl #8
    1164:	10030000 	andne	r0, r3, r0
    1168:	0300000e 	movweq	r0, #14
    116c:	00009618 	andeq	r9, r0, r8, lsl r6
    1170:	031c0600 	tsteq	ip, #0, 12
    1174:	0001521a 	andeq	r5, r1, sl, lsl r2
    1178:	03560800 	cmpeq	r6, #0, 16
    117c:	1c030000 	stcne	0, cr0, [r3], {-0}
    1180:	000000ea 	andeq	r0, r0, sl, ror #1
    1184:	0db40800 	ldceq	8, cr0, [r4]
    1188:	1d030000 	stcne	0, cr0, [r3, #-0]
    118c:	00000061 	andeq	r0, r0, r1, rrx
    1190:	0d830804 	stceq	8, cr0, [r3, #16]
    1194:	1e030000 	cdpne	0, 0, cr0, cr3, cr0, {0}
    1198:	00000061 	andeq	r0, r0, r1, rrx
    119c:	0d0e0808 	stceq	8, cr0, [lr, #-32]	; 0xffffffe0
    11a0:	1f030000 	svcne	0x00030000
    11a4:	00000061 	andeq	r0, r0, r1, rrx
    11a8:	0d15080c 	ldceq	8, cr0, [r5, #-48]	; 0xffffffd0
    11ac:	20030000 	andcs	r0, r3, r0
    11b0:	00000061 	andeq	r0, r0, r1, rrx
    11b4:	0d1c0810 	ldceq	8, cr0, [ip, #-64]	; 0xffffffc0
    11b8:	21030000 	mrscs	r0, (UNDEF: 3)
    11bc:	00000061 	andeq	r0, r0, r1, rrx
    11c0:	0d230814 	stceq	8, cr0, [r3, #-80]!	; 0xffffffb0
    11c4:	22030000 	andcs	r0, r3, #0
    11c8:	00000061 	andeq	r0, r0, r1, rrx
    11cc:	fe030018 	mcr2	0, 0, r0, cr3, cr8, {0}
    11d0:	0300000d 	movweq	r0, #13
    11d4:	0000f523 	andeq	pc, r0, r3, lsr #10
    11d8:	04080200 	streq	r0, [r8], #-512	; 0xfffffe00
    11dc:	0000041a 	andeq	r0, r0, sl, lsl r4
    11e0:	0001bd09 	andeq	fp, r1, r9, lsl #26
    11e4:	98150100 	ldmdals	r5, {r8}
    11e8:	2c00008c 	stccs	0, cr0, [r0], {140}	; 0x8c
    11ec:	01000000 	mrseq	r0, (UNDEF: 0)
    11f0:	0001839c 	muleq	r1, ip, r3
    11f4:	8cbc0a00 	vldmiahi	ip!, {s0-s-1}
    11f8:	02ae0000 	adceq	r0, lr, #0
    11fc:	09000000 	stmdbeq	r0, {}	; <UNPREDICTABLE>
    1200:	00000d42 	andeq	r0, r0, r2, asr #26
    1204:	8cc41c01 	stclhi	12, cr1, [r4], {1}
    1208:	001c0000 	andseq	r0, ip, r0
    120c:	9c010000 	stcls	0, cr0, [r1], {-0}
    1210:	000001a8 	andeq	r0, r0, r8, lsr #3
    1214:	000d9f0b 	andeq	r9, sp, fp, lsl #30
    1218:	611c0100 	tstvs	ip, r0, lsl #2
    121c:	70000000 	andvc	r0, r0, r0
    1220:	00000003 	andeq	r0, r0, r3
    1224:	000d5309 	andeq	r5, sp, r9, lsl #6
    1228:	e0210100 	eor	r0, r1, r0, lsl #2
    122c:	2800008c 	stmdacs	r0, {r2, r3, r7}
    1230:	01000001 	tsteq	r0, r1
    1234:	0002339c 	muleq	r2, ip, r3
    1238:	0d9f0b00 	vldreq	d0, [pc]	; 1240 <SCTLR_ENABLE_INSTRUCTION_CACHE+0x240>
    123c:	21010000 	mrscs	r0, (UNDEF: 1)
    1240:	00000061 	andeq	r0, r0, r1, rrx
    1244:	00000391 	muleq	r0, r1, r3
    1248:	000dde0c 	andeq	sp, sp, ip, lsl #28
    124c:	8c230100 	stfhis	f0, [r3], #-0
    1250:	02000000 	andeq	r0, r0, #0
    1254:	780d7491 	stmdavc	sp, {r0, r4, r7, sl, ip, sp, lr}
    1258:	8c240100 	stfhis	f0, [r4], #-0
    125c:	02000000 	andeq	r0, r0, #0
    1260:	d40c7091 	strle	r7, [ip], #-145	; 0xffffff6f
    1264:	0100000d 	tsteq	r0, sp
    1268:	00008c25 	andeq	r8, r0, r5, lsr #24
    126c:	6c910200 	lfmvs	f0, 4, [r1], {0}
    1270:	000d650c 	andeq	r6, sp, ip, lsl #10
    1274:	8c260100 	stfhis	f0, [r6], #-0
    1278:	02000000 	andeq	r0, r0, #0
    127c:	740e6891 	strvc	r6, [lr], #-2193	; 0xfffff76f
    1280:	ae00008d 	cdpge	0, 0, cr0, cr0, cr13, {4}
    1284:	0e000002 	cdpeq	0, 0, cr0, cr0, cr2, {0}
    1288:	00008d8c 	andeq	r8, r0, ip, lsl #27
    128c:	000002ae 	andeq	r0, r0, lr, lsr #5
    1290:	008da40f 	addeq	sl, sp, pc, lsl #8
    1294:	0002ae00 	andeq	sl, r2, r0, lsl #28
    1298:	52061000 	andpl	r1, r6, #0
    129c:	93530493 	cmpls	r3, #-1828716544	; 0x93000000
    12a0:	25f40b04 	ldrbcs	r0, [r4, #2820]!	; 0xb04
    12a4:	34567808 	ldrbcc	r7, [r6], #-2056	; 0xfffff7f8
    12a8:	34567812 	ldrbcc	r7, [r6], #-2066	; 0xfffff7ee
    12ac:	11000012 	tstne	r0, r2, lsl r0
    12b0:	00000de3 	andeq	r0, r0, r3, ror #27
    12b4:	00613201 	rsbeq	r3, r1, r1, lsl #4
    12b8:	8e080000 	cdphi	0, 0, cr0, cr8, cr0, {0}
    12bc:	00180000 	andseq	r0, r8, r0
    12c0:	9c010000 	stcls	0, cr0, [r1], {-0}
    12c4:	00000261 	andeq	r0, r0, r1, ror #4
    12c8:	000df80c 	andeq	pc, sp, ip, lsl #16
    12cc:	61340100 	teqvs	r4, r0, lsl #2
    12d0:	08000000 	stmdaeq	r0, {}	; <UNPREDICTABLE>
    12d4:	01535c03 	cmpeq	r3, r3, lsl #24
    12d8:	04230600 	strteq	r0, [r3], #-1536	; 0xfffffa00
    12dc:	0d6e1100 	stfeqe	f1, [lr, #-0]
    12e0:	3b010000 	blcc	412e8 <__first_lvl_tbl_end+0x1c2e8>
    12e4:	00000073 	andeq	r0, r0, r3, ror r0
    12e8:	00008e20 	andeq	r8, r0, r0, lsr #28
    12ec:	00000070 	andeq	r0, r0, r0, ror r0
    12f0:	02979c01 	addseq	r9, r7, #256	; 0x100
    12f4:	4c0c0000 	stcmi	0, cr0, [ip], {-0}
    12f8:	0100000d 	tsteq	r0, sp
    12fc:	0000913d 	andeq	r9, r0, sp, lsr r1
    1300:	78910200 	ldmvc	r1, {r9}
    1304:	000d650c 	andeq	r6, sp, ip, lsl #10
    1308:	8c3e0100 	ldfhis	f0, [lr], #-0
    130c:	02000000 	andeq	r0, r0, #0
    1310:	0c007491 	cfstrseq	mvf7, [r0], {145}	; 0x91
    1314:	00000d5a 	andeq	r0, r0, sl, asr sp
    1318:	02a80601 	adceq	r0, r8, #1048576	; 0x100000
    131c:	03050000 	movweq	r0, #20480	; 0x5000
    1320:	0001535c 	andeq	r5, r1, ip, asr r3
    1324:	01520412 	cmpeq	r2, r2, lsl r4
    1328:	7e130000 	cdpvc	0, 1, cr0, cr3, cr0, {0}
    132c:	7e000004 	cdpvc	0, 0, cr0, cr0, cr4, {0}
    1330:	04000004 	streq	r0, [r0], #-4
    1334:	01e4000c 	mvneq	r0, ip
    1338:	00040000 	andeq	r0, r4, r0
    133c:	00000804 	andeq	r0, r0, r4, lsl #16
    1340:	00640104 	rsbeq	r0, r4, r4, lsl #2
    1344:	890c0000 	stmdbhi	ip, {}	; <UNPREDICTABLE>
    1348:	1a00000e 	bne	1388 <SCTLR_ENABLE_INSTRUCTION_CACHE+0x388>
    134c:	90000001 	andls	r0, r0, r1
    1350:	e400008e 	str	r0, [r0], #-142	; 0xffffff72
    1354:	1d000000 	stcne	0, cr0, [r0, #-0]
    1358:	02000009 	andeq	r0, r0, #9
    135c:	000d0601 	andeq	r0, sp, r1, lsl #12
    1360:	02020000 	andeq	r0, r2, #0
    1364:	00016b05 	andeq	r6, r1, r5, lsl #22
    1368:	05040200 	streq	r0, [r4, #-512]	; 0xfffffe00
    136c:	00000111 	andeq	r0, r0, r1, lsl r1
    1370:	0c050802 	stceq	8, cr0, [r5], {2}
    1374:	02000001 	andeq	r0, r0, #1
    1378:	000b0801 	andeq	r0, fp, r1, lsl #16
    137c:	02020000 	andeq	r0, r2, #0
    1380:	00001907 	andeq	r1, r0, r7, lsl #18
    1384:	01750300 	cmneq	r5, r0, lsl #6
    1388:	34040000 	strcc	r0, [r4], #-0
    138c:	0000005a 	andeq	r0, r0, sl, asr r0
    1390:	52070402 	andpl	r0, r7, #33554432	; 0x2000000
    1394:	02000000 	andeq	r0, r0, #0
    1398:	004d0708 	subeq	r0, sp, r8, lsl #14
    139c:	04040000 	streq	r0, [r4], #-0
    13a0:	746e6905 	strbtvc	r6, [lr], #-2309	; 0xfffff6fb
    13a4:	07040200 	streq	r0, [r4, -r0, lsl #4]
    13a8:	00000057 	andeq	r0, r0, r7, asr r0
    13ac:	1a040802 	bne	1033bc <__first_lvl_tbl_end+0xde3bc>
    13b0:	05000004 	streq	r0, [r0, #-4]
    13b4:	00000eaa 	andeq	r0, r0, sl, lsr #29
    13b8:	004f1f01 	subeq	r1, pc, r1, lsl #30
    13bc:	8e900000 	cdphi	0, 9, cr0, cr0, cr0, {0}
    13c0:	003c0000 	eorseq	r0, ip, r0
    13c4:	9c010000 	stcls	0, cr0, [r1], {-0}
    13c8:	0000010e 	andeq	r0, r0, lr, lsl #2
    13cc:	000eb606 	andeq	fp, lr, r6, lsl #12
    13d0:	4f1f0100 	svcmi	0x001f0100
    13d4:	bc000000 	stclt	0, cr0, [r0], {-0}
    13d8:	06000003 	streq	r0, [r0], -r3
    13dc:	00000eea 	andeq	r0, r0, sl, ror #29
    13e0:	004f1f01 	subeq	r1, pc, r1, lsl #30
    13e4:	03dd0000 	bicseq	r0, sp, #0
    13e8:	46060000 	strmi	r0, [r6], -r0
    13ec:	0100000e 	tsteq	r0, lr
    13f0:	00004f1f 	andeq	r4, r0, pc, lsl pc
    13f4:	0003fe00 	andeq	pc, r3, r0, lsl #28
    13f8:	0e660700 	cdpeq	7, 6, cr0, cr6, cr0, {0}
    13fc:	21010000 	mrscs	r0, (UNDEF: 1)
    1400:	0000004f 	andeq	r0, r0, pc, asr #32
    1404:	0000041f 	andeq	r0, r0, pc, lsl r4
    1408:	000e9707 	andeq	r9, lr, r7, lsl #14
    140c:	4f220100 	svcmi	0x00220100
    1410:	4a000000 	bmi	1418 <SCTLR_ENABLE_INSTRUCTION_CACHE+0x418>
    1414:	07000004 	streq	r0, [r0, -r4]
    1418:	00000e78 	andeq	r0, r0, r8, ror lr
    141c:	004f2301 	subeq	r2, pc, r1, lsl #6
    1420:	048e0000 	streq	r0, [lr], #0
    1424:	c0080000 	andgt	r0, r8, r0
    1428:	c600008e 	strgt	r0, [r0], -lr, lsl #1
    142c:	09000001 	stmdbeq	r0, {r0}
    1430:	f30f5101 	vrhadd.u8	d5, d15, d1
    1434:	25445101 	strbcs	r5, [r4, #-257]	; 0xfffffeff
    1438:	01f32444 	mvnseq	r2, r4, asr #8
    143c:	020a2152 	andeq	r2, sl, #-2147483628	; 0x80000014
    1440:	0000210c 	andeq	r2, r0, ip, lsl #2
    1444:	000e4c0a 	andeq	r4, lr, sl, lsl #24
    1448:	cc090100 	stfgts	f0, [r9], {-0}
    144c:	a800008e 	stmdage	r0, {r1, r2, r3, r7}
    1450:	01000000 	mrseq	r0, (UNDEF: 0)
    1454:	00019f9c 	muleq	r1, ip, pc	; <UNPREDICTABLE>
    1458:	61720b00 	cmnvs	r2, r0, lsl #22
    145c:	4f0d0100 	svcmi	0x000d0100
    1460:	c5000000 	strgt	r0, [r0, #-0]
    1464:	0c000004 	stceq	0, cr0, [r0], {4}
    1468:	00008f08 	andeq	r8, r0, r8, lsl #30
    146c:	0000007d 	andeq	r0, r0, sp, ror r0
    1470:	00000150 	andeq	r0, r0, r0, asr r1
    1474:	02500109 	subseq	r0, r0, #1073741826	; 0x40000002
    1478:	01090074 	tsteq	r9, r4, ror r0
    147c:	00740251 	rsbseq	r0, r4, r1, asr r2
    1480:	01520109 	cmpeq	r2, r9, lsl #2
    1484:	240c0030 	strcs	r0, [ip], #-48	; 0xffffffd0
    1488:	7d00008f 	stcvc	0, cr0, [r0, #-572]	; 0xfffffdc4
    148c:	73000000 	movwvc	r0, #0
    1490:	09000001 	stmdbeq	r0, {r0}
    1494:	08045001 	stmdaeq	r4, {r0, ip, lr}
    1498:	092446fc 	stmdbeq	r4!, {r2, r3, r4, r5, r6, r7, r9, sl, lr}
    149c:	08045101 	stmdaeq	r4, {r0, r8, ip, lr}
    14a0:	092446fc 	stmdbeq	r4!, {r2, r3, r4, r5, r6, r7, r9, sl, lr}
    14a4:	30015201 	andcc	r5, r1, r1, lsl #4
    14a8:	8f380c00 	svchi	0x00380c00
    14ac:	007d0000 	rsbseq	r0, sp, r0
    14b0:	01860000 	orreq	r0, r6, r0
    14b4:	01090000 	mrseq	r0, (UNDEF: 9)
    14b8:	00300152 	eorseq	r0, r0, r2, asr r1
    14bc:	008f440d 	addeq	r4, pc, sp, lsl #8
    14c0:	0001d100 	andeq	sp, r1, r0, lsl #2
    14c4:	8f5c0e00 	svchi	0x005c0e00
    14c8:	01dc0000 	bicseq	r0, ip, r0
    14cc:	01090000 	mrseq	r0, (UNDEF: 9)
    14d0:	00350151 	eorseq	r0, r5, r1, asr r1
    14d4:	0ec80f00 	cdpeq	15, 12, cr0, cr8, cr0, {0}
    14d8:	08010000 	stmdaeq	r1, {}	; <UNPREDICTABLE>
    14dc:	0000004f 	andeq	r0, r0, pc, asr #32
    14e0:	53600305 	cmnpl	r0, #335544320	; 0x14000000
    14e4:	bb100001 	bllt	4014f0 <__kernel_end+0x29b4f0>
    14e8:	0100000e 	tsteq	r0, lr
    14ec:	00004f06 	andeq	r4, r0, r6, lsl #30
    14f0:	0ed51000 	cdpeq	0, 13, cr1, cr5, cr0, {0}
    14f4:	07010000 	streq	r0, [r1, -r0]
    14f8:	0000004f 	andeq	r0, r0, pc, asr #32
    14fc:	000e8311 	andeq	r8, lr, r1, lsl r3
    1500:	000e8300 	andeq	r8, lr, r0, lsl #6
    1504:	11050200 	mrsne	r0, SP_usr
    1508:	0000047e 	andeq	r0, r0, lr, ror r4
    150c:	0000047e 	andeq	r0, r0, lr, ror r4
    1510:	3c110c03 	ldccc	12, cr0, [r1], {3}
    1514:	3c00000e 	stccc	0, cr0, [r0], {14}
    1518:	0200000e 	andeq	r0, r0, #14
    151c:	07be0006 	ldreq	r0, [lr, r6]!
    1520:	00040000 	andeq	r0, r4, r0
    1524:	0000090c 	andeq	r0, r0, ip, lsl #18
    1528:	00640104 	rsbeq	r0, r4, r4, lsl #2
    152c:	b50c0000 	strlt	r0, [ip, #-0]
    1530:	1a00000f 	bne	1574 <SCTLR_ENABLE_INSTRUCTION_CACHE+0x574>
    1534:	74000001 	strvc	r0, [r0], #-1
    1538:	c000008f 	andgt	r0, r0, pc, lsl #1
    153c:	67000002 	strvs	r0, [r0, -r2]
    1540:	0200000a 	andeq	r0, r0, #10
    1544:	000d0601 	andeq	r0, sp, r1, lsl #12
    1548:	01020000 	mrseq	r0, (UNDEF: 2)
    154c:	00000b08 	andeq	r0, r0, r8, lsl #22
    1550:	05020200 	streq	r0, [r2, #-512]	; 0xfffffe00
    1554:	0000016b 	andeq	r0, r0, fp, ror #2
    1558:	19070202 	stmdbne	r7, {r1, r9}
    155c:	02000000 	andeq	r0, r0, #0
    1560:	01110504 	tsteq	r1, r4, lsl #10
    1564:	04020000 	streq	r0, [r2], #-0
    1568:	00005207 	andeq	r5, r0, r7, lsl #4
    156c:	05080200 	streq	r0, [r8, #-512]	; 0xfffffe00
    1570:	0000010c 	andeq	r0, r0, ip, lsl #2
    1574:	4d070802 	stcmi	8, cr0, [r7, #-8]
    1578:	03000000 	movweq	r0, #0
    157c:	6e690504 	cdpvs	5, 6, cr0, cr9, cr4, {0}
    1580:	04020074 	streq	r0, [r2], #-116	; 0xffffff8c
    1584:	00005707 	andeq	r5, r0, r7, lsl #14
    1588:	04080200 	streq	r0, [r8], #-512	; 0xfffffe00
    158c:	0000041a 	andeq	r0, r0, sl, lsl r4
    1590:	00017604 	andeq	r7, r1, r4, lsl #12
    1594:	41280200 			; <UNDEFINED> instruction: 0x41280200
    1598:	04000000 	streq	r0, [r0], #-0
    159c:	0000035e 	andeq	r0, r0, lr, asr r3
    15a0:	002c2e02 	eoreq	r2, ip, r2, lsl #28
    15a4:	75040000 	strvc	r0, [r4, #-0]
    15a8:	02000001 	andeq	r0, r0, #1
    15ac:	00004834 	andeq	r4, r0, r4, lsr r8
    15b0:	03040500 	movweq	r0, #17664	; 0x4500
    15b4:	0000c909 	andeq	ip, r0, r9, lsl #18
    15b8:	10060600 	andne	r0, r6, r0, lsl #12
    15bc:	0b030000 	bleq	c15c4 <__first_lvl_tbl_end+0x9c5c4>
    15c0:	0000007d 	andeq	r0, r0, sp, ror r0
    15c4:	00070101 	andeq	r0, r7, r1, lsl #2
    15c8:	000f9106 	andeq	r9, pc, r6, lsl #2
    15cc:	7d0c0300 	stcvc	3, cr0, [ip, #-0]
    15d0:	01000000 	mrseq	r0, (UNDEF: 0)
    15d4:	06000601 	streq	r0, [r0], -r1, lsl #12
    15d8:	00000e24 	andeq	r0, r0, r4, lsr #28
    15dc:	00880d03 	addeq	r0, r8, r3, lsl #26
    15e0:	1e040000 	cdpne	0, 0, cr0, cr4, cr0, {0}
    15e4:	04000000 	streq	r0, [r0], #-0
    15e8:	00000f51 	andeq	r0, r0, r1, asr pc
    15ec:	00930e03 	addseq	r0, r3, r3, lsl #28
    15f0:	2c070000 	stccs	0, cr0, [r7], {-0}
    15f4:	10000012 	andne	r0, r0, r2, lsl r0
    15f8:	01111003 	tsteq	r1, r3
    15fc:	f9080000 			; <UNDEFINED> instruction: 0xf9080000
    1600:	0300000f 	movweq	r0, #15
    1604:	00008812 	andeq	r8, r0, r2, lsl r8
    1608:	46080000 	strmi	r0, [r8], -r0
    160c:	0300000e 	movweq	r0, #14
    1610:	0000c913 	andeq	ip, r0, r3, lsl r9
    1614:	65080400 	strvs	r0, [r8, #-1024]	; 0xfffffc00
    1618:	0300000f 	movweq	r0, #15
    161c:	00011114 	andeq	r1, r1, r4, lsl r1
    1620:	39080800 	stmdbcc	r8, {fp}
    1624:	03000010 	movweq	r0, #16
    1628:	00011114 	andeq	r1, r1, r4, lsl r1
    162c:	09000c00 	stmdbeq	r0, {sl, fp}
    1630:	0000d404 	andeq	sp, r0, r4, lsl #8
    1634:	0f5e0400 	svceq	0x005e0400
    1638:	15030000 	strne	r0, [r3, #-0]
    163c:	000000d4 	ldrdeq	r0, [r0], -r4
    1640:	0064040a 	rsbeq	r0, r4, sl, lsl #8
    1644:	0d040000 	stceq	0, cr0, [r4, #-0]
    1648:	00000368 	andeq	r0, r0, r8, ror #6
    164c:	000ab30b 	andeq	fp, sl, fp, lsl #6
    1650:	9f0c0100 	svcls	0x000c0100
    1654:	0100000a 	tsteq	r0, sl
    1658:	0c000100 	stfeqs	f0, [r0], {-0}
    165c:	00000714 	andeq	r0, r0, r4, lsl r7
    1660:	00010002 	andeq	r0, r1, r2
    1664:	000c840c 	andeq	r8, ip, ip, lsl #8
    1668:	01000300 	mrseq	r0, LR_irq
    166c:	06ff0c00 	ldrbteq	r0, [pc], r0, lsl #24
    1670:	00040000 	andeq	r0, r4, r0
    1674:	470c0001 	strmi	r0, [ip, -r1]
    1678:	05000009 	streq	r0, [r0, #-9]
    167c:	0c000100 	stfeqs	f0, [r0], {-0}
    1680:	000007f4 	strdeq	r0, [r0], -r4
    1684:	00010006 	andeq	r0, r1, r6
    1688:	000bc20c 	andeq	ip, fp, ip, lsl #4
    168c:	01000700 	tsteq	r0, r0, lsl #14
    1690:	0a8a0c00 	beq	fe284698 <__kernel_end+0xfe11e698>
    1694:	00010000 	andeq	r0, r1, r0
    1698:	ac0c0005 	stcge	0, cr0, [ip], {5}
    169c:	0100000c 	tsteq	r0, ip
    16a0:	0c000600 	stceq	6, cr0, [r0], {-0}
    16a4:	00000ce4 	andeq	r0, r0, r4, ror #25
    16a8:	00020001 	andeq	r0, r2, r1
    16ac:	000cff0c 	andeq	pc, ip, ip, lsl #30
    16b0:	02000200 	andeq	r0, r0, #0, 4
    16b4:	09900c00 	ldmibeq	r0, {sl, fp}
    16b8:	80010000 	andhi	r0, r1, r0
    16bc:	4b0c0002 	blmi	3016cc <__kernel_end+0x19b6cc>
    16c0:	0100000b 	tsteq	r0, fp
    16c4:	0c000300 	stceq	3, cr0, [r0], {-0}
    16c8:	00000818 	andeq	r0, r0, r8, lsl r8
    16cc:	00038001 	andeq	r8, r3, r1
    16d0:	0007c30c 	andeq	ip, r7, ip, lsl #6
    16d4:	03000200 	movweq	r0, #512	; 0x200
    16d8:	0b380c00 	bleq	e046e0 <__kernel_end+0xc9e6e0>
    16dc:	80020000 	andhi	r0, r2, r0
    16e0:	860c0003 	strhi	r0, [ip], -r3
    16e4:	04000008 	streq	r0, [r0], #-8
    16e8:	0c000300 	stceq	3, cr0, [r0], {-0}
    16ec:	0000072b 	andeq	r0, r0, fp, lsr #14
    16f0:	00030007 	andeq	r0, r3, r7
    16f4:	000c9e0c 	andeq	r9, ip, ip, lsl #28
    16f8:	03000900 	movweq	r0, #2304	; 0x900
    16fc:	0b5f0c00 	bleq	17c4704 <__kernel_end+0x165e704>
    1700:	80090000 	andhi	r0, r9, r0
    1704:	1a0c0003 	bne	301718 <__kernel_end+0x19b718>
    1708:	0300000a 	movweq	r0, #10
    170c:	0c000300 	stceq	3, cr0, [r0], {-0}
    1710:	000007b3 			; <UNDEFINED> instruction: 0x000007b3
    1714:	00038003 	andeq	r8, r3, r3
    1718:	000b240c 	andeq	r2, fp, ip, lsl #8
    171c:	03000500 	movweq	r0, #1280	; 0x500
    1720:	0bae0c00 	bleq	feb84728 <__kernel_end+0xfea1e728>
    1724:	00080000 	andeq	r0, r8, r0
    1728:	8c0c0003 	stchi	0, cr0, [ip], {3}
    172c:	06000007 	streq	r0, [r0], -r7
    1730:	0c000300 	stceq	3, cr0, [r0], {-0}
    1734:	00000ad6 	ldrdeq	r0, [r0], -r6
    1738:	0003000a 	andeq	r0, r3, sl
    173c:	000b100c 	andeq	r1, fp, ip
    1740:	03000c00 	movweq	r0, #3072	; 0xc00
    1744:	09a40c00 	stmibeq	r4!, {sl, fp}
    1748:	000d0000 	andeq	r0, sp, r0
    174c:	720c0003 	andvc	r0, ip, #3
    1750:	0e00000c 	cdpeq	0, 0, cr0, cr0, cr12, {0}
    1754:	0c000300 	stceq	3, cr0, [r0], {-0}
    1758:	0000097d 	andeq	r0, r0, sp, ror r9
    175c:	0003000f 	andeq	r0, r3, pc
    1760:	000a530c 	andeq	r5, sl, ip, lsl #6
    1764:	03001000 	movweq	r1, #0
    1768:	0c2c0c00 	stceq	12, cr0, [ip], #-0
    176c:	00140000 	andseq	r0, r4, r0
    1770:	730c0003 	movwvc	r0, #49155	; 0xc003
    1774:	20000008 	andcs	r0, r0, r8
    1778:	0c000300 	stceq	3, cr0, [r0], {-0}
    177c:	000009e1 	andeq	r0, r0, r1, ror #19
    1780:	00040001 	andeq	r0, r4, r1
    1784:	0007a00c 	andeq	sl, r7, ip
    1788:	04800100 	streq	r0, [r0], #256	; 0x100
    178c:	06dd0c00 	ldrbeq	r0, [sp], r0, lsl #24
    1790:	00020000 	andeq	r0, r2, r0
    1794:	710c0004 	tstvc	ip, r4
    1798:	03000007 	movweq	r0, #7
    179c:	0c000400 	cfstrseq	mvf0, [r0], {-0}
    17a0:	00000ccd 	andeq	r0, r0, sp, asr #25
    17a4:	00044003 	andeq	r4, r4, r3
    17a8:	000a040c 	andeq	r0, sl, ip, lsl #8
    17ac:	04800300 	streq	r0, [r0], #768	; 0x300
    17b0:	09680c00 	stmdbeq	r8!, {sl, fp}^
    17b4:	00040000 	andeq	r0, r4, r0
    17b8:	f70c0004 			; <UNDEFINED> instruction: 0xf70c0004
    17bc:	0400000b 	streq	r0, [r0], #-11
    17c0:	0c000440 	cfstrseq	mvf0, [r0], {64}	; 0x40
    17c4:	00000a2a 	andeq	r0, r0, sl, lsr #20
    17c8:	00048004 	andeq	r8, r4, r4
    17cc:	00095a0c 	andeq	r5, r9, ip, lsl #20
    17d0:	04000500 	streq	r0, [r0], #-1280	; 0xfffffb00
    17d4:	0c1d0c00 	ldceq	12, cr0, [sp], {-0}
    17d8:	40050000 	andmi	r0, r5, r0
    17dc:	d60c0004 	strle	r0, [ip], -r4
    17e0:	05000007 	streq	r0, [r0, #-7]
    17e4:	0c000480 	cfstrseq	mvf0, [r0], {128}	; 0x80
    17e8:	0000085f 	andeq	r0, r0, pc, asr r8
    17ec:	00040006 	andeq	r0, r4, r6
    17f0:	00082c0c 	andeq	r2, r8, ip, lsl #24
    17f4:	04400600 	strbeq	r0, [r0], #-1536	; 0xfffffa00
    17f8:	0afc0c00 	beq	fff04800 <__kernel_end+0xffd9e800>
    17fc:	80060000 	andhi	r0, r6, r0
    1800:	c00c0004 	andgt	r0, ip, r4
    1804:	07000009 	streq	r0, [r0, -r9]
    1808:	0c000400 	cfstrseq	mvf0, [r0], {-0}
    180c:	0000089d 	muleq	r0, sp, r8
    1810:	00044007 	andeq	r4, r4, r7
    1814:	000b860c 	andeq	r8, fp, ip, lsl #12
    1818:	04800700 	streq	r0, [r0], #1792	; 0x700
    181c:	09d30c00 	ldmibeq	r3, {sl, fp}^
    1820:	00080000 	andeq	r0, r8, r0
    1824:	300c0004 	andcc	r0, ip, r4
    1828:	09000009 	stmdbeq	r0, {r0, r3}
    182c:	0c000400 	cfstrseq	mvf0, [r0], {-0}
    1830:	00000742 	andeq	r0, r0, r2, asr #14
    1834:	00044009 	andeq	r4, r4, r9
    1838:	00075a0c 	andeq	r5, r7, ip, lsl #20
    183c:	04800900 	streq	r0, [r0], #2304	; 0x900
    1840:	06ee0c00 	strbteq	r0, [lr], r0, lsl #24
    1844:	000a0000 	andeq	r0, sl, r0
    1848:	1e0c0004 	cdpne	0, 0, cr0, cr12, cr4, {0}
    184c:	0a000009 	beq	1878 <SCTLR_ENABLE_INSTRUCTION_CACHE+0x878>
    1850:	0c000440 	cfstrseq	mvf0, [r0], {64}	; 0x40
    1854:	00000bd1 	ldrdeq	r0, [r0], -r1
    1858:	0004800a 	andeq	r8, r4, sl
    185c:	0007e40c 	andeq	lr, r7, ip, lsl #8
    1860:	04000b00 	streq	r0, [r0], #-2816	; 0xfffff500
    1864:	08cb0c00 	stmiaeq	fp, {sl, fp}^
    1868:	400b0000 	andmi	r0, fp, r0
    186c:	760c0004 	strvc	r0, [ip], -r4
    1870:	0b00000b 	bleq	18a4 <SCTLR_ENABLE_INSTRUCTION_CACHE+0x8a4>
    1874:	0d000480 	cfstrseq	mvf0, [r0, #-512]	; 0xfffffe00
    1878:	0000084b 	andeq	r0, r0, fp, asr #16
    187c:	990d8011 	stmdbls	sp, {r0, r4, pc}
    1880:	1000000b 	andne	r0, r0, fp
    1884:	000e0080 	andeq	r0, lr, r0, lsl #1
    1888:	93780401 	cmnls	r8, #16777216	; 0x1000000
    188c:	0f000003 	svceq	0x00000003
    1890:	00000bee 	andeq	r0, r0, lr, ror #23
    1894:	00727904 	rsbseq	r7, r2, r4, lsl #18
    1898:	060f0000 	streq	r0, [pc], -r0
    189c:	04000008 	streq	r0, [r0], #-8
    18a0:	0003937a 	andeq	r9, r3, sl, ror r3
    18a4:	0acc0f00 	beq	ff3054ac <__kernel_end+0xff19f4ac>
    18a8:	7b040000 	blvc	1018b0 <__first_lvl_tbl_end+0xdc8b0>
    18ac:	000003aa 	andeq	r0, r0, sl, lsr #7
    18b0:	007d1000 	rsbseq	r1, sp, r0
    18b4:	03a30000 			; <UNDEFINED> instruction: 0x03a30000
    18b8:	a3110000 	tstge	r1, #0
    18bc:	ff000003 			; <UNDEFINED> instruction: 0xff000003
    18c0:	07040200 	streq	r0, [r4, -r0, lsl #4]
    18c4:	00000343 	andeq	r0, r0, r3, asr #6
    18c8:	00007210 	andeq	r7, r0, r0, lsl r2
    18cc:	0003ba00 	andeq	fp, r3, r0, lsl #20
    18d0:	03a31100 			; <UNDEFINED> instruction: 0x03a31100
    18d4:	003f0000 	eorseq	r0, pc, r0
    18d8:	04010812 	streq	r0, [r1], #-2066	; 0xfffff7ee
    18dc:	0003e874 	andeq	lr, r3, r4, ror r8
    18e0:	61741300 	cmnvs	r4, r0, lsl #6
    18e4:	76040067 	strvc	r0, [r4], -r7, rrx
    18e8:	00000072 	andeq	r0, r0, r2, ror r0
    18ec:	09b40800 	ldmibeq	r4!, {fp}
    18f0:	77040000 	strvc	r0, [r4, -r0]
    18f4:	00000072 	andeq	r0, r0, r2, ror r0
    18f8:	07870804 	streq	r0, [r7, r4, lsl #16]
    18fc:	7c040000 	stcvc	0, cr0, [r4], {-0}
    1900:	00000368 	andeq	r0, r0, r8, ror #6
    1904:	ef040008 	svc	0x00040008
    1908:	04000008 	streq	r0, [r0], #-8
    190c:	0003ba7d 	andeq	fp, r3, sp, ror sl
    1910:	0f050700 	svceq	0x00050700
    1914:	010c0000 	mrseq	r0, (UNDEF: 12)
    1918:	0004240e 	andeq	r2, r4, lr, lsl #8
    191c:	0fd10800 	svceq	0x00d10800
    1920:	0e010000 	cdpeq	0, 0, cr0, cr1, cr0, {0}
    1924:	00000111 	andeq	r0, r0, r1, lsl r1
    1928:	0f780800 	svceq	0x00780800
    192c:	0e010000 	cdpeq	0, 0, cr0, cr1, cr0, {0}
    1930:	00000111 	andeq	r0, r0, r1, lsl r1
    1934:	0ff40804 	svceq	0x00f40804
    1938:	0e010000 	cdpeq	0, 0, cr0, cr1, cr0, {0}
    193c:	00000088 	andeq	r0, r0, r8, lsl #1
    1940:	d6040008 	strle	r0, [r4], -r8
    1944:	0100000f 	tsteq	r0, pc
    1948:	0003f30e 	andeq	pc, r3, lr, lsl #6
    194c:	0f441400 	svceq	0x00441400
    1950:	5c010000 	stcpl	0, cr0, [r1], {-0}
    1954:	00000088 	andeq	r0, r0, r8, lsl #1
    1958:	00044a01 	andeq	r4, r4, r1, lsl #20
    195c:	706d1500 	rsbvc	r1, sp, r0, lsl #10
    1960:	4a670100 	bmi	19c1d68 <__kernel_end+0x185bd68>
    1964:	00000004 	andeq	r0, r0, r4
    1968:	03e80409 	mvneq	r0, #150994944	; 0x9000000
    196c:	1f160000 	svcne	0x00160000
    1970:	01000010 	tsteq	r0, r0, lsl r0
    1974:	008f740f 	addeq	r7, pc, pc, lsl #8
    1978:	00002400 	andeq	r2, r0, r0, lsl #8
    197c:	809c0100 	addshi	r0, ip, r0, lsl #2
    1980:	17000004 	strne	r0, [r0, -r4]
    1984:	00000846 	andeq	r0, r0, r6, asr #16
    1988:	04800f01 	streq	r0, [r0], #3841	; 0xf01
    198c:	50010000 	andpl	r0, r1, r0
    1990:	000f8c17 	andeq	r8, pc, r7, lsl ip	; <UNPREDICTABLE>
    1994:	110f0100 	mrsne	r0, (UNDEF: 31)
    1998:	01000001 	tsteq	r0, r1
    199c:	04090051 	streq	r0, [r9], #-81	; 0xffffffaf
    19a0:	00000424 	andeq	r0, r0, r4, lsr #8
    19a4:	000f9d16 	andeq	r9, pc, r6, lsl sp	; <UNPREDICTABLE>
    19a8:	980f0100 	stmdals	pc, {r8}	; <UNPREDICTABLE>
    19ac:	2400008f 	strcs	r0, [r0], #-143	; 0xffffff71
    19b0:	01000000 	mrseq	r0, (UNDEF: 0)
    19b4:	0004b69c 	muleq	r4, ip, r6
    19b8:	08461700 	stmdaeq	r6, {r8, r9, sl, ip}^
    19bc:	0f010000 	svceq	0x00010000
    19c0:	00000480 	andeq	r0, r0, r0, lsl #9
    19c4:	8c175001 	ldchi	0, cr5, [r7], {1}
    19c8:	0100000f 	tsteq	r0, pc
    19cc:	0001110f 	andeq	r1, r1, pc, lsl #2
    19d0:	00510100 	subseq	r0, r1, r0, lsl #2
    19d4:	000f3518 	andeq	r3, pc, r8, lsl r5	; <UNPREDICTABLE>
    19d8:	110f0100 	mrsne	r0, (UNDEF: 31)
    19dc:	bc000001 	stclt	0, cr0, [r0], {1}
    19e0:	0800008f 	stmdaeq	r0, {r0, r1, r2, r3, r7}
    19e4:	01000000 	mrseq	r0, (UNDEF: 0)
    19e8:	0004df9c 	muleq	r4, ip, pc	; <UNPREDICTABLE>
    19ec:	08461900 	stmdaeq	r6, {r8, fp, ip}^
    19f0:	0f010000 	svceq	0x00010000
    19f4:	00000480 	andeq	r0, r0, r0, lsl #9
    19f8:	000004e4 	andeq	r0, r0, r4, ror #9
    19fc:	0fc31800 	svceq	0x00c31800
    1a00:	0f010000 	svceq	0x00010000
    1a04:	00000111 	andeq	r0, r0, r1, lsl r1
    1a08:	00008fc4 	andeq	r8, r0, r4, asr #31
    1a0c:	0000002c 	andeq	r0, r0, ip, lsr #32
    1a10:	05179c01 	ldreq	r9, [r7, #-3073]	; 0xfffff3ff
    1a14:	46190000 	ldrmi	r0, [r9], -r0
    1a18:	01000008 	tsteq	r0, r8
    1a1c:	0004800f 	andeq	r8, r4, pc
    1a20:	00050500 	andeq	r0, r5, r0, lsl #10
    1a24:	65721a00 	ldrbvs	r1, [r2, #-2560]!	; 0xfffff600
    1a28:	0f010073 	svceq	0x00010073
    1a2c:	00000111 	andeq	r0, r0, r1, lsl r1
    1a30:	00000523 	andeq	r0, r0, r3, lsr #10
    1a34:	10101800 	andsne	r1, r0, r0, lsl #16
    1a38:	0f010000 	svceq	0x00010000
    1a3c:	00000088 	andeq	r0, r0, r8, lsl #1
    1a40:	00008ff0 	strdeq	r8, [r0], -r0
    1a44:	00000008 	andeq	r0, r0, r8
    1a48:	05409c01 	strbeq	r9, [r0, #-3073]	; 0xfffff3ff
    1a4c:	46190000 	ldrmi	r0, [r9], -r0
    1a50:	01000008 	tsteq	r0, r8
    1a54:	0004800f 	andeq	r8, r4, pc
    1a58:	00054100 	andeq	r4, r5, r0, lsl #2
    1a5c:	7d180000 	ldcvc	0, cr0, [r8, #-0]
    1a60:	0100000f 	tsteq	r0, pc
    1a64:	0001110f 	andeq	r1, r1, pc, lsl #2
    1a68:	008ff800 	addeq	pc, pc, r0, lsl #16
    1a6c:	00000800 	andeq	r0, r0, r0, lsl #16
    1a70:	699c0100 	ldmibvs	ip, {r8}
    1a74:	19000005 	stmdbne	r0, {r0, r2}
    1a78:	00000f8c 	andeq	r0, r0, ip, lsl #31
    1a7c:	01110f01 	tsteq	r1, r1, lsl #30
    1a80:	05620000 	strbeq	r0, [r2, #-0]!
    1a84:	1b000000 	blne	1a8c <SCTLR_ENABLE_INSTRUCTION_CACHE+0xa8c>
    1a88:	00000eef 	andeq	r0, r0, pc, ror #29
    1a8c:	00881401 	addeq	r1, r8, r1, lsl #8
    1a90:	90000000 	andls	r0, r0, r0
    1a94:	001c0000 	andseq	r0, ip, r0
    1a98:	9c010000 	stcls	0, cr0, [r1], {-0}
    1a9c:	0000058c 	andeq	r0, r0, ip, lsl #11
    1aa0:	0090141c 	addseq	r1, r0, ip, lsl r4
    1aa4:	00051700 	andeq	r1, r5, r0, lsl #14
    1aa8:	0e180000 	cdpeq	0, 1, cr0, cr8, cr0, {0}
    1aac:	0100000f 	tsteq	r0, pc
    1ab0:	0006013a 	andeq	r0, r6, sl, lsr r1
    1ab4:	00901c00 	addseq	r1, r0, r0, lsl #24
    1ab8:	00006c00 	andeq	r6, r0, r0, lsl #24
    1abc:	019c0100 	orrseq	r0, ip, r0, lsl #2
    1ac0:	1d000006 	stcne	0, cr0, [r0, #-24]	; 0xffffffe8
    1ac4:	0000122c 	andeq	r1, r0, ip, lsr #4
    1ac8:	06033c01 	streq	r3, [r3], -r1, lsl #24
    1acc:	05830000 	streq	r0, [r3]
    1ad0:	301e0000 	andscc	r0, lr, r0
    1ad4:	01000010 	tsteq	r0, r0, lsl r0
    1ad8:	0006013d 	andeq	r0, r6, sp, lsr r1
    1adc:	1f540100 	svcne	0x00540100
    1ae0:	00009038 	andeq	r9, r0, r8, lsr r0
    1ae4:	00000517 	andeq	r0, r0, r7, lsl r5
    1ae8:	000005d5 	ldrdeq	r0, [r0], -r5
    1aec:	02500120 	subseq	r0, r0, #32, 2
    1af0:	1f000074 	svcne	0x00000074
    1af4:	00009048 	andeq	r9, r0, r8, asr #32
    1af8:	000004df 	ldrdeq	r0, [r0], -pc	; <UNPREDICTABLE>
    1afc:	000005e9 	andeq	r0, r0, r9, ror #11
    1b00:	02500120 	subseq	r0, r0, #32, 2
    1b04:	21000074 	tstcs	r0, r4, ror r0
    1b08:	00009074 	andeq	r9, r0, r4, ror r0
    1b0c:	0000077f 	andeq	r0, r0, pc, ror r7
    1b10:	02500120 	subseq	r0, r0, #32, 2
    1b14:	01200074 			; <UNDEFINED> instruction: 0x01200074
    1b18:	000a0351 	andeq	r0, sl, r1, asr r3
    1b1c:	22000010 	andcs	r0, r0, #16
    1b20:	17040904 	strne	r0, [r4, -r4, lsl #18]
    1b24:	16000001 	strne	r0, [r0], -r1
    1b28:	00000f6e 	andeq	r0, r0, lr, ror #30
    1b2c:	90885001 	addls	r5, r8, r1
    1b30:	00440000 	subeq	r0, r4, r0
    1b34:	9c010000 	stcls	0, cr0, [r1], {-0}
    1b38:	00000646 	andeq	r0, r0, r6, asr #12
    1b3c:	72747023 	rsbsvc	r7, r4, #35	; 0x23
    1b40:	01500100 	cmpeq	r0, r0, lsl #2
    1b44:	96000006 	strls	r0, [r0], -r6
    1b48:	1d000005 	stcne	0, cr0, [r0, #-20]	; 0xffffffec
    1b4c:	0000122c 	andeq	r1, r0, ip, lsr #4
    1b50:	06035201 	streq	r5, [r3], -r1, lsl #4
    1b54:	05b70000 	ldreq	r0, [r7, #0]!
    1b58:	c01c0000 	andsgt	r0, ip, r0
    1b5c:	50000090 	mulpl	r0, r0, r0
    1b60:	00000004 	andeq	r0, r0, r4
    1b64:	00042f24 	andeq	r2, r4, r4, lsr #30
    1b68:	0090cc00 	addseq	ip, r0, r0, lsl #24
    1b6c:	00005000 	andeq	r5, r0, r0
    1b70:	969c0100 	ldrls	r0, [ip], r0, lsl #2
    1b74:	25000006 	strcs	r0, [r0, #-6]
    1b78:	0000043f 	andeq	r0, r0, pc, lsr r4
    1b7c:	0090e426 	addseq	lr, r0, r6, lsr #8
    1b80:	00003000 	andeq	r3, r0, r0
    1b84:	043f2700 	ldrteq	r2, [pc], #-1792	; 1b8c <SCTLR_ENABLE_INSTRUCTION_CACHE+0xb8c>
    1b88:	05d50000 	ldrbeq	r0, [r5]
    1b8c:	e8280000 	stmda	r8!, {}	; <UNPREDICTABLE>
    1b90:	8a000090 	bhi	1dd8 <SCTLR_ENABLE_INSTRUCTION_CACHE+0xdd8>
    1b94:	28000007 	stmdacs	r0, {r0, r1, r2}
    1b98:	000090f4 	strdeq	r9, [r0], -r4
    1b9c:	00000795 	muleq	r0, r5, r7
    1ba0:	0090f828 	addseq	pc, r0, r8, lsr #16
    1ba4:	0007a000 	andeq	sl, r7, r0
    1ba8:	91042800 	tstls	r4, r0, lsl #16
    1bac:	07ab0000 	streq	r0, [fp, r0]!
    1bb0:	00000000 	andeq	r0, r0, r0
    1bb4:	000fac29 	andeq	sl, pc, r9, lsr #24
    1bb8:	1c190100 	ldfnes	f0, [r9], {-0}
    1bbc:	18000091 	stmdane	r0, {r0, r4, r7}
    1bc0:	01000001 	tsteq	r0, r1
    1bc4:	0007309c 	muleq	r7, ip, r0
    1bc8:	0ff01d00 	svceq	0x00f01d00
    1bcc:	1b010000 	blne	41bd4 <__first_lvl_tbl_end+0x1cbd4>
    1bd0:	00000088 	andeq	r0, r0, r8, lsl #1
    1bd4:	000005e8 	andeq	r0, r0, r8, ror #11
    1bd8:	000f261d 	andeq	r2, pc, sp, lsl r6	; <UNPREDICTABLE>
    1bdc:	881b0100 	ldmdahi	fp, {r8}
    1be0:	06000000 	streq	r0, [r0], -r0
    1be4:	1d000006 	stcne	0, cr0, [r0, #-24]	; 0xffffffe8
    1be8:	00000f19 	andeq	r0, r0, r9, lsl pc
    1bec:	00881b01 	addeq	r1, r8, r1, lsl #22
    1bf0:	06280000 	strteq	r0, [r8], -r0
    1bf4:	691a0000 	ldmdbvs	sl, {}	; <UNPREDICTABLE>
    1bf8:	881b0100 	ldmdahi	fp, {r8}
    1bfc:	4a000000 	bmi	1c04 <SCTLR_ENABLE_INSTRUCTION_CACHE+0xc04>
    1c00:	28000006 	stmdacs	r0, {r1, r2}
    1c04:	00009124 	andeq	r9, r0, r4, lsr #2
    1c08:	0000042f 	andeq	r0, r0, pc, lsr #8
    1c0c:	00914028 	addseq	r4, r1, r8, lsr #32
    1c10:	0007b600 	andeq	fp, r7, r0, lsl #12
    1c14:	91601f00 	cmnls	r0, r0, lsl #30
    1c18:	07b60000 	ldreq	r0, [r6, r0]!
    1c1c:	070b0000 	streq	r0, [fp, -r0]
    1c20:	01200000 			; <UNDEFINED> instruction: 0x01200000
    1c24:	00740251 	rsbseq	r0, r4, r1, asr r2
    1c28:	917c1f00 	cmnls	ip, r0, lsl #30
    1c2c:	077f0000 	ldrbeq	r0, [pc, -r0]!
    1c30:	071f0000 	ldreq	r0, [pc, -r0]
    1c34:	01200000 			; <UNDEFINED> instruction: 0x01200000
    1c38:	00740250 	rsbseq	r0, r4, r0, asr r2
    1c3c:	92082100 	andls	r2, r8, #0, 2
    1c40:	04500000 	ldrbeq	r0, [r0], #-0
    1c44:	01200000 			; <UNDEFINED> instruction: 0x01200000
    1c48:	00750250 	rsbseq	r0, r5, r0, asr r2
    1c4c:	ec1e0000 	ldc	0, cr0, [lr], {-0}
    1c50:	0100000f 	tsteq	r0, pc
    1c54:	00008807 	andeq	r8, r0, r7, lsl #16
    1c58:	68030500 	stmdavs	r3, {r8, sl}
    1c5c:	1e000153 	mcrne	1, 0, r0, cr0, cr3, {2}
    1c60:	00000fe2 	andeq	r0, r0, r2, ror #31
    1c64:	00880c01 	addeq	r0, r8, r1, lsl #24
    1c68:	03050000 	movweq	r0, #20480	; 0x5000
    1c6c:	0001536c 	andeq	r5, r1, ip, ror #6
    1c70:	0010421e 	andseq	r4, r0, lr, lsl r2
    1c74:	03110100 	tsteq	r1, #0, 2
    1c78:	05000006 	streq	r0, [r0, #-6]
    1c7c:	01536403 	cmpeq	r3, r3, lsl #8
    1c80:	0ebb2a00 	vmoveq.f32	s4, #176	; 0xc1800000 -16.0
    1c84:	09010000 	stmdbeq	r1, {}	; <UNPREDICTABLE>
    1c88:	0000007d 	andeq	r0, r0, sp, ror r0
    1c8c:	000efa2b 	andeq	pc, lr, fp, lsr #20
    1c90:	24120100 	ldrcs	r0, [r2], #-256	; 0xffffff00
    1c94:	05000004 	streq	r0, [r0, #-4]
    1c98:	01538c03 	cmpeq	r3, r3, lsl #24
    1c9c:	034c2c00 	movteq	r2, #52224	; 0xcc00
    1ca0:	034c0000 	movteq	r0, #49152	; 0xc000
    1ca4:	0a010000 	beq	41cac <__first_lvl_tbl_end+0x1ccac>
    1ca8:	0008b12c 	andeq	fp, r8, ip, lsr #2
    1cac:	0008b100 	andeq	fp, r8, r0, lsl #2
    1cb0:	2c8e0400 	cfstrscs	mvf0, [lr], {0}
    1cb4:	000008dc 	ldrdeq	r0, [r0], -ip
    1cb8:	000008dc 	ldrdeq	r0, [r0], -ip
    1cbc:	3f2c8f04 	svccc	0x002c8f04
    1cc0:	3f00000a 	svccc	0x0000000a
    1cc4:	0400000a 	streq	r0, [r0], #-10
    1cc8:	0c0d2c90 	stceq	12, cr2, [sp], {144}	; 0x90
    1ccc:	0c0d0000 	stceq	0, cr0, [sp], {-0}
    1cd0:	91040000 	mrsls	r0, (UNDEF: 4)
    1cd4:	00047e2c 	andeq	r7, r4, ip, lsr #28
    1cd8:	00047e00 	andeq	r7, r4, r0, lsl #28
    1cdc:	000c0500 	andeq	r0, ip, r0, lsl #10
    1ce0:	0000050e 	andeq	r0, r0, lr, lsl #10
    1ce4:	0b820004 	bleq	fe081cfc <__kernel_end+0xfdf1bcfc>
    1ce8:	01040000 	mrseq	r0, (UNDEF: 4)
    1cec:	00000064 	andeq	r0, r0, r4, rrx
    1cf0:	0010e70c 	andseq	lr, r0, ip, lsl #14
    1cf4:	00011a00 	andeq	r1, r1, r0, lsl #20
    1cf8:	00923400 	addseq	r3, r2, r0, lsl #8
    1cfc:	00012800 	andeq	r2, r1, r0, lsl #16
    1d00:	000c5600 	andeq	r5, ip, r0, lsl #12
    1d04:	06010200 	streq	r0, [r1], -r0, lsl #4
    1d08:	0000000d 	andeq	r0, r0, sp
    1d0c:	6b050202 	blvs	14251c <dma_src_page_2+0xc51c>
    1d10:	03000001 	movweq	r0, #1
    1d14:	00000176 	andeq	r0, r0, r6, ror r1
    1d18:	003e2802 	eorseq	r2, lr, r2, lsl #16
    1d1c:	04020000 	streq	r0, [r2], #-0
    1d20:	00011105 	andeq	r1, r1, r5, lsl #2
    1d24:	05080200 	streq	r0, [r8, #-512]	; 0xfffffe00
    1d28:	0000010c 	andeq	r0, r0, ip, lsl #2
    1d2c:	0b080102 	bleq	20213c <__kernel_end+0x9c13c>
    1d30:	02000000 	andeq	r0, r0, #0
    1d34:	00190702 	andseq	r0, r9, r2, lsl #14
    1d38:	75030000 	strvc	r0, [r3, #-0]
    1d3c:	02000001 	andeq	r0, r0, #1
    1d40:	00006534 	andeq	r6, r0, r4, lsr r5
    1d44:	07040200 	streq	r0, [r4, -r0, lsl #4]
    1d48:	00000052 	andeq	r0, r0, r2, asr r0
    1d4c:	4d070802 	stcmi	8, cr0, [r7, #-8]
    1d50:	04000000 	streq	r0, [r0], #-0
    1d54:	6e690504 	cdpvs	5, 6, cr0, cr9, cr4, {0}
    1d58:	04020074 	streq	r0, [r2], #-116	; 0xffffff8c
    1d5c:	00005707 	andeq	r5, r0, r7, lsl #14
    1d60:	7a040500 	bvc	103168 <__first_lvl_tbl_end+0xde168>
    1d64:	04000000 	streq	r0, [r0], #-0
    1d68:	00015405 	andeq	r5, r1, r5, lsl #8
    1d6c:	11300600 	teqne	r0, r0, lsl #12
    1d70:	00000000 	andeq	r0, r0, r0
    1d74:	a4063f20 	strge	r3, [r6], #-3872	; 0xfffff0e0
    1d78:	94000010 	strls	r0, [r0], #-16
    1d7c:	063f2000 	ldrteq	r2, [pc], -r0
    1d80:	00001090 	muleq	r0, r0, r0
    1d84:	3f200098 	svccc	0x00200098
    1d88:	00107a06 	andseq	r7, r0, r6, lsl #20
    1d8c:	20100000 	andscs	r0, r0, r0
    1d90:	1071063f 	rsbsne	r0, r1, pc, lsr r6
    1d94:	10000000 	andne	r0, r0, r0
    1d98:	f6063f20 			; <UNDEFINED> instruction: 0xf6063f20
    1d9c:	04000010 	streq	r0, [r0], #-16
    1da0:	063f2010 			; <UNDEFINED> instruction: 0x063f2010
    1da4:	000010bf 	strheq	r1, [r0], -pc	; <UNPREDICTABLE>
    1da8:	3f201018 	svccc	0x00201018
    1dac:	00116306 	andseq	r6, r1, r6, lsl #6
    1db0:	20102000 	andscs	r2, r0, r0
    1db4:	10b4063f 	adcsne	r0, r4, pc, lsr r6
    1db8:	10240000 	eorne	r0, r4, r0
    1dbc:	58063f20 	stmdapl	r6, {r5, r8, r9, sl, fp, ip, sp}
    1dc0:	28000011 	stmdacs	r0, {r0, r4}
    1dc4:	063f2010 			; <UNDEFINED> instruction: 0x063f2010
    1dc8:	000010c8 	andeq	r1, r0, r8, asr #1
    1dcc:	3f20102c 	svccc	0x0020102c
    1dd0:	00113a06 	andseq	r3, r1, r6, lsl #20
    1dd4:	20103000 	andscs	r3, r0, r0
    1dd8:	111a063f 	tstne	sl, pc, lsr r6
    1ddc:	10340000 	eorsne	r0, r4, r0
    1de0:	0f063f20 	svceq	0x00063f20
    1de4:	38000011 	stmdacc	r0, {r0, r4}
    1de8:	063f2010 			; <UNDEFINED> instruction: 0x063f2010
    1dec:	000010d3 	ldrdeq	r1, [r0], -r3
    1df0:	3f20103c 	svccc	0x0020103c
    1df4:	00106706 	andseq	r6, r0, r6, lsl #14
    1df8:	20104000 	andscs	r4, r0, r0
    1dfc:	10dd063f 	sbcsne	r0, sp, pc, lsr r6
    1e00:	10440000 	subne	r0, r4, r0
    1e04:	03063f20 	movweq	r3, #28448	; 0x6f20
    1e08:	48000011 	stmdami	r0, {r0, r4}
    1e0c:	063f2010 			; <UNDEFINED> instruction: 0x063f2010
    1e10:	00001143 	andeq	r1, r0, r3, asr #2
    1e14:	3f201080 	svccc	0x00201080
    1e18:	00117806 	andseq	r7, r1, r6, lsl #16
    1e1c:	20108400 	andscs	r8, r0, r0, lsl #8
    1e20:	1085063f 	addne	r0, r5, pc, lsr r6
    1e24:	10880000 	addne	r0, r8, r0
    1e28:	4e063f20 	cdpmi	15, 0, cr3, cr6, cr0, {1}
    1e2c:	8c000011 	stchi	0, cr0, [r0], {17}
    1e30:	003f2010 	eorseq	r2, pc, r0, lsl r0	; <UNPREDICTABLE>
    1e34:	00033c03 	andeq	r3, r3, r3, lsl #24
    1e38:	7ad80300 	bvc	ff602a40 <__kernel_end+0xff49ca40>
    1e3c:	02000000 	andeq	r0, r0, #0
    1e40:	041a0408 	ldreq	r0, [sl], #-1032	; 0xfffffbf8
    1e44:	52070000 	andpl	r0, r7, #0
    1e48:	01000010 	tsteq	r0, r0, lsl r0
    1e4c:	0189030b 	orreq	r0, r9, fp, lsl #6
    1e50:	72080000 	andvc	r0, r8, #0
    1e54:	01006765 	tsteq	r0, r5, ror #14
    1e58:	00005a0b 	andeq	r5, r0, fp, lsl #20
    1e5c:	07870900 	streq	r0, [r7, r0, lsl #18]
    1e60:	0b010000 	bleq	41e68 <__first_lvl_tbl_end+0x1ce68>
    1e64:	0000005a 	andeq	r0, r0, sl, asr r0
    1e68:	1e840700 	cdpne	7, 8, cr0, cr4, cr0, {0}
    1e6c:	17010000 	strne	r0, [r1, -r0]
    1e70:	0001a103 	andeq	sl, r1, r3, lsl #2
    1e74:	0df80900 	ldcleq	9, cr0, [r8]
    1e78:	17010000 	strne	r0, [r1, -r0]
    1e7c:	00000033 	andeq	r0, r0, r3, lsr r0
    1e80:	105d0a00 	subsne	r0, sp, r0, lsl #20
    1e84:	11010000 	mrsne	r0, (UNDEF: 1)
    1e88:	0000005a 	andeq	r0, r0, sl, asr r0
    1e8c:	0001bd03 	andeq	fp, r1, r3, lsl #26
    1e90:	65720800 	ldrbvs	r0, [r2, #-2048]!	; 0xfffff800
    1e94:	11010067 	tstne	r1, r7, rrx
    1e98:	0000005a 	andeq	r0, r0, sl, asr r0
    1e9c:	109a0b00 	addsne	r0, sl, r0, lsl #22
    1ea0:	23010000 	movwcs	r0, #4096	; 0x1000
    1ea4:	00009234 	andeq	r9, r0, r4, lsr r2
    1ea8:	00000074 	andeq	r0, r0, r4, ror r0
    1eac:	03859c01 	orreq	r9, r5, #256	; 0x100
    1eb0:	660c0000 	strvs	r0, [ip], -r0
    1eb4:	34000001 	strcc	r0, [r0], #-1
    1eb8:	00000092 	muleq	r0, r2, r0
    1ebc:	01000000 	mrseq	r0, (UNDEF: 0)
    1ec0:	0001f826 	andeq	pc, r1, r6, lsr #16
    1ec4:	017d0d00 	cmneq	sp, r0, lsl #26
    1ec8:	068c0000 	streq	r0, [ip], r0
    1ecc:	720d0000 	andvc	r0, sp, #0
    1ed0:	a0000001 	andge	r0, r0, r1
    1ed4:	00000006 	andeq	r0, r0, r6
    1ed8:	0001660c 	andeq	r6, r1, ip, lsl #12
    1edc:	00923c00 	addseq	r3, r2, r0, lsl #24
    1ee0:	00002000 	andeq	r2, r0, r0
    1ee4:	1e2a0100 	sufnee	f0, f2, f0
    1ee8:	0d000002 	stceq	0, cr0, [r0, #-8]
    1eec:	0000017d 	andeq	r0, r0, sp, ror r1
    1ef0:	000006b8 			; <UNDEFINED> instruction: 0x000006b8
    1ef4:	0001720d 	andeq	r7, r1, sp, lsl #4
    1ef8:	0006cc00 	andeq	ip, r6, r0, lsl #24
    1efc:	890c0000 	stmdbhi	ip, {}	; <UNPREDICTABLE>
    1f00:	44000001 	strmi	r0, [r0], #-1
    1f04:	38000092 	stmdacc	r0, {r1, r4, r7}
    1f08:	01000000 	mrseq	r0, (UNDEF: 0)
    1f0c:	00023b2b 	andeq	r3, r2, fp, lsr #22
    1f10:	01950d00 	orrseq	r0, r5, r0, lsl #26
    1f14:	06e40000 	strbteq	r0, [r4], r0
    1f18:	0e000000 	cdpeq	0, 0, cr0, cr0, cr0, {0}
    1f1c:	00000166 	andeq	r0, r0, r6, ror #2
    1f20:	00009260 	andeq	r9, r0, r0, ror #4
    1f24:	00000008 	andeq	r0, r0, r8
    1f28:	02612e01 	rsbeq	r2, r1, #1, 28
    1f2c:	7d0d0000 	stcvc	0, cr0, [sp, #-0]
    1f30:	f9000001 			; <UNDEFINED> instruction: 0xf9000001
    1f34:	0d000006 	stceq	0, cr0, [r0, #-24]	; 0xffffffe8
    1f38:	00000172 	andeq	r0, r0, r2, ror r1
    1f3c:	0000070f 	andeq	r0, r0, pc, lsl #14
    1f40:	01890e00 	orreq	r0, r9, r0, lsl #28
    1f44:	92680000 	rsbls	r0, r8, #0
    1f48:	00080000 	andeq	r0, r8, r0
    1f4c:	2f010000 	svccs	0x00010000
    1f50:	0000027e 	andeq	r0, r0, lr, ror r2
    1f54:	0001950d 	andeq	r9, r1, sp, lsl #10
    1f58:	00072700 	andeq	r2, r7, r0, lsl #14
    1f5c:	660c0000 	strvs	r0, [ip], -r0
    1f60:	70000001 	andvc	r0, r0, r1
    1f64:	58000092 	stmdapl	r0, {r1, r4, r7}
    1f68:	01000000 	mrseq	r0, (UNDEF: 0)
    1f6c:	0002a43d 	andeq	sl, r2, sp, lsr r4
    1f70:	017d0d00 	cmneq	sp, r0, lsl #26
    1f74:	073c0000 	ldreq	r0, [ip, -r0]!
    1f78:	720d0000 	andvc	r0, sp, #0
    1f7c:	50000001 	andpl	r0, r0, r1
    1f80:	00000007 	andeq	r0, r0, r7
    1f84:	0001660e 	andeq	r6, r1, lr, lsl #12
    1f88:	00927400 	addseq	r7, r2, r0, lsl #8
    1f8c:	00000400 	andeq	r0, r0, r0, lsl #8
    1f90:	ca320100 	bgt	c82398 <__kernel_end+0xb1c398>
    1f94:	0d000002 	stceq	0, cr0, [r0, #-8]
    1f98:	0000017d 	andeq	r0, r0, sp, ror r1
    1f9c:	00000768 	andeq	r0, r0, r8, ror #14
    1fa0:	0001720d 	andeq	r7, r1, sp, lsl #4
    1fa4:	00077c00 	andeq	r7, r7, r0, lsl #24
    1fa8:	660c0000 	strvs	r0, [ip], -r0
    1fac:	78000001 	stmdavc	r0, {r0}
    1fb0:	70000092 	mulvc	r0, r2, r0
    1fb4:	01000000 	mrseq	r0, (UNDEF: 0)
    1fb8:	0002f035 	andeq	pc, r2, r5, lsr r0	; <UNPREDICTABLE>
    1fbc:	017d0d00 	cmneq	sp, r0, lsl #26
    1fc0:	07940000 	ldreq	r0, [r4, r0]
    1fc4:	720d0000 	andvc	r0, sp, #0
    1fc8:	aa000001 	bge	1fd4 <SCTLR_ENABLE_INSTRUCTION_CACHE+0xfd4>
    1fcc:	00000007 	andeq	r0, r0, r7
    1fd0:	0001660c 	andeq	r6, r1, ip, lsl #12
    1fd4:	00927c00 	addseq	r7, r2, r0, lsl #24
    1fd8:	00008800 	andeq	r8, r0, r0, lsl #16
    1fdc:	163f0100 	ldrtne	r0, [pc], -r0, lsl #2
    1fe0:	0d000003 	stceq	0, cr0, [r0, #-12]
    1fe4:	0000017d 	andeq	r0, r0, sp, ror r1
    1fe8:	000007c2 	andeq	r0, r0, r2, asr #15
    1fec:	0001720d 	andeq	r7, r1, sp, lsl #4
    1ff0:	0007d700 	andeq	sp, r7, r0, lsl #14
    1ff4:	660c0000 	strvs	r0, [ip], -r0
    1ff8:	88000001 	stmdahi	r0, {r0}
    1ffc:	a0000092 	mulge	r0, r2, r0
    2000:	01000000 	mrseq	r0, (UNDEF: 0)
    2004:	00033c42 	andeq	r3, r3, r2, asr #24
    2008:	017d0d00 	cmneq	sp, r0, lsl #26
    200c:	07ef0000 	strbeq	r0, [pc, r0]!
    2010:	720d0000 	andvc	r0, sp, #0
    2014:	04000001 	streq	r0, [r0], #-1
    2018:	00000008 	andeq	r0, r0, r8
    201c:	0001660c 	andeq	r6, r1, ip, lsl #12
    2020:	00929000 	addseq	r9, r2, r0
    2024:	0000b800 	andeq	fp, r0, r0, lsl #16
    2028:	62450100 	subvs	r0, r5, #0, 2
    202c:	0d000003 	stceq	0, cr0, [r0, #-12]
    2030:	0000017d 	andeq	r0, r0, sp, ror r1
    2034:	0000081c 	andeq	r0, r0, ip, lsl r8
    2038:	0001720d 	andeq	r7, r1, sp, lsl #4
    203c:	00083200 	andeq	r3, r8, r0, lsl #4
    2040:	660f0000 	strvs	r0, [pc], -r0
    2044:	98000001 	stmdals	r0, {r0}
    2048:	d0000092 	mulle	r0, r2, r0
    204c:	01000000 	mrseq	r0, (UNDEF: 0)
    2050:	017d0d49 	cmneq	sp, r9, asr #26
    2054:	084a0000 	stmdaeq	sl, {}^	; <UNPREDICTABLE>
    2058:	720d0000 	andvc	r0, sp, #0
    205c:	60000001 	andvs	r0, r0, r1
    2060:	00000008 	andeq	r0, r0, r8
    2064:	116e1000 	cmnne	lr, r0
    2068:	4c010000 	stcmi	0, cr0, [r1], {-0}
    206c:	000092a8 	andeq	r9, r0, r8, lsr #5
    2070:	00000024 	andeq	r0, r0, r4, lsr #32
    2074:	03e59c01 	mvneq	r9, #256	; 0x100
    2078:	63110000 	tstvs	r1, #0
    207c:	4c4c0100 	stfmie	f0, [ip], {-0}
    2080:	01000000 	mrseq	r0, (UNDEF: 0)
    2084:	01a10e50 			; <UNDEFINED> instruction: 0x01a10e50
    2088:	92a80000 	adcls	r0, r8, #0
    208c:	00140000 	andseq	r0, r4, r0
    2090:	4f010000 	svcmi	0x00010000
    2094:	000003c2 	andeq	r0, r0, r2, asr #7
    2098:	0001b10d 	andeq	fp, r1, sp, lsl #2
    209c:	00087800 	andeq	r7, r8, r0, lsl #16
    20a0:	66120000 	ldrvs	r0, [r2], -r0
    20a4:	c4000001 	strgt	r0, [r0], #-1
    20a8:	08000092 	stmdaeq	r0, {r1, r4, r7}
    20ac:	01000000 	mrseq	r0, (UNDEF: 0)
    20b0:	017d0d52 	cmneq	sp, r2, asr sp
    20b4:	08900000 	ldmeq	r0, {}	; <UNPREDICTABLE>
    20b8:	720d0000 	andvc	r0, sp, #0
    20bc:	a3000001 	movwge	r0, #1
    20c0:	00000008 	andeq	r0, r0, r8
    20c4:	10aa1300 	adcne	r1, sl, r0, lsl #6
    20c8:	55010000 	strpl	r0, [r1, #-0]
    20cc:	0000004c 	andeq	r0, r0, ip, asr #32
    20d0:	000092cc 	andeq	r9, r0, ip, asr #5
    20d4:	00000028 	andeq	r0, r0, r8, lsr #32
    20d8:	04359c01 	ldrteq	r9, [r5], #-3073	; 0xfffff3ff
    20dc:	a10e0000 	mrsge	r0, (UNDEF: 14)
    20e0:	cc000001 	stcgt	0, cr0, [r0], {1}
    20e4:	14000092 	strne	r0, [r0], #-146	; 0xffffff6e
    20e8:	01000000 	mrseq	r0, (UNDEF: 0)
    20ec:	00041b58 	andeq	r1, r4, r8, asr fp
    20f0:	01b10d00 			; <UNDEFINED> instruction: 0x01b10d00
    20f4:	08bb0000 	ldmeq	fp!, {}	; <UNPREDICTABLE>
    20f8:	12000000 	andne	r0, r0, #0
    20fc:	000001a1 	andeq	r0, r0, r1, lsr #3
    2100:	000092e8 	andeq	r9, r0, r8, ror #5
    2104:	00000004 	andeq	r0, r0, r4
    2108:	b10d5b01 	tstlt	sp, r1, lsl #22
    210c:	d3000001 	movwle	r0, #1
    2110:	00000008 	andeq	r0, r0, r8
    2114:	050d1000 	streq	r1, [sp, #-0]
    2118:	5e010000 	cdppl	0, 0, cr0, cr1, cr0, {0}
    211c:	000092f4 	strdeq	r9, [r0], -r4
    2120:	00000028 	andeq	r0, r0, r8, lsr #32
    2124:	047a9c01 	ldrbteq	r9, [sl], #-3073	; 0xfffff3ff
    2128:	73140000 	tstvc	r4, #0
    212c:	01007274 	tsteq	r0, r4, ror r2
    2130:	00047a5e 	andeq	r7, r4, lr, asr sl
    2134:	0008eb00 	andeq	lr, r8, r0, lsl #22
    2138:	92fc1500 	rscsls	r1, ip, #0, 10
    213c:	00200000 	eoreq	r0, r0, r0
    2140:	69160000 	ldmdbvs	r6, {}	; <UNPREDICTABLE>
    2144:	54600100 	strbtpl	r0, [r0], #-256	; 0xffffff00
    2148:	17000001 	strne	r0, [r0, -r1]
    214c:	17000009 	strne	r0, [r0, -r9]
    2150:	0000930c 	andeq	r9, r0, ip, lsl #6
    2154:	00000385 	andeq	r0, r0, r5, lsl #7
    2158:	04180000 	ldreq	r0, [r8], #-0
    215c:	00000487 	andeq	r0, r0, r7, lsl #9
    2160:	14080102 	strne	r0, [r8], #-258	; 0xfffffefe
    2164:	19000000 	stmdbne	r0, {}	; <UNPREDICTABLE>
    2168:	00000480 	andeq	r0, r0, r0, lsl #9
    216c:	0011251a 	andseq	r2, r1, sl, lsl r5
    2170:	1c640100 	stfnee	f0, [r4], #-0
    2174:	40000093 	mulmi	r0, r3, r0
    2178:	01000000 	mrseq	r0, (UNDEF: 0)
    217c:	0064149c 	mlseq	r4, ip, r4, r1
    2180:	005a6401 	subseq	r6, sl, r1, lsl #8
    2184:	09600000 	stmdbeq	r0!, {}^	; <UNPREDICTABLE>
    2188:	72160000 	andsvc	r0, r6, #0
    218c:	67010062 	strvs	r0, [r1, -r2, rrx]
    2190:	0000005a 	andeq	r0, r0, sl, asr r0
    2194:	0000098c 	andeq	r0, r0, ip, lsl #19
    2198:	00637216 	rsbeq	r7, r3, r6, lsl r2
    219c:	005a6801 	subseq	r6, sl, r1, lsl #16
    21a0:	09ac0000 	stmibeq	ip!, {}	; <UNPREDICTABLE>
    21a4:	481b0000 	ldmdami	fp, {}	; <UNPREDICTABLE>
    21a8:	85000093 	strhi	r0, [r0, #-147]	; 0xffffff6d
    21ac:	00000003 	andeq	r0, r0, r3
    21b0:	1c000005 	stcne	0, cr0, [r0], {5}
    21b4:	75285001 	strvc	r5, [r8, #-1]!
    21b8:	25007400 	strcs	r7, [r0, #-1024]	; 0xfffffc00
    21bc:	37231a3f 			; <UNDEFINED> instruction: 0x37231a3f
    21c0:	00740075 	rsbseq	r0, r4, r5, ror r0
    21c4:	231a3f25 	tstcs	sl, #37, 30	; 0x94
    21c8:	74007530 	strvc	r7, [r0], #-1328	; 0xfffffad0
    21cc:	1a3f2500 	bne	fcb5d4 <__kernel_end+0xe655d4>
    21d0:	22244b40 	eorcs	r4, r4, #64, 22	; 0x10000
    21d4:	0000090c 	andeq	r0, r0, ip, lsl #18
    21d8:	01282b80 	smlawbeq	r8, r0, fp, r2
    21dc:	00131600 	andseq	r1, r3, r0, lsl #12
    21e0:	00935c1d 	addseq	r5, r3, sp, lsl ip
    21e4:	00038500 	andeq	r8, r3, r0, lsl #10
    21e8:	50011c00 	andpl	r1, r1, r0, lsl #24
    21ec:	00200802 	eoreq	r0, r0, r2, lsl #16
    21f0:	05880000 	streq	r0, [r8]
    21f4:	00040000 	andeq	r0, r4, r0
    21f8:	00000d34 	andeq	r0, r0, r4, lsr sp
    21fc:	00640104 	rsbeq	r0, r4, r4, lsl #2
    2200:	d40c0000 	strle	r0, [ip], #-0
    2204:	1a000011 	bne	2250 <SCTLR_ENABLE_INSTRUCTION_CACHE+0x1250>
    2208:	5c000001 	stcpl	0, cr0, [r0], {1}
    220c:	24000093 	strcs	r0, [r0], #-147	; 0xffffff6d
    2210:	83000003 	movwhi	r0, #3
    2214:	0200000d 	andeq	r0, r0, #13
    2218:	000d0601 	andeq	r0, sp, r1, lsl #12
    221c:	02020000 	andeq	r0, r2, #0
    2220:	00016b05 	andeq	r6, r1, r5, lsl #22
    2224:	05040200 	streq	r0, [r4, #-512]	; 0xfffffe00
    2228:	00000111 	andeq	r0, r0, r1, lsl r1
    222c:	0c050802 	stceq	8, cr0, [r5], {2}
    2230:	02000001 	andeq	r0, r0, #1
    2234:	000b0801 	andeq	r0, fp, r1, lsl #16
    2238:	02020000 	andeq	r0, r2, #0
    223c:	00001907 	andeq	r1, r0, r7, lsl #18
    2240:	01750300 	cmneq	r5, r0, lsl #6
    2244:	34060000 	strcc	r0, [r6], #-0
    2248:	0000005a 	andeq	r0, r0, sl, asr r0
    224c:	52070402 	andpl	r0, r7, #33554432	; 0x2000000
    2250:	02000000 	andeq	r0, r0, #0
    2254:	004d0708 	subeq	r0, sp, r8, lsl #14
    2258:	04040000 	streq	r0, [r4], #-0
    225c:	746e6905 	strbtvc	r6, [lr], #-2309	; 0xfffff6fb
    2260:	07040200 	streq	r0, [r4, -r0, lsl #4]
    2264:	00000057 	andeq	r0, r0, r7, asr r0
    2268:	00004f05 	andeq	r4, r0, r5, lsl #30
    226c:	126d0600 	rsbne	r0, sp, #0, 12
    2270:	02200000 	eoreq	r0, r0, #0
    2274:	0000dc0b 	andeq	sp, r0, fp, lsl #24
    2278:	12b30700 	adcsne	r0, r3, #0, 14
    227c:	0d020000 	stceq	0, cr0, [r2, #-0]
    2280:	0000004f 	andeq	r0, r0, pc, asr #32
    2284:	72730800 	rsbsvc	r0, r3, #0, 16
    2288:	0e020063 	cdpeq	0, 0, cr0, cr2, cr3, {3}
    228c:	0000004f 	andeq	r0, r0, pc, asr #32
    2290:	73640804 	cmnvc	r4, #4, 16	; 0x40000
    2294:	0f020074 	svceq	0x00020074
    2298:	0000004f 	andeq	r0, r0, pc, asr #32
    229c:	12960708 	addsne	r0, r6, #8, 14	; 0x200000
    22a0:	10020000 	andne	r0, r2, r0
    22a4:	0000004f 	andeq	r0, r0, pc, asr #32
    22a8:	125c070c 	subsne	r0, ip, #12, 14	; 0x300000
    22ac:	11020000 	mrsne	r0, (UNDEF: 2)
    22b0:	0000004f 	andeq	r0, r0, pc, asr #32
    22b4:	11880710 	orrne	r0, r8, r0, lsl r7
    22b8:	12020000 	andne	r0, r2, #0
    22bc:	0000004f 	andeq	r0, r0, pc, asr #32
    22c0:	61700814 	cmnvs	r0, r4, lsl r8
    22c4:	13020064 	movwne	r0, #8292	; 0x2064
    22c8:	000000dc 	ldrdeq	r0, [r0], -ip
    22cc:	4f090018 	svcmi	0x00090018
    22d0:	ec000000 	stc	0, cr0, [r0], {-0}
    22d4:	0a000000 	beq	22dc <SCTLR_ENABLE_INSTRUCTION_CACHE+0x12dc>
    22d8:	000000ec 	andeq	r0, r0, ip, ror #1
    22dc:	04020001 	streq	r0, [r2], #-1
    22e0:	00034307 	andeq	r4, r3, r7, lsl #6
    22e4:	7b040b00 	blvc	104eec <__first_lvl_tbl_end+0xdfeec>
    22e8:	06000000 	streq	r0, [r0], -r0
    22ec:	0000129d 	muleq	r0, sp, r2
    22f0:	701e0224 	andsvc	r0, lr, r4, lsr #4
    22f4:	08000001 	stmdaeq	r0, {r0}
    22f8:	02005343 	andeq	r5, r0, #201326593	; 0xc000001
    22fc:	00004f20 	andeq	r4, r0, r0, lsr #30
    2300:	7c070000 	stcvc	0, cr0, [r7], {-0}
    2304:	02000012 	andeq	r0, r0, #18
    2308:	00004f32 	andeq	r4, r0, r2, lsr pc
    230c:	54080400 	strpl	r0, [r8], #-1024	; 0xfffffc00
    2310:	33020049 	movwcc	r0, #8265	; 0x2049
    2314:	0000004f 	andeq	r0, r0, pc, asr #32
    2318:	11ca0708 	bicne	r0, sl, r8, lsl #14
    231c:	34020000 	strcc	r0, [r2], #-0
    2320:	0000004f 	andeq	r0, r0, pc, asr #32
    2324:	121d070c 	andsne	r0, sp, #12, 14	; 0x300000
    2328:	35020000 	strcc	r0, [r2, #-0]
    232c:	0000004f 	andeq	r0, r0, pc, asr #32
    2330:	12400710 	subne	r0, r0, #16, 14	; 0x400000
    2334:	36020000 	strcc	r0, [r2], -r0
    2338:	0000004f 	andeq	r0, r0, pc, asr #32
    233c:	12160714 	andsne	r0, r6, #20, 14	; 0x500000
    2340:	37020000 	strcc	r0, [r2, -r0]
    2344:	0000004f 	andeq	r0, r0, pc, asr #32
    2348:	12490718 	subne	r0, r9, #24, 14	; 0x600000
    234c:	38020000 	stmdacc	r2, {}	; <UNPREDICTABLE>
    2350:	0000004f 	andeq	r0, r0, pc, asr #32
    2354:	118d071c 	orrne	r0, sp, ip, lsl r7
    2358:	39020000 	stmdbcc	r2, {}	; <UNPREDICTABLE>
    235c:	0000004f 	andeq	r0, r0, pc, asr #32
    2360:	08020020 	stmdaeq	r2, {r5}
    2364:	00041a04 	andeq	r1, r4, r4, lsl #20
    2368:	12040c00 	andne	r0, r4, #0, 24
    236c:	31010000 	mrscc	r0, (UNDEF: 1)
    2370:	0000935c 	andeq	r9, r0, ip, asr r3
    2374:	00000040 	andeq	r0, r0, r0, asr #32
    2378:	01b49c01 			; <UNDEFINED> instruction: 0x01b49c01
    237c:	860d0000 	strhi	r0, [sp], -r0
    2380:	01000012 	tsteq	r0, r2, lsl r0
    2384:	0001b433 	andeq	fp, r1, r3, lsr r4
    2388:	00700000 	rsbseq	r0, r0, r0
    238c:	12630e3f 	rsbne	r0, r3, #1008	; 0x3f0
    2390:	34010000 	strcc	r0, [r1], #-0
    2394:	000001ba 			; <UNDEFINED> instruction: 0x000001ba
    2398:	000009fd 	strdeq	r0, [r0], -sp
    239c:	0093900f 	addseq	r9, r3, pc
    23a0:	00055f00 	andeq	r5, r5, r0, lsl #30
    23a4:	040b0000 	streq	r0, [fp], #-0
    23a8:	0000004f 	andeq	r0, r0, pc, asr #32
    23ac:	01c0040b 	biceq	r0, r0, fp, lsl #8
    23b0:	f9050000 			; <UNDEFINED> instruction: 0xf9050000
    23b4:	0c000000 	stceq	0, cr0, [r0], {-0}
    23b8:	000012b8 			; <UNDEFINED> instruction: 0x000012b8
    23bc:	939c2c01 	orrsls	r2, ip, #256	; 0x100
    23c0:	00100000 	andseq	r0, r0, r0
    23c4:	9c010000 	stcls	0, cr0, [r1], {-0}
    23c8:	000001e4 	andeq	r0, r0, r4, ror #3
    23cc:	0093a80f 	addseq	sl, r3, pc, lsl #16
    23d0:	00055f00 	andeq	r5, r5, r0, lsl #30
    23d4:	e1100000 	tst	r0, r0
    23d8:	01000011 	tsteq	r0, r1, lsl r0
    23dc:	0093ac0f 	addseq	sl, r3, pc, lsl #24
    23e0:	00004c00 	andeq	r4, r0, r0, lsl #24
    23e4:	4e9c0100 	fmlmie	f0, f4, f0
    23e8:	11000002 	tstne	r0, r2
    23ec:	000011ec 	andeq	r1, r0, ip, ror #3
    23f0:	024e0f01 	subeq	r0, lr, #1, 30
    23f4:	0a100000 	beq	4023fc <__kernel_end+0x29c3fc>
    23f8:	96110000 	ldrls	r0, [r1], -r0
    23fc:	01000012 	tsteq	r0, r2, lsl r0
    2400:	0000680f 	andeq	r6, r0, pc, lsl #16
    2404:	000a4600 	andeq	r4, sl, r0, lsl #12
    2408:	93c41200 	bicls	r1, r4, #0, 4
    240c:	001c0000 	andseq	r0, ip, r0
    2410:	023b0000 	eorseq	r0, fp, #0
    2414:	69130000 	ldmdbvs	r3, {}	; <UNPREDICTABLE>
    2418:	68120100 	ldmdavs	r2, {r8}
    241c:	72000000 	andvc	r0, r0, #0
    2420:	1400000a 	strne	r0, [r0], #-10
    2424:	000093d8 	ldrdeq	r9, [r0], -r8
    2428:	0000056a 	andeq	r0, r0, sl, ror #10
    242c:	93c41400 	bicls	r1, r4, #0, 8
    2430:	05750000 	ldrbeq	r0, [r5, #-0]!
    2434:	f00f0000 			; <UNDEFINED> instruction: 0xf00f0000
    2438:	75000093 	strvc	r0, [r0, #-147]	; 0xffffff6d
    243c:	00000005 	andeq	r0, r0, r5
    2440:	0254040b 	subseq	r0, r4, #184549376	; 0xb000000
    2444:	01020000 	mrseq	r0, (UNDEF: 2)
    2448:	00001408 	andeq	r1, r0, r8, lsl #8
    244c:	12ca1000 	sbcne	r1, sl, #0
    2450:	19010000 	stmdbne	r1, {}	; <UNPREDICTABLE>
    2454:	000093f8 	strdeq	r9, [r0], -r8
    2458:	00000024 	andeq	r0, r0, r4, lsr #32
    245c:	029e9c01 	addseq	r9, lr, #256	; 0x100
    2460:	ec110000 	ldc	0, cr0, [r1], {-0}
    2464:	01000011 	tsteq	r0, r1, lsl r0
    2468:	00024e19 	andeq	r4, r2, r9, lsl lr
    246c:	000a8600 	andeq	r8, sl, r0, lsl #12
    2470:	11a11100 			; <UNDEFINED> instruction: 0x11a11100
    2474:	19010000 	stmdbne	r1, {}	; <UNPREDICTABLE>
    2478:	0000024e 	andeq	r0, r0, lr, asr #4
    247c:	00000abe 			; <UNDEFINED> instruction: 0x00000abe
    2480:	00129611 	andseq	r9, r2, r1, lsl r6
    2484:	68190100 	ldmdavs	r9, {r8}
    2488:	dc000000 	stcle	0, cr0, [r0], {-0}
    248c:	0000000a 	andeq	r0, r0, sl
    2490:	00123110 	andseq	r3, r2, r0, lsl r1
    2494:	1c240100 	stfnes	f0, [r4], #-0
    2498:	1c000094 	stcne	0, cr0, [r0], {148}	; 0x94
    249c:	01000000 	mrseq	r0, (UNDEF: 0)
    24a0:	0002fb9c 	muleq	r2, ip, fp
    24a4:	11831500 	orrne	r1, r3, r0, lsl #10
    24a8:	24010000 	strcs	r0, [r1], #-0
    24ac:	000002fb 	strdeq	r0, [r0], -fp
    24b0:	ae115001 	cdpge	0, 1, cr5, cr1, cr1, {0}
    24b4:	01000012 	tsteq	r0, r2, lsl r0
    24b8:	00004f24 	andeq	r4, r0, r4, lsr #30
    24bc:	000b3000 	andeq	r3, fp, r0
    24c0:	05c11100 	strbeq	r1, [r1, #256]	; 0x100
    24c4:	24010000 	strcs	r0, [r1], #-0
    24c8:	0000004f 	andeq	r0, r0, pc, asr #32
    24cc:	00000b51 	andeq	r0, r0, r1, asr fp
    24d0:	72756313 	rsbsvc	r6, r5, #1275068416	; 0x4c000000
    24d4:	4f260100 	svcmi	0x00260100
    24d8:	72000000 	andvc	r0, r0, #0
    24dc:	1600000b 	strne	r0, [r0], -fp
    24e0:	0077656e 	rsbseq	r6, r7, lr, ror #10
    24e4:	004f2701 	subeq	r2, pc, r1, lsl #14
    24e8:	53010000 	movwpl	r0, #4096	; 0x1000
    24ec:	76040b00 	strvc	r0, [r4], -r0, lsl #22
    24f0:	17000000 	strne	r0, [r0, -r0]
    24f4:	00001193 	muleq	r0, r3, r1
    24f8:	94383901 	ldrtls	r3, [r8], #-2305	; 0xfffff6ff
    24fc:	02480000 	subeq	r0, r8, #0
    2500:	9c010000 	stcls	0, cr0, [r1], {-0}
    2504:	00000512 	andeq	r0, r0, r2, lsl r5
    2508:	0012d718 	andseq	sp, r2, r8, lsl r7
    250c:	123e0100 	eorsne	r0, lr, #0, 2
    2510:	02000005 	andeq	r0, r0, #5
    2514:	91194c91 			; <UNDEFINED> instruction: 0x91194c91
    2518:	01000012 	tsteq	r0, r2, lsl r0
    251c:	00006840 	andeq	r6, r0, r0, asr #16
    2520:	cf1a0c00 	svcgt	0x001a0c00
    2524:	01000012 	tsteq	r0, r2, lsl r0
    2528:	00024e43 	andeq	r4, r2, r3, asr #28
    252c:	62631b00 	rsbvs	r1, r3, #0, 22
    2530:	52010031 	andpl	r0, r1, #49	; 0x31
    2534:	000000f3 	strdeq	r0, [r0], -r3
    2538:	3262631b 	rsbcc	r6, r2, #1811939328	; 0x6c000000
    253c:	f3540100 	vrhadd.u16	d16, d4, d0
    2540:	0d000000 	stceq	0, cr0, [r0, #-0]
    2544:	00001286 	andeq	r1, r0, r6, lsl #5
    2548:	01b46701 			; <UNDEFINED> instruction: 0x01b46701
    254c:	70000000 	andvc	r0, r0, r0
    2550:	630e3f00 	movwvs	r3, #61184	; 0xef00
    2554:	01000012 	tsteq	r0, r2, lsl r0
    2558:	0001ba6c 	andeq	fp, r1, ip, ror #20
    255c:	000b8500 	andeq	r8, fp, r0, lsl #10
    2560:	31611c00 	cmncc	r1, r0, lsl #24
    2564:	6f700100 	svcvs	0x00700100
    2568:	d8000000 	stmdale	r0, {}	; <UNPREDICTABLE>
    256c:	00611cd6 	ldrdeq	r1, [r1], #-198	; 0xffffff3a	; <UNPREDICTABLE>
    2570:	006f7e01 	rsbeq	r7, pc, r1, lsl #28
    2574:	d6d80000 	ldrble	r0, [r8], r0
    2578:	0094601d 	addseq	r6, r4, sp, lsl r0
    257c:	00058000 	andeq	r8, r5, r0
    2580:	00039900 	andeq	r9, r3, r0, lsl #18
    2584:	50011e00 	andpl	r1, r1, r0, lsl #28
    2588:	14004401 	strne	r4, [r0], #-1025	; 0xfffffbff
    258c:	000094a0 	andeq	r9, r0, r0, lsr #9
    2590:	00000575 	andeq	r0, r0, r5, ror r5
    2594:	0094b41d 	addseq	fp, r4, sp, lsl r4
    2598:	0001e400 	andeq	lr, r1, r0, lsl #8
    259c:	0003bc00 	andeq	fp, r3, r0, lsl #24
    25a0:	50011e00 	andpl	r1, r1, r0, lsl #28
    25a4:	1e007b02 	vmlane.f64	d7, d0, d2
    25a8:	76025101 	strvc	r5, [r2], -r1, lsl #2
    25ac:	c41d0000 	ldrgt	r0, [sp], #-0
    25b0:	5b000094 	blpl	2808 <SCTLR_ENABLE_INSTRUCTION_CACHE+0x1808>
    25b4:	dc000002 	stcle	0, cr0, [r0], {2}
    25b8:	1e000003 	cdpne	0, 0, cr0, cr0, cr3, {0}
    25bc:	91025001 	tstls	r2, r1
    25c0:	51011e44 	tstpl	r1, r4, asr #28
    25c4:	1e007b02 	vmlane.f64	d7, d0, d2
    25c8:	76025201 	strvc	r5, [r2], -r1, lsl #4
    25cc:	d0140000 	andsle	r0, r4, r0
    25d0:	75000094 	strvc	r0, [r0, #-148]	; 0xffffff6c
    25d4:	1d000005 	stcne	0, cr0, [r0, #-20]	; 0xffffffec
    25d8:	000094dc 	ldrdeq	r9, [r0], -ip
    25dc:	000001e4 	andeq	r0, r0, r4, ror #3
    25e0:	000003ff 	strdeq	r0, [r0], -pc	; <UNPREDICTABLE>
    25e4:	0250011e 	subseq	r0, r0, #-2147483641	; 0x80000007
    25e8:	011e007b 	tsteq	lr, fp, ror r0
    25ec:	00760251 	rsbseq	r0, r6, r1, asr r2
    25f0:	94e41d00 	strbtls	r1, [r4], #3328	; 0xd00
    25f4:	05750000 	ldrbeq	r0, [r5, #-0]!
    25f8:	04130000 	ldreq	r0, [r3], #-0
    25fc:	011e0000 	tsteq	lr, r0
    2600:	00740250 	rsbseq	r0, r4, r0, asr r2
    2604:	94f81d00 	ldrbtls	r1, [r8], #3328	; 0xd00
    2608:	01e40000 	mvneq	r0, r0
    260c:	042d0000 	strteq	r0, [sp], #-0
    2610:	011e0000 	tsteq	lr, r0
    2614:	00780250 	rsbseq	r0, r8, r0, asr r2
    2618:	0251011e 	subseq	r0, r1, #-2147483641	; 0x80000007
    261c:	1d000076 	stcne	0, cr0, [r0, #-472]	; 0xfffffe28
    2620:	00009500 	andeq	r9, r0, r0, lsl #10
    2624:	00000575 	andeq	r0, r0, r5, ror r5
    2628:	00000441 	andeq	r0, r0, r1, asr #8
    262c:	0250011e 	subseq	r0, r0, #-2147483641	; 0x80000007
    2630:	1d000074 	stcne	0, cr0, [r0, #-464]	; 0xfffffe30
    2634:	00009514 	andeq	r9, r0, r4, lsl r5
    2638:	000001e4 	andeq	r0, r0, r4, ror #3
    263c:	0000045b 	andeq	r0, r0, fp, asr r4
    2640:	0250011e 	subseq	r0, r0, #-2147483641	; 0x80000007
    2644:	011e0077 	tsteq	lr, r7, ror r0
    2648:	00760251 	rsbseq	r0, r6, r1, asr r2
    264c:	956c1d00 	strbls	r1, [ip, #-3328]!	; 0xfffff300
    2650:	055f0000 	ldrbeq	r0, [pc, #-0]	; 2658 <SCTLR_ENABLE_INSTRUCTION_CACHE+0x1658>
    2654:	046f0000 	strbteq	r0, [pc], #-0	; 265c <SCTLR_ENABLE_INSTRUCTION_CACHE+0x165c>
    2658:	011e0000 	tsteq	lr, r0
    265c:	00740251 	rsbseq	r0, r4, r1, asr r2
    2660:	957c1d00 	ldrbls	r1, [ip, #-3328]!	; 0xfffff300
    2664:	055f0000 	ldrbeq	r0, [pc, #-0]	; 266c <SCTLR_ENABLE_INSTRUCTION_CACHE+0x166c>
    2668:	04830000 	streq	r0, [r3], #0
    266c:	011e0000 	tsteq	lr, r0
    2670:	007b0251 	rsbseq	r0, fp, r1, asr r2
    2674:	959c1400 	ldrls	r1, [ip, #1024]	; 0x400
    2678:	029e0000 	addseq	r0, lr, #0
    267c:	c0140000 	andsgt	r0, r4, r0
    2680:	75000095 	strvc	r0, [r0, #-149]	; 0xffffff6b
    2684:	14000005 	strne	r0, [r0], #-5
    2688:	000095d4 	ldrdeq	r9, [r0], -r4
    268c:	00000575 	andeq	r0, r0, r5, ror r5
    2690:	0095e414 	addseq	lr, r5, r4, lsl r4
    2694:	00057500 	andeq	r7, r5, r0, lsl #10
    2698:	95f41400 	ldrbls	r1, [r4, #1024]!	; 0x400
    269c:	05750000 	ldrbeq	r0, [r5, #-0]!
    26a0:	00140000 	andseq	r0, r4, r0
    26a4:	75000096 	strvc	r0, [r0, #-150]	; 0xffffff6a
    26a8:	1d000005 	stcne	0, cr0, [r0, #-20]	; 0xffffffec
    26ac:	00009608 	andeq	r9, r0, r8, lsl #12
    26b0:	00000575 	andeq	r0, r0, r5, ror r5
    26b4:	000004cd 	andeq	r0, r0, sp, asr #9
    26b8:	0250011e 	subseq	r0, r0, #-2147483641	; 0x80000007
    26bc:	1d00007a 	stcne	0, cr0, [r0, #-488]	; 0xfffffe18
    26c0:	00009614 	andeq	r9, r0, r4, lsl r6
    26c4:	000001e4 	andeq	r0, r0, r4, ror #3
    26c8:	000004e7 	andeq	r0, r0, r7, ror #9
    26cc:	0250011e 	subseq	r0, r0, #-2147483641	; 0x80000007
    26d0:	011e0078 	tsteq	lr, r8, ror r0
    26d4:	00760251 	rsbseq	r0, r6, r1, asr r2
    26d8:	961c1d00 	ldrls	r1, [ip], -r0, lsl #26
    26dc:	05750000 	ldrbeq	r0, [r5, #-0]!
    26e0:	04fb0000 	ldrbteq	r0, [fp], #0
    26e4:	011e0000 	tsteq	lr, r0
    26e8:	007a0250 	rsbseq	r0, sl, r0, asr r2
    26ec:	96281f00 	strtls	r1, [r8], -r0, lsl #30
    26f0:	01e40000 	mvneq	r0, r0
    26f4:	011e0000 	tsteq	lr, r0
    26f8:	00770250 	rsbseq	r0, r7, r0, asr r2
    26fc:	0251011e 	subseq	r0, r1, #-2147483641	; 0x80000007
    2700:	00000076 	andeq	r0, r0, r6, ror r0
    2704:	00025409 	andeq	r5, r2, r9, lsl #8
    2708:	00052200 	andeq	r2, r5, r0, lsl #4
    270c:	00ec0a00 	rsceq	r0, ip, r0, lsl #20
    2710:	000b0000 	andeq	r0, fp, r0
    2714:	0011f520 	andseq	pc, r1, r0, lsr #10
    2718:	68060100 	stmdavs	r6, {r8}
    271c:	20000000 	andcs	r0, r0, r0
    2720:	000011aa 	andeq	r1, r0, sl, lsr #3
    2724:	00680701 	rsbeq	r0, r8, r1, lsl #14
    2728:	ba200000 	blt	802730 <__kernel_end+0x69c730>
    272c:	01000011 	tsteq	r0, r1, lsl r0
    2730:	00006808 	andeq	r6, r0, r8, lsl #16
    2734:	12252000 	eorne	r2, r5, #0
    2738:	09010000 	stmdbeq	r1, {}	; <UNPREDICTABLE>
    273c:	00000068 	andeq	r0, r0, r8, rrx
    2740:	00125321 	andseq	r5, r2, r1, lsr #6
    2744:	680d0100 	stmdavs	sp, {r8}
    2748:	05000000 	streq	r0, [r0, #-0]
    274c:	00c00003 	sbceq	r0, r0, r3
    2750:	047e2200 	ldrbteq	r2, [lr], #-512	; 0xfffffe00
    2754:	047e0000 	ldrbteq	r0, [lr], #-0
    2758:	0c030000 	stceq	0, cr0, [r3], {-0}
    275c:	00116e22 	andseq	r6, r1, r2, lsr #28
    2760:	00116e00 	andseq	r6, r1, r0, lsl #28
    2764:	222a0400 	eorcs	r0, sl, #0, 8
    2768:	0000050d 	andeq	r0, r0, sp, lsl #10
    276c:	0000050d 	andeq	r0, r0, sp, lsl #10
    2770:	8d222c04 	stchi	12, cr2, [r2, #-16]!
    2774:	8d000003 	stchi	0, cr0, [r0, #-12]
    2778:	05000003 	streq	r0, [r0, #-3]
    277c:	23dc005d 	bicscs	r0, ip, #93	; 0x5d
    2780:	00040000 	andeq	r0, r4, r0
    2784:	00000f20 	andeq	r0, r0, r0, lsr #30
    2788:	00640104 	rsbeq	r0, r4, r4, lsl #2
    278c:	c30c0000 	movwgt	r0, #49152	; 0xc000
    2790:	1a000017 	bne	27f4 <SCTLR_ENABLE_INSTRUCTION_CACHE+0x17f4>
    2794:	80000001 	andhi	r0, r0, r1
    2798:	e0000096 	mul	r0, r6, r0
    279c:	72000001 	andvc	r0, r0, #1
    27a0:	0200000f 	andeq	r0, r0, #15
    27a4:	004d0708 	subeq	r0, sp, r8, lsl #14
    27a8:	01020000 	mrseq	r0, (UNDEF: 2)
    27ac:	00000d06 	andeq	r0, r0, r6, lsl #26
    27b0:	05020200 	streq	r0, [r2, #-512]	; 0xfffffe00
    27b4:	0000016b 	andeq	r0, r0, fp, ror #2
    27b8:	00017603 	andeq	r7, r1, r3, lsl #12
    27bc:	45280200 	strmi	r0, [r8, #-512]!	; 0xfffffe00
    27c0:	02000000 	andeq	r0, r0, #0
    27c4:	01110504 	tsteq	r1, r4, lsl #10
    27c8:	08020000 	stmdaeq	r2, {}	; <UNPREDICTABLE>
    27cc:	00010c05 	andeq	r0, r1, r5, lsl #24
    27d0:	035e0300 	cmpeq	lr, #0, 6
    27d4:	2e020000 	cdpcs	0, 0, cr0, cr2, cr0, {0}
    27d8:	0000005e 	andeq	r0, r0, lr, asr r0
    27dc:	0b080102 	bleq	202bec <__kernel_end+0x9cbec>
    27e0:	02000000 	andeq	r0, r0, #0
    27e4:	00190702 	andseq	r0, r9, r2, lsl #14
    27e8:	75030000 	strvc	r0, [r3, #-0]
    27ec:	02000001 	andeq	r0, r0, #1
    27f0:	00007734 	andeq	r7, r0, r4, lsr r7
    27f4:	07040200 	streq	r0, [r4, -r0, lsl #4]
    27f8:	00000052 	andeq	r0, r0, r2, asr r0
    27fc:	000d2a03 	andeq	r2, sp, r3, lsl #20
    2800:	25370200 	ldrcs	r0, [r7, #-512]!	; 0xfffffe00
    2804:	04000000 	streq	r0, [r0], #-0
    2808:	6e690504 	cdpvs	5, 6, cr0, cr9, cr4, {0}
    280c:	04020074 	streq	r0, [r2], #-116	; 0xffffff8c
    2810:	00005707 	andeq	r5, r0, r7, lsl #14
    2814:	006c0500 	rsbeq	r0, ip, r0, lsl #10
    2818:	97060000 	strls	r0, [r6, -r0]
    281c:	07000000 	streq	r0, [r0, -r0]
    2820:	00002c01 	andeq	r2, r0, r1, lsl #24
    2824:	e9230300 	stmdb	r3!, {r8, r9}
    2828:	08000000 	stmdaeq	r0, {}	; <UNPREDICTABLE>
    282c:	00004b4f 	andeq	r4, r0, pc, asr #22
    2830:	00193c09 	andseq	r3, r9, r9, lsl #24
    2834:	29097f00 	stmdbcs	r9, {r8, r9, sl, fp, ip, sp, lr}
    2838:	7e000026 	cdpvc	0, 0, cr0, cr0, cr6, {1}
    283c:	0012fb09 	andseq	pc, r2, r9, lsl #22
    2840:	70097d00 	andvc	r7, r9, r0, lsl #26
    2844:	7c000025 	stcvc	0, cr0, [r0], {37}	; 0x25
    2848:	00220209 	eoreq	r0, r2, r9, lsl #4
    284c:	b0097b00 	andlt	r7, r9, r0, lsl #22
    2850:	7a000016 	bvc	28b0 <SCTLR_ENABLE_INSTRUCTION_CACHE+0x18b0>
    2854:	001ce309 	andseq	lr, ip, r9, lsl #6
    2858:	07097900 	streq	r7, [r9, -r0, lsl #18]
    285c:	7800001d 	stmdavc	r0, {r0, r2, r3, r4}
    2860:	00151a09 	andseq	r1, r5, r9, lsl #20
    2864:	03007700 	movweq	r7, #1792	; 0x700
    2868:	0000260e 	andeq	r2, r0, lr, lsl #12
    286c:	00a12e03 	adceq	r2, r1, r3, lsl #28
    2870:	01070000 	mrseq	r0, (UNDEF: 7)
    2874:	0000005e 	andeq	r0, r0, lr, asr r0
    2878:	01183603 	tsteq	r8, r3, lsl #12
    287c:	c70a0000 	strgt	r0, [sl, -r0]
    2880:	0000001d 	andeq	r0, r0, sp, lsl r0
    2884:	74754f08 	ldrbtvc	r4, [r5], #-3848	; 0xfffff0f8
    2888:	7e0a0000 	cdpvc	0, 0, cr0, cr10, cr0, {0}
    288c:	01000019 	tsteq	r0, r9, lsl r0
    2890:	006e4908 	rsbeq	r4, lr, r8, lsl #18
    2894:	ed030001 	stc	0, cr0, [r3, #-4]
    2898:	03000016 	movweq	r0, #22
    289c:	0000f43b 	andeq	pc, r0, fp, lsr r4	; <UNPREDICTABLE>
    28a0:	5e010700 	cdppl	7, 0, cr0, cr1, cr0, {0}
    28a4:	03000000 	movweq	r0, #0
    28a8:	00014243 	andeq	r4, r1, r3, asr #4
    28ac:	205f0a00 	subscs	r0, pc, r0, lsl #20
    28b0:	0a000000 	beq	28b8 <SCTLR_ENABLE_INSTRUCTION_CACHE+0x18b8>
    28b4:	00001f6a 	andeq	r1, r0, sl, ror #30
    28b8:	6f4c0801 	svcvs	0x004c0801
    28bc:	00020077 	andeq	r0, r2, r7, ror r0
    28c0:	0019c403 	andseq	ip, r9, r3, lsl #8
    28c4:	23470300 	movtcs	r0, #29440	; 0x7300
    28c8:	07000001 	streq	r0, [r0, -r1]
    28cc:	00005e01 	andeq	r5, r0, r1, lsl #28
    28d0:	72560300 	subsvc	r0, r6, #0, 6
    28d4:	0a000001 	beq	28e0 <SCTLR_ENABLE_INSTRUCTION_CACHE+0x18e0>
    28d8:	000026f3 	strdeq	r2, [r0], -r3
    28dc:	25ef0a00 	strbcs	r0, [pc, #2560]!	; 32e4 <SCTLR_ENABLE_INSTRUCTION_CACHE+0x22e4>
    28e0:	0a010000 	beq	428e8 <__first_lvl_tbl_end+0x1d8e8>
    28e4:	0000183c 	andeq	r1, r0, ip, lsr r8
    28e8:	1e070a02 	vmlane.f32	s0, s14, s4
    28ec:	00030000 	andeq	r0, r3, r0
    28f0:	001e8a03 	andseq	r8, lr, r3, lsl #20
    28f4:	4d5b0300 	ldclmi	3, cr0, [fp, #-0]
    28f8:	0b000001 	bleq	2904 <SCTLR_ENABLE_INSTRUCTION_CACHE+0x1904>
    28fc:	00001be1 	andeq	r1, r0, r1, ror #23
    2900:	00006502 	andeq	r6, r0, r2, lsl #10
    2904:	2d140400 	cfldrscs	mvf0, [r4, #-0]
    2908:	0a000002 	beq	2918 <SCTLR_ENABLE_INSTRUCTION_CACHE+0x1918>
    290c:	000022ca 	andeq	r2, r0, sl, asr #5
    2910:	26c90a00 	strbcs	r0, [r9], r0, lsl #20
    2914:	0a040000 	beq	10291c <__first_lvl_tbl_end+0xdd91c>
    2918:	000013da 	ldrdeq	r1, [r0], -sl
    291c:	22520a08 	subscs	r0, r2, #8, 20	; 0x8000
    2920:	0a0c0000 	beq	302928 <__kernel_end+0x19c928>
    2924:	00002865 	andeq	r2, r0, r5, ror #16
    2928:	1e040a10 	vmovne	s8, r0
    292c:	0a140000 	beq	502934 <__kernel_end+0x39c934>
    2930:	00001db6 			; <UNDEFINED> instruction: 0x00001db6
    2934:	1c950a18 	vldmiane	r5, {s0-s23}
    2938:	0a1c0000 	beq	702940 <__kernel_end+0x59c940>
    293c:	00001319 	andeq	r1, r0, r9, lsl r3
    2940:	16260a20 	strtne	r0, [r6], -r0, lsr #20
    2944:	0a240000 	beq	90294c <__kernel_end+0x79c94c>
    2948:	00002170 	andeq	r2, r0, r0, ror r1
    294c:	1aa70a28 	bne	fe9c51f4 <__kernel_end+0xfe85f1f4>
    2950:	0a2c0000 	beq	b02958 <__kernel_end+0x99c958>
    2954:	000026ed 	andeq	r2, r0, sp, ror #13
    2958:	204b0a30 	subcs	r0, fp, r0, lsr sl
    295c:	0a340000 	beq	d02964 <__kernel_end+0xb9c964>
    2960:	00002505 	andeq	r2, r0, r5, lsl #10
    2964:	1b420a38 	blne	108524c <__kernel_end+0xf1f24c>
    2968:	0a3c0000 	beq	f02970 <__kernel_end+0xd9c970>
    296c:	00001fd8 	ldrdeq	r1, [r0], -r8
    2970:	19240a40 	stmdbne	r4!, {r6, r9, fp}
    2974:	0a440000 	beq	110297c <__kernel_end+0xf9c97c>
    2978:	000024be 			; <UNDEFINED> instruction: 0x000024be
    297c:	1cd40a48 	vldmiane	r4, {s1-s72}
    2980:	0a800000 	beq	fe002988 <__kernel_end+0xfde9c988>
    2984:	0000206a 	andeq	r2, r0, sl, rrx
    2988:	266a0a84 	strbtcs	r0, [sl], -r4, lsl #21
    298c:	0a840000 	beq	fe102994 <__kernel_end+0xfdf9c994>
    2990:	00001f3f 	andeq	r1, r0, pc, lsr pc
    2994:	25b30c88 	ldrcs	r0, [r3, #3208]!	; 0xc88
    2998:	01000000 	mrseq	r0, (UNDEF: 0)
    299c:	001bbc0c 	andseq	fp, fp, ip, lsl #24
    29a0:	0c010400 	cfstrseq	mvf0, [r1], {-0}
    29a4:	00001306 	andeq	r1, r0, r6, lsl #6
    29a8:	0b000e00 	bleq	61b0 <SCTLR_ENABLE_INSTRUCTION_CACHE+0x51b0>
    29ac:	00001cc3 	andeq	r1, r0, r3, asr #25
    29b0:	00005e01 	andeq	r5, r0, r1, lsl #28
    29b4:	4a320400 	bmi	c839bc <__kernel_end+0xb1d9bc>
    29b8:	0a000002 	beq	29c8 <SCTLR_ENABLE_INSTRUCTION_CACHE+0x19c8>
    29bc:	000014d9 	ldrdeq	r1, [r0], -r9
    29c0:	14370a00 	ldrtne	r0, [r7], #-2560	; 0xfffff600
    29c4:	00010000 	andeq	r0, r1, r0
    29c8:	0020eb0d 	eoreq	lr, r0, sp, lsl #22
    29cc:	38040400 	stmdacc	r4, {sl}
    29d0:	00000437 	andeq	r0, r0, r7, lsr r4
    29d4:	0022a40e 	eoreq	sl, r2, lr, lsl #8
    29d8:	373a0400 	ldrcc	r0, [sl, -r0, lsl #8]!
    29dc:	01000004 	tsteq	r0, r4
    29e0:	0e000701 	cdpeq	7, 0, cr0, cr0, cr1, {0}
    29e4:	00001fbd 			; <UNDEFINED> instruction: 0x00001fbd
    29e8:	04373b04 	ldrteq	r3, [r7], #-2820	; 0xfffff4fc
    29ec:	01010000 	mrseq	r0, (UNDEF: 1)
    29f0:	4f0f0006 	svcmi	0x000f0006
    29f4:	04006774 	streq	r6, [r0], #-1908	; 0xfffff88c
    29f8:	0004373c 	andeq	r3, r4, ip, lsr r7
    29fc:	05010100 	streq	r0, [r1, #-256]	; 0xffffff00
    2a00:	22620e00 	rsbcs	r0, r2, #0, 28
    2a04:	3d040000 	stccc	0, cr0, [r4, #-0]
    2a08:	00000437 	andeq	r0, r0, r7, lsr r4
    2a0c:	00040101 	andeq	r0, r4, r1, lsl #2
    2a10:	0025380e 	eoreq	r3, r5, lr, lsl #16
    2a14:	373e0400 	ldrcc	r0, [lr, -r0, lsl #8]!
    2a18:	01000004 	tsteq	r0, r4
    2a1c:	0e000301 	cdpeq	3, 0, cr0, cr0, cr1, {0}
    2a20:	0000174e 	andeq	r1, r0, lr, asr #14
    2a24:	04373f04 	ldrteq	r3, [r7], #-3844	; 0xfffff0fc
    2a28:	01010000 	mrseq	r0, (UNDEF: 1)
    2a2c:	140e0002 	strne	r0, [lr], #-2
    2a30:	0400001d 	streq	r0, [r0], #-29	; 0xffffffe3
    2a34:	00043740 	andeq	r3, r4, r0, asr #14
    2a38:	01010100 	mrseq	r0, (UNDEF: 17)
    2a3c:	14750e00 	ldrbtne	r0, [r5], #-3584	; 0xfffff200
    2a40:	41040000 	mrsmi	r0, (UNDEF: 4)
    2a44:	00000437 	andeq	r0, r0, r7, lsr r4
    2a48:	00000101 	andeq	r0, r0, r1, lsl #2
    2a4c:	001e760e 	andseq	r7, lr, lr, lsl #12
    2a50:	37420400 	strbcc	r0, [r2, -r0, lsl #8]
    2a54:	01000004 	tsteq	r0, r4
    2a58:	0f010701 	svceq	0x00010701
    2a5c:	00633249 	rsbeq	r3, r3, r9, asr #4
    2a60:	04374304 	ldrteq	r4, [r7], #-772	; 0xfffffcfc
    2a64:	01010000 	mrseq	r0, (UNDEF: 1)
    2a68:	bb0e0106 	bllt	382e88 <__kernel_end+0x21ce88>
    2a6c:	0400001e 	streq	r0, [r0], #-30	; 0xffffffe2
    2a70:	00043744 	andeq	r3, r4, r4, asr #14
    2a74:	05010100 	streq	r0, [r1, #-256]	; 0xffffff00
    2a78:	28d20e01 	ldmcs	r2, {r0, r9, sl, fp}^
    2a7c:	45040000 	strmi	r0, [r4, #-0]
    2a80:	00000437 	andeq	r0, r0, r7, lsr r4
    2a84:	01040101 	tsteq	r4, r1, lsl #2
    2a88:	0022590e 	eoreq	r5, r2, lr, lsl #18
    2a8c:	37460400 	strbcc	r0, [r6, -r0, lsl #8]
    2a90:	01000004 	tsteq	r0, r4
    2a94:	0e010301 	cdpeq	3, 0, cr0, cr1, cr1, {0}
    2a98:	00001a3d 	andeq	r1, r0, sp, lsr sl
    2a9c:	04374704 	ldrteq	r4, [r7], #-1796	; 0xfffff8fc
    2aa0:	01010000 	mrseq	r0, (UNDEF: 1)
    2aa4:	cd0e0102 	stfgts	f0, [lr, #-8]
    2aa8:	04000019 	streq	r0, [r0], #-25	; 0xffffffe7
    2aac:	00043748 	andeq	r3, r4, r8, asr #14
    2ab0:	01010100 	mrseq	r0, (UNDEF: 17)
    2ab4:	23290e01 			; <UNDEFINED> instruction: 0x23290e01
    2ab8:	49040000 	stmdbmi	r4, {}	; <UNPREDICTABLE>
    2abc:	00000437 	andeq	r0, r0, r7, lsr r4
    2ac0:	01000101 	tsteq	r0, r1, lsl #2
    2ac4:	0013c00e 	andseq	ip, r3, lr
    2ac8:	374a0400 	strbcc	r0, [sl, -r0, lsl #8]
    2acc:	01000004 	tsteq	r0, r4
    2ad0:	0e020701 	cdpeq	7, 0, cr0, cr2, cr1, {0}
    2ad4:	00001da5 	andeq	r1, r0, r5, lsr #27
    2ad8:	04374b04 	ldrteq	r4, [r7], #-2820	; 0xfffff4fc
    2adc:	01010000 	mrseq	r0, (UNDEF: 1)
    2ae0:	d50e0206 	strle	r0, [lr, #-518]	; 0xfffffdfa
    2ae4:	04000018 	streq	r0, [r0], #-24	; 0xffffffe8
    2ae8:	0004374c 	andeq	r3, r4, ip, asr #14
    2aec:	05010100 	streq	r0, [r1, #-256]	; 0xffffff00
    2af0:	18be0e02 	ldmne	lr!, {r1, r9, sl, fp}
    2af4:	4d040000 	stcmi	0, cr0, [r4, #-0]
    2af8:	00000437 	andeq	r0, r0, r7, lsr r4
    2afc:	02040101 	andeq	r0, r4, #1073741824	; 0x40000000
    2b00:	0028930e 	eoreq	r9, r8, lr, lsl #6
    2b04:	374e0400 	strbcc	r0, [lr, -r0, lsl #8]
    2b08:	01000004 	tsteq	r0, r4
    2b0c:	0e020301 	cdpeq	3, 0, cr0, cr2, cr1, {0}
    2b10:	000021bf 			; <UNDEFINED> instruction: 0x000021bf
    2b14:	04374f04 	ldrteq	r4, [r7], #-3844	; 0xfffff0fc
    2b18:	01010000 	mrseq	r0, (UNDEF: 1)
    2b1c:	960e0202 	strls	r0, [lr], -r2, lsl #4
    2b20:	04000014 	streq	r0, [r0], #-20	; 0xffffffec
    2b24:	00043750 	andeq	r3, r4, r0, asr r7
    2b28:	01010100 	mrseq	r0, (UNDEF: 17)
    2b2c:	1f890e02 	svcne	0x00890e02
    2b30:	51040000 	mrspl	r0, (UNDEF: 4)
    2b34:	00000437 	andeq	r0, r0, r7, lsr r4
    2b38:	02000101 	andeq	r0, r0, #1073741824	; 0x40000000
    2b3c:	0028340e 	eoreq	r3, r8, lr, lsl #8
    2b40:	37520400 	ldrbcc	r0, [r2, -r0, lsl #8]
    2b44:	01000004 	tsteq	r0, r4
    2b48:	0e030701 	cdpeq	7, 0, cr0, cr3, cr1, {0}
    2b4c:	00001560 	andeq	r1, r0, r0, ror #10
    2b50:	04375304 	ldrteq	r5, [r7], #-772	; 0xfffffcfc
    2b54:	01010000 	mrseq	r0, (UNDEF: 1)
    2b58:	330e0306 	movwcc	r0, #58118	; 0xe306
    2b5c:	04000013 	streq	r0, [r0], #-19	; 0xffffffed
    2b60:	00043754 	andeq	r3, r4, r4, asr r7
    2b64:	05010100 	streq	r0, [r1, #-256]	; 0xffffff00
    2b68:	23460e03 	movtcs	r0, #28163	; 0x6e03
    2b6c:	55040000 	strpl	r0, [r4, #-0]
    2b70:	00000437 	andeq	r0, r0, r7, lsr r4
    2b74:	03040101 	movweq	r0, #16641	; 0x4101
    2b78:	00272b0e 	eoreq	r2, r7, lr, lsl #22
    2b7c:	37560400 	ldrbcc	r0, [r6, -r0, lsl #8]
    2b80:	01000004 	tsteq	r0, r4
    2b84:	0e030301 	cdpeq	3, 0, cr0, cr3, cr1, {0}
    2b88:	00001d9a 	muleq	r0, sl, sp
    2b8c:	04375704 	ldrteq	r5, [r7], #-1796	; 0xfffff8fc
    2b90:	01010000 	mrseq	r0, (UNDEF: 1)
    2b94:	020e0302 	andeq	r0, lr, #134217728	; 0x8000000
    2b98:	04000019 	streq	r0, [r0], #-25	; 0xffffffe7
    2b9c:	00043758 	andeq	r3, r4, r8, asr r7
    2ba0:	01010100 	mrseq	r0, (UNDEF: 17)
    2ba4:	28cb0e03 	stmiacs	fp, {r0, r1, r9, sl, fp}^
    2ba8:	59040000 	stmdbpl	r4, {}	; <UNPREDICTABLE>
    2bac:	00000437 	andeq	r0, r0, r7, lsr r4
    2bb0:	03000101 	movweq	r0, #257	; 0x101
    2bb4:	02010200 	andeq	r0, r1, #0, 4
    2bb8:	00001a4d 	andeq	r1, r0, sp, asr #20
    2bbc:	0027930d 	eoreq	r9, r7, sp, lsl #6
    2bc0:	5c040400 	cfstrspl	mvf0, [r4], {-0}
    2bc4:	0000052c 	andeq	r0, r0, ip, lsr #10
    2bc8:	0022da0e 	eoreq	sp, r2, lr, lsl #20
    2bcc:	375e0400 	ldrbcc	r0, [lr, -r0, lsl #8]
    2bd0:	01000004 	tsteq	r0, r4
    2bd4:	0e000701 	cdpeq	7, 0, cr0, cr0, cr1, {0}
    2bd8:	00002279 	andeq	r2, r0, r9, ror r2
    2bdc:	04375f04 	ldrteq	r5, [r7], #-3844	; 0xfffff0fc
    2be0:	01010000 	mrseq	r0, (UNDEF: 1)
    2be4:	580e0006 	stmdapl	lr, {r1, r2}
    2be8:	04000024 	streq	r0, [r0], #-36	; 0xffffffdc
    2bec:	00043760 	andeq	r3, r4, r0, ror #14
    2bf0:	05010100 	streq	r0, [r1, #-256]	; 0xffffff00
    2bf4:	20640e00 	rsbcs	r0, r4, r0, lsl #28
    2bf8:	61040000 	mrsvs	r0, (UNDEF: 4)
    2bfc:	00000437 	andeq	r0, r0, r7, lsr r4
    2c00:	00040101 	andeq	r0, r4, r1, lsl #2
    2c04:	00294f0e 	eoreq	r4, r9, lr, lsl #30
    2c08:	37620400 	strbcc	r0, [r2, -r0, lsl #8]!
    2c0c:	01000004 	tsteq	r0, r4
    2c10:	0e000301 	cdpeq	3, 0, cr0, cr0, cr1, {0}
    2c14:	00002957 	andeq	r2, r0, r7, asr r9
    2c18:	04376304 	ldrteq	r6, [r7], #-772	; 0xfffffcfc
    2c1c:	01010000 	mrseq	r0, (UNDEF: 1)
    2c20:	9a0e0002 	bls	382c30 <__kernel_end+0x21cc30>
    2c24:	04000024 	streq	r0, [r0], #-36	; 0xffffffdc
    2c28:	00043764 	andeq	r3, r4, r4, ror #14
    2c2c:	01010100 	mrseq	r0, (UNDEF: 17)
    2c30:	1c090e00 	stcne	14, cr0, [r9], {-0}
    2c34:	65040000 	strvs	r0, [r4, #-0]
    2c38:	00000437 	andeq	r0, r0, r7, lsr r4
    2c3c:	00000101 	andeq	r0, r0, r1, lsl #2
    2c40:	0026890e 	eoreq	r8, r6, lr, lsl #18
    2c44:	37660400 	strbcc	r0, [r6, -r0, lsl #8]!
    2c48:	01000004 	tsteq	r0, r4
    2c4c:	0e010701 	cdpeq	7, 0, cr0, cr1, cr1, {0}
    2c50:	000012ee 	andeq	r1, r0, lr, ror #5
    2c54:	04376704 	ldrteq	r6, [r7], #-1796	; 0xfffff8fc
    2c58:	01010000 	mrseq	r0, (UNDEF: 1)
    2c5c:	780e0106 	stmdavc	lr, {r1, r2, r8}
    2c60:	04000028 	streq	r0, [r0], #-40	; 0xffffffd8
    2c64:	00043768 	andeq	r3, r4, r8, ror #14
    2c68:	05010100 	streq	r0, [r1, #-256]	; 0xffffff00
    2c6c:	1e5d0e01 	cdpne	14, 5, cr0, cr13, cr1, {0}
    2c70:	69040000 	stmdbvs	r4, {}	; <UNPREDICTABLE>
    2c74:	00000437 	andeq	r0, r0, r7, lsr r4
    2c78:	01040101 	tsteq	r4, r1, lsl #2
    2c7c:	0020a20e 	eoreq	sl, r0, lr, lsl #4
    2c80:	376a0400 	strbcc	r0, [sl, -r0, lsl #8]!
    2c84:	01000004 	tsteq	r0, r4
    2c88:	0e010301 	cdpeq	3, 0, cr0, cr1, cr1, {0}
    2c8c:	0000164a 	andeq	r1, r0, sl, asr #12
    2c90:	04376b04 	ldrteq	r6, [r7], #-2820	; 0xfffff4fc
    2c94:	01010000 	mrseq	r0, (UNDEF: 1)
    2c98:	370e0102 	strcc	r0, [lr, -r2, lsl #2]
    2c9c:	04000026 	streq	r0, [r0], #-38	; 0xffffffda
    2ca0:	0000906c 	andeq	r9, r0, ip, rrx
    2ca4:	00120400 	andseq	r0, r2, r0, lsl #8
    2ca8:	90050000 	andls	r0, r5, r0
    2cac:	05000000 	streq	r0, [r0, #-0]
    2cb0:	00000437 	andeq	r0, r0, r7, lsr r4
    2cb4:	00022d05 	andeq	r2, r2, r5, lsl #26
    2cb8:	04041000 	streq	r1, [r4], #-0
    2cbc:	0005da97 	muleq	r5, r7, sl
    2cc0:	18760e00 	ldmdane	r6!, {r9, sl, fp}^
    2cc4:	99040000 	stmdbls	r4, {}	; <UNPREDICTABLE>
    2cc8:	00000531 	andeq	r0, r0, r1, lsr r5
    2ccc:	00070101 	andeq	r0, r7, r1, lsl #2
    2cd0:	0026050e 	eoreq	r0, r6, lr, lsl #10
    2cd4:	319a0400 	orrscc	r0, sl, r0, lsl #8
    2cd8:	01000005 	tsteq	r0, r5
    2cdc:	0e000601 	cfmadd32eq	mvax0, mvfx0, mvfx0, mvfx1
    2ce0:	00001fac 	andeq	r1, r0, ip, lsr #31
    2ce4:	05319b04 	ldreq	r9, [r1, #-2820]!	; 0xfffff4fc
    2ce8:	01010000 	mrseq	r0, (UNDEF: 1)
    2cec:	2b0e0005 	blcs	382d08 <__kernel_end+0x21cd08>
    2cf0:	0400001a 	streq	r0, [r0], #-26	; 0xffffffe6
    2cf4:	0005319c 	muleq	r5, ip, r1
    2cf8:	04010100 	streq	r0, [r1], #-256	; 0xffffff00
    2cfc:	180d0e00 	stmdane	sp, {r9, sl, fp}
    2d00:	9d040000 	stcls	0, cr0, [r4, #-0]
    2d04:	00000531 	andeq	r0, r0, r1, lsr r5
    2d08:	00030101 	andeq	r0, r3, r1, lsl #2
    2d0c:	0028110e 	eoreq	r1, r8, lr, lsl #2
    2d10:	319e0400 	orrscc	r0, lr, r0, lsl #8
    2d14:	01000005 	tsteq	r0, r5
    2d18:	0e000201 	cdpeq	2, 0, cr0, cr0, cr1, {0}
    2d1c:	00001dd4 	ldrdeq	r1, [r0], -r4
    2d20:	052c9f04 	streq	r9, [ip, #-3844]!	; 0xfffff0fc
    2d24:	05040000 	streq	r0, [r4, #-0]
    2d28:	330e0015 	movwcc	r0, #57365	; 0xe015
    2d2c:	04000015 	streq	r0, [r0], #-21	; 0xffffffeb
    2d30:	00052ca0 	andeq	r2, r5, r0, lsr #25
    2d34:	02130400 	andseq	r0, r3, #0, 8
    2d38:	20850e00 	addcs	r0, r5, r0, lsl #28
    2d3c:	a1040000 	mrsge	r0, (UNDEF: 4)
    2d40:	00000531 	andeq	r0, r0, r1, lsr r5
    2d44:	03010101 	movweq	r0, #4353	; 0x1101
    2d48:	0013b20e 	andseq	fp, r3, lr, lsl #4
    2d4c:	31a20400 			; <UNDEFINED> instruction: 0x31a20400
    2d50:	01000005 	tsteq	r0, r5
    2d54:	00030001 	andeq	r0, r3, r1
    2d58:	96040411 			; <UNDEFINED> instruction: 0x96040411
    2d5c:	000005f3 	strdeq	r0, [r0], -r3
    2d60:	00053b12 	andeq	r3, r5, r2, lsl fp
    2d64:	27ec1300 	strbcs	r1, [ip, r0, lsl #6]!
    2d68:	a4040000 	strge	r0, [r4], #-0
    2d6c:	00000097 	muleq	r0, r7, r0
    2d70:	1b180d00 	blne	606178 <__kernel_end+0x4a0178>
    2d74:	04040000 	streq	r0, [r4], #-0
    2d78:	00060694 	muleq	r6, r4, r6
    2d7c:	05da1400 	ldrbeq	r1, [sl, #1024]	; 0x400
    2d80:	00000000 	andeq	r0, r0, r0
    2d84:	ab040410 	blge	103dcc <__first_lvl_tbl_end+0xdedcc>
    2d88:	00000696 	muleq	r0, r6, r6
    2d8c:	00142c0e 	andseq	r2, r4, lr, lsl #24
    2d90:	31ad0400 			; <UNDEFINED> instruction: 0x31ad0400
    2d94:	01000005 	tsteq	r0, r5
    2d98:	0e000701 	cdpeq	7, 0, cr0, cr0, cr1, {0}
    2d9c:	000013f3 	strdeq	r1, [r0], -r3
    2da0:	0531ae04 	ldreq	sl, [r1, #-3588]!	; 0xfffff1fc
    2da4:	01010000 	mrseq	r0, (UNDEF: 1)
    2da8:	370e0006 	strcc	r0, [lr, -r6]
    2dac:	0400001b 	streq	r0, [r0], #-27	; 0xffffffe5
    2db0:	000531af 	andeq	r3, r5, pc, lsr #3
    2db4:	05010100 	streq	r0, [r1, #-256]	; 0xffffff00
    2db8:	15490e00 	strbne	r0, [r9, #-3584]	; 0xfffff200
    2dbc:	b0040000 	andlt	r0, r4, r0
    2dc0:	00000531 	andeq	r0, r0, r1, lsr r5
    2dc4:	00040101 	andeq	r0, r4, r1, lsl #2
    2dc8:	001baf0e 	andseq	sl, fp, lr, lsl #30
    2dcc:	31b10400 			; <UNDEFINED> instruction: 0x31b10400
    2dd0:	01000005 	tsteq	r0, r5
    2dd4:	0e000301 	cdpeq	3, 0, cr0, cr0, cr1, {0}
    2dd8:	00001603 	andeq	r1, r0, r3, lsl #12
    2ddc:	0531b204 	ldreq	fp, [r1, #-516]!	; 0xfffffdfc
    2de0:	01010000 	mrseq	r0, (UNDEF: 1)
    2de4:	300e0002 	andcc	r0, lr, r2
    2de8:	04000019 	streq	r0, [r0], #-25	; 0xffffffe7
    2dec:	000531b3 			; <UNDEFINED> instruction: 0x000531b3
    2df0:	01010100 	mrseq	r0, (UNDEF: 17)
    2df4:	25fb0e00 	ldrbcs	r0, [fp, #3584]!	; 0xe00
    2df8:	b4040000 	strlt	r0, [r4], #-0
    2dfc:	00000531 	andeq	r0, r0, r1, lsr r5
    2e00:	00000101 	andeq	r0, r0, r1, lsl #2
    2e04:	0026950e 	eoreq	r9, r6, lr, lsl #10
    2e08:	2cb50400 	cfldrscs	mvf0, [r5]
    2e0c:	04000005 	streq	r0, [r0], #-5
    2e10:	00000018 	andeq	r0, r0, r8, lsl r0
    2e14:	aa040411 	bge	103e60 <__first_lvl_tbl_end+0xdee60>
    2e18:	000006af 	andeq	r0, r0, pc, lsr #13
    2e1c:	00060612 	andeq	r0, r6, r2, lsl r6
    2e20:	27ec1300 	strbcs	r1, [ip, r0, lsl #6]!
    2e24:	b7040000 	strlt	r0, [r4, -r0]
    2e28:	00000097 	muleq	r0, r7, r0
    2e2c:	19750d00 	ldmdbne	r5!, {r8, sl, fp}^
    2e30:	04040000 	streq	r0, [r4], #-0
    2e34:	0006c2a8 	andeq	ip, r6, r8, lsr #5
    2e38:	06961400 	ldreq	r1, [r6], r0, lsl #8
    2e3c:	00000000 	andeq	r0, r0, r0
    2e40:	bd040410 	cfstrslt	mvf0, [r4, #-64]	; 0xffffffc0
    2e44:	00000815 	andeq	r0, r0, r5, lsl r8
    2e48:	0015e80e 	andseq	lr, r5, lr, lsl #16
    2e4c:	31bf0400 			; <UNDEFINED> instruction: 0x31bf0400
    2e50:	01000005 	tsteq	r0, r5
    2e54:	0e000701 	cdpeq	7, 0, cr0, cr0, cr1, {0}
    2e58:	000017bc 			; <UNDEFINED> instruction: 0x000017bc
    2e5c:	0531c004 	ldreq	ip, [r1, #-4]!
    2e60:	01010000 	mrseq	r0, (UNDEF: 1)
    2e64:	e10e0006 	tst	lr, r6
    2e68:	04000016 	streq	r0, [r0], #-22	; 0xffffffea
    2e6c:	000531c1 	andeq	r3, r5, r1, asr #3
    2e70:	05010100 	streq	r0, [r1, #-256]	; 0xffffff00
    2e74:	1b8a0e00 	blne	fe28667c <__kernel_end+0xfe12067c>
    2e78:	c2040000 	andgt	r0, r4, #0
    2e7c:	00000531 	andeq	r0, r0, r1, lsr r5
    2e80:	00040101 	andeq	r0, r4, r1, lsl #2
    2e84:	0026150e 	eoreq	r1, r6, lr, lsl #10
    2e88:	31c30400 	biccc	r0, r3, r0, lsl #8
    2e8c:	01000005 	tsteq	r0, r5
    2e90:	0e000301 	cdpeq	3, 0, cr0, cr0, cr1, {0}
    2e94:	00002430 	andeq	r2, r0, r0, lsr r4
    2e98:	0531c404 	ldreq	ip, [r1, #-1028]!	; 0xfffffbfc
    2e9c:	01010000 	mrseq	r0, (UNDEF: 1)
    2ea0:	e20e0002 	and	r0, lr, #2
    2ea4:	04000016 	streq	r0, [r0], #-22	; 0xffffffea
    2ea8:	000531c5 	andeq	r3, r5, r5, asr #3
    2eac:	01010100 	mrseq	r0, (UNDEF: 17)
    2eb0:	1b8b0e00 	blne	fe2c66b8 <__kernel_end+0xfe1606b8>
    2eb4:	c6040000 	strgt	r0, [r4], -r0
    2eb8:	00000531 	andeq	r0, r0, r1, lsr r5
    2ebc:	00000101 	andeq	r0, r0, r1, lsl #2
    2ec0:	001a610e 	andseq	r6, sl, lr, lsl #2
    2ec4:	31c70400 	biccc	r0, r7, r0, lsl #8
    2ec8:	01000005 	tsteq	r0, r5
    2ecc:	0e010701 	cdpeq	7, 0, cr0, cr1, cr1, {0}
    2ed0:	0000152c 	andeq	r1, r0, ip, lsr #10
    2ed4:	0531c804 	ldreq	ip, [r1, #-2052]!	; 0xfffff7fc
    2ed8:	01010000 	mrseq	r0, (UNDEF: 1)
    2edc:	f70e0106 			; <UNDEFINED> instruction: 0xf70e0106
    2ee0:	0400001a 	streq	r0, [r0], #-26	; 0xffffffe6
    2ee4:	000531c9 	andeq	r3, r5, r9, asr #3
    2ee8:	05010100 	streq	r0, [r1, #-256]	; 0xffffff00
    2eec:	26610e01 	strbtcs	r0, [r1], -r1, lsl #28
    2ef0:	ca040000 	bgt	102ef8 <__first_lvl_tbl_end+0xddef8>
    2ef4:	00000531 	andeq	r0, r0, r1, lsr r5
    2ef8:	01040101 	tsteq	r4, r1, lsl #2
    2efc:	001ff60e 	andseq	pc, pc, lr, lsl #12
    2f00:	2ccb0400 	cfstrdcs	mvd0, [fp], {0}
    2f04:	04000005 	streq	r0, [r0], #-5
    2f08:	0e001004 	cdpeq	0, 0, cr1, cr0, cr4, {0}
    2f0c:	00001b2e 	andeq	r1, r0, lr, lsr #22
    2f10:	0531cc04 	ldreq	ip, [r1, #-3076]!	; 0xfffff3fc
    2f14:	01010000 	mrseq	r0, (UNDEF: 1)
    2f18:	110e0207 	tstne	lr, r7, lsl #4
    2f1c:	0400001a 	streq	r0, [r0], #-26	; 0xffffffe6
    2f20:	00052ccd 	andeq	r2, r5, sp, asr #25
    2f24:	0e010400 	cfcpyseq	mvf0, mvf1
    2f28:	25c70e00 	strbcs	r0, [r7, #3584]	; 0xe00
    2f2c:	ce040000 	cdpgt	0, 0, cr0, cr4, cr0, {0}
    2f30:	00000531 	andeq	r0, r0, r1, lsr r5
    2f34:	02050101 	andeq	r0, r5, #1073741824	; 0x40000000
    2f38:	001ac00e 	andseq	ip, sl, lr
    2f3c:	31cf0400 	biccc	r0, pc, r0, lsl #8
    2f40:	01000005 	tsteq	r0, r5
    2f44:	0e020401 	cdpeq	4, 0, cr0, cr2, cr1, {0}
    2f48:	00001bef 	andeq	r1, r0, pc, ror #23
    2f4c:	052cd004 	streq	sp, [ip, #-4]!
    2f50:	01040000 	mrseq	r0, (UNDEF: 4)
    2f54:	7d0e000b 	stcvc	0, cr0, [lr, #-44]	; 0xffffffd4
    2f58:	0400001f 	streq	r0, [r0], #-31	; 0xffffffe1
    2f5c:	00052cd1 	ldrdeq	r2, [r5], -r1
    2f60:	0a010400 	beq	43f68 <__first_lvl_tbl_end+0x1ef68>
    2f64:	1b220e00 	blne	88676c <__kernel_end+0x72076c>
    2f68:	d2040000 	andle	r0, r4, #0
    2f6c:	0000052c 	andeq	r0, r0, ip, lsr #10
    2f70:	00050504 	andeq	r0, r5, r4, lsl #10
    2f74:	0022eb0e 	eoreq	lr, r2, lr, lsl #22
    2f78:	31d30400 	bicscc	r0, r3, r0, lsl #8
    2f7c:	01000005 	tsteq	r0, r5
    2f80:	0e030401 	cdpeq	4, 0, cr0, cr3, cr1, {0}
    2f84:	00002561 	andeq	r2, r0, r1, ror #10
    2f88:	052cd404 	streq	sp, [ip, #-1028]!	; 0xfffffbfc
    2f8c:	04040000 	streq	r0, [r4], #-0
    2f90:	10000000 	andne	r0, r0, r0
    2f94:	b4d60404 	ldrblt	r0, [r6], #1028	; 0x404
    2f98:	0e000008 	cdpeq	0, 0, cr0, cr0, cr8, {0}
    2f9c:	000016be 			; <UNDEFINED> instruction: 0x000016be
    2fa0:	052cd804 	streq	sp, [ip, #-2052]!	; 0xfffff7fc
    2fa4:	02040000 	andeq	r0, r4, #0
    2fa8:	800e001e 	andhi	r0, lr, lr, lsl r0
    2fac:	04000027 	streq	r0, [r0], #-39	; 0xffffffd9
    2fb0:	000531d9 	ldrdeq	r3, [r5], -r9
    2fb4:	05010100 	streq	r0, [r1, #-256]	; 0xffffff00
    2fb8:	1adb0e00 	bne	ff6c67c0 <__kernel_end+0xff5607c0>
    2fbc:	da040000 	ble	102fc4 <__first_lvl_tbl_end+0xddfc4>
    2fc0:	0000052c 	andeq	r0, r0, ip, lsr #10
    2fc4:	00180504 	andseq	r0, r8, r4, lsl #10
    2fc8:	0028e70e 	eoreq	lr, r8, lr, lsl #14
    2fcc:	31db0400 	bicscc	r0, fp, r0, lsl #8
    2fd0:	01000005 	tsteq	r0, r5
    2fd4:	0e010701 	cdpeq	7, 0, cr0, cr1, cr1, {0}
    2fd8:	00001c31 	andeq	r1, r0, r1, lsr ip
    2fdc:	0531dc04 	ldreq	sp, [r1, #-3076]!	; 0xfffff3fc
    2fe0:	01010000 	mrseq	r0, (UNDEF: 1)
    2fe4:	b40e0106 	strlt	r0, [lr], #-262	; 0xfffffefa
    2fe8:	0400001c 	streq	r0, [r0], #-28	; 0xffffffe4
    2fec:	00052cdd 	ldrdeq	r2, [r5], -sp
    2ff0:	0f070400 	svceq	0x00070400
    2ff4:	143c0e00 	ldrtne	r0, [ip], #-3584	; 0xfffff200
    2ff8:	de040000 	cdple	0, 0, cr0, cr4, cr0, {0}
    2ffc:	00000531 	andeq	r0, r0, r1, lsr r5
    3000:	02060101 	andeq	r0, r6, #1073741824	; 0x40000000
    3004:	0023ad0e 	eoreq	sl, r3, lr, lsl #26
    3008:	31df0400 	bicscc	r0, pc, r0, lsl #8
    300c:	01000005 	tsteq	r0, r5
    3010:	0e020501 	cfsh32eq	mvfx0, mvfx2, #1
    3014:	00002417 	andeq	r2, r0, r7, lsl r4
    3018:	0531e004 	ldreq	lr, [r1, #-4]!
    301c:	01010000 	mrseq	r0, (UNDEF: 1)
    3020:	800e0204 	andhi	r0, lr, r4, lsl #4
    3024:	04000017 	streq	r0, [r0], #-23	; 0xffffffe9
    3028:	00052ce1 	andeq	r2, r5, r1, ror #25
    302c:	000c0400 	andeq	r0, ip, r0, lsl #8
    3030:	01070000 	mrseq	r0, (UNDEF: 7)
    3034:	0000005e 	andeq	r0, r0, lr, asr r0
    3038:	08d9e804 	ldmeq	r9, {r2, fp, sp, lr, pc}^
    303c:	680a0000 	stmdavs	sl, {}	; <UNPREDICTABLE>
    3040:	00000013 	andeq	r0, r0, r3, lsl r0
    3044:	0013600a 	andseq	r6, r3, sl
    3048:	580a0100 	stmdapl	sl, {r8}
    304c:	02000013 	andeq	r0, r0, #19
    3050:	0013500a 	andseq	r5, r3, sl
    3054:	0b000300 	bleq	3c5c <SCTLR_ENABLE_INSTRUCTION_CACHE+0x2c5c>
    3058:	00002656 	andeq	r2, r0, r6, asr r6
    305c:	00005e01 	andeq	r5, r0, r1, lsl #28
    3060:	f6f30400 			; <UNDEFINED> instruction: 0xf6f30400
    3064:	0a000008 	beq	308c <SCTLR_ENABLE_INSTRUCTION_CACHE+0x208c>
    3068:	00001341 	andeq	r1, r0, r1, asr #6
    306c:	23d10a01 	bicscs	r0, r1, #4096	; 0x1000
    3070:	00000000 	andeq	r0, r0, r0
    3074:	005e0107 	subseq	r0, lr, r7, lsl #2
    3078:	fb040000 	blx	103082 <__first_lvl_tbl_end+0xde082>
    307c:	0000090f 	andeq	r0, r0, pc, lsl #18
    3080:	0016cb0a 	andseq	ip, r6, sl, lsl #22
    3084:	a20a0000 	andge	r0, sl, #0
    3088:	01000021 	tsteq	r0, r1, lsr #32
    308c:	04041000 	streq	r1, [r4], #-0
    3090:	0009dbe3 	andeq	sp, r9, r3, ror #23
    3094:	29720e00 	ldmdbcs	r2!, {r9, sl, fp}^
    3098:	e5040000 	str	r0, [r4, #-0]
    309c:	00000531 	andeq	r0, r0, r1, lsr r5
    30a0:	00070101 	andeq	r0, r7, r1, lsl #2
    30a4:	001f5b0e 	andseq	r5, pc, lr, lsl #22
    30a8:	dbed0400 	blle	ffb440b0 <__kernel_end+0xff9de0b0>
    30ac:	01000009 	tsteq	r0, r9
    30b0:	0e000502 	cfsh32eq	mvfx0, mvfx0, #2
    30b4:	00001cc9 	andeq	r1, r0, r9, asr #25
    30b8:	052cee04 	streq	lr, [ip, #-3588]!	; 0xfffff1fc
    30bc:	01040000 	mrseq	r0, (UNDEF: 4)
    30c0:	9c0e001c 	stcls	0, cr0, [lr], {28}
    30c4:	04000023 	streq	r0, [r0], #-35	; 0xffffffdd
    30c8:	000531ef 	andeq	r3, r5, pc, ror #3
    30cc:	03010100 	movweq	r0, #4352	; 0x1100
    30d0:	22330e00 	eorscs	r0, r3, #0, 28
    30d4:	f1040000 	cps	#0
    30d8:	00000531 	andeq	r0, r0, r1, lsr r5
    30dc:	00020101 	andeq	r0, r2, r1, lsl #2
    30e0:	0015c50e 	andseq	ip, r5, lr, lsl #10
    30e4:	2cf20400 	cfldrdcs	mvd0, [r2]
    30e8:	04000005 	streq	r0, [r0], #-5
    30ec:	0e001901 	cdpeq	9, 0, cr1, cr0, cr1, {0}
    30f0:	0000264e 	andeq	r2, r0, lr, asr #12
    30f4:	09e0f604 	stmibeq	r0!, {r2, r9, sl, ip, sp, lr, pc}^
    30f8:	01010000 	mrseq	r0, (UNDEF: 1)
    30fc:	460e0000 	strmi	r0, [lr], -r0
    3100:	04000026 	streq	r0, [r0], #-38	; 0xffffffda
    3104:	0009e0f7 	strdeq	lr, [r9], -r7
    3108:	07010100 	streq	r0, [r1, -r0, lsl #2]
    310c:	1b970e01 	blne	fe5c6918 <__kernel_end+0xfe460918>
    3110:	f8040000 			; <UNDEFINED> instruction: 0xf8040000
    3114:	0000052c 	andeq	r0, r0, ip, lsr #10
    3118:	000b0c04 	andeq	r0, fp, r4, lsl #24
    311c:	0028880e 	eoreq	r8, r8, lr, lsl #16
    3120:	31f90400 	mvnscc	r0, r0, lsl #8
    3124:	01000005 	tsteq	r0, r5
    3128:	0e020201 	cdpeq	2, 0, cr0, cr2, cr1, {0}
    312c:	00002408 	andeq	r2, r0, r8, lsl #8
    3130:	0531fa04 	ldreq	pc, [r1, #-2564]!	; 0xfffff5fc
    3134:	01010000 	mrseq	r0, (UNDEF: 1)
    3138:	d00e0201 	andle	r0, lr, r1, lsl #4
    313c:	0400001b 	streq	r0, [r0], #-27	; 0xffffffe5
    3140:	0009e5fe 	strdeq	lr, [r9], -lr	; <UNPREDICTABLE>
    3144:	00010100 	andeq	r0, r1, r0, lsl #2
    3148:	198b0e02 	stmibne	fp, {r1, r9, sl, fp}
    314c:	ff040000 			; <UNDEFINED> instruction: 0xff040000
    3150:	0000052c 	andeq	r0, r0, ip, lsr #10
    3154:	00000804 	andeq	r0, r0, r4, lsl #16
    3158:	08b40500 	ldmeq	r4!, {r8, sl}
    315c:	d9050000 	stmdble	r5, {}	; <UNPREDICTABLE>
    3160:	05000008 	streq	r0, [r0, #-8]
    3164:	000008f6 	strdeq	r0, [r0], -r6
    3168:	01040415 	tsteq	r4, r5, lsl r4
    316c:	000ba401 	andeq	sl, fp, r1, lsl #8
    3170:	18551600 	ldmdane	r5, {r9, sl, ip}^
    3174:	03040000 	movweq	r0, #16384	; 0x4000
    3178:	00052c01 	andeq	r2, r5, r1, lsl #24
    317c:	1d030400 	cfstrsne	mvf0, [r3, #-0]
    3180:	243c1600 	ldrtcs	r1, [ip], #-1536	; 0xfffffa00
    3184:	04040000 	streq	r0, [r4], #-0
    3188:	00053101 	andeq	r3, r5, r1, lsl #2
    318c:	04010100 	streq	r0, [r1], #-256	; 0xffffff00
    3190:	252d1600 	strcs	r1, [sp, #-1536]!	; 0xfffffa00
    3194:	05040000 	streq	r0, [r4, #-0]
    3198:	00053601 	andeq	r3, r5, r1, lsl #12
    319c:	03010100 	movweq	r0, #4352	; 0x1100
    31a0:	15421600 	strbne	r1, [r2, #-1536]	; 0xfffffa00
    31a4:	06040000 	streq	r0, [r4], -r0
    31a8:	00053101 	andeq	r3, r5, r1, lsl #2
    31ac:	02010100 	andeq	r0, r1, #0, 2
    31b0:	17b51600 	ldrne	r1, [r5, r0, lsl #12]!
    31b4:	07040000 	streq	r0, [r4, -r0]
    31b8:	00053101 	andeq	r3, r5, r1, lsl #2
    31bc:	01010100 	mrseq	r0, (UNDEF: 17)
    31c0:	1c7b1600 	ldclne	6, cr1, [fp], #-0
    31c4:	08040000 	stmdaeq	r4, {}	; <UNPREDICTABLE>
    31c8:	00053101 	andeq	r3, r5, r1, lsl #2
    31cc:	00010100 	andeq	r0, r1, r0, lsl #2
    31d0:	1b731600 	blne	1cc89d8 <__kernel_end+0x1b629d8>
    31d4:	09040000 	stmdbeq	r4, {}	; <UNPREDICTABLE>
    31d8:	00053101 	andeq	r3, r5, r1, lsl #2
    31dc:	07010100 	streq	r0, [r1, -r0, lsl #2]
    31e0:	21071601 	tstcs	r7, r1, lsl #12
    31e4:	0a040000 	beq	1031ec <__first_lvl_tbl_end+0xde1ec>
    31e8:	00053101 	andeq	r3, r5, r1, lsl #2
    31ec:	06010100 	streq	r0, [r1], -r0, lsl #2
    31f0:	25231601 	strcs	r1, [r3, #-1537]!	; 0xfffff9ff
    31f4:	0b040000 	bleq	1031fc <__first_lvl_tbl_end+0xde1fc>
    31f8:	00052c01 	andeq	r2, r5, r1, lsl #24
    31fc:	12040400 	andne	r0, r4, #0, 8
    3200:	06d31600 	ldrbeq	r1, [r3], r0, lsl #12
    3204:	0c040000 	stceq	0, cr0, [r4], {-0}
    3208:	00052c01 	andeq	r2, r5, r1, lsl #24
    320c:	11010400 	tstne	r1, r0, lsl #8
    3210:	238c1600 	orrcs	r1, ip, #0, 12
    3214:	0e040000 	cdpeq	0, 0, cr0, cr4, cr0, {0}
    3218:	00053101 	andeq	r3, r5, r1, lsl #2
    321c:	00010100 	andeq	r0, r1, r0, lsl #2
    3220:	21871601 	orrcs	r1, r7, r1, lsl #12
    3224:	0f040000 	svceq	0x00040000
    3228:	00053101 	andeq	r3, r5, r1, lsl #2
    322c:	07010100 	streq	r0, [r1, -r0, lsl #2]
    3230:	13471602 	movtne	r1, #30210	; 0x7602
    3234:	10040000 	andne	r0, r4, r0
    3238:	00053101 	andeq	r3, r5, r1, lsl #2
    323c:	06010100 	streq	r0, [r1], -r0, lsl #2
    3240:	16841602 	strne	r1, [r4], r2, lsl #12
    3244:	11040000 	mrsne	r0, (UNDEF: 4)
    3248:	00053101 	andeq	r3, r5, r1, lsl #2
    324c:	05010100 	streq	r0, [r1, #-256]	; 0xffffff00
    3250:	1bfa1602 	blne	ffe88a60 <__kernel_end+0xffd22a60>
    3254:	12040000 	andne	r0, r4, #0
    3258:	00053101 	andeq	r3, r5, r1, lsl #2
    325c:	04010100 	streq	r0, [r1], #-256	; 0xffffff00
    3260:	19f21602 	ldmibne	r2!, {r1, r9, sl, ip}^
    3264:	13040000 	movwne	r0, #16384	; 0x4000
    3268:	00053101 	andeq	r3, r5, r1, lsl #2
    326c:	03010100 	movweq	r0, #4352	; 0x1100
    3270:	1cef1602 	stclne	6, cr1, [pc], #8	; 3280 <SCTLR_ENABLE_INSTRUCTION_CACHE+0x2280>
    3274:	14040000 	strne	r0, [r4], #-0
    3278:	00053101 	andeq	r3, r5, r1, lsl #2
    327c:	02010100 	andeq	r0, r1, #0, 2
    3280:	17e11602 	strbne	r1, [r1, r2, lsl #12]!
    3284:	15040000 	strne	r0, [r4, #-0]
    3288:	00053101 	andeq	r3, r5, r1, lsl #2
    328c:	01010100 	mrseq	r0, (UNDEF: 17)
    3290:	16351602 	ldrtne	r1, [r5], -r2, lsl #12
    3294:	16040000 	strne	r0, [r4], -r0
    3298:	00053101 	andeq	r3, r5, r1, lsl #2
    329c:	00010100 	andeq	r0, r1, r0, lsl #2
    32a0:	14541602 	ldrbne	r1, [r4], #-1538	; 0xfffff9fe
    32a4:	17040000 	strne	r0, [r4, -r0]
    32a8:	00053101 	andeq	r3, r5, r1, lsl #2
    32ac:	07010100 	streq	r0, [r1, -r0, lsl #2]
    32b0:	19e01603 	stmibne	r0!, {r0, r1, r9, sl, ip}^
    32b4:	18040000 	stmdane	r4, {}	; <UNPREDICTABLE>
    32b8:	00053101 	andeq	r3, r5, r1, lsl #2
    32bc:	06010100 	streq	r0, [r1], -r0, lsl #2
    32c0:	182d1603 	stmdane	sp!, {r0, r1, r9, sl, ip}
    32c4:	19040000 	stmdbne	r4, {}	; <UNPREDICTABLE>
    32c8:	00053101 	andeq	r3, r5, r1, lsl #2
    32cc:	05010100 	streq	r0, [r1, #-256]	; 0xffffff00
    32d0:	23751603 	cmncs	r5, #3145728	; 0x300000
    32d4:	1a040000 	bne	1032dc <__first_lvl_tbl_end+0xde2dc>
    32d8:	00053101 	andeq	r3, r5, r1, lsl #2
    32dc:	04010100 	streq	r0, [r1], #-256	; 0xffffff00
    32e0:	1e7d1603 	cdpne	6, 7, cr1, cr13, cr3, {0}
    32e4:	1b040000 	blne	1032ec <__first_lvl_tbl_end+0xde2ec>
    32e8:	00053101 	andeq	r3, r5, r1, lsl #2
    32ec:	03010100 	movweq	r0, #4352	; 0x1100
    32f0:	150a1603 	strne	r1, [sl, #-1539]	; 0xfffff9fd
    32f4:	1c040000 	stcne	0, cr0, [r4], {-0}
    32f8:	00053101 	andeq	r3, r5, r1, lsl #2
    32fc:	02010100 	andeq	r0, r1, #0, 2
    3300:	27f21603 	ldrbcs	r1, [r2, r3, lsl #12]!
    3304:	1d040000 	stcne	0, cr0, [r4, #-0]
    3308:	00053101 	andeq	r3, r5, r1, lsl #2
    330c:	01010100 	mrseq	r0, (UNDEF: 17)
    3310:	20961603 	addscs	r1, r6, r3, lsl #12
    3314:	1e040000 	cdpne	0, 0, cr0, cr4, cr0, {0}
    3318:	00052c01 	andeq	r2, r5, r1, lsl #24
    331c:	00010400 	andeq	r0, r1, r0, lsl #8
    3320:	01170000 	tsteq	r7, r0
    3324:	0000005e 	andeq	r0, r0, lr, asr r0
    3328:	ca012a04 	bgt	4db40 <__first_lvl_tbl_end+0x28b40>
    332c:	0a00000b 	beq	3360 <SCTLR_ENABLE_INSTRUCTION_CACHE+0x2360>
    3330:	000018a3 	andeq	r1, r0, r3, lsr #17
    3334:	22d80a02 	sbcscs	r0, r8, #8192	; 0x2000
    3338:	0a030000 	beq	c3340 <__first_lvl_tbl_end+0x9e340>
    333c:	00002878 	andeq	r2, r0, r8, ror r8
    3340:	1f6f0a05 	svcne	0x006f0a05
    3344:	00070000 	andeq	r0, r7, r0
    3348:	0013cc18 	andseq	ip, r3, r8, lsl ip
    334c:	25040400 	strcs	r0, [r4, #-1024]	; 0xfffffc00
    3350:	000c2801 	andeq	r2, ip, r1, lsl #16
    3354:	21941600 	orrscs	r1, r4, r0, lsl #12
    3358:	27040000 	strcs	r0, [r4, -r0]
    335c:	00052c01 	andeq	r2, r5, r1, lsl #24
    3360:	1c040400 	cfstrsne	mvf0, [r4], {-0}
    3364:	22b01600 	adcscs	r1, r0, #0, 12
    3368:	28040000 	stmdacs	r4, {}	; <UNPREDICTABLE>
    336c:	00052c01 	andeq	r2, r5, r1, lsl #24
    3370:	110b0400 	tstne	fp, r0, lsl #8
    3374:	22221600 	eorcs	r1, r2, #0, 12
    3378:	29040000 	stmdbcs	r4, {}	; <UNPREDICTABLE>
    337c:	00052c01 	andeq	r2, r5, r1, lsl #24
    3380:	0f020400 	svceq	0x00020400
    3384:	1f4e1600 	svcne	0x004e1600
    3388:	2f040000 	svccs	0x00040000
    338c:	000c2801 	andeq	r2, ip, r1, lsl #16
    3390:	03040100 	movweq	r0, #16640	; 0x4100
    3394:	24491602 	strbcs	r1, [r9], #-1538	; 0xfffff9fe
    3398:	30040000 	andcc	r0, r4, r0
    339c:	00052c01 	andeq	r2, r5, r1, lsl #24
    33a0:	000b0400 	andeq	r0, fp, r0, lsl #8
    33a4:	a4050000 	strge	r0, [r5], #-0
    33a8:	1500000b 	strne	r0, [r0, #-11]
    33ac:	0123040c 			; <UNDEFINED> instruction: 0x0123040c
    33b0:	00000c5e 	andeq	r0, r0, lr, asr ip
    33b4:	001c9f19 	andseq	r9, ip, r9, lsl pc
    33b8:	01310400 	teqeq	r1, r0, lsl #8
    33bc:	00000c5e 	andeq	r0, r0, lr, asr ip
    33c0:	6f501a00 	svcvs	0x00501a00
    33c4:	32040070 	andcc	r0, r4, #112	; 0x70
    33c8:	000c6301 	andeq	r6, ip, r1, lsl #6
    33cc:	b9190400 	ldmdblt	r9, {sl}
    33d0:	04000024 	streq	r0, [r0], #-36	; 0xffffffdc
    33d4:	00970133 	addseq	r0, r7, r3, lsr r1
    33d8:	00080000 	andeq	r0, r8, r0
    33dc:	000bca05 	andeq	ip, fp, r5, lsl #20
    33e0:	0c5e0600 	mrrceq	6, 0, r0, lr, cr0
    33e4:	be180000 	cdplt	0, 1, cr0, cr8, cr0, {0}
    33e8:	04000025 	streq	r0, [r0], #-37	; 0xffffffdb
    33ec:	96013704 	strls	r3, [r1], -r4, lsl #14
    33f0:	1600000c 	strne	r0, [r0], -ip
    33f4:	00001d7f 	andeq	r1, r0, pc, ror sp
    33f8:	2c013904 	stccs	9, cr3, [r1], {4}
    33fc:	04000005 	streq	r0, [r0], #-5
    3400:	16001010 			; <UNDEFINED> instruction: 0x16001010
    3404:	000017af 	andeq	r1, r0, pc, lsr #15
    3408:	2c013a04 	stccs	10, cr3, [r1], {4}
    340c:	04000005 	streq	r0, [r0], #-5
    3410:	00000010 	andeq	r0, r0, r0, lsl r0
    3414:	005e0117 	subseq	r0, lr, r7, lsl r1
    3418:	41040000 	mrsmi	r0, (UNDEF: 4)
    341c:	000cbc01 	andeq	fp, ip, r1, lsl #24
    3420:	15830a00 	strne	r0, [r3, #2560]	; 0xa00
    3424:	0a000000 	beq	342c <SCTLR_ENABLE_INSTRUCTION_CACHE+0x242c>
    3428:	00002214 	andeq	r2, r0, r4, lsl r2
    342c:	18e70a01 	stmiane	r7!, {r0, r9, fp}^
    3430:	0a020000 	beq	83438 <__first_lvl_tbl_end+0x5e438>
    3434:	00002272 	andeq	r2, r0, r2, ror r2
    3438:	04150003 	ldreq	r0, [r5], #-3
    343c:	26013c04 	strcs	r3, [r1], -r4, lsl #24
    3440:	1600000d 	strne	r0, [r0], -sp
    3444:	00002991 	muleq	r0, r1, r9
    3448:	2c013e04 	stccs	14, cr3, [r1], {4}
    344c:	04000005 	streq	r0, [r0], #-5
    3450:	16001010 			; <UNDEFINED> instruction: 0x16001010
    3454:	0000298c 	andeq	r2, r0, ip, lsl #19
    3458:	2c013f04 	stccs	15, cr3, [r1], {4}
    345c:	04000005 	streq	r0, [r0], #-5
    3460:	16000808 	strne	r0, [r0], -r8, lsl #16
    3464:	00001ba5 	andeq	r1, r0, r5, lsr #23
    3468:	2c014004 	stccs	0, cr4, [r1], {4}
    346c:	04000005 	streq	r0, [r0], #-5
    3470:	16000701 	strne	r0, [r0], -r1, lsl #14
    3474:	00002519 	andeq	r2, r0, r9, lsl r5
    3478:	26014604 	strcs	r4, [r1], -r4, lsl #12
    347c:	0100000d 	tsteq	r0, sp
    3480:	16030502 	strne	r0, [r3], -r2, lsl #10
    3484:	00001564 	andeq	r1, r0, r4, ror #10
    3488:	2c014704 	stccs	7, cr4, [r1], {4}
    348c:	04000005 	streq	r0, [r0], #-5
    3490:	1b000104 	blne	38a8 <SCTLR_ENABLE_INSTRUCTION_CACHE+0x28a8>
    3494:	0064644f 	rsbeq	r6, r4, pc, asr #8
    3498:	2c014804 	stccs	8, cr4, [r1], {4}
    349c:	04000005 	streq	r0, [r0], #-5
    34a0:	00000001 	andeq	r0, r0, r1
    34a4:	000c9605 	andeq	r9, ip, r5, lsl #12
    34a8:	04081500 	streq	r1, [r8], #-1280	; 0xfffffb00
    34ac:	0d4f0135 	stfeqe	f0, [pc, #-212]	; 33e0 <SCTLR_ENABLE_INSTRUCTION_CACHE+0x23e0>
    34b0:	b9190000 	ldmdblt	r9, {}	; <UNPREDICTABLE>
    34b4:	04000024 	streq	r0, [r0], #-36	; 0xffffffdc
    34b8:	0d4f013b 	stfeqe	f0, [pc, #-236]	; 33d4 <SCTLR_ENABLE_INSTRUCTION_CACHE+0x23d4>
    34bc:	19000000 	stmdbne	r0, {}	; <UNPREDICTABLE>
    34c0:	000020c8 	andeq	r2, r0, r8, asr #1
    34c4:	59014904 	stmdbpl	r1, {r2, r8, fp, lr}
    34c8:	0400000d 	streq	r0, [r0], #-13
    34cc:	0c680500 	cfstr64eq	mvdx0, [r8], #-0
    34d0:	bc050000 	stclt	0, cr0, [r5], {-0}
    34d4:	0600000c 	streq	r0, [r0], -ip
    34d8:	00000d54 	andeq	r0, r0, r4, asr sp
    34dc:	4b040415 	blmi	104538 <__first_lvl_tbl_end+0xdf538>
    34e0:	000e0801 	andeq	r0, lr, r1, lsl #16
    34e4:	1fca1600 	svcne	0x00ca1600
    34e8:	4d040000 	stcmi	0, cr0, [r4, #-0]
    34ec:	00009001 	andeq	r9, r0, r1
    34f0:	18080400 	stmdane	r8, {sl}
    34f4:	1a971600 	bne	fe5c8cfc <__kernel_end+0xfe462cfc>
    34f8:	4e040000 	cdpmi	0, 0, cr0, cr4, cr0, {0}
    34fc:	00009001 	andeq	r9, r0, r1
    3500:	10080400 	andne	r0, r8, r0, lsl #8
    3504:	21e61600 	mvncs	r1, r0, lsl #12
    3508:	4f040000 	svcmi	0x00040000
    350c:	00009001 	andeq	r9, r0, r1
    3510:	09070400 	stmdbeq	r7, {sl}
    3514:	25d51600 	ldrbcs	r1, [r5, #1536]	; 0x600
    3518:	50040000 	andpl	r0, r4, r0
    351c:	00043701 	andeq	r3, r4, r1, lsl #14
    3520:	00010100 	andeq	r0, r1, r0, lsl #2
    3524:	24f91602 	ldrbtcs	r1, [r9], #1538	; 0x602
    3528:	51040000 	mrspl	r0, (UNDEF: 4)
    352c:	00043701 	andeq	r3, r4, r1, lsl #14
    3530:	07010100 	streq	r0, [r1, -r0, lsl #2]
    3534:	20231603 	eorcs	r1, r3, r3, lsl #12
    3538:	52040000 	andpl	r0, r4, #0
    353c:	00043701 	andeq	r3, r4, r1, lsl #14
    3540:	06010100 	streq	r0, [r1], -r0, lsl #2
    3544:	1e3a1603 	cfmsuba32ne	mvax0, mvax1, mvfx10, mvfx3
    3548:	53040000 	movwpl	r0, #16384	; 0x4000
    354c:	00009001 	andeq	r9, r0, r1
    3550:	04020400 	streq	r0, [r2], #-1024	; 0xfffffc00
    3554:	23d61600 	bicscs	r1, r6, #0, 12
    3558:	54040000 	strpl	r0, [r4], #-0
    355c:	00009001 	andeq	r9, r0, r1
    3560:	02020400 	andeq	r0, r2, #0, 8
    3564:	130f1600 	movwne	r1, #62976	; 0xf600
    3568:	55040000 	strpl	r0, [r4, #-0]
    356c:	00043701 	andeq	r3, r4, r1, lsl #14
    3570:	01010100 	mrseq	r0, (UNDEF: 17)
    3574:	1e111603 	cfmsub32ne	mvax0, mvfx1, mvfx1, mvfx3
    3578:	56040000 	strpl	r0, [r4], -r0
    357c:	00043701 	andeq	r3, r4, r1, lsl #14
    3580:	00010100 	andeq	r0, r1, r0, lsl #2
    3584:	01170003 	tsteq	r7, r3
    3588:	0000005e 	andeq	r0, r0, lr, asr r0
    358c:	40016e04 	andmi	r6, r1, r4, lsl #28
    3590:	0a00000e 	beq	35d0 <SCTLR_ENABLE_INSTRUCTION_CACHE+0x25d0>
    3594:	00001b63 	andeq	r1, r0, r3, ror #22
    3598:	17f40a00 	ldrbne	r0, [r4, r0, lsl #20]!
    359c:	0a010000 	beq	435a4 <__first_lvl_tbl_end+0x1e5a4>
    35a0:	00001b60 	andeq	r1, r0, r0, ror #22
    35a4:	18820a02 	stmne	r2, {r1, r9, fp}
    35a8:	0a030000 	beq	c35b0 <__first_lvl_tbl_end+0x9e5b0>
    35ac:	0000187f 	andeq	r1, r0, pc, ror r8
    35b0:	24e80a04 	strbtcs	r0, [r8], #2564	; 0xa04
    35b4:	0a050000 	beq	1435bc <dma_src_page_2+0xd5bc>
    35b8:	000024e5 	andeq	r2, r0, r5, ror #9
    35bc:	01170006 	tsteq	r7, r6
    35c0:	0000005e 	andeq	r0, r0, lr, asr r0
    35c4:	60017704 	andvs	r7, r1, r4, lsl #14
    35c8:	0a00000e 	beq	3608 <SCTLR_ENABLE_INSTRUCTION_CACHE+0x2608>
    35cc:	00002982 	andeq	r2, r0, r2, lsl #19
    35d0:	25a70a00 	strcs	r0, [r7, #2560]!	; 0xa00
    35d4:	0a010000 	beq	435dc <__first_lvl_tbl_end+0x1e5dc>
    35d8:	0000161a 	andeq	r1, r0, sl, lsl r6
    35dc:	01170002 	tsteq	r7, r2
    35e0:	0000005e 	andeq	r0, r0, lr, asr r0
    35e4:	86017d04 	strhi	r7, [r1], -r4, lsl #26
    35e8:	0a00000e 	beq	3628 <SCTLR_ENABLE_INSTRUCTION_CACHE+0x2628>
    35ec:	000016a3 	andeq	r1, r0, r3, lsr #13
    35f0:	167f0a00 	ldrbtne	r0, [pc], -r0, lsl #20
    35f4:	0a010000 	beq	435fc <__first_lvl_tbl_end+0x1e5fc>
    35f8:	00002341 	andeq	r2, r0, r1, asr #6
    35fc:	233d0a02 	teqcs	sp, #8192	; 0x2000
    3600:	00030000 	andeq	r0, r3, r0
    3604:	005e0117 	subseq	r0, lr, r7, lsl r1
    3608:	83040000 	movwhi	r0, #16384	; 0x4000
    360c:	000eac01 	andeq	sl, lr, r1, lsl #24
    3610:	27530a00 	ldrbcs	r0, [r3, -r0, lsl #20]
    3614:	0a000000 	beq	361c <SCTLR_ENABLE_INSTRUCTION_CACHE+0x261c>
    3618:	00001675 	andeq	r1, r0, r5, ror r6
    361c:	276e0a01 	strbcs	r0, [lr, -r1, lsl #20]!
    3620:	0a020000 	beq	83628 <__first_lvl_tbl_end+0x5e628>
    3624:	00001d75 	andeq	r1, r0, r5, ror sp
    3628:	01170003 	tsteq	r7, r3
    362c:	0000005e 	andeq	r0, r0, lr, asr r0
    3630:	cc01a404 	cfstrsgt	mvf10, [r1], {4}
    3634:	0a00000e 	beq	3674 <SCTLR_ENABLE_INSTRUCTION_CACHE+0x2674>
    3638:	000019ba 			; <UNDEFINED> instruction: 0x000019ba
    363c:	29670a00 	stmdbcs	r7!, {r9, fp}^
    3640:	0a010000 	beq	43648 <__first_lvl_tbl_end+0x1e648>
    3644:	00001d35 	andeq	r1, r0, r5, lsr sp
    3648:	10150002 	andsne	r0, r5, r2
    364c:	86015c04 	strhi	r5, [r1], -r4, lsl #24
    3650:	16000012 			; <UNDEFINED> instruction: 0x16000012
    3654:	00002123 	andeq	r2, r0, r3, lsr #2
    3658:	86015e04 	strhi	r5, [r1], -r4, lsl #28
    365c:	04000012 	streq	r0, [r0], #-18	; 0xffffffee
    3660:	16001e02 	strne	r1, [r0], -r2, lsl #28
    3664:	0000212e 	andeq	r2, r0, lr, lsr #2
    3668:	86015f04 	strhi	r5, [r1], -r4, lsl #30
    366c:	04000012 	streq	r0, [r0], #-18	; 0xffffffee
    3670:	16001c02 	strne	r1, [r0], -r2, lsl #24
    3674:	00002139 	andeq	r2, r0, r9, lsr r1
    3678:	86016004 	strhi	r6, [r1], -r4
    367c:	04000012 	streq	r0, [r0], #-18	; 0xffffffee
    3680:	16001a02 	strne	r1, [r0], -r2, lsl #20
    3684:	0000214f 	andeq	r2, r0, pc, asr #2
    3688:	86016104 	strhi	r6, [r1], -r4, lsl #2
    368c:	04000012 	streq	r0, [r0], #-18	; 0xffffffee
    3690:	16001802 	strne	r1, [r0], -r2, lsl #16
    3694:	00002144 	andeq	r2, r0, r4, asr #2
    3698:	86016204 	strhi	r6, [r1], -r4, lsl #4
    369c:	04000012 	streq	r0, [r0], #-18	; 0xffffffee
    36a0:	16001602 	strne	r1, [r0], -r2, lsl #12
    36a4:	000021a9 	andeq	r2, r0, r9, lsr #3
    36a8:	86016304 	strhi	r6, [r1], -r4, lsl #6
    36ac:	04000012 	streq	r0, [r0], #-18	; 0xffffffee
    36b0:	16001402 	strne	r1, [r0], -r2, lsl #8
    36b4:	0000215a 	andeq	r2, r0, sl, asr r1
    36b8:	86016404 	strhi	r6, [r1], -r4, lsl #8
    36bc:	04000012 	streq	r0, [r0], #-18	; 0xffffffee
    36c0:	16001202 	strne	r1, [r0], -r2, lsl #4
    36c4:	00002165 	andeq	r2, r0, r5, ror #2
    36c8:	86016504 	strhi	r6, [r1], -r4, lsl #10
    36cc:	04000012 	streq	r0, [r0], #-18	; 0xffffffee
    36d0:	16001002 	strne	r1, [r0], -r2
    36d4:	000021b4 			; <UNDEFINED> instruction: 0x000021b4
    36d8:	86016604 	strhi	r6, [r1], -r4, lsl #12
    36dc:	04000012 	streq	r0, [r0], #-18	; 0xffffffee
    36e0:	16000e02 	strne	r0, [r0], -r2, lsl #28
    36e4:	000021d8 	ldrdeq	r2, [r0], -r8
    36e8:	86016704 	strhi	r6, [r1], -r4, lsl #14
    36ec:	04000012 	streq	r0, [r0], #-18	; 0xffffffee
    36f0:	16000c02 	strne	r0, [r0], -r2, lsl #24
    36f4:	00002943 	andeq	r2, r0, r3, asr #18
    36f8:	86016804 	strhi	r6, [r1], -r4, lsl #16
    36fc:	04000012 	streq	r0, [r0], #-18	; 0xffffffee
    3700:	16000a02 	strne	r0, [r0], -r2, lsl #20
    3704:	00001589 	andeq	r1, r0, r9, lsl #11
    3708:	86016904 	strhi	r6, [r1], -r4, lsl #18
    370c:	04000012 	streq	r0, [r0], #-18	; 0xffffffee
    3710:	16000802 	strne	r0, [r0], -r2, lsl #16
    3714:	00001595 	muleq	r0, r5, r5
    3718:	86016a04 	strhi	r6, [r1], -r4, lsl #20
    371c:	04000012 	streq	r0, [r0], #-18	; 0xffffffee
    3720:	16000602 	strne	r0, [r0], -r2, lsl #12
    3724:	000015a1 	andeq	r1, r0, r1, lsr #11
    3728:	86016b04 	strhi	r6, [r1], -r4, lsl #22
    372c:	04000012 	streq	r0, [r0], #-18	; 0xffffffee
    3730:	16000402 	strne	r0, [r0], -r2, lsl #8
    3734:	000015ad 	andeq	r1, r0, sp, lsr #11
    3738:	86016c04 	strhi	r6, [r1], -r4, lsl #24
    373c:	04000012 	streq	r0, [r0], #-18	; 0xffffffee
    3740:	16000202 	strne	r0, [r0], -r2, lsl #4
    3744:	000015b9 			; <UNDEFINED> instruction: 0x000015b9
    3748:	86016d04 	strhi	r6, [r1], -r4, lsl #26
    374c:	04000012 	streq	r0, [r0], #-18	; 0xffffffee
    3750:	16000002 	strne	r0, [r0], -r2
    3754:	00001f0a 	andeq	r1, r0, sl, lsl #30
    3758:	90017604 	andls	r7, r1, r4, lsl #12
    375c:	01000012 	tsteq	r0, r2, lsl r0
    3760:	16040503 	strne	r0, [r4], -r3, lsl #10
    3764:	00002823 	andeq	r2, r0, r3, lsr #16
    3768:	9a017b04 	bls	62380 <__first_lvl_tbl_end+0x3d380>
    376c:	01000012 	tsteq	r0, r2, lsl r0
    3770:	16040302 	strne	r0, [r4], -r2, lsl #6
    3774:	00002461 	andeq	r2, r0, r1, ror #8
    3778:	37017c04 	strcc	r7, [r1, -r4, lsl #24]
    377c:	01000004 	tsteq	r0, r4
    3780:	16040201 	strne	r0, [r4], -r1, lsl #4
    3784:	00002677 	andeq	r2, r0, r7, ror r6
    3788:	a4018204 	strge	r8, [r1], #-516	; 0xfffffdfc
    378c:	01000012 	tsteq	r0, r2, lsl r0
    3790:	16040002 	strne	r0, [r4], -r2
    3794:	000026a3 	andeq	r2, r0, r3, lsr #13
    3798:	ae018804 	cdpge	8, 0, cr8, cr1, cr4, {0}
    379c:	01000012 	tsteq	r0, r2, lsl r0
    37a0:	16050602 	strne	r0, [r5], -r2, lsl #12
    37a4:	000026d9 	ldrdeq	r2, [r0], -r9
    37a8:	86018904 	strhi	r8, [r1], -r4, lsl #18
    37ac:	04000012 	streq	r0, [r0], #-18	; 0xffffffee
    37b0:	16041204 	strne	r1, [r4], -r4, lsl #4
    37b4:	0000275d 	andeq	r2, r0, sp, asr r7
    37b8:	86018a04 	strhi	r8, [r1], -r4, lsl #20
    37bc:	04000012 	streq	r0, [r0], #-18	; 0xffffffee
    37c0:	16040e04 	strne	r0, [r4], -r4, lsl #28
    37c4:	00001ec8 	andeq	r1, r0, r8, asr #29
    37c8:	b3018b04 	movwlt	r8, #6916	; 0x1b04
    37cc:	01000012 	tsteq	r0, r2, lsl r0
    37d0:	16060501 	strne	r0, [r6], -r1, lsl #10
    37d4:	000012e2 	andeq	r1, r0, r2, ror #5
    37d8:	b3018c04 	movwlt	r8, #7172	; 0x1c04
    37dc:	01000012 	tsteq	r0, r2, lsl r0
    37e0:	16060401 	strne	r0, [r6], -r1, lsl #8
    37e4:	00002598 	muleq	r0, r8, r5
    37e8:	b3018d04 	movwlt	r8, #7428	; 0x1d04
    37ec:	01000012 	tsteq	r0, r2, lsl r0
    37f0:	16060301 	strne	r0, [r6], -r1, lsl #6
    37f4:	000015d0 	ldrdeq	r1, [r0], -r0
    37f8:	86018e04 	strhi	r8, [r1], -r4, lsl #28
    37fc:	04000012 	streq	r0, [r0], #-18	; 0xffffffee
    3800:	16040a01 	strne	r0, [r4], -r1, lsl #20
    3804:	0000179f 	muleq	r0, pc, r7	; <UNPREDICTABLE>
    3808:	86018f04 	strhi	r8, [r1], -r4, lsl #30
    380c:	04000012 	streq	r0, [r0], #-18	; 0xffffffee
    3810:	16040802 	strne	r0, [r4], -r2, lsl #16
    3814:	0000156c 	andeq	r1, r0, ip, ror #10
    3818:	86019004 	strhi	r9, [r1], -r4
    381c:	04000012 	streq	r0, [r0], #-18	; 0xffffffee
    3820:	16040602 	strne	r0, [r4], -r2, lsl #12
    3824:	0000254b 	andeq	r2, r0, fp, asr #10
    3828:	86019104 	strhi	r9, [r1], -r4, lsl #2
    382c:	04000012 	streq	r0, [r0], #-18	; 0xffffffee
    3830:	16040105 	strne	r0, [r4], -r5, lsl #2
    3834:	0000250d 	andeq	r2, r0, sp, lsl #10
    3838:	b3019204 	movwlt	r9, #4612	; 0x1204
    383c:	01000012 	tsteq	r0, r2, lsl r0
    3840:	16070001 	strne	r0, [r7], -r1
    3844:	0000149f 	muleq	r0, pc, r4	; <UNPREDICTABLE>
    3848:	86019304 	strhi	r9, [r1], -r4, lsl #6
    384c:	04000012 	streq	r0, [r0], #-18	; 0xffffffee
    3850:	16081c04 	strne	r1, [r8], -r4, lsl #24
    3854:	0000228d 	andeq	r2, r0, sp, lsl #5
    3858:	86019404 	strhi	r9, [r1], -r4, lsl #8
    385c:	04000012 	streq	r0, [r0], #-18	; 0xffffffee
    3860:	16081903 	strne	r1, [r8], -r3, lsl #18
    3864:	000018f9 	strdeq	r1, [r0], -r9
    3868:	b3019504 	movwlt	r9, #5380	; 0x1504
    386c:	01000012 	tsteq	r0, r2, lsl r0
    3870:	1b080001 	blne	20387c <__kernel_end+0x9d87c>
    3874:	00633249 	rsbeq	r3, r3, r9, asr #4
    3878:	b3019604 	movwlt	r9, #5636	; 0x1604
    387c:	01000012 	tsteq	r0, r2, lsl r0
    3880:	16090701 	strne	r0, [r9], -r1, lsl #14
    3884:	00001c1a 	andeq	r1, r0, sl, lsl ip
    3888:	b3019704 	movwlt	r9, #5892	; 0x1704
    388c:	01000012 	tsteq	r0, r2, lsl r0
    3890:	16090601 	strne	r0, [r9], -r1, lsl #12
    3894:	000017d0 	ldrdeq	r1, [r0], -r0
    3898:	b3019804 	movwlt	r9, #6148	; 0x1804
    389c:	01000012 	tsteq	r0, r2, lsl r0
    38a0:	16090501 	strne	r0, [r9], -r1, lsl #10
    38a4:	0000223d 	andeq	r2, r0, sp, lsr r2
    38a8:	b3019904 	movwlt	r9, #6404	; 0x1904
    38ac:	01000012 	tsteq	r0, r2, lsl r0
    38b0:	16090401 	strne	r0, [r9], -r1, lsl #8
    38b4:	00001a83 	andeq	r1, r0, r3, lsl #21
    38b8:	b3019a04 	movwlt	r9, #6660	; 0x1a04
    38bc:	01000012 	tsteq	r0, r2, lsl r0
    38c0:	16090301 	strne	r0, [r9], -r1, lsl #6
    38c4:	00001ca4 	andeq	r1, r0, r4, lsr #25
    38c8:	b3019b04 	movwlt	r9, #6916	; 0x1b04
    38cc:	01000012 	tsteq	r0, r2, lsl r0
    38d0:	16090201 	strne	r0, [r9], -r1, lsl #4
    38d4:	00002480 	andeq	r2, r0, r0, lsl #9
    38d8:	b3019c04 	movwlt	r9, #7172	; 0x1c04
    38dc:	01000012 	tsteq	r0, r2, lsl r0
    38e0:	16090101 	strne	r0, [r9], -r1, lsl #2
    38e4:	0000140e 	andeq	r1, r0, lr, lsl #8
    38e8:	b3019d04 	movwlt	r9, #7428	; 0x1d04
    38ec:	01000012 	tsteq	r0, r2, lsl r0
    38f0:	16090001 	strne	r0, [r9], -r1
    38f4:	0000146b 	andeq	r1, r0, fp, ror #8
    38f8:	86019e04 	strhi	r9, [r1], -r4, lsl #28
    38fc:	04000012 	streq	r0, [r0], #-18	; 0xffffffee
    3900:	16080010 			; <UNDEFINED> instruction: 0x16080010
    3904:	0000284d 	andeq	r2, r0, sp, asr #16
    3908:	86019f04 	strhi	r9, [r1], -r4, lsl #30
    390c:	04000012 	streq	r0, [r0], #-18	; 0xffffffee
    3910:	160c1c04 	strne	r1, [ip], -r4, lsl #24
    3914:	00002363 	andeq	r2, r0, r3, ror #6
    3918:	b301a004 	movwlt	sl, #4100	; 0x1004
    391c:	01000012 	tsteq	r0, r2, lsl r0
    3920:	160c0301 	strne	r0, [ip], -r1, lsl #6
    3924:	000021ee 	andeq	r2, r0, lr, ror #3
    3928:	b301a104 	movwlt	sl, #4356	; 0x1104
    392c:	01000012 	tsteq	r0, r2, lsl r0
    3930:	160c0201 	strne	r0, [ip], -r1, lsl #4
    3934:	00002801 	andeq	r2, r0, r1, lsl #16
    3938:	b301a204 	movwlt	sl, #4612	; 0x1204
    393c:	01000012 	tsteq	r0, r2, lsl r0
    3940:	160c0101 	strne	r0, [ip], -r1, lsl #2
    3944:	000028ab 	andeq	r2, r0, fp, lsr #17
    3948:	8601a304 	strhi	sl, [r1], -r4, lsl #6
    394c:	04000012 	streq	r0, [r0], #-18	; 0xffffffee
    3950:	160c1207 	strne	r1, [ip], -r7, lsl #4
    3954:	00002035 	andeq	r2, r0, r5, lsr r0
    3958:	bd01a804 	stclt	8, cr10, [r1, #-16]
    395c:	01000012 	tsteq	r0, r2, lsl r0
    3960:	160d0002 	strne	r0, [sp], -r2
    3964:	00001e96 	muleq	r0, r6, lr
    3968:	8601a904 	strhi	sl, [r1], -r4, lsl #18
    396c:	04000012 	streq	r0, [r0], #-18	; 0xffffffee
    3970:	160c0c04 	strne	r0, [ip], -r4, lsl #24
    3974:	000023e5 	andeq	r2, r0, r5, ror #7
    3978:	b301aa04 	movwlt	sl, #6660	; 0x1a04
    397c:	01000012 	tsteq	r0, r2, lsl r0
    3980:	160e0301 	strne	r0, [lr], -r1, lsl #6
    3984:	00001703 	andeq	r1, r0, r3, lsl #14
    3988:	b301ab04 	movwlt	sl, #6916	; 0x1b04
    398c:	01000012 	tsteq	r0, r2, lsl r0
    3990:	160e0201 	strne	r0, [lr], -r1, lsl #4
    3994:	0000291b 	andeq	r2, r0, fp, lsl r9
    3998:	b301ac04 	movwlt	sl, #7172	; 0x1c04
    399c:	01000012 	tsteq	r0, r2, lsl r0
    39a0:	160e0101 	strne	r0, [lr], -r1, lsl #2
    39a4:	00001841 	andeq	r1, r0, r1, asr #16
    39a8:	b301ad04 	movwlt	sl, #7428	; 0x1d04
    39ac:	01000012 	tsteq	r0, r2, lsl r0
    39b0:	160e0001 	strne	r0, [lr], -r1
    39b4:	00001a6b 	andeq	r1, r0, fp, ror #20
    39b8:	b301ae04 	movwlt	sl, #7684	; 0x1e04
    39bc:	01000012 	tsteq	r0, r2, lsl r0
    39c0:	160f0701 	strne	r0, [pc], -r1, lsl #14
    39c4:	00001327 	andeq	r1, r0, r7, lsr #6
    39c8:	b301af04 	movwlt	sl, #7940	; 0x1f04
    39cc:	01000012 	tsteq	r0, r2, lsl r0
    39d0:	160f0601 	strne	r0, [pc], -r1, lsl #12
    39d4:	00002855 	andeq	r2, r0, r5, asr r8
    39d8:	8601b004 	strhi	fp, [r1], -r4
    39dc:	04000012 	streq	r0, [r0], #-18	; 0xffffffee
    39e0:	160c0204 	strne	r0, [ip], -r4, lsl #4
    39e4:	0000171a 	andeq	r1, r0, sl, lsl r7
    39e8:	b301b104 	movwlt	fp, #4356	; 0x1104
    39ec:	01000012 	tsteq	r0, r2, lsl r0
    39f0:	160f0101 	strne	r0, [pc], -r1, lsl #2
    39f4:	000027b3 			; <UNDEFINED> instruction: 0x000027b3
    39f8:	b301b204 	movwlt	fp, #4612	; 0x1204
    39fc:	01000012 	tsteq	r0, r2, lsl r0
    3a00:	000f0001 	andeq	r0, pc, r1
    3a04:	00052c06 	andeq	r2, r5, r6, lsl #24
    3a08:	0e080500 	cfsh32eq	mvfx0, mvfx8, #0
    3a0c:	8b060000 	blhi	183a14 <__kernel_end+0x1da14>
    3a10:	05000012 	streq	r0, [r0, #-18]	; 0xffffffee
    3a14:	00000e40 	andeq	r0, r0, r0, asr #28
    3a18:	00129506 	andseq	r9, r2, r6, lsl #10
    3a1c:	0e600500 	cdpeq	5, 6, cr0, cr0, cr0, {0}
    3a20:	9f060000 	svcls	0x00060000
    3a24:	05000012 	streq	r0, [r0, #-18]	; 0xffffffee
    3a28:	00000e86 	andeq	r0, r0, r6, lsl #29
    3a2c:	0012a906 	andseq	sl, r2, r6, lsl #18
    3a30:	05310600 	ldreq	r0, [r1, #-1536]!	; 0xfffffa00
    3a34:	ac050000 	stcge	0, cr0, [r5], {-0}
    3a38:	0600000e 	streq	r0, [r0], -lr
    3a3c:	000012b8 			; <UNDEFINED> instruction: 0x000012b8
    3a40:	b4040415 	strlt	r0, [r4], #-1045	; 0xfffffbeb
    3a44:	0013cc01 	andseq	ip, r3, r1, lsl #24
    3a48:	26b51600 	ldrtcs	r1, [r5], r0, lsl #12
    3a4c:	b6040000 	strlt	r0, [r4], -r0
    3a50:	00053101 	andeq	r3, r5, r1, lsl #2
    3a54:	07010100 	streq	r0, [r1, -r0, lsl #2]
    3a58:	292f1600 	stmdbcs	pc!, {r9, sl, ip}	; <UNPREDICTABLE>
    3a5c:	b7040000 	strlt	r0, [r4, -r0]
    3a60:	00053101 	andeq	r3, r5, r1, lsl #2
    3a64:	06010100 	streq	r0, [r1], -r0, lsl #2
    3a68:	20cf1600 	sbccs	r1, pc, r0, lsl #12
    3a6c:	b8040000 	stmdalt	r4, {}	; <UNPREDICTABLE>
    3a70:	00052c01 	andeq	r2, r5, r1, lsl #24
    3a74:	1a040400 	bne	104a7c <__first_lvl_tbl_end+0xdfa7c>
    3a78:	24a11600 	strtcs	r1, [r1], #1536	; 0x600
    3a7c:	b9040000 	stmdblt	r4, {}	; <UNPREDICTABLE>
    3a80:	00053101 	andeq	r3, r5, r1, lsl #2
    3a84:	01010100 	mrseq	r0, (UNDEF: 17)
    3a88:	25871600 	strcs	r1, [r7, #1536]	; 0x600
    3a8c:	ba040000 	blt	103a94 <__first_lvl_tbl_end+0xdea94>
    3a90:	00053101 	andeq	r3, r5, r1, lsl #2
    3a94:	00010100 	andeq	r0, r1, r0, lsl #2
    3a98:	17291600 	strne	r1, [r9, -r0, lsl #12]!
    3a9c:	bb040000 	bllt	103aa4 <__first_lvl_tbl_end+0xdeaa4>
    3aa0:	00052c01 	andeq	r2, r5, r1, lsl #24
    3aa4:	13050400 	movwne	r0, #21504	; 0x5400
    3aa8:	22b51600 	adcscs	r1, r5, #0, 12
    3aac:	bc040000 	stclt	0, cr0, [r4], {-0}
    3ab0:	00052c01 	andeq	r2, r5, r1, lsl #24
    3ab4:	11020400 	tstne	r2, r0, lsl #8
    3ab8:	178f1600 	strne	r1, [pc, r0, lsl #12]
    3abc:	bd040000 	stclt	0, cr0, [r4, #-0]
    3ac0:	00053101 	andeq	r3, r5, r1, lsl #2
    3ac4:	00010100 	andeq	r0, r1, r0, lsl #2
    3ac8:	1c821601 	stcne	6, cr1, [r2], {1}
    3acc:	be040000 	cdplt	0, 0, cr0, cr4, cr0, {0}
    3ad0:	00053101 	andeq	r3, r5, r1, lsl #2
    3ad4:	07010100 	streq	r0, [r1, -r0, lsl #2]
    3ad8:	1d5c1602 	ldclne	6, cr1, [ip, #-8]
    3adc:	bf040000 	svclt	0x00040000
    3ae0:	00052c01 	andeq	r2, r5, r1, lsl #24
    3ae4:	0b040400 	bleq	104aec <__first_lvl_tbl_end+0xdfaec>
    3ae8:	148b1600 	strne	r1, [fp], #1536	; 0x600
    3aec:	c0040000 	andgt	r0, r4, r0
    3af0:	00052c01 	andeq	r2, r5, r1, lsl #24
    3af4:	08030400 	stmdaeq	r3, {sl}
    3af8:	19491600 	stmdbne	r9, {r9, sl, ip}^
    3afc:	c1040000 	mrsgt	r0, (UNDEF: 4)
    3b00:	00053101 	andeq	r3, r5, r1, lsl #2
    3b04:	07010100 	streq	r0, [r1, -r0, lsl #2]
    3b08:	22f31603 	rscscs	r1, r3, #3145728	; 0x300000
    3b0c:	c2040000 	andgt	r0, r4, #0
    3b10:	00052c01 	andeq	r2, r5, r1, lsl #24
    3b14:	04030400 	streq	r0, [r3], #-1024	; 0xfffffc00
    3b18:	23d61600 	bicscs	r1, r6, #0, 12
    3b1c:	c3040000 	movwgt	r0, #16384	; 0x4000
    3b20:	00052c01 	andeq	r2, r5, r1, lsl #24
    3b24:	02020400 	andeq	r0, r2, #0, 8
    3b28:	15dc1600 	ldrbne	r1, [ip, #1536]	; 0x600
    3b2c:	c4040000 	strgt	r0, [r4], #-0
    3b30:	00053101 	andeq	r3, r5, r1, lsl #2
    3b34:	01010100 	mrseq	r0, (UNDEF: 17)
    3b38:	1e4b1603 	cdpne	6, 4, cr1, cr11, cr3, {0}
    3b3c:	c5040000 	strgt	r0, [r4, #-0]
    3b40:	00053101 	andeq	r3, r5, r1, lsl #2
    3b44:	00010100 	andeq	r0, r1, r0, lsl #2
    3b48:	04150003 	ldreq	r0, [r5], #-3
    3b4c:	5601c904 	strpl	ip, [r1], -r4, lsl #18
    3b50:	16000014 			; <UNDEFINED> instruction: 0x16000014
    3b54:	0000060b 	andeq	r0, r0, fp, lsl #12
    3b58:	8601cb04 	strhi	ip, [r1], -r4, lsl #22
    3b5c:	04000012 	streq	r0, [r0], #-18	; 0xffffffee
    3b60:	16001010 			; <UNDEFINED> instruction: 0x16001010
    3b64:	0000196a 	andeq	r1, r0, sl, ror #18
    3b68:	2c01cc04 	stccs	12, cr12, [r1], {4}
    3b6c:	04000005 	streq	r0, [r0], #-5
    3b70:	16000c04 	strne	r0, [r0], -r4, lsl #24
    3b74:	00002778 	andeq	r2, r0, r8, ror r7
    3b78:	3101cd04 	tstcc	r1, r4, lsl #26
    3b7c:	01000005 	tsteq	r0, r5
    3b80:	16020301 	strne	r0, [r2], -r1, lsl #6
    3b84:	00001d27 	andeq	r1, r0, r7, lsr #26
    3b88:	3101ce04 	tstcc	r1, r4, lsl #28
    3b8c:	01000005 	tsteq	r0, r5
    3b90:	16020201 	strne	r0, [r2], -r1, lsl #4
    3b94:	000027e3 	andeq	r2, r0, r3, ror #15
    3b98:	3101cf04 	tstcc	r1, r4, lsl #30
    3b9c:	01000005 	tsteq	r0, r5
    3ba0:	16020101 	strne	r0, [r2], -r1, lsl #2
    3ba4:	00001dfb 	strdeq	r1, [r0], -fp
    3ba8:	3101d004 	tstcc	r1, r4
    3bac:	01000005 	tsteq	r0, r5
    3bb0:	16020001 	strne	r0, [r2], -r1
    3bb4:	00002744 	andeq	r2, r0, r4, asr #14
    3bb8:	2c01d104 	stfcsd	f5, [r1], {4}
    3bbc:	04000005 	streq	r0, [r0], #-5
    3bc0:	16000107 	strne	r0, [r0], -r7, lsl #2
    3bc4:	00002304 	andeq	r2, r0, r4, lsl #6
    3bc8:	b301d204 	movwlt	sp, #4612	; 0x1204
    3bcc:	01000012 	tsteq	r0, r2, lsl r0
    3bd0:	00030001 	andeq	r0, r3, r1
    3bd4:	d404041c 	strle	r0, [r4], #-1052	; 0xfffffbe4
    3bd8:	00147801 	andseq	r7, r4, r1, lsl #16
    3bdc:	206d1d00 	rsbcs	r1, sp, r0, lsl #26
    3be0:	d5040000 	strle	r0, [r4, #-0]
    3be4:	00009c01 	andeq	r9, r0, r1, lsl #24
    3be8:	266d1d00 	strbtcs	r1, [sp], -r0, lsl #26
    3bec:	d6040000 	strle	r0, [r4], -r0
    3bf0:	00009701 	andeq	r9, r0, r1, lsl #14
    3bf4:	04150000 	ldreq	r0, [r5], #-0
    3bf8:	5201d804 	andpl	sp, r1, #4, 16	; 0x40000
    3bfc:	16000015 			; <UNDEFINED> instruction: 0x16000015
    3c00:	000024da 	ldrdeq	r2, [r0], -sl
    3c04:	3101da04 	tstcc	r1, r4, lsl #20
    3c08:	01000005 	tsteq	r0, r5
    3c0c:	16000701 	strne	r0, [r0], -r1, lsl #14
    3c10:	000013e9 	andeq	r1, r0, r9, ror #7
    3c14:	3101db04 	tstcc	r1, r4, lsl #22
    3c18:	01000005 	tsteq	r0, r5
    3c1c:	16000601 	strne	r0, [r0], -r1, lsl #12
    3c20:	00001ac0 	andeq	r1, r0, r0, asr #21
    3c24:	3101dc04 	tstcc	r1, r4, lsl #24
    3c28:	01000005 	tsteq	r0, r5
    3c2c:	16000501 	strne	r0, [r0], -r1, lsl #10
    3c30:	000025c7 	andeq	r2, r0, r7, asr #11
    3c34:	3101dd04 	tstcc	r1, r4, lsl #26
    3c38:	01000005 	tsteq	r0, r5
    3c3c:	16000401 	strne	r0, [r0], -r1, lsl #8
    3c40:	00001d8c 	andeq	r1, r0, ip, lsl #27
    3c44:	b301de04 	movwlt	sp, #7684	; 0x1e04
    3c48:	01000012 	tsteq	r0, r2, lsl r0
    3c4c:	16000301 	strne	r0, [r0], -r1, lsl #6
    3c50:	000018ca 	andeq	r1, r0, sl, asr #17
    3c54:	b301df04 	movwlt	sp, #7940	; 0x1f04
    3c58:	01000012 	tsteq	r0, r2, lsl r0
    3c5c:	16000201 	strne	r0, [r0], -r1, lsl #4
    3c60:	0000286e 	andeq	r2, r0, lr, ror #16
    3c64:	b301e004 	movwlt	lr, #4100	; 0x1004
    3c68:	01000012 	tsteq	r0, r2, lsl r0
    3c6c:	16000101 	strne	r0, [r0], -r1, lsl #2
    3c70:	000023c2 	andeq	r2, r0, r2, asr #7
    3c74:	3101e104 	tstcc	r1, r4, lsl #2
    3c78:	01000005 	tsteq	r0, r5
    3c7c:	16000001 	strne	r0, [r0], -r1
    3c80:	0000248b 	andeq	r2, r0, fp, lsl #9
    3c84:	3101e204 	tstcc	r1, r4, lsl #4
    3c88:	01000005 	tsteq	r0, r5
    3c8c:	16010701 	strne	r0, [r1], -r1, lsl #14
    3c90:	00001805 	andeq	r1, r0, r5, lsl #16
    3c94:	b301e304 	movwlt	lr, #4868	; 0x1304
    3c98:	01000012 	tsteq	r0, r2, lsl r0
    3c9c:	16010601 	strne	r0, [r1], -r1, lsl #12
    3ca0:	0000227e 	andeq	r2, r0, lr, ror r2
    3ca4:	2c01e404 	cfstrscs	mvf14, [r1], {4}
    3ca8:	04000005 	streq	r0, [r0], #-5
    3cac:	16001006 	strne	r1, [r0], -r6
    3cb0:	00001ee2 	andeq	r1, r0, r2, ror #29
    3cb4:	2c01e504 	cfstr32cs	mvfx14, [r1], {4}
    3cb8:	04000005 	streq	r0, [r0], #-5
    3cbc:	16000c04 	strne	r0, [r0], -r4, lsl #24
    3cc0:	00001780 	andeq	r1, r0, r0, lsl #15
    3cc4:	2c01e604 	stccs	6, cr14, [r1], {4}
    3cc8:	04000005 	streq	r0, [r0], #-5
    3ccc:	0000000c 	andeq	r0, r0, ip
    3cd0:	ea044015 	b	113d2c <__first_lvl_tbl_end+0xeed2c>
    3cd4:	00157601 	andseq	r7, r5, r1, lsl #12
    3cd8:	1a8e1900 	bne	fe38a0e0 <__kernel_end+0xfe2240e0>
    3cdc:	ec040000 	stc	0, cr0, [r4], {-0}
    3ce0:	000d4f01 	andeq	r4, sp, r1, lsl #30
    3ce4:	b5190000 	ldrlt	r0, [r9, #-0]
    3ce8:	04000024 	streq	r0, [r0], #-36	; 0xffffffdc
    3cec:	158d01ed 	strne	r0, [sp, #493]	; 0x1ed
    3cf0:	00040000 	andeq	r0, r4, r0
    3cf4:	000d4f1e 	andeq	r4, sp, lr, lsl pc
    3cf8:	00158600 	andseq	r8, r5, r0, lsl #12
    3cfc:	15861f00 	strne	r1, [r6, #3840]	; 0xf00
    3d00:	000e0000 	andeq	r0, lr, r0
    3d04:	43070402 	movwmi	r0, #29698	; 0x7402
    3d08:	05000003 	streq	r0, [r0, #-3]
    3d0c:	00001576 	andeq	r1, r0, r6, ror r5
    3d10:	00271520 	eoreq	r1, r7, r0, lsr #10
    3d14:	04040000 	streq	r0, [r4], #-0
    3d18:	0016c4bb 			; <UNDEFINED> instruction: 0x0016c4bb
    3d1c:	22cd2100 	sbccs	r2, sp, #0, 2
    3d20:	d5040000 	strle	r0, [r4, #-0]
    3d24:	000016c4 	andeq	r1, r0, r4, asr #13
    3d28:	26cc2100 	strbcs	r2, [ip], r0, lsl #2
    3d2c:	e2040000 	and	r0, r4, #0
    3d30:	000016c9 	andeq	r1, r0, r9, asr #13
    3d34:	68411a04 	stmdavs	r1, {r2, r9, fp, ip}^
    3d38:	00040062 	andeq	r0, r4, r2, rrx
    3d3c:	0016ce01 	andseq	ip, r6, r1, lsl #28
    3d40:	551a0800 	ldrpl	r0, [sl, #-2048]	; 0xfffff800
    3d44:	04006273 	streq	r6, [r0], #-627	; 0xfffffd8d
    3d48:	16d3011f 			; <UNDEFINED> instruction: 0x16d3011f
    3d4c:	190c0000 	stmdbne	ip, {}	; <UNPREDICTABLE>
    3d50:	0000225c 	andeq	r2, r0, ip, asr r2
    3d54:	d8012004 	stmdale	r1, {r2, sp}
    3d58:	10000016 	andne	r0, r0, r6, lsl r0
    3d5c:	001e0719 	andseq	r0, lr, r9, lsl r7
    3d60:	01210400 			; <UNDEFINED> instruction: 0x01210400
    3d64:	000016dd 	ldrdeq	r1, [r0], -sp
    3d68:	1db91914 	ldcne	9, cr1, [r9, #80]!	; 0x50
    3d6c:	22040000 	andcs	r0, r4, #0
    3d70:	0016dd01 	andseq	sp, r6, r1, lsl #26
    3d74:	ee191800 	cdp	8, 1, cr1, cr9, cr0, {0}
    3d78:	0400001f 	streq	r0, [r0], #-31	; 0xffffffe1
    3d7c:	16e20134 			; <UNDEFINED> instruction: 0x16e20134
    3d80:	191c0000 	ldmdbne	ip, {}	; <UNPREDICTABLE>
    3d84:	00001b08 	andeq	r1, r0, r8, lsl #22
    3d88:	e7014a04 	str	r4, [r1, -r4, lsl #20]
    3d8c:	28000016 	stmdacs	r0, {r1, r2, r4}
    3d90:	0026f019 	eoreq	pc, r6, r9, lsl r0	; <UNPREDICTABLE>
    3d94:	01570400 	cmpeq	r7, r0, lsl #8
    3d98:	000016ec 	andeq	r1, r0, ip, ror #13
    3d9c:	204e1930 	subcs	r1, lr, r0, lsr r9
    3da0:	58040000 	stmdapl	r4, {}	; <UNPREDICTABLE>
    3da4:	00009701 	andeq	r9, r0, r1, lsl #14
    3da8:	08193400 	ldmdaeq	r9, {sl, ip, sp}
    3dac:	04000025 	streq	r0, [r0], #-37	; 0xffffffdb
    3db0:	00970159 	addseq	r0, r7, r9, asr r1
    3db4:	19380000 	ldmdbne	r8!, {}	; <UNPREDICTABLE>
    3db8:	00001b45 	andeq	r1, r0, r5, asr #22
    3dbc:	97015a04 	strls	r5, [r1, -r4, lsl #20]
    3dc0:	3c000000 	stccc	0, cr0, [r0], {-0}
    3dc4:	001fdb19 	andseq	sp, pc, r9, lsl fp	; <UNPREDICTABLE>
    3dc8:	015b0400 	cmpeq	fp, r0, lsl #8
    3dcc:	0000009c 	muleq	r0, ip, r0
    3dd0:	19271940 	stmdbne	r7!, {r6, r8, fp, ip}
    3dd4:	b3040000 	movwlt	r0, #16384	; 0x4000
    3dd8:	0016f601 	andseq	pc, r6, r1, lsl #12
    3ddc:	c9194400 	ldmdbgt	r9, {sl, lr}
    3de0:	04000027 	streq	r0, [r0], #-39	; 0xffffffd9
    3de4:	16fb01c6 	ldrbtne	r0, [fp], r6, asr #3
    3de8:	19540000 	ldmdbne	r4, {}^	; <UNPREDICTABLE>
    3dec:	00002076 	andeq	r2, r0, r6, ror r0
    3df0:	1f01c704 	svcne	0x0001c704
    3df4:	58000017 	stmdapl	r0, {r0, r1, r2, r4}
    3df8:	001cd719 	andseq	sp, ip, r9, lsl r7
    3dfc:	01d30400 	bicseq	r0, r3, r0, lsl #8
    3e00:	00001724 	andeq	r1, r0, r4, lsr #14
    3e04:	17291480 	strne	r1, [r9, -r0, lsl #9]!
    3e08:	19840000 	stmibne	r4, {}	; <UNPREDICTABLE>
    3e0c:	00001f42 	andeq	r1, r0, r2, asr #30
    3e10:	2e01e704 	cdpcs	7, 0, cr14, cr1, cr4, {0}
    3e14:	88000017 	stmdahi	r0, {r0, r1, r2, r4}
    3e18:	00195a19 	andseq	r5, r9, r9, lsl sl
    3e1c:	01e90400 	mvneq	r0, r0, lsl #8
    3e20:	00001743 	andeq	r1, r0, r3, asr #14
    3e24:	1b0b228c 	blne	2cc85c <__kernel_end+0x16685c>
    3e28:	ee040000 	cdp	0, 0, cr0, cr4, cr0, {0}
    3e2c:	00174801 	andseq	r4, r7, r1, lsl #16
    3e30:	22010000 	andcs	r0, r1, #0
    3e34:	00002112 	andeq	r2, r0, r2, lsl r1
    3e38:	5e01ef04 	cdppl	15, 0, cr14, cr1, cr4, {0}
    3e3c:	40000017 	andmi	r0, r0, r7, lsl r0
    3e40:	c2050001 	andgt	r0, r5, #1
    3e44:	05000006 	streq	r0, [r0, #-6]
    3e48:	00000815 	andeq	r0, r0, r5, lsl r8
    3e4c:	00090f05 	andeq	r0, r9, r5, lsl #30
    3e50:	09ea0500 	stmibeq	sl!, {r8, sl}^
    3e54:	f3050000 	vhadd.u8	d0, d5, d0
    3e58:	05000005 	streq	r0, [r0, #-5]
    3e5c:	0000024a 	andeq	r0, r0, sl, asr #4
    3e60:	000c2d05 	andeq	r2, ip, r5, lsl #26
    3e64:	0d2b0500 	cfstr32eq	mvfx0, [fp, #-0]
    3e68:	5e050000 	cdppl	0, 0, cr0, cr5, cr0, {0}
    3e6c:	0500000d 	streq	r0, [r0, #-13]
    3e70:	00000ecc 	andeq	r0, r0, ip, asr #29
    3e74:	0016f106 	andseq	pc, r6, r6, lsl #2
    3e78:	12c20500 	sbcne	r0, r2, #0, 10
    3e7c:	151e0000 	ldrne	r0, [lr, #-0]
    3e80:	10000017 	andne	r0, r0, r7, lsl r0
    3e84:	1f000017 	svcne	0x00000017
    3e88:	00001586 	andeq	r1, r0, r6, lsl #11
    3e8c:	53050027 	movwpl	r0, #20519	; 0x5027
    3e90:	06000000 	streq	r0, [r0], -r0
    3e94:	00001710 	andeq	r1, r0, r0, lsl r7
    3e98:	00170005 	andseq	r0, r7, r5
    3e9c:	171a0600 	ldrne	r0, [sl, -r0, lsl #12]
    3ea0:	cc050000 	stcgt	0, cr0, [r5], {-0}
    3ea4:	05000013 	streq	r0, [r0, #-19]	; 0xffffffed
    3ea8:	00001456 	andeq	r1, r0, r6, asr r4
    3eac:	00147805 	andseq	r7, r4, r5, lsl #16
    3eb0:	17101e00 	ldrne	r1, [r0, -r0, lsl #28]
    3eb4:	17430000 	strbne	r0, [r3, -r0]
    3eb8:	861f0000 	ldrhi	r0, [pc], -r0
    3ebc:	73000015 	movwvc	r0, #21
    3ec0:	17330500 	ldrne	r0, [r3, -r0, lsl #10]!
    3ec4:	52050000 	andpl	r0, r5, #0
    3ec8:	1e000015 	mcrne	0, 0, r0, cr0, cr5, {0}
    3ecc:	00001710 	andeq	r1, r0, r0, lsl r7
    3ed0:	0000175e 	andeq	r1, r0, lr, asr r7
    3ed4:	00158623 	andseq	r8, r5, r3, lsr #12
    3ed8:	0002bf00 	andeq	fp, r2, r0, lsl #30
    3edc:	00174d05 	andseq	r4, r7, r5, lsl #26
    3ee0:	5e011700 	cdppl	7, 0, cr1, cr1, cr0, {0}
    3ee4:	04000000 	streq	r0, [r0], #-0
    3ee8:	178301fb 			; <UNDEFINED> instruction: 0x178301fb
    3eec:	240a0000 	strcs	r0, [sl], #-0
    3ef0:	0000001f 	andeq	r0, r0, pc, lsl r0
    3ef4:	0014800a 	andseq	r8, r4, sl
    3ef8:	e40a0100 	str	r0, [sl], #-256	; 0xffffff00
    3efc:	0200001f 	andeq	r0, r0, #31
    3f00:	04041500 	streq	r1, [r4], #-1280	; 0xfffffb00
    3f04:	184d01f9 	stmdane	sp, {r0, r3, r4, r5, r6, r7, r8}^
    3f08:	f3160000 	vhadd.u16	d0, d6, d0
    3f0c:	0400001e 	streq	r0, [r0], #-30	; 0xffffffe2
    3f10:	184d01ff 	stmdane	sp, {r0, r1, r2, r3, r4, r5, r6, r7, r8}^
    3f14:	02010000 	andeq	r0, r1, #0
    3f18:	14160006 	ldrne	r0, [r6], #-6
    3f1c:	04000023 	streq	r0, [r0], #-35	; 0xffffffdd
    3f20:	05310200 	ldreq	r0, [r1, #-512]!	; 0xfffffe00
    3f24:	01010000 	mrseq	r0, (UNDEF: 1)
    3f28:	ce160005 	cdpgt	0, 1, cr0, cr6, cr5, {0}
    3f2c:	0400001a 	streq	r0, [r0], #-26	; 0xffffffe6
    3f30:	052c0201 	streq	r0, [ip, #-513]!	; 0xfffffdff
    3f34:	04040000 	streq	r0, [r4], #-0
    3f38:	07160019 			; <UNDEFINED> instruction: 0x07160019
    3f3c:	04000027 	streq	r0, [r0], #-39	; 0xffffffd9
    3f40:	052c0202 	streq	r0, [ip, #-514]!	; 0xfffffdfe
    3f44:	01040000 	mrseq	r0, (UNDEF: 4)
    3f48:	ec160018 	ldc	0, cr0, [r6], {24}
    3f4c:	0400001d 	streq	r0, [r0], #-29	; 0xffffffe3
    3f50:	052c0203 	streq	r0, [ip, #-515]!	; 0xfffffdfd
    3f54:	08040000 	stmdaeq	r4, {}	; <UNPREDICTABLE>
    3f58:	71160010 	tstvc	r6, r0, lsl r0
    3f5c:	04000017 	streq	r0, [r0], #-23	; 0xffffffe9
    3f60:	052c0204 	streq	r0, [ip, #-516]!	; 0xfffffdfc
    3f64:	07040000 	streq	r0, [r4, -r0]
    3f68:	4c160009 	ldcmi	0, cr0, [r6], {9}
    3f6c:	0400001b 	streq	r0, [r0], #-27	; 0xffffffe5
    3f70:	05310205 	ldreq	r0, [r1, #-517]!	; 0xfffffdfb
    3f74:	01010000 	mrseq	r0, (UNDEF: 1)
    3f78:	f2160200 	vhsub.s16	d0, d6, d0
    3f7c:	04000015 	streq	r0, [r0], #-21	; 0xffffffeb
    3f80:	052c0206 	streq	r0, [ip, #-518]!	; 0xfffffdfa
    3f84:	02040000 	andeq	r0, r4, #0
    3f88:	95160006 	ldrls	r0, [r6, #-6]
    3f8c:	0400001f 	streq	r0, [r0], #-31	; 0xffffffe1
    3f90:	05310207 	ldreq	r0, [r1, #-519]!	; 0xfffffdf9
    3f94:	01010000 	mrseq	r0, (UNDEF: 1)
    3f98:	b8160305 	ldmdalt	r6, {r0, r2, r8, r9}
    3f9c:	04000020 	streq	r0, [r0], #-32	; 0xffffffe0
    3fa0:	12b30208 	adcsne	r0, r3, #8, 4	; 0x80000000
    3fa4:	01010000 	mrseq	r0, (UNDEF: 1)
    3fa8:	a4160304 	ldrge	r0, [r6], #-772	; 0xfffffcfc
    3fac:	04000013 	streq	r0, [r0], #-19	; 0xffffffed
    3fb0:	052c0209 	streq	r0, [ip, #-521]!	; 0xfffffdf7
    3fb4:	03040000 	movweq	r0, #16384	; 0x4000
    3fb8:	b8160001 	ldmdalt	r6, {r0}
    3fbc:	04000014 	streq	r0, [r0], #-20	; 0xffffffec
    3fc0:	0531020a 	ldreq	r0, [r1, #-522]!	; 0xfffffdf6
    3fc4:	01010000 	mrseq	r0, (UNDEF: 1)
    3fc8:	05000300 	streq	r0, [r0, #-768]	; 0xfffffd00
    3fcc:	00001763 	andeq	r1, r0, r3, ror #14
    3fd0:	0c040415 	cfstrseq	mvf0, [r4], {21}
    3fd4:	00188c02 	andseq	r8, r8, r2, lsl #24
    3fd8:	1a581600 	bne	16097e0 <__kernel_end+0x14a37e0>
    3fdc:	0e040000 	cdpeq	0, 0, cr0, cr4, cr0, {0}
    3fe0:	00052c02 	andeq	r2, r5, r2, lsl #24
    3fe4:	10100400 	andsne	r0, r0, r0, lsl #8
    3fe8:	14c61600 	strbne	r1, [r6], #1536	; 0x600
    3fec:	0f040000 	svceq	0x00040000
    3ff0:	00053102 	andeq	r3, r5, r2, lsl #2
    3ff4:	07010100 	streq	r0, [r1, -r0, lsl #2]
    3ff8:	14de1602 	ldrbne	r1, [lr], #1538	; 0x602
    3ffc:	10040000 	andne	r0, r4, r0
    4000:	00052c02 	andeq	r2, r5, r2, lsl #24
    4004:	000f0400 	andeq	r0, pc, r0, lsl #8
    4008:	04150000 	ldreq	r0, [r5], #-0
    400c:	b6021204 	strlt	r1, [r2], -r4, lsl #4
    4010:	16000018 			; <UNDEFINED> instruction: 0x16000018
    4014:	00001b7e 	andeq	r1, r0, lr, ror fp
    4018:	2c021404 	cfstrscs	mvf1, [r2], {4}
    401c:	04000005 	streq	r0, [r0], #-5
    4020:	16001010 			; <UNDEFINED> instruction: 0x16001010
    4024:	00001ae8 	andeq	r1, r0, r8, ror #21
    4028:	2c021504 	cfstr32cs	mvfx1, [r2], {4}
    402c:	04000005 	streq	r0, [r0], #-5
    4030:	00000010 	andeq	r0, r0, r0, lsl r0
    4034:	005e0117 	subseq	r0, lr, r7, lsl r1
    4038:	1d040000 	stcne	0, cr0, [r4, #-0]
    403c:	0018d602 	andseq	sp, r8, r2, lsl #12
    4040:	23320a00 	teqcs	r2, #0, 20
    4044:	0a000000 	beq	404c <SCTLR_ENABLE_INSTRUCTION_CACHE+0x304c>
    4048:	00001d45 	andeq	r1, r0, r5, asr #26
    404c:	13e10a01 	mvnne	r0, #4096	; 0x1000
    4050:	00020000 	andeq	r0, r2, r0
    4054:	18040415 	stmdane	r4, {r0, r2, r4, sl}
    4058:	00194002 	andseq	r4, r9, r2
    405c:	29911600 	ldmibcs	r1, {r9, sl, ip}
    4060:	1a040000 	bne	104068 <__first_lvl_tbl_end+0xdf068>
    4064:	00052c02 	andeq	r2, r5, r2, lsl #24
    4068:	10100400 	andsne	r0, r0, r0, lsl #8
    406c:	298c1600 	stmibcs	ip, {r9, sl, ip}
    4070:	1b040000 	blne	104078 <__first_lvl_tbl_end+0xdf078>
    4074:	00052c02 	andeq	r2, r5, r2, lsl #24
    4078:	08080400 	stmdaeq	r8, {sl}
    407c:	1ba51600 	blne	fe949884 <__kernel_end+0xfe7e3884>
    4080:	1c040000 	stcne	0, cr0, [r4], {-0}
    4084:	00052c02 	andeq	r2, r5, r2, lsl #24
    4088:	07010400 	streq	r0, [r1, -r0, lsl #8]
    408c:	25191600 	ldrcs	r1, [r9, #-1536]	; 0xfffffa00
    4090:	21040000 	mrscs	r0, (UNDEF: 4)
    4094:	00194002 	andseq	r4, r9, r2
    4098:	05020100 	streq	r0, [r2, #-256]	; 0xffffff00
    409c:	15641603 	strbne	r1, [r4, #-1539]!	; 0xfffff9fd
    40a0:	22040000 	andcs	r0, r4, #0
    40a4:	00052c02 	andeq	r2, r5, r2, lsl #24
    40a8:	01040400 	tsteq	r4, r0, lsl #8
    40ac:	644f1b00 	strbvs	r1, [pc], #-2816	; 40b4 <SCTLR_ENABLE_INSTRUCTION_CACHE+0x30b4>
    40b0:	23040064 	movwcs	r0, #16484	; 0x4064
    40b4:	00052c02 	andeq	r2, r5, r2, lsl #24
    40b8:	00010400 	andeq	r0, r1, r0, lsl #8
    40bc:	b6050000 	strlt	r0, [r5], -r0
    40c0:	18000018 	stmdane	r0, {r3, r4}
    40c4:	00002830 	andeq	r2, r0, r0, lsr r8
    40c8:	02290404 	eoreq	r0, r9, #4, 8	; 0x4000000
    40cc:	00001a43 	andeq	r1, r0, r3, asr #20
    40d0:	0015e016 	andseq	lr, r5, r6, lsl r0
    40d4:	022b0400 	eoreq	r0, fp, #0, 8
    40d8:	00000531 	andeq	r0, r0, r1, lsr r5
    40dc:	00070101 	andeq	r0, r7, r1, lsl #2
    40e0:	0014f416 	andseq	pc, r4, r6, lsl r4	; <UNPREDICTABLE>
    40e4:	022c0400 	eoreq	r0, ip, #0, 8
    40e8:	00000531 	andeq	r0, r0, r1, lsr r5
    40ec:	00060101 	andeq	r0, r6, r1, lsl #2
    40f0:	00223616 	eoreq	r3, r2, r6, lsl r6
    40f4:	022d0400 	eoreq	r0, sp, #0, 8
    40f8:	00000531 	andeq	r0, r0, r1, lsr r5
    40fc:	00050101 	andeq	r0, r5, r1, lsl #2
    4100:	001c6016 	andseq	r6, ip, r6, lsl r0
    4104:	022e0400 	eoreq	r0, lr, #0, 8
    4108:	00000531 	andeq	r0, r0, r1, lsr r5
    410c:	00040101 	andeq	r0, r4, r1, lsl #2
    4110:	00231d16 	eoreq	r1, r3, r6, lsl sp
    4114:	022f0400 	eoreq	r0, pc, #0, 8
    4118:	00000531 	andeq	r0, r0, r1, lsr r5
    411c:	00030101 	andeq	r0, r3, r1, lsl #2
    4120:	00191116 	andseq	r1, r9, r6, lsl r1
    4124:	02300400 	eorseq	r0, r0, #0, 8
    4128:	00000531 	andeq	r0, r0, r1, lsr r5
    412c:	00020101 	andeq	r0, r2, r1, lsl #2
    4130:	00272416 	eoreq	r2, r7, r6, lsl r4
    4134:	02310400 	eorseq	r0, r1, #0, 8
    4138:	00000531 	andeq	r0, r0, r1, lsr r5
    413c:	00010101 	andeq	r0, r1, r1, lsl #2
    4140:	0028d516 	eoreq	sp, r8, r6, lsl r5
    4144:	02320400 	eorseq	r0, r2, #0, 8
    4148:	00000531 	andeq	r0, r0, r1, lsr r5
    414c:	00000101 	andeq	r0, r0, r1, lsl #2
    4150:	00225c16 	eoreq	r5, r2, r6, lsl ip
    4154:	02330400 	eorseq	r0, r3, #0, 8
    4158:	00000531 	andeq	r0, r0, r1, lsr r5
    415c:	01070101 	tsteq	r7, r1, lsl #2
    4160:	0023fd16 	eoreq	pc, r3, r6, lsl sp	; <UNPREDICTABLE>
    4164:	02340400 	eorseq	r0, r4, #0, 8
    4168:	0000052c 	andeq	r0, r0, ip, lsr #10
    416c:	00160104 	andseq	r0, r6, r4, lsl #2
    4170:	00201416 	eoreq	r1, r0, r6, lsl r4
    4174:	02350400 	eorseq	r0, r5, #0, 8
    4178:	0000052c 	andeq	r0, r0, ip, lsr #10
    417c:	00140204 	andseq	r0, r4, r4, lsl #4
    4180:	00130916 	andseq	r0, r3, r6, lsl r9
    4184:	02360400 	eorseq	r0, r6, #0, 8
    4188:	00000531 	andeq	r0, r0, r1, lsr r5
    418c:	01030101 	tsteq	r3, r1, lsl #2
    4190:	00166916 	andseq	r6, r6, r6, lsl r9
    4194:	02370400 	eorseq	r0, r7, #0, 8
    4198:	0000052c 	andeq	r0, r0, ip, lsr #10
    419c:	000f0404 	andeq	r0, pc, r4, lsl #8
    41a0:	0019c716 	andseq	ip, r9, r6, lsl r7
    41a4:	02380400 	eorseq	r0, r8, #0, 8
    41a8:	00001a43 	andeq	r1, r0, r3, asr #20
    41ac:	02050201 	andeq	r0, r5, #268435456	; 0x10000000
    41b0:	0019ab16 	andseq	sl, r9, r6, lsl fp
    41b4:	02390400 	eorseq	r0, r9, #0, 8
    41b8:	0000052c 	andeq	r0, r0, ip, lsr #10
    41bc:	00000d04 	andeq	r0, r0, r4, lsl #26
    41c0:	01420500 	cmpeq	r2, r0, lsl #10
    41c4:	7d180000 	ldcvc	0, cr0, [r8, #-0]
    41c8:	04000013 	streq	r0, [r0], #-19	; 0xffffffed
    41cc:	06023e04 	streq	r3, [r2], -r4, lsl #28
    41d0:	1600001b 			; <UNDEFINED> instruction: 0x1600001b
    41d4:	00002909 	andeq	r2, r0, r9, lsl #18
    41d8:	2c024004 	stccs	0, cr4, [r2], {4}
    41dc:	04000005 	streq	r0, [r0], #-5
    41e0:	1600150b 	strne	r1, [r0], -fp, lsl #10
    41e4:	0000181e 	andeq	r1, r0, lr, lsl r8
    41e8:	2c024104 	stfcss	f4, [r2], {4}
    41ec:	04000005 	streq	r0, [r0], #-5
    41f0:	16001104 	strne	r1, [r0], -r4, lsl #2
    41f4:	0000246e 	andeq	r2, r0, lr, ror #8
    41f8:	06024204 	streq	r4, [r2], -r4, lsl #4
    41fc:	0100001b 	tsteq	r0, fp, lsl r0
    4200:	16010001 	strne	r0, [r1], -r1
    4204:	00001e18 	andeq	r1, r0, r8, lsl lr
    4208:	2c024304 	stccs	3, cr4, [r2], {4}
    420c:	04000005 	streq	r0, [r0], #-5
    4210:	16000f01 	strne	r0, [r0], -r1, lsl #30
    4214:	00001d1e 	andeq	r1, r0, lr, lsl sp
    4218:	31024404 	tstcc	r2, r4, lsl #8
    421c:	01000005 	tsteq	r0, r5
    4220:	16020601 	strne	r0, [r2], -r1, lsl #12
    4224:	0000251e 	andeq	r2, r0, lr, lsl r5
    4228:	72024504 	andvc	r4, r2, #4, 10	; 0x1000000
    422c:	01000001 	tsteq	r0, r1
    4230:	16020402 	strne	r0, [r2], -r2, lsl #8
    4234:	000025df 	ldrdeq	r2, [r0], -pc	; <UNPREDICTABLE>
    4238:	2c024604 	stccs	6, cr4, [r2], {4}
    423c:	04000005 	streq	r0, [r0], #-5
    4240:	16000a02 	strne	r0, [r0], -r2, lsl #20
    4244:	00001e3d 	andeq	r1, r0, sp, lsr lr
    4248:	2c024704 	stccs	7, cr4, [r2], {4}
    424c:	04000005 	streq	r0, [r0], #-5
    4250:	16000307 	strne	r0, [r0], -r7, lsl #6
    4254:	00001a08 	andeq	r1, r0, r8, lsl #20
    4258:	2c024804 	stccs	8, cr4, [r2], {4}
    425c:	04000005 	streq	r0, [r0], #-5
    4260:	16000201 	strne	r0, [r0], -r1, lsl #4
    4264:	000013e1 	andeq	r1, r0, r1, ror #7
    4268:	31024904 	tstcc	r2, r4, lsl #18
    426c:	01000005 	tsteq	r0, r5
    4270:	16030101 	strne	r0, [r3], -r1, lsl #2
    4274:	00002236 	andeq	r2, r0, r6, lsr r2
    4278:	31024a04 	tstcc	r2, r4, lsl #20
    427c:	01000005 	tsteq	r0, r5
    4280:	00030001 	andeq	r0, r3, r1
    4284:	00011805 	andeq	r1, r1, r5, lsl #16
    4288:	5e011700 	cdppl	7, 0, cr1, cr1, cr0, {0}
    428c:	04000000 	streq	r0, [r0], #-0
    4290:	1b310250 	blne	c44bd8 <__kernel_end+0xadebd8>
    4294:	ed0a0000 	stc	0, cr0, [sl, #-0]
    4298:	00000014 	andeq	r0, r0, r4, lsl r0
    429c:	646e4508 	strbtvs	r4, [lr], #-1288	; 0xfffffaf8
    42a0:	040a0100 	streq	r0, [sl], #-256	; 0xffffff00
    42a4:	02000015 	andeq	r0, r0, #21
    42a8:	6c6c4108 	stfvse	f4, [ip], #-32	; 0xffffffe0
    42ac:	15000300 	strne	r0, [r0, #-768]	; 0xfffffd00
    42b0:	024c0404 	subeq	r0, ip, #4, 8	; 0x4000000
    42b4:	00001b9b 	muleq	r0, fp, fp
    42b8:	0026fb16 	eoreq	pc, r6, r6, lsl fp	; <UNPREDICTABLE>
    42bc:	024e0400 	subeq	r0, lr, #0, 8
    42c0:	0000052c 	andeq	r0, r0, ip, lsr #10
    42c4:	00190704 	andseq	r0, r9, r4, lsl #14
    42c8:	00257c16 	eoreq	r7, r5, r6, lsl ip
    42cc:	024f0400 	subeq	r0, pc, #0, 8
    42d0:	0000052c 	andeq	r0, r0, ip, lsr #10
    42d4:	00120704 	andseq	r0, r2, r4, lsl #14
    42d8:	00283916 	eoreq	r3, r8, r6, lsl r9
    42dc:	02550400 	subseq	r0, r5, #0, 8
    42e0:	00001b9b 	muleq	r0, fp, fp
    42e4:	01000201 	tsteq	r0, r1, lsl #4
    42e8:	0018eb16 	andseq	lr, r8, r6, lsl fp
    42ec:	02560400 	subseq	r0, r6, #0, 8
    42f0:	00000531 	andeq	r0, r0, r1, lsr r5
    42f4:	02070101 	andeq	r0, r7, #1073741824	; 0x40000000
    42f8:	00200516 	eoreq	r0, r0, r6, lsl r5
    42fc:	02570400 	subseq	r0, r7, #0, 8
    4300:	0000052c 	andeq	r0, r0, ip, lsr #10
    4304:	00010e04 	andeq	r0, r1, r4, lsl #28
    4308:	00222716 	eoreq	r2, r2, r6, lsl r7
    430c:	02580400 	subseq	r0, r8, #0, 8
    4310:	00000531 	andeq	r0, r0, r1, lsr r5
    4314:	03000101 	movweq	r0, #257	; 0x101
    4318:	1b0b0500 	blne	2c5720 <__kernel_end+0x15f720>
    431c:	20240000 	eorcs	r0, r4, r0
    4320:	01000026 	tsteq	r0, r6, lsr #32
    4324:	0000005e 	andeq	r0, r0, lr, asr r0
    4328:	d0026004 	andle	r6, r2, r4
    432c:	0a00001b 	beq	43a0 <SCTLR_ENABLE_INSTRUCTION_CACHE+0x33a0>
    4330:	000018ac 	andeq	r1, r0, ip, lsr #17
    4334:	18b20a00 	ldmne	r2!, {r9, fp}
    4338:	0a020000 	beq	84340 <__first_lvl_tbl_end+0x5f340>
    433c:	000018b8 			; <UNDEFINED> instruction: 0x000018b8
    4340:	1e700a01 	vaddne.f32	s1, s0, s2
    4344:	0a030000 	beq	c434c <__first_lvl_tbl_end+0x9f34c>
    4348:	0000155a 	andeq	r1, r0, sl, asr r5
    434c:	04150003 	ldreq	r0, [r5], #-3
    4350:	1a025c04 	bne	9b368 <__first_lvl_tbl_end+0x76368>
    4354:	1600001c 			; <UNDEFINED> instruction: 0x1600001c
    4358:	0000165c 	andeq	r1, r0, ip, asr r6
    435c:	2c025e04 	stccs	14, cr5, [r2], {4}
    4360:	04000005 	streq	r0, [r0], #-5
    4364:	16000d13 			; <UNDEFINED> instruction: 0x16000d13
    4368:	00001c54 	andeq	r1, r0, r4, asr ip
    436c:	2c025f04 	stccs	15, cr5, [r2], {4}
    4370:	04000005 	streq	r0, [r0], #-5
    4374:	1600030a 	strne	r0, [r0], -sl, lsl #6
    4378:	00002620 	andeq	r2, r0, r0, lsr #12
    437c:	1a026604 	bne	9db94 <__first_lvl_tbl_end+0x78b94>
    4380:	0100001c 	tsteq	r0, ip, lsl r0
    4384:	16030102 	strne	r0, [r3], -r2, lsl #2
    4388:	00001d43 	andeq	r1, r0, r3, asr #26
    438c:	31026704 	tstcc	r2, r4, lsl #14
    4390:	01000005 	tsteq	r0, r5
    4394:	00030001 	andeq	r0, r3, r1
    4398:	001ba005 	andseq	sl, fp, r5
    439c:	15601800 	strbne	r1, [r0, #-2048]!	; 0xfffff800
    43a0:	04200000 	strteq	r0, [r0], #-0
    43a4:	1c95023c 	lfmne	f0, 4, [r5], {60}	; 0x3c
    43a8:	88190000 	ldmdahi	r9, {}	; <UNPREDICTABLE>
    43ac:	04000013 	streq	r0, [r0], #-19	; 0xffffffed
    43b0:	1c95024b 	lfmne	f0, 4, [r5], {75}	; 0x4b
    43b4:	19000000 	stmdbne	r0, {}	; <UNPREDICTABLE>
    43b8:	00001f32 	andeq	r1, r0, r2, lsr pc
    43bc:	9a025904 	bls	9a7d4 <__first_lvl_tbl_end+0x757d4>
    43c0:	0400001c 	streq	r0, [r0], #-28	; 0xffffffe4
    43c4:	001e0719 	andseq	r0, lr, r9, lsl r7
    43c8:	025a0400 	subseq	r0, sl, #0, 8
    43cc:	00001c9f 	muleq	r0, pc, ip	; <UNPREDICTABLE>
    43d0:	1db91908 	ldcne	9, cr1, [r9, #32]!
    43d4:	5b040000 	blpl	1043dc <__first_lvl_tbl_end+0xdf3dc>
    43d8:	001c9f02 	andseq	r9, ip, r2, lsl #30
    43dc:	5c190c00 	ldcpl	12, cr0, [r9], {-0}
    43e0:	04000016 	streq	r0, [r0], #-22	; 0xffffffea
    43e4:	1ca40268 	sfmne	f0, 4, [r4], #416	; 0x1a0
    43e8:	19100000 	ldmdbne	r0, {}	; <UNPREDICTABLE>
    43ec:	000021e3 	andeq	r2, r0, r3, ror #3
    43f0:	a9026904 	stmdbge	r2, {r2, r8, fp, sp, lr}
    43f4:	1400001c 	strne	r0, [r0], #-28	; 0xffffffe4
    43f8:	001eaf19 	andseq	sl, lr, r9, lsl pc
    43fc:	026a0400 	rsbeq	r0, sl, #0, 8
    4400:	00000097 	muleq	r0, r7, r0
    4404:	1f181918 	svcne	0x00181918
    4408:	6b040000 	blvs	104410 <__first_lvl_tbl_end+0xdf410>
    440c:	00009702 	andeq	r9, r0, r2, lsl #14
    4410:	05001c00 	streq	r1, [r0, #-3072]	; 0xfffff400
    4414:	00001a48 	andeq	r1, r0, r8, asr #20
    4418:	001b3105 	andseq	r3, fp, r5, lsl #2
    441c:	043e0500 	ldrteq	r0, [lr], #-1280	; 0xfffffb00
    4420:	d0050000 	andle	r0, r5, r0
    4424:	2500001b 	strcs	r0, [r0, #-27]	; 0xffffffe5
    4428:	001caf04 	andseq	sl, ip, r4, lsl #30
    442c:	62272600 	eorvs	r2, r7, #0, 12
    4430:	00000017 	andeq	r0, r0, r7, lsl r0
    4434:	01f70404 	mvnseq	r0, r4, lsl #8
    4438:	00001d6a 	andeq	r1, r0, sl, ror #26
    443c:	0018e019 	andseq	lr, r8, r9, lsl r0
    4440:	020b0400 	andeq	r0, fp, #0, 8
    4444:	00001d6a 	andeq	r1, r0, sl, ror #26
    4448:	1a531900 	bne	14ca850 <__kernel_end+0x1364850>
    444c:	11040000 	mrsne	r0, (UNDEF: 4)
    4450:	001d6f02 	andseq	r6, sp, r2, lsl #30
    4454:	7e190400 	cfmulsvc	mvf0, mvf9, mvf0
    4458:	0400001b 	streq	r0, [r0], #-27	; 0xffffffe5
    445c:	1d740216 	lfmne	f0, 2, [r4, #-88]!	; 0xffffffa8
    4460:	19080000 	stmdbne	r8, {}	; <UNPREDICTABLE>
    4464:	00001c6e 	andeq	r1, r0, lr, ror #24
    4468:	97021704 	strls	r1, [r2, -r4, lsl #14]
    446c:	0c000000 	stceq	0, cr0, [r0], {-0}
    4470:	001ab519 	andseq	fp, sl, r9, lsl r5
    4474:	02240400 	eoreq	r0, r4, #0, 8
    4478:	00001d79 	andeq	r1, r0, r9, ror sp
    447c:	1e071910 	mcrne	9, 0, r1, cr7, cr0, {0}
    4480:	25040000 	strcs	r0, [r4, #-0]
    4484:	00009702 	andeq	r9, r0, r2, lsl #14
    4488:	b9191400 	ldmdblt	r9, {sl, ip}
    448c:	0400001d 	streq	r0, [r0], #-29	; 0xffffffe3
    4490:	00970226 	addseq	r0, r7, r6, lsr #4
    4494:	19180000 	ldmdbne	r8, {}	; <UNPREDICTABLE>
    4498:	000028dd 	ldrdeq	r2, [r0], -sp
    449c:	97022704 	strls	r2, [r2, -r4, lsl #14]
    44a0:	1c000000 	stcne	0, cr0, [r0], {-0}
    44a4:	00199a19 	andseq	r9, r9, r9, lsl sl
    44a8:	02280400 	eoreq	r0, r8, #0, 8
    44ac:	00001d8e 	andeq	r1, r0, lr, lsl #27
    44b0:	28341920 	ldmdacs	r4!, {r5, r8, fp, ip}
    44b4:	3a040000 	bcc	1044bc <__first_lvl_tbl_end+0xdf4bc>
    44b8:	001d9302 	andseq	r9, sp, r2, lsl #6
    44bc:	1a194000 	bne	6544c4 <__kernel_end+0x4ee4c4>
    44c0:	0400001a 	streq	r0, [r0], #-26	; 0xffffffe6
    44c4:	1da8023b 	sfmne	f0, 4, [r8, #236]!	; 0xec
    44c8:	22440000 	subcs	r0, r4, #0
    44cc:	00001564 	andeq	r1, r0, r4, ror #10
    44d0:	c2026c04 	andgt	r6, r2, #4, 24	; 0x400
    44d4:	0000001d 	andeq	r0, r0, sp, lsl r0
    44d8:	16922201 	ldrne	r2, [r2], r1, lsl #4
    44dc:	6d040000 	stcvs	0, cr0, [r4, #-0]
    44e0:	001dd702 	andseq	sp, sp, r2, lsl #14
    44e4:	00030000 	andeq	r0, r3, r0
    44e8:	00178305 	andseq	r8, r7, r5, lsl #6
    44ec:	18520500 	ldmdane	r2, {r8, sl}^
    44f0:	8c050000 	stchi	0, cr0, [r5], {-0}
    44f4:	05000018 	streq	r0, [r0, #-24]	; 0xffffffe8
    44f8:	000018d6 	ldrdeq	r1, [r0], -r6
    44fc:	0017101e 	andseq	r1, r7, lr, lsl r0
    4500:	001d8e00 	andseq	r8, sp, r0, lsl #28
    4504:	15861f00 	strne	r1, [r6, #3840]	; 0xf00
    4508:	001f0000 	andseq	r0, pc, r0
    450c:	001d7e05 	andseq	r7, sp, r5, lsl #28
    4510:	19450500 	stmdbne	r5, {r8, sl}^
    4514:	101e0000 	andsne	r0, lr, r0
    4518:	a8000017 	stmdage	r0, {r0, r1, r2, r4}
    451c:	1f00001d 	svcne	0x0000001d
    4520:	00001586 	andeq	r1, r0, r6, lsl #11
    4524:	980500bb 	stmdals	r5, {r0, r1, r3, r4, r5, r7}
    4528:	1e00001d 	mcrne	0, 0, r0, cr0, cr13, {0}
    452c:	00001dbd 			; <UNDEFINED> instruction: 0x00001dbd
    4530:	00001dbd 			; <UNDEFINED> instruction: 0x00001dbd
    4534:	0015861f 	andseq	r8, r5, pc, lsl r6
    4538:	05000f00 	streq	r0, [r0, #-3840]	; 0xfffff100
    453c:	00001c1f 	andeq	r1, r0, pc, lsl ip
    4540:	001dad05 	andseq	sl, sp, r5, lsl #26
    4544:	17101e00 	ldrne	r1, [r0, -r0, lsl #28]
    4548:	1dd70000 	ldclne	0, cr0, [r7]
    454c:	861f0000 	ldrhi	r0, [pc], -r0
    4550:	ff000015 			; <UNDEFINED> instruction: 0xff000015
    4554:	1dc70500 	cfstr64ne	mvdx0, [r7]
    4558:	08020000 	stmdaeq	r2, {}	; <UNPREDICTABLE>
    455c:	00041a04 	andeq	r1, r4, r4, lsl #20
    4560:	90040700 	andls	r0, r4, r0, lsl #14
    4564:	05000000 	streq	r0, [r0, #-0]
    4568:	0020290d 	eoreq	r2, r0, sp, lsl #18
    456c:	0ab30a00 	beq	fecc6d74 <__kernel_end+0xfeb60d74>
    4570:	28010000 	stmdacs	r1, {}	; <UNPREDICTABLE>
    4574:	00000a9f 	muleq	r0, pc, sl	; <UNPREDICTABLE>
    4578:	00010001 	andeq	r0, r1, r1
    457c:	00071428 	andeq	r1, r7, r8, lsr #8
    4580:	01000200 	mrseq	r0, R8_usr
    4584:	0c842800 	stceq	8, cr2, [r4], {0}
    4588:	00030000 	andeq	r0, r3, r0
    458c:	ff280001 			; <UNDEFINED> instruction: 0xff280001
    4590:	04000006 	streq	r0, [r0], #-6
    4594:	28000100 	stmdacs	r0, {r8}
    4598:	00000947 	andeq	r0, r0, r7, asr #18
    459c:	00010005 	andeq	r0, r1, r5
    45a0:	0007f428 	andeq	pc, r7, r8, lsr #8
    45a4:	01000600 	tsteq	r0, r0, lsl #12
    45a8:	0bc22800 	bleq	ff08e5b0 <__kernel_end+0xfef285b0>
    45ac:	00070000 	andeq	r0, r7, r0
    45b0:	8a280001 	bhi	a045bc <__kernel_end+0x89e5bc>
    45b4:	0100000a 	tsteq	r0, sl
    45b8:	28000500 	stmdacs	r0, {r8, sl}
    45bc:	00000cac 	andeq	r0, r0, ip, lsr #25
    45c0:	00060001 	andeq	r0, r6, r1
    45c4:	000ce428 	andeq	lr, ip, r8, lsr #8
    45c8:	02000100 	andeq	r0, r0, #0, 2
    45cc:	0cff2800 	ldcleq	8, cr2, [pc]	; 45d4 <SCTLR_ENABLE_INSTRUCTION_CACHE+0x35d4>
    45d0:	00020000 	andeq	r0, r2, r0
    45d4:	90280002 	eorls	r0, r8, r2
    45d8:	01000009 	tsteq	r0, r9
    45dc:	28000280 	stmdacs	r0, {r7, r9}
    45e0:	00000b4b 	andeq	r0, r0, fp, asr #22
    45e4:	00030001 	andeq	r0, r3, r1
    45e8:	00081828 	andeq	r1, r8, r8, lsr #16
    45ec:	03800100 	orreq	r0, r0, #0, 2
    45f0:	07c32800 	strbeq	r2, [r3, r0, lsl #16]
    45f4:	00020000 	andeq	r0, r2, r0
    45f8:	38280003 	stmdacc	r8!, {r0, r1}
    45fc:	0200000b 	andeq	r0, r0, #11
    4600:	28000380 	stmdacs	r0, {r7, r8, r9}
    4604:	00000886 	andeq	r0, r0, r6, lsl #17
    4608:	00030004 	andeq	r0, r3, r4
    460c:	00072b28 	andeq	r2, r7, r8, lsr #22
    4610:	03000700 	movweq	r0, #1792	; 0x700
    4614:	0c9e2800 	ldceq	8, cr2, [lr], {0}
    4618:	00090000 	andeq	r0, r9, r0
    461c:	5f280003 	svcpl	0x00280003
    4620:	0900000b 	stmdbeq	r0, {r0, r1, r3}
    4624:	28000380 	stmdacs	r0, {r7, r8, r9}
    4628:	00000a1a 	andeq	r0, r0, sl, lsl sl
    462c:	00030003 	andeq	r0, r3, r3
    4630:	0007b328 	andeq	fp, r7, r8, lsr #6
    4634:	03800300 	orreq	r0, r0, #0, 6
    4638:	0b242800 	bleq	90e640 <__kernel_end+0x7a8640>
    463c:	00050000 	andeq	r0, r5, r0
    4640:	ae280003 	cdpge	0, 2, cr0, cr8, cr3, {0}
    4644:	0800000b 	stmdaeq	r0, {r0, r1, r3}
    4648:	28000300 	stmdacs	r0, {r8, r9}
    464c:	0000078c 	andeq	r0, r0, ip, lsl #15
    4650:	00030006 	andeq	r0, r3, r6
    4654:	000ad628 	andeq	sp, sl, r8, lsr #12
    4658:	03000a00 	movweq	r0, #2560	; 0xa00
    465c:	0b102800 	bleq	40e664 <__kernel_end+0x2a8664>
    4660:	000c0000 	andeq	r0, ip, r0
    4664:	a4280003 	strtge	r0, [r8], #-3
    4668:	0d000009 	stceq	0, cr0, [r0, #-36]	; 0xffffffdc
    466c:	28000300 	stmdacs	r0, {r8, r9}
    4670:	00000c72 	andeq	r0, r0, r2, ror ip
    4674:	0003000e 	andeq	r0, r3, lr
    4678:	00097d28 	andeq	r7, r9, r8, lsr #26
    467c:	03000f00 	movweq	r0, #3840	; 0xf00
    4680:	0a532800 	beq	14ce688 <__kernel_end+0x1368688>
    4684:	00100000 	andseq	r0, r0, r0
    4688:	2c280003 	stccs	0, cr0, [r8], #-12
    468c:	1400000c 	strne	r0, [r0], #-12
    4690:	28000300 	stmdacs	r0, {r8, r9}
    4694:	00000873 	andeq	r0, r0, r3, ror r8
    4698:	00030020 	andeq	r0, r3, r0, lsr #32
    469c:	0009e128 	andeq	lr, r9, r8, lsr #2
    46a0:	04000100 	streq	r0, [r0], #-256	; 0xffffff00
    46a4:	07a02800 	streq	r2, [r0, r0, lsl #16]!
    46a8:	80010000 	andhi	r0, r1, r0
    46ac:	dd280004 	stcle	0, cr0, [r8, #-16]!
    46b0:	02000006 	andeq	r0, r0, #6
    46b4:	28000400 	stmdacs	r0, {sl}
    46b8:	00000771 	andeq	r0, r0, r1, ror r7
    46bc:	00040003 	andeq	r0, r4, r3
    46c0:	000ccd28 	andeq	ip, ip, r8, lsr #26
    46c4:	04400300 	strbeq	r0, [r0], #-768	; 0xfffffd00
    46c8:	0a042800 	beq	10e6d0 <__first_lvl_tbl_end+0xe96d0>
    46cc:	80030000 	andhi	r0, r3, r0
    46d0:	68280004 	stmdavs	r8!, {r2}
    46d4:	04000009 	streq	r0, [r0], #-9
    46d8:	28000400 	stmdacs	r0, {sl}
    46dc:	00000bf7 	strdeq	r0, [r0], -r7
    46e0:	00044004 	andeq	r4, r4, r4
    46e4:	000a2a28 	andeq	r2, sl, r8, lsr #20
    46e8:	04800400 	streq	r0, [r0], #1024	; 0x400
    46ec:	095a2800 	ldmdbeq	sl, {fp, sp}^
    46f0:	00050000 	andeq	r0, r5, r0
    46f4:	1d280004 	stcne	0, cr0, [r8, #-16]!
    46f8:	0500000c 	streq	r0, [r0, #-12]
    46fc:	28000440 	stmdacs	r0, {r6, sl}
    4700:	000007d6 	ldrdeq	r0, [r0], -r6
    4704:	00048005 	andeq	r8, r4, r5
    4708:	00085f28 	andeq	r5, r8, r8, lsr #30
    470c:	04000600 	streq	r0, [r0], #-1536	; 0xfffffa00
    4710:	082c2800 	stmdaeq	ip!, {fp, sp}
    4714:	40060000 	andmi	r0, r6, r0
    4718:	fc280004 	stc2	0, cr0, [r8], #-16
    471c:	0600000a 	streq	r0, [r0], -sl
    4720:	28000480 	stmdacs	r0, {r7, sl}
    4724:	000009c0 	andeq	r0, r0, r0, asr #19
    4728:	00040007 	andeq	r0, r4, r7
    472c:	00089d28 	andeq	r9, r8, r8, lsr #26
    4730:	04400700 	strbeq	r0, [r0], #-1792	; 0xfffff900
    4734:	0b862800 	bleq	fe18e73c <__kernel_end+0xfe02873c>
    4738:	80070000 	andhi	r0, r7, r0
    473c:	d3280004 			; <UNDEFINED> instruction: 0xd3280004
    4740:	08000009 	stmdaeq	r0, {r0, r3}
    4744:	28000400 	stmdacs	r0, {sl}
    4748:	00000930 	andeq	r0, r0, r0, lsr r9
    474c:	00040009 	andeq	r0, r4, r9
    4750:	00074228 	andeq	r4, r7, r8, lsr #4
    4754:	04400900 	strbeq	r0, [r0], #-2304	; 0xfffff700
    4758:	075a2800 	ldrbeq	r2, [sl, -r0, lsl #16]
    475c:	80090000 	andhi	r0, r9, r0
    4760:	ee280004 	cdp	0, 2, cr0, cr8, cr4, {0}
    4764:	0a000006 	beq	4784 <SCTLR_ENABLE_INSTRUCTION_CACHE+0x3784>
    4768:	28000400 	stmdacs	r0, {sl}
    476c:	0000091e 	andeq	r0, r0, lr, lsl r9
    4770:	0004400a 	andeq	r4, r4, sl
    4774:	000bd128 	andeq	sp, fp, r8, lsr #2
    4778:	04800a00 	streq	r0, [r0], #2560	; 0xa00
    477c:	07e42800 	strbeq	r2, [r4, r0, lsl #16]!
    4780:	000b0000 	andeq	r0, fp, r0
    4784:	cb280004 	blgt	a0479c <__kernel_end+0x89e79c>
    4788:	0b000008 	bleq	47b0 <SCTLR_ENABLE_INSTRUCTION_CACHE+0x37b0>
    478c:	28000440 	stmdacs	r0, {r6, sl}
    4790:	00000b76 	andeq	r0, r0, r6, ror fp
    4794:	0004800b 	andeq	r8, r4, fp
    4798:	00084b0c 	andeq	r4, r8, ip, lsl #22
    479c:	0c801100 	stfeqs	f1, [r0], {0}
    47a0:	00000b99 	muleq	r0, r9, fp
    47a4:	29008010 	stmdbcs	r0, {r4, pc}
    47a8:	78050100 	stmdavc	r5, {r8}
    47ac:	00002054 	andeq	r2, r0, r4, asr r0
    47b0:	000bee13 	andeq	lr, fp, r3, lsl lr
    47b4:	3a790500 	bcc	1e45bbc <__kernel_end+0x1cdfbbc>
    47b8:	13000000 	movwne	r0, #0
    47bc:	00000806 	andeq	r0, r0, r6, lsl #16
    47c0:	20547a05 	subscs	r7, r4, r5, lsl #20
    47c4:	cc130000 	ldcgt	0, cr0, [r3], {-0}
    47c8:	0500000a 	streq	r0, [r0, #-10]
    47cc:	0020647b 	eoreq	r6, r0, fp, ror r4
    47d0:	531e0000 	tstpl	lr, #0
    47d4:	64000000 	strvs	r0, [r0], #-0
    47d8:	1f000020 	svcne	0x00000020
    47dc:	00001586 	andeq	r1, r0, r6, lsl #11
    47e0:	3a1e00ff 	bcc	784be4 <__kernel_end+0x61ebe4>
    47e4:	74000000 	strvc	r0, [r0], #-0
    47e8:	1f000020 	svcne	0x00000020
    47ec:	00001586 	andeq	r1, r0, r6, lsl #11
    47f0:	082a003f 	stmdaeq	sl!, {r0, r1, r2, r3, r4, r5}
    47f4:	a2740501 	rsbsge	r0, r4, #4194304	; 0x400000
    47f8:	2b000020 	blcs	4880 <SCTLR_ENABLE_INSTRUCTION_CACHE+0x3880>
    47fc:	00676174 	rsbeq	r6, r7, r4, ror r1
    4800:	003a7605 	eorseq	r7, sl, r5, lsl #12
    4804:	21000000 	mrscs	r0, (UNDEF: 0)
    4808:	000009b4 			; <UNDEFINED> instruction: 0x000009b4
    480c:	003a7705 	eorseq	r7, sl, r5, lsl #14
    4810:	21040000 	mrscs	r0, (UNDEF: 4)
    4814:	00000787 	andeq	r0, r0, r7, lsl #15
    4818:	20297c05 	eorcs	r7, r9, r5, lsl #24
    481c:	00080000 	andeq	r0, r8, r0
    4820:	0008ef03 	andeq	lr, r8, r3, lsl #30
    4824:	747d0500 	ldrbtvc	r0, [sp], #-1280	; 0xfffffb00
    4828:	2c000020 	stccs	0, cr0, [r0], {32}
    482c:	00001efd 	strdeq	r1, [r0], -sp
    4830:	96801101 	strls	r1, [r0], r1, lsl #2
    4834:	00480000 	subeq	r0, r8, r0
    4838:	9c010000 	stcls	0, cr0, [r1], {-0}
    483c:	00002103 	andeq	r2, r0, r3, lsl #2
    4840:	001efd2d 	andseq	pc, lr, sp, lsr #26
    4844:	6c130100 	ldfvss	f0, [r3], {-0}
    4848:	00000000 	andeq	r0, r0, r0
    484c:	0096882e 	addseq	r8, r6, lr, lsr #16
    4850:	0023a800 	eoreq	sl, r3, r0, lsl #16
    4854:	96b02f00 	ldrtls	r2, [r0], r0, lsl #30
    4858:	23b30000 			; <UNDEFINED> instruction: 0x23b30000
    485c:	20f00000 	rscscs	r0, r0, r0
    4860:	01300000 	teqeq	r0, r0
    4864:	00740250 	rsbseq	r0, r4, r0, asr r2
    4868:	01520130 	cmpeq	r2, r0, lsr r1
    486c:	b42e0030 	strtlt	r0, [lr], #-48	; 0xffffffd0
    4870:	be000096 	mcrlt	0, 0, r0, cr0, cr6, {4}
    4874:	31000023 	tstcc	r0, r3, lsr #32
    4878:	000096c0 	andeq	r9, r0, r0, asr #13
    487c:	000023c9 	andeq	r2, r0, r9, asr #7
    4880:	24242c00 	strtcs	r2, [r4], #-3072	; 0xfffff400
    4884:	1a010000 	bne	4488c <__first_lvl_tbl_end+0x1f88c>
    4888:	000096c8 	andeq	r9, r0, r8, asr #13
    488c:	00000048 	andeq	r0, r0, r8, asr #32
    4890:	21599c01 	cmpcs	r9, r1, lsl #24
    4894:	242d0000 	strtcs	r0, [sp], #-0
    4898:	01000024 	tsteq	r0, r4, lsr #32
    489c:	00006c1c 	andeq	r6, r0, ip, lsl ip
    48a0:	d02e0100 	eorle	r0, lr, r0, lsl #2
    48a4:	a8000096 	stmdage	r0, {r1, r2, r4, r7}
    48a8:	2f000023 	svccs	0x00000023
    48ac:	000096f8 	strdeq	r9, [r0], -r8
    48b0:	000023b3 			; <UNDEFINED> instruction: 0x000023b3
    48b4:	00002146 	andeq	r2, r0, r6, asr #2
    48b8:	02500130 	subseq	r0, r0, #48, 2
    48bc:	01300074 	teqeq	r0, r4, ror r0
    48c0:	00310152 	eorseq	r0, r1, r2, asr r1
    48c4:	0096fc2e 	addseq	pc, r6, lr, lsr #24
    48c8:	0023be00 	eoreq	fp, r3, r0, lsl #28
    48cc:	97083100 	strls	r3, [r8, -r0, lsl #2]
    48d0:	23c90000 	biccs	r0, r9, #0
    48d4:	2c000000 	stccs	0, cr0, [r0], {-0}
    48d8:	00001e24 	andeq	r1, r0, r4, lsr #28
    48dc:	97102301 	ldrls	r2, [r0, -r1, lsl #6]
    48e0:	00700000 	rsbseq	r0, r0, r0
    48e4:	9c010000 	stcls	0, cr0, [r1], {-0}
    48e8:	000021c9 	andeq	r2, r0, r9, asr #3
    48ec:	00706d32 	rsbseq	r6, r0, r2, lsr sp
    48f0:	21c92a01 	biccs	r2, r9, r1, lsl #20
    48f4:	0b980000 	bleq	fe6048fc <__kernel_end+0xfe49e8fc>
    48f8:	182e0000 	stmdane	lr!, {}	; <UNPREDICTABLE>
    48fc:	a8000097 	stmdage	r0, {r0, r1, r2, r4, r7}
    4900:	2f000023 	svccs	0x00000023
    4904:	0000973c 	andeq	r9, r0, ip, lsr r7
    4908:	000023b3 			; <UNDEFINED> instruction: 0x000023b3
    490c:	00002199 	muleq	r0, r9, r1
    4910:	02500130 	subseq	r0, r0, #48, 2
    4914:	2e000074 	mcrcs	0, 0, r0, cr0, cr4, {3}
    4918:	00009740 	andeq	r9, r0, r0, asr #14
    491c:	000023be 			; <UNDEFINED> instruction: 0x000023be
    4920:	0097482f 	addseq	r4, r7, pc, lsr #16
    4924:	0023c900 	eoreq	ip, r3, r0, lsl #18
    4928:	0021b600 	eoreq	fp, r1, r0, lsl #12
    492c:	50013000 	andpl	r3, r1, r0
    4930:	00007402 	andeq	r7, r0, r2, lsl #8
    4934:	00975c2e 	addseq	r5, r7, lr, lsr #24
    4938:	0023d400 	eoreq	sp, r3, r0, lsl #8
    493c:	97703100 	ldrbls	r3, [r0, -r0, lsl #2]!
    4940:	23d40000 	bicscs	r0, r4, #0
    4944:	25000000 	strcs	r0, [r0, #-0]
    4948:	0020a204 	eoreq	sl, r0, r4, lsl #4
    494c:	185d3300 	ldmdane	sp, {r8, r9, ip, sp}^
    4950:	30010000 	andcc	r0, r1, r0
    4954:	00000089 	andeq	r0, r0, r9, lsl #1
    4958:	00009780 	andeq	r9, r0, r0, lsl #15
    495c:	0000007c 	andeq	r0, r0, ip, ror r0
    4960:	222b9c01 	eorcs	r9, fp, #256	; 0x100
    4964:	d7340000 	ldrle	r0, [r4, -r0]!
    4968:	01000016 	tsteq	r0, r6, lsl r0
    496c:	00222b34 	eoreq	r2, r2, r4, lsr fp
    4970:	98004000 	stmdals	r0, {lr}
    4974:	20ff343f 	rscscs	r3, pc, pc, lsr r4	; <UNPREDICTABLE>
    4978:	35010000 	strcc	r0, [r1, #-0]
    497c:	0000222b 	andeq	r2, r0, fp, lsr #4
    4980:	3f98003c 	svccc	0x0098003c
    4984:	0097882e 	addseq	r8, r7, lr, lsr #16
    4988:	00210300 	eoreq	r0, r1, r0, lsl #6
    498c:	978c2e00 	strls	r2, [ip, r0, lsl #28]
    4990:	21590000 	cmpcs	r9, r0
    4994:	d82e0000 	stmdale	lr!, {}	; <UNPREDICTABLE>
    4998:	d4000097 	strle	r0, [r0], #-151	; 0xffffff69
    499c:	2e000023 	cdpcs	0, 0, cr0, cr0, cr3, {1}
    49a0:	000097ec 	andeq	r9, r0, ip, ror #15
    49a4:	000023d4 	ldrdeq	r2, [r0], -r4
    49a8:	6c042500 	cfstr32vs	mvfx2, [r4], {-0}
    49ac:	35000000 	strcc	r0, [r0, #-0]
    49b0:	000013fe 	strdeq	r1, [r0], -lr
    49b4:	007e4401 	rsbseq	r4, lr, r1, lsl #8
    49b8:	97fc0000 	ldrbls	r0, [ip, r0]!
    49bc:	000c0000 	andeq	r0, ip, r0
    49c0:	9c010000 	stcls	0, cr0, [r1], {-0}
    49c4:	0000226c 	andeq	r2, r0, ip, ror #4
    49c8:	31737536 	cmncc	r3, r6, lsr r5
    49cc:	7e440100 	dvfvcs	f0, f4, f0
    49d0:	b6000000 	strlt	r0, [r0], -r0
    49d4:	3700000b 	strcc	r0, [r0, -fp]
    49d8:	00327375 	eorseq	r7, r2, r5, ror r3
    49dc:	007e4401 	rsbseq	r4, lr, r1, lsl #8
    49e0:	52060000 	andpl	r0, r6, #0
    49e4:	93530493 	cmpls	r3, #-1828716544	; 0x93000000
    49e8:	22330004 	eorscs	r0, r3, #4
    49ec:	01000014 	tsteq	r0, r4, lsl r0
    49f0:	0000894e 	andeq	r8, r0, lr, asr #18
    49f4:	00980800 	addseq	r0, r8, r0, lsl #16
    49f8:	00001000 	andeq	r1, r0, r0
    49fc:	8f9c0100 	svchi	0x009c0100
    4a00:	2e000022 	cdpcs	0, 0, cr0, cr0, cr2, {1}
    4a04:	00009810 	andeq	r9, r0, r0, lsl r8
    4a08:	000021cf 	andeq	r2, r0, pc, asr #3
    4a0c:	16fa3300 	ldrbtne	r3, [sl], r0, lsl #6
    4a10:	54010000 	strpl	r0, [r1], #-0
    4a14:	000000e9 	andeq	r0, r0, r9, ror #1
    4a18:	00009818 	andeq	r9, r0, r8, lsl r8
    4a1c:	00000018 	andeq	r0, r0, r8, lsl r0
    4a20:	22b29c01 	adcscs	r9, r2, #256	; 0x100
    4a24:	202e0000 	eorcs	r0, lr, r0
    4a28:	6c000098 	stcvs	0, cr0, [r0], {152}	; 0x98
    4a2c:	00000022 	andeq	r0, r0, r2, lsr #32
    4a30:	0027a533 	eoreq	sl, r7, r3, lsr r5
    4a34:	e95d0100 	ldmdb	sp, {r8}^
    4a38:	30000000 	andcc	r0, r0, r0
    4a3c:	30000098 	mulcc	r0, r8, r0
    4a40:	01000000 	mrseq	r0, (UNDEF: 0)
    4a44:	0022e39c 	mlaeq	r2, ip, r3, lr
    4a48:	0cf83800 	ldcleq	8, cr3, [r8]
    4a4c:	5f010000 	svcpl	0x00010000
    4a50:	000022e3 	andeq	r2, r0, r3, ror #5
    4a54:	2e779102 	expcss	f1, f2
    4a58:	0000984c 	andeq	r9, r0, ip, asr #16
    4a5c:	000023d4 	ldrdeq	r2, [r0], -r4
    4a60:	00e90500 	rsceq	r0, r9, r0, lsl #10
    4a64:	97390000 	ldrls	r0, [r9, -r0]!
    4a68:	01000013 	tsteq	r0, r3, lsl r0
    4a6c:	0022f90c 	eoreq	pc, r2, ip, lsl #18
    4a70:	9c030500 	cfstr32ls	mvfx0, [r3], {-0}
    4a74:	25000153 	strcs	r0, [r0, #-339]	; 0xfffffead
    4a78:	0022ff04 	eoreq	pc, r2, r4, lsl #30
    4a7c:	1cb00500 	cfldr32ne	mvfx0, [r0]
    4a80:	86390000 	ldrthi	r0, [r9], -r0
    4a84:	01000019 	tsteq	r0, r9, lsl r0
    4a88:	0022f90c 	eoreq	pc, r2, ip, lsl #18
    4a8c:	7c030500 	cfstr32vc	mvfx0, [r3], {-0}
    4a90:	39000153 	stmdbcc	r0, {r0, r1, r4, r6, r8}
    4a94:	00001d4a 	andeq	r1, r0, sl, asr #26
    4a98:	006c0901 	rsbeq	r0, ip, r1, lsl #18
    4a9c:	03050000 	movweq	r0, #20480	; 0x5000
    4aa0:	0000c004 	andeq	ip, r0, r4
    4aa4:	00137039 	andseq	r7, r3, r9, lsr r0
    4aa8:	370b0100 	strcc	r0, [fp, -r0, lsl #2]
    4aac:	05000023 	streq	r0, [r0, #-35]	; 0xffffffdd
    4ab0:	01539803 	cmpeq	r3, r3, lsl #16
    4ab4:	3d042500 	cfstr32cc	mvfx2, [r4, #-0]
    4ab8:	05000023 	streq	r0, [r0, #-35]	; 0xffffffdd
    4abc:	00001592 	muleq	r0, r2, r5
    4ac0:	0020fa39 	eoreq	pc, r0, r9, lsr sl	; <UNPREDICTABLE>
    4ac4:	370b0100 	strcc	r0, [fp, -r0, lsl #2]
    4ac8:	05000023 	streq	r0, [r0, #-35]	; 0xffffffdd
    4acc:	01538003 	cmpeq	r3, r3
    4ad0:	18953900 	ldmne	r5, {r8, fp, ip, sp}
    4ad4:	0d010000 	stceq	0, cr0, [r1, #-0]
    4ad8:	00002364 	andeq	r2, r0, r4, ror #6
    4adc:	53a00305 	movpl	r0, #335544320	; 0x14000000
    4ae0:	04250001 	strteq	r0, [r5], #-1
    4ae4:	0000236a 	andeq	r2, r0, sl, ror #6
    4ae8:	0006af05 	andeq	sl, r6, r5, lsl #30
    4aec:	13093900 	movwne	r3, #39168	; 0x9900
    4af0:	0d010000 	stceq	0, cr0, [r1, #-0]
    4af4:	00002364 	andeq	r2, r0, r4, ror #6
    4af8:	53780305 	cmnpl	r8, #335544320	; 0x14000000
    4afc:	bc390001 	ldclt	0, cr0, [r9], #-4
    4b00:	01000028 	tsteq	r0, r8, lsr #32
    4b04:	0004370e 	andeq	r3, r4, lr, lsl #14
    4b08:	74030500 	strvc	r0, [r3], #-1280	; 0xfffffb00
    4b0c:	39000153 	stmdbcc	r0, {r0, r1, r4, r6, r8}
    4b10:	00002309 	andeq	r2, r0, r9, lsl #6
    4b14:	23a20f01 			; <UNDEFINED> instruction: 0x23a20f01
    4b18:	03050000 	movweq	r0, #20480	; 0x5000
    4b1c:	00015370 	andeq	r5, r1, r0, ror r3
    4b20:	00530425 	subseq	r0, r3, r5, lsr #8
    4b24:	b13a0000 	teqlt	sl, r0
    4b28:	b1000008 	tstlt	r0, r8
    4b2c:	05000008 	streq	r0, [r0, #-8]
    4b30:	08dc3a8e 	ldmeq	ip, {r1, r2, r3, r7, r9, fp, ip, sp}^
    4b34:	08dc0000 	ldmeq	ip, {}^	; <UNPREDICTABLE>
    4b38:	8f050000 	svchi	0x00050000
    4b3c:	000a3f3a 	andeq	r3, sl, sl, lsr pc
    4b40:	000a3f00 	andeq	r3, sl, r0, lsl #30
    4b44:	3a900500 	bcc	fe405f4c <__kernel_end+0xfe29ff4c>
    4b48:	00000c0d 	andeq	r0, r0, sp, lsl #24
    4b4c:	00000c0d 	andeq	r0, r0, sp, lsl #24
    4b50:	7e3a9105 	rndvce	f1, f5
    4b54:	7e000004 	cdpvc	0, 0, cr0, cr0, cr4, {0}
    4b58:	06000004 	streq	r0, [r0], -r4
    4b5c:	015e000c 	cmpeq	lr, ip
    4b60:	00040000 	andeq	r0, r4, r0
    4b64:	0000124a 	andeq	r1, r0, sl, asr #4
    4b68:	00640104 	rsbeq	r0, r4, r4, lsl #2
    4b6c:	a00c0000 	andge	r0, ip, r0
    4b70:	1a000029 	bne	4c1c <SCTLR_ENABLE_INSTRUCTION_CACHE+0x3c1c>
    4b74:	60000001 	andvs	r0, r0, r1
    4b78:	4c000098 	stcmi	0, cr0, [r0], {152}	; 0x98
    4b7c:	07000000 	streq	r0, [r0, -r0]
    4b80:	02000011 	andeq	r0, r0, #17
    4b84:	000d0601 	andeq	r0, sp, r1, lsl #12
    4b88:	02020000 	andeq	r0, r2, #0
    4b8c:	00016b05 	andeq	r6, r1, r5, lsl #22
    4b90:	05040200 	streq	r0, [r4, #-512]	; 0xfffffe00
    4b94:	00000111 	andeq	r0, r0, r1, lsl r1
    4b98:	0c050802 	stceq	8, cr0, [r5], {2}
    4b9c:	02000001 	andeq	r0, r0, #1
    4ba0:	000b0801 	andeq	r0, fp, r1, lsl #16
    4ba4:	02020000 	andeq	r0, r2, #0
    4ba8:	00001907 	andeq	r1, r0, r7, lsl #18
    4bac:	07040200 	streq	r0, [r4, -r0, lsl #4]
    4bb0:	00000052 	andeq	r0, r0, r2, asr r0
    4bb4:	4d070802 	stcmi	8, cr0, [r7, #-8]
    4bb8:	03000000 	movweq	r0, #0
    4bbc:	6e690504 	cdpvs	5, 6, cr0, cr9, cr4, {0}
    4bc0:	04020074 	streq	r0, [r2], #-116	; 0xffffff8c
    4bc4:	00005707 	andeq	r5, r0, r7, lsl #14
    4bc8:	25010400 	strcs	r0, [r1, #-1024]	; 0xfffffc00
    4bcc:	05000000 	streq	r0, [r0, #-0]
    4bd0:	0000b323 	andeq	fp, r0, r3, lsr #6
    4bd4:	4b4f0500 	blmi	13c5fdc <__kernel_end+0x125ffdc>
    4bd8:	3c060000 	stccc	0, cr0, [r6], {-0}
    4bdc:	7f000019 	svcvc	0x00000019
    4be0:	00262906 	eoreq	r2, r6, r6, lsl #18
    4be4:	fb067e00 	blx	1a43ee <__kernel_end+0x3e3ee>
    4be8:	7d000012 	stcvc	0, cr0, [r0, #-72]	; 0xffffffb8
    4bec:	00257006 	eoreq	r7, r5, r6
    4bf0:	02067c00 	andeq	r7, r6, #0, 24
    4bf4:	7b000022 	blvc	4c84 <SCTLR_ENABLE_INSTRUCTION_CACHE+0x3c84>
    4bf8:	0016b006 	andseq	fp, r6, r6
    4bfc:	e3067a00 	movw	r7, #27136	; 0x6a00
    4c00:	7900001c 	stmdbvc	r0, {r2, r3, r4}
    4c04:	001d0706 	andseq	r0, sp, r6, lsl #14
    4c08:	1a067800 	bne	1a2c10 <__kernel_end+0x3cc10>
    4c0c:	77000015 	smladvc	r0, r5, r0, r0
    4c10:	260e0700 	strcs	r0, [lr], -r0, lsl #14
    4c14:	2e050000 	cdpcs	0, 0, cr0, cr5, cr0, {0}
    4c18:	0000006b 	andeq	r0, r0, fp, rrx
    4c1c:	4d020102 	stfmis	f0, [r2, #-8]
    4c20:	0200001a 	andeq	r0, r0, #26
    4c24:	03430704 	movteq	r0, #14084	; 0x3704
    4c28:	08020000 	stmdaeq	r2, {}	; <UNPREDICTABLE>
    4c2c:	00041a04 	andeq	r1, r4, r4, lsl #20
    4c30:	29ae0800 	stmibcs	lr!, {fp}
    4c34:	06010000 	streq	r0, [r1], -r0
    4c38:	000000b3 	strheq	r0, [r0], -r3
    4c3c:	00009860 	andeq	r9, r0, r0, ror #16
    4c40:	0000004c 	andeq	r0, r0, ip, asr #32
    4c44:	01339c01 	teqeq	r3, r1, lsl #24
    4c48:	f8090000 			; <UNDEFINED> instruction: 0xf8090000
    4c4c:	0100000c 	tsteq	r0, ip
    4c50:	0000b308 	andeq	fp, r0, r8, lsl #6
    4c54:	000bde00 	andeq	sp, fp, r0, lsl #28
    4c58:	98680a00 	stmdals	r8!, {r9, fp}^
    4c5c:	01330000 	teqeq	r3, r0
    4c60:	780b0000 	stmdavc	fp, {}	; <UNPREDICTABLE>
    4c64:	3e000098 	mcrcc	0, 0, r0, cr0, cr8, {4}
    4c68:	17000001 	strne	r0, [r0, -r1]
    4c6c:	0c000001 	stceq	0, cr0, [r0], {1}
    4c70:	38015101 	stmdacc	r1, {r0, r8, ip, lr}
    4c74:	987c0a00 	ldmdals	ip!, {r9, fp}^
    4c78:	01490000 	mrseq	r0, (UNDEF: 73)
    4c7c:	880a0000 	stmdahi	sl, {}	; <UNPREDICTABLE>
    4c80:	55000098 	strpl	r0, [r0, #-152]	; 0xffffff68
    4c84:	0a000001 	beq	4c90 <SCTLR_ENABLE_INSTRUCTION_CACHE+0x3c90>
    4c88:	0000989c 	muleq	r0, ip, r8
    4c8c:	0000013e 	andeq	r0, r0, lr, lsr r1
    4c90:	29bc0d00 	ldmibcs	ip!, {r8, sl, fp}
    4c94:	29bc0000 	ldmibcs	ip!, {}	; <UNPREDICTABLE>
    4c98:	10020000 	andne	r0, r2, r0
    4c9c:	00047e0d 	andeq	r7, r4, sp, lsl #28
    4ca0:	00047e00 	andeq	r7, r4, r0, lsl #28
    4ca4:	0e0c0300 	cdpeq	3, 0, cr0, cr12, cr0, {0}
    4ca8:	000027a5 	andeq	r2, r0, r5, lsr #15
    4cac:	000027a5 	andeq	r2, r0, r5, lsr #15
    4cb0:	0e027204 	cdpeq	2, 0, cr7, cr2, cr4, {0}
    4cb4:	000016fa 	strdeq	r1, [r0], -sl
    4cb8:	000016fa 	strdeq	r1, [r0], -sl
    4cbc:	00027004 	andeq	r7, r2, r4
    4cc0:	00000360 	andeq	r0, r0, r0, ror #6
    4cc4:	13110004 	tstne	r1, #4
    4cc8:	01040000 	mrseq	r0, (UNDEF: 4)
    4ccc:	00000064 	andeq	r0, r0, r4, rrx
    4cd0:	002a0f0c 	eoreq	r0, sl, ip, lsl #30
    4cd4:	00011a00 	andeq	r1, r1, r0, lsl #20
    4cd8:	0098ac00 	addseq	sl, r8, r0, lsl #24
    4cdc:	0004b400 	andeq	fp, r4, r0, lsl #8
    4ce0:	0011fb00 	andseq	pc, r1, r0, lsl #22
    4ce4:	06010200 	streq	r0, [r1], -r0, lsl #4
    4ce8:	0000000d 	andeq	r0, r0, sp
    4cec:	6b050202 	blvs	1454fc <dma_src_page_2+0xf4fc>
    4cf0:	02000001 	andeq	r0, r0, #1
    4cf4:	01110504 	tsteq	r1, r4, lsl #10
    4cf8:	08020000 	stmdaeq	r2, {}	; <UNPREDICTABLE>
    4cfc:	00010c05 	andeq	r0, r1, r5, lsl #24
    4d00:	035e0300 	cmpeq	lr, #0, 6
    4d04:	2e020000 	cdpcs	0, 0, cr0, cr2, cr0, {0}
    4d08:	0000004c 	andeq	r0, r0, ip, asr #32
    4d0c:	0b080102 	bleq	20511c <__kernel_end+0x9f11c>
    4d10:	02000000 	andeq	r0, r0, #0
    4d14:	00190702 	andseq	r0, r9, r2, lsl #14
    4d18:	75030000 	strvc	r0, [r3, #-0]
    4d1c:	02000001 	andeq	r0, r0, #1
    4d20:	00006534 	andeq	r6, r0, r4, lsr r5
    4d24:	07040200 	streq	r0, [r4, -r0, lsl #4]
    4d28:	00000052 	andeq	r0, r0, r2, asr r0
    4d2c:	4d070802 	stcmi	8, cr0, [r7, #-8]
    4d30:	04000000 	streq	r0, [r0], #-0
    4d34:	6e690504 	cdpvs	5, 6, cr0, cr9, cr4, {0}
    4d38:	04020074 	streq	r0, [r2], #-116	; 0xffffff8c
    4d3c:	00005707 	andeq	r5, r0, r7, lsl #14
    4d40:	04080200 	streq	r0, [r8], #-512	; 0xfffffe00
    4d44:	0000041a 	andeq	r0, r0, sl, lsl r4
    4d48:	f0060405 			; <UNDEFINED> instruction: 0xf0060405
    4d4c:	0c000029 	stceq	0, cr0, [r0], {41}	; 0x29
    4d50:	00bb0a01 	adcseq	r0, fp, r1, lsl #20
    4d54:	36070000 	strcc	r0, [r7], -r0
    4d58:	01000023 	tsteq	r0, r3, lsr #32
    4d5c:	00005a0b 	andeq	r5, r0, fp, lsl #20
    4d60:	e6070000 	str	r0, [r7], -r0
    4d64:	01000021 	tsteq	r0, r1, lsr #32
    4d68:	0000880c 	andeq	r8, r0, ip, lsl #16
    4d6c:	4f070400 	svcmi	0x00070400
    4d70:	0100002a 	tsteq	r0, sl, lsr #32
    4d74:	0000bb0d 	andeq	fp, r0, sp, lsl #22
    4d78:	08000800 	stmdaeq	r0, {fp}
    4d7c:	00008a04 	andeq	r8, r0, r4, lsl #20
    4d80:	2a830900 	bcs	fe0c7188 <__kernel_end+0xfdf61188>
    4d84:	15010000 	strne	r0, [r1, #-0]
    4d88:	00000088 	andeq	r0, r0, r8, lsl #1
    4d8c:	000098ac 	andeq	r9, r0, ip, lsr #17
    4d90:	00000024 	andeq	r0, r0, r4, lsr #32
    4d94:	010a9c01 	tsteq	sl, r1, lsl #24
    4d98:	960a0000 	strls	r0, [sl], -r0
    4d9c:	01000012 	tsteq	r0, r2, lsl r0
    4da0:	00005a15 	andeq	r5, r0, r5, lsl sl
    4da4:	000c0800 	andeq	r0, ip, r0, lsl #16
    4da8:	29ff0a00 	ldmibcs	pc!, {r9, fp}^	; <UNPREDICTABLE>
    4dac:	15010000 	strne	r0, [r1, #-0]
    4db0:	00000088 	andeq	r0, r0, r8, lsl #1
    4db4:	00000c34 	andeq	r0, r0, r4, lsr ip
    4db8:	0098c40b 	addseq	ip, r8, fp, lsl #8
    4dbc:	00035800 	andeq	r5, r3, r0, lsl #16
    4dc0:	51010c00 	tstpl	r1, r0, lsl #24
    4dc4:	5001f303 	andpl	pc, r1, r3, lsl #6
    4dc8:	74090000 	strvc	r0, [r9], #-0
    4dcc:	0100002a 	tsteq	r0, sl, lsr #32
    4dd0:	0000881b 	andeq	r8, r0, fp, lsl r8
    4dd4:	0098d000 	addseq	sp, r8, r0
    4dd8:	00032000 	andeq	r2, r3, r0
    4ddc:	e19c0100 	orrs	r0, ip, r0, lsl #2
    4de0:	0a000001 	beq	4dec <SCTLR_ENABLE_INSTRUCTION_CACHE+0x3dec>
    4de4:	00000ff4 	strdeq	r0, [r0], -r4
    4de8:	005a1b01 	subseq	r1, sl, r1, lsl #22
    4dec:	0c520000 	mraeq	r0, r2, acc0
    4df0:	210d0000 	mrscs	r0, (UNDEF: 13)
    4df4:	01000023 	tsteq	r0, r3, lsr #32
    4df8:	0000bb1c 	andeq	fp, r0, ip, lsl fp
    4dfc:	000d3b00 	andeq	r3, sp, r0, lsl #22
    4e00:	2a4f0d00 	bcs	13c8208 <__kernel_end+0x1262208>
    4e04:	1c010000 	stcne	0, cr0, [r1], {-0}
    4e08:	000000bb 	strheq	r0, [r0], -fp
    4e0c:	00000d9b 	muleq	r0, fp, sp
    4e10:	009a000e 	addseq	r0, sl, lr
    4e14:	00035800 	andeq	r5, r3, r0, lsl #16
    4e18:	9a500e00 	bls	1408620 <__kernel_end+0x12a2620>
    4e1c:	03580000 	cmpeq	r8, #0
    4e20:	a80e0000 	stmdage	lr, {}	; <UNPREDICTABLE>
    4e24:	5800009a 	stmdapl	r0, {r1, r3, r4, r7}
    4e28:	0e000003 	cdpeq	0, 0, cr0, cr0, cr3, {0}
    4e2c:	00009ac0 	andeq	r9, r0, r0, asr #21
    4e30:	00000358 	andeq	r0, r0, r8, asr r3
    4e34:	009ad00f 	addseq	sp, sl, pc
    4e38:	0000c100 	andeq	ip, r0, r0, lsl #2
    4e3c:	00018900 	andeq	r8, r1, r0, lsl #18
    4e40:	50010c00 	andpl	r0, r1, r0, lsl #24
    4e44:	40000a03 	andmi	r0, r0, r3, lsl #20
    4e48:	9ae40f00 	bls	ff908a50 <__kernel_end+0xff7a2a50>
    4e4c:	00c10000 	sbceq	r0, r1, r0
    4e50:	01a40000 			; <UNDEFINED> instruction: 0x01a40000
    4e54:	010c0000 	mrseq	r0, (UNDEF: 12)
    4e58:	000a0350 	andeq	r0, sl, r0, asr r3
    4e5c:	51010c0c 	tstpl	r1, ip, lsl #24
    4e60:	00007502 	andeq	r7, r0, r2, lsl #10
    4e64:	009b600e 	addseq	r6, fp, lr
    4e68:	00035800 	andeq	r5, r3, r0, lsl #16
    4e6c:	9b800e00 	blls	fe008674 <__kernel_end+0xfdea2674>
    4e70:	03580000 	cmpeq	r8, #0
    4e74:	9c0f0000 	stcls	0, cr0, [pc], {-0}
    4e78:	5800009b 	stmdapl	r0, {r0, r1, r3, r4, r7}
    4e7c:	d7000003 	strle	r0, [r0, -r3]
    4e80:	0c000001 	stceq	0, cr0, [r0], {1}
    4e84:	91035101 	tstls	r3, r1, lsl #2
    4e88:	010c0654 	tsteq	ip, r4, asr r6
    4e8c:	0c300152 	ldfeqs	f0, [r0], #-328	; 0xfffffeb8
    4e90:	02007d02 	andeq	r7, r0, #2, 26	; 0x80
    4e94:	0e000078 	mcreq	0, 0, r0, cr0, cr8, {3}
    4e98:	00009bb0 			; <UNDEFINED> instruction: 0x00009bb0
    4e9c:	00000358 	andeq	r0, r0, r8, asr r3
    4ea0:	2a3e1000 	bcs	f88ea8 <__kernel_end+0xe22ea8>
    4ea4:	72010000 	andvc	r0, r1, #0
    4ea8:	00009bf0 	strdeq	r9, [r0], -r0
    4eac:	000000ec 	andeq	r0, r0, ip, ror #1
    4eb0:	02619c01 	rsbeq	r9, r1, #256	; 0x100
    4eb4:	200a0000 	andcs	r0, sl, r0
    4eb8:	0100002a 	tsteq	r0, sl, lsr #32
    4ebc:	00008872 	andeq	r8, r0, r2, ror r8
    4ec0:	000dda00 	andeq	sp, sp, r0, lsl #20
    4ec4:	23210d00 			; <UNDEFINED> instruction: 0x23210d00
    4ec8:	73010000 	movwvc	r0, #4096	; 0x1000
    4ecc:	000000bb 	strheq	r0, [r0], -fp
    4ed0:	00000e2a 	andeq	r0, r0, sl, lsr #28
    4ed4:	002a2f0d 	eoreq	r2, sl, sp, lsl #30
    4ed8:	61730100 	cmnvs	r3, r0, lsl #2
    4edc:	48000002 	stmdami	r0, {r1}
    4ee0:	0f00000e 	svceq	0x0000000e
    4ee4:	00009c64 	andeq	r9, r0, r4, ror #24
    4ee8:	00000358 	andeq	r0, r0, r8, asr r3
    4eec:	0000023f 	andeq	r0, r0, pc, lsr r2
    4ef0:	0351010c 	cmpeq	r1, #12, 2
    4ef4:	0c5001f3 	ldfeqe	f0, [r0], {243}	; 0xf3
    4ef8:	0a035301 	beq	d9b04 <__first_lvl_tbl_end+0xb4b04>
    4efc:	11004000 	mrsne	r4, (UNDEF: 0)
    4f00:	00009c74 	andeq	r9, r0, r4, ror ip
    4f04:	00000358 	andeq	r0, r0, r8, asr r3
    4f08:	009cc012 	addseq	ip, ip, r2, lsl r0
    4f0c:	00035800 	andeq	r5, r3, r0, lsl #16
    4f10:	51010c00 	tstpl	r1, r0, lsl #24
    4f14:	5001f303 	andpl	pc, r1, r3, lsl #6
    4f18:	0353010c 	cmpeq	r3, #12, 2
    4f1c:	0040000a 	subeq	r0, r0, sl
    4f20:	bb040800 	bllt	106f28 <__first_lvl_tbl_end+0xe1f28>
    4f24:	10000000 	andne	r0, r0, r0
    4f28:	000029c9 	andeq	r2, r0, r9, asr #19
    4f2c:	9cdc8b01 	fldmiaxls	ip, {d24-d23}	;@ Deprecated
    4f30:	004c0000 	subeq	r0, ip, r0
    4f34:	9c010000 	stcls	0, cr0, [r1], {-0}
    4f38:	000002c4 	andeq	r0, r0, r4, asr #5
    4f3c:	002a540a 	eoreq	r5, sl, sl, lsl #8
    4f40:	888b0100 	stmhi	fp, {r8}
    4f44:	76000000 	strvc	r0, [r0], -r0
    4f48:	0a00000e 	beq	4f88 <SCTLR_ENABLE_INSTRUCTION_CACHE+0x3f88>
    4f4c:	00002a28 	andeq	r2, r0, r8, lsr #20
    4f50:	00888b01 	addeq	r8, r8, r1, lsl #22
    4f54:	0ebd0000 	cdpeq	0, 11, cr0, cr13, cr0, {0}
    4f58:	960a0000 	strls	r0, [sl], -r0
    4f5c:	01000012 	tsteq	r0, r2, lsl r0
    4f60:	00005a8b 	andeq	r5, r0, fp, lsl #21
    4f64:	000ef700 	andeq	pc, lr, r0, lsl #14
    4f68:	00641300 	rsbeq	r1, r4, r0, lsl #6
    4f6c:	02c48c01 	sbceq	r8, r4, #256	; 0x100
    4f70:	0f6e0000 	svceq	0x006e0000
    4f74:	73130000 	tstvc	r3, #0
    4f78:	c48c0100 	strgt	r0, [ip], #256	; 0x100
    4f7c:	d3000002 	movwle	r0, #2
    4f80:	0000000f 	andeq	r0, r0, pc
    4f84:	00410408 	subeq	r0, r1, r8, lsl #8
    4f88:	bc140000 	ldclt	0, cr0, [r4], {-0}
    4f8c:	01000029 	tsteq	r0, r9, lsr #32
    4f90:	009d289e 	umullseq	r2, sp, lr, r8
    4f94:	00003800 	andeq	r3, r0, r0, lsl #16
    4f98:	159c0100 	ldrne	r0, [ip, #256]	; 0x100
    4f9c:	00000041 	andeq	r0, r0, r1, asr #32
    4fa0:	000002ec 	andeq	r0, r0, ip, ror #5
    4fa4:	0002ec16 	andeq	lr, r2, r6, lsl ip
    4fa8:	003fff00 	eorseq	pc, pc, r0, lsl #30
    4fac:	43070402 	movwmi	r0, #29698	; 0x7402
    4fb0:	17000003 	strne	r0, [r0, -r3]
    4fb4:	00002a91 	muleq	r0, r1, sl
    4fb8:	02db1001 	sbcseq	r1, fp, #1
    4fbc:	03050000 	movweq	r0, #20480	; 0x5000
    4fc0:	000153a8 	andeq	r5, r1, r8, lsr #7
    4fc4:	00008a15 	andeq	r8, r0, r5, lsl sl
    4fc8:	00031400 	andeq	r1, r3, r0, lsl #8
    4fcc:	02ec1800 	rsceq	r1, ip, #0, 16
    4fd0:	00ff0000 	rscseq	r0, pc, r0
    4fd4:	0029e417 	eoreq	lr, r9, r7, lsl r4
    4fd8:	04110100 	ldreq	r0, [r1], #-256	; 0xffffff00
    4fdc:	05000003 	streq	r0, [r0, #-3]
    4fe0:	0193a803 	orrseq	sl, r3, r3, lsl #16
    4fe4:	29d41700 	ldmibcs	r4, {r8, r9, sl, ip}^
    4fe8:	12010000 	andne	r0, r1, #0
    4fec:	000000bb 	strheq	r0, [r0], -fp
    4ff0:	c0080305 	andgt	r0, r8, r5, lsl #6
    4ff4:	60170000 	andsvs	r0, r7, r0
    4ff8:	0100002a 	tsteq	r0, sl, lsr #32
    4ffc:	0000bb12 	andeq	fp, r0, r2, lsl fp
    5000:	88030500 	stmdahi	r3, {r8, sl}
    5004:	17000153 	smlsdne	r0, r3, r1, r0
    5008:	00001006 	andeq	r1, r0, r6
    500c:	005a1301 	subseq	r1, sl, r1, lsl #6
    5010:	03050000 	movweq	r0, #20480	; 0x5000
    5014:	00015384 	andeq	r5, r1, r4, lsl #7
    5018:	00047e19 	andeq	r7, r4, r9, lsl lr
    501c:	00047e00 	andeq	r7, r4, r0, lsl #28
    5020:	000c0300 	andeq	r0, ip, r0, lsl #6
    5024:	00000126 	andeq	r0, r0, r6, lsr #2
    5028:	14770004 	ldrbtne	r0, [r7], #-4
    502c:	01040000 	mrseq	r0, (UNDEF: 4)
    5030:	00000064 	andeq	r0, r0, r4, rrx
    5034:	002a9c0c 	eoreq	r9, sl, ip, lsl #24
    5038:	00011a00 	andeq	r1, r1, r0, lsl #20
    503c:	009d6000 	addseq	r6, sp, r0
    5040:	00004c00 	andeq	r4, r0, r0, lsl #24
    5044:	0013c400 	andseq	ip, r3, r0, lsl #8
    5048:	05040200 	streq	r0, [r4, #-512]	; 0xfffffe00
    504c:	00746e69 	rsbseq	r6, r4, r9, ror #28
    5050:	57070403 	strpl	r0, [r7, -r3, lsl #8]
    5054:	03000000 	movweq	r0, #0
    5058:	010c0508 	tsteq	ip, r8, lsl #10
    505c:	08030000 	stmdaeq	r3, {}	; <UNPREDICTABLE>
    5060:	00041a04 	andeq	r1, r4, r4, lsl #20
    5064:	06010300 	streq	r0, [r1], -r0, lsl #6
    5068:	0000000d 	andeq	r0, r0, sp
    506c:	6b050203 	blvs	145880 <dma_src_page_2+0xf880>
    5070:	03000001 	movweq	r0, #1
    5074:	01110504 	tsteq	r1, r4, lsl #10
    5078:	01030000 	mrseq	r0, (UNDEF: 3)
    507c:	00000b08 	andeq	r0, r0, r8, lsl #22
    5080:	07020300 	streq	r0, [r2, -r0, lsl #6]
    5084:	00000019 	andeq	r0, r0, r9, lsl r0
    5088:	00017504 	andeq	r7, r1, r4, lsl #10
    508c:	6f340600 	svcvs	0x00340600
    5090:	03000000 	movweq	r0, #0
    5094:	00520704 	subseq	r0, r2, r4, lsl #14
    5098:	08030000 	stmdaeq	r3, {}	; <UNPREDICTABLE>
    509c:	00004d07 	andeq	r4, r0, r7, lsl #26
    50a0:	07040300 	streq	r0, [r4, -r0, lsl #6]
    50a4:	00000343 	andeq	r0, r0, r3, asr #6
    50a8:	00017e05 	andeq	r7, r1, r5, lsl #28
    50ac:	60100100 	andsvs	r0, r0, r0, lsl #2
    50b0:	4c00009d 	stcmi	0, cr0, [r0], {157}	; 0x9d
    50b4:	01000000 	mrseq	r0, (UNDEF: 0)
    50b8:	0000f29c 	muleq	r0, ip, r2
    50bc:	30720600 	rsbscc	r0, r2, r0, lsl #12
    50c0:	64100100 	ldrvs	r0, [r0], #-256	; 0xffffff00
    50c4:	16000000 	strne	r0, [r0], -r0
    50c8:	06000010 			; <UNDEFINED> instruction: 0x06000010
    50cc:	01003172 	tsteq	r0, r2, ror r1
    50d0:	00006410 	andeq	r6, r0, r0, lsl r4
    50d4:	00103700 	andseq	r3, r0, r0, lsl #14
    50d8:	2a960700 	bcs	fe586ce0 <__kernel_end+0xfe420ce0>
    50dc:	10010000 	andne	r0, r1, r0
    50e0:	00000064 	andeq	r0, r0, r4, rrx
    50e4:	00001058 	andeq	r1, r0, r8, asr r0
    50e8:	009d7408 	addseq	r7, sp, r8, lsl #8
    50ec:	0000fd00 	andeq	pc, r0, r0, lsl #26
    50f0:	9d7c0800 	ldclls	8, cr0, [ip, #-0]
    50f4:	01080000 	mrseq	r0, (UNDEF: 8)
    50f8:	80080000 	andhi	r0, r8, r0
    50fc:	1300009d 	movwne	r0, #157	; 0x9d
    5100:	08000001 	stmdaeq	r0, {r0}
    5104:	00009d94 	muleq	r0, r4, sp
    5108:	000000fd 	strdeq	r0, [r0], -sp
    510c:	009d9808 	addseq	r9, sp, r8, lsl #16
    5110:	00011e00 	andeq	r1, r1, r0, lsl #28
    5114:	bb090000 	bllt	24511c <__kernel_end+0xdf11c>
    5118:	0100000e 	tsteq	r0, lr
    511c:	0000640e 	andeq	r6, r0, lr, lsl #8
    5120:	047e0a00 	ldrbteq	r0, [lr], #-2560	; 0xfffff600
    5124:	047e0000 	ldrbteq	r0, [lr], #-0
    5128:	0c020000 	stceq	0, cr0, [r2], {-0}
    512c:	00109a0a 	andseq	r9, r0, sl, lsl #20
    5130:	00109a00 	andseq	r9, r0, r0, lsl #20
    5134:	0a290300 	beq	a45d3c <__kernel_end+0x8dfd3c>
    5138:	000001bd 			; <UNDEFINED> instruction: 0x000001bd
    513c:	000001bd 			; <UNDEFINED> instruction: 0x000001bd
    5140:	ae0a0904 	cdpge	9, 0, cr0, cr10, cr4, {0}
    5144:	ae000029 	cdpge	0, 0, cr0, cr0, cr9, {1}
    5148:	05000029 	streq	r0, [r0, #-41]	; 0xffffffd7
    514c:	01240027 			; <UNDEFINED> instruction: 0x01240027
    5150:	00040000 	andeq	r0, r4, r0
    5154:	00001513 	andeq	r1, r0, r3, lsl r5
    5158:	2aac0104 	bcs	feb05570 <__kernel_end+0xfe99f570>
    515c:	730c0000 	movwvc	r0, #49152	; 0xc000
    5160:	2400002b 	strcs	r0, [r0], #-43	; 0xffffffd5
    5164:	ac00002b 	stcge	0, cr0, [r0], {43}	; 0x2b
    5168:	2400009d 	strcs	r0, [r0], #-157	; 0xffffff63
    516c:	1b000000 	blne	5174 <SCTLR_ENABLE_INSTRUCTION_CACHE+0x4174>
    5170:	02000015 	andeq	r0, r0, #21
    5174:	6e690504 	cdpvs	5, 6, cr0, cr9, cr4, {0}
    5178:	3c030074 	stccc	0, cr0, [r3], {116}	; 0x74
    517c:	02000003 	andeq	r0, r0, #3
    5180:	000037d8 	ldrdeq	r3, [r0], -r8
    5184:	07040400 	streq	r0, [r4, -r0, lsl #8]
    5188:	00000057 	andeq	r0, r0, r7, asr r0
    518c:	0c050804 	stceq	8, cr0, [r5], {4}
    5190:	04000001 	streq	r0, [r0], #-1
    5194:	041a0408 	ldreq	r0, [sl], #-1032	; 0xfffffbf8
    5198:	01040000 	mrseq	r0, (UNDEF: 4)
    519c:	00000d06 	andeq	r0, r0, r6, lsl #26
    51a0:	08010400 	stmdaeq	r1, {sl}
    51a4:	0000000b 	andeq	r0, r0, fp
    51a8:	6b050204 	blvs	1459c0 <dma_src_page_2+0xf9c0>
    51ac:	04000001 	streq	r0, [r0], #-1
    51b0:	00190702 	andseq	r0, r9, r2, lsl #14
    51b4:	04040000 	streq	r0, [r4], #-0
    51b8:	00011105 	andeq	r1, r1, r5, lsl #2
    51bc:	07040400 	streq	r0, [r4, -r0, lsl #8]
    51c0:	00000052 	andeq	r0, r0, r2, asr r0
    51c4:	4d070804 	stcmi	8, cr0, [r7, #-16]
    51c8:	04000000 	streq	r0, [r0], #-0
    51cc:	03430704 	movteq	r0, #14084	; 0x3704
    51d0:	04050000 	streq	r0, [r5], #-0
    51d4:	14080104 	strne	r0, [r8], #-260	; 0xfffffefc
    51d8:	06000000 	streq	r0, [r0], -r0
    51dc:	00005304 	andeq	r5, r0, r4, lsl #6
    51e0:	0be20700 	bleq	ff886de8 <__kernel_end+0xff720de8>
    51e4:	1b030000 	blne	c51ec <__first_lvl_tbl_end+0xa01ec>
    51e8:	00000084 	andeq	r0, r0, r4, lsl #1
    51ec:	00009dac 	andeq	r9, r0, ip, lsr #27
    51f0:	00000024 	andeq	r0, r0, r4, lsr #32
    51f4:	010b9c01 	tsteq	fp, r1, lsl #24
    51f8:	16080000 	strne	r0, [r8], -r0
    51fc:	0100002b 	tsteq	r0, fp, lsr #32
    5200:	00010b03 	andeq	r0, r1, r3, lsl #22
    5204:	09500100 	ldmdbeq	r0, {r8}^
    5208:	00002b1d 	andeq	r2, r0, sp, lsl fp
    520c:	01170301 	tsteq	r7, r1, lsl #6
    5210:	10790000 	rsbsne	r0, r9, r0
    5214:	f4090000 	vst4.8	{d0-d3}, [r9], r0
    5218:	0100000f 	tsteq	r0, pc
    521c:	00002c03 	andeq	r2, r0, r3, lsl #24
    5220:	00109a00 	andseq	r9, r0, r0, lsl #20
    5224:	73640a00 	cmnvc	r4, #0, 20
    5228:	04010074 	streq	r0, [r1], #-116	; 0xffffff8c
    522c:	0000008d 	andeq	r0, r0, sp, lsl #1
    5230:	730b5001 	movwvc	r5, #45057	; 0xb001
    5234:	01006372 	tsteq	r0, r2, ror r3
    5238:	00011c05 	andeq	r1, r1, r5, lsl #24
    523c:	0010bb00 	andseq	fp, r0, r0, lsl #22
    5240:	9dac0c00 	stcls	12, cr0, [ip]
    5244:	00200000 	eoreq	r0, r0, r0
    5248:	690b0000 	stmdbvs	fp, {}	; <UNPREDICTABLE>
    524c:	2c060100 	stfcss	f0, [r6], {-0}
    5250:	dc000000 	stcle	0, cr0, [r0], {-0}
    5254:	00000010 	andeq	r0, r0, r0, lsl r0
    5258:	00840d00 	addeq	r0, r4, r0, lsl #26
    525c:	04060000 	streq	r0, [r6], #-0
    5260:	00000116 	andeq	r0, r0, r6, lsl r1
    5264:	01100d0e 	tsteq	r0, lr, lsl #26
    5268:	04060000 	streq	r0, [r6], #-0
    526c:	00000122 	andeq	r0, r0, r2, lsr #2
    5270:	0000530f 	andeq	r5, r0, pc, lsl #6
    5274:	01710000 	cmneq	r1, r0
    5278:	00040000 	andeq	r0, r4, r0
    527c:	000015ce 	andeq	r1, r0, lr, asr #11
    5280:	2aac0104 	bcs	feb05698 <__kernel_end+0xfe99f698>
    5284:	830c0000 	movwhi	r0, #49152	; 0xc000
    5288:	2400002b 	strcs	r0, [r0], #-43	; 0xffffffd5
    528c:	d000002b 	andle	r0, r0, fp, lsr #32
    5290:	5400009d 	strpl	r0, [r0], #-157	; 0xffffff63
    5294:	0e000000 	cdpeq	0, 0, cr0, cr0, cr0, {0}
    5298:	02000016 	andeq	r0, r0, #22
    529c:	000009f5 	strdeq	r0, [r0], -r5
    52a0:	00302802 	eorseq	r2, r0, r2, lsl #16
    52a4:	41030000 	mrsmi	r0, (UNDEF: 3)
    52a8:	04000008 	streq	r0, [r0], #-8
    52ac:	00470004 	subeq	r0, r7, r4
    52b0:	e9040000 	stmdb	r4, {}	; <UNPREDICTABLE>
    52b4:	4700000b 	strmi	r0, [r0, -fp]
    52b8:	00000000 	andeq	r0, r0, r0
    52bc:	02040500 	andeq	r0, r4, #0, 10
    52c0:	00000843 	andeq	r0, r0, r3, asr #16
    52c4:	00256202 	eoreq	r6, r5, r2, lsl #4
    52c8:	01060000 	mrseq	r0, (UNDEF: 6)
    52cc:	00000d06 	andeq	r0, r0, r6, lsl #26
    52d0:	05020600 	streq	r0, [r2, #-1536]	; 0xfffffa00
    52d4:	0000016b 	andeq	r0, r0, fp, ror #2
    52d8:	11050406 	tstne	r5, r6, lsl #8
    52dc:	06000001 	streq	r0, [r0], -r1
    52e0:	010c0508 	tsteq	ip, r8, lsl #10
    52e4:	01060000 	mrseq	r0, (UNDEF: 6)
    52e8:	00000b08 	andeq	r0, r0, r8, lsl #22
    52ec:	07020600 	streq	r0, [r2, -r0, lsl #12]
    52f0:	00000019 	andeq	r0, r0, r9, lsl r0
    52f4:	52070406 	andpl	r0, r7, #100663296	; 0x6000000
    52f8:	06000000 	streq	r0, [r0], -r0
    52fc:	004d0708 	subeq	r0, sp, r8, lsl #14
    5300:	04070000 	streq	r0, [r7], #-0
    5304:	746e6905 	strbtvc	r6, [lr], #-2309	; 0xfffff6fb
    5308:	07040600 	streq	r0, [r4, -r0, lsl #12]
    530c:	00000057 	andeq	r0, r0, r7, asr r0
    5310:	002b9208 	eoreq	r9, fp, r8, lsl #4
    5314:	8c1c0100 	ldfhis	f0, [ip], {-0}
    5318:	d0000000 	andle	r0, r0, r0
    531c:	1800009d 	stmdane	r0, {r0, r2, r3, r4, r7}
    5320:	01000000 	mrseq	r0, (UNDEF: 0)
    5324:	0000e49c 	muleq	r0, ip, r4
    5328:	00630900 	rsbeq	r0, r3, r0, lsl #18
    532c:	008c1c01 	addeq	r1, ip, r1, lsl #24
    5330:	11240000 			; <UNDEFINED> instruction: 0x11240000
    5334:	64090000 	strvs	r0, [r9], #-0
    5338:	01007665 	tsteq	r0, r5, ror #12
    533c:	00008c1c 	andeq	r8, r0, ip, lsl ip
    5340:	00114500 	andseq	r4, r1, r0, lsl #10
    5344:	9ddc0a00 	vldrls	s1, [ip]
    5348:	015e0000 	cmpeq	lr, r0
    534c:	010b0000 	mrseq	r0, (UNDEF: 11)
    5350:	01f30650 	mvnseq	r0, r0, asr r6
    5354:	1aff0850 	bne	fffc749c <__kernel_end+0xffe6149c>
    5358:	7e080000 	cdpvc	0, 0, cr0, cr8, cr0, {0}
    535c:	01000004 	tsteq	r0, r4
    5360:	00008c26 	andeq	r8, r0, r6, lsr #24
    5364:	009de800 	addseq	lr, sp, r0, lsl #16
    5368:	00003c00 	andeq	r3, r0, r0, lsl #24
    536c:	4c9c0100 	ldfmis	f0, [ip], {0}
    5370:	0c000001 	stceq	0, cr0, [r0], {1}
    5374:	00002b98 	muleq	r0, r8, fp
    5378:	014c2601 	cmpeq	ip, r1, lsl #12
    537c:	91020000 	mrsls	r0, (UNDEF: 2)
    5380:	610e0d70 	tstvs	lr, r0, ror sp
    5384:	28010070 	stmdacs	r1, {r4, r5, r6}
    5388:	00000049 	andeq	r0, r0, r9, asr #32
    538c:	0e649102 	lgneqs	f1, f2
    5390:	00746572 	rsbseq	r6, r4, r2, ror r5
    5394:	008c2901 	addeq	r2, ip, r1, lsl #18
    5398:	50010000 	andpl	r0, r1, r0
    539c:	009e100a 	addseq	r1, lr, sl
    53a0:	00016900 	andeq	r6, r1, r0, lsl #18
    53a4:	50010b00 	andpl	r0, r1, r0, lsl #22
    53a8:	06489103 	strbeq	r9, [r8], -r3, lsl #2
    53ac:	0251010b 	subseq	r0, r1, #-1073741822	; 0xc0000002
    53b0:	010b4c91 			; <UNDEFINED> instruction: 0x010b4c91
    53b4:	d0030552 	andle	r0, r3, r2, asr r5
    53b8:	0b00009d 	bleq	5634 <SCTLR_ENABLE_INSTRUCTION_CACHE+0x4634>
    53bc:	31015301 	tstcc	r1, r1, lsl #6
    53c0:	040f0000 	streq	r0, [pc], #-0	; 53c8 <SCTLR_ENABLE_INSTRUCTION_CACHE+0x43c8>
    53c4:	00000159 	andeq	r0, r0, r9, asr r1
    53c8:	14080106 	strne	r0, [r8], #-262	; 0xfffffefa
    53cc:	10000000 	andne	r0, r0, r0
    53d0:	00000152 	andeq	r0, r0, r2, asr r1
    53d4:	00116e11 	andseq	r6, r1, r1, lsl lr
    53d8:	00116e00 	andseq	r6, r1, r0, lsl #28
    53dc:	112a0300 			; <UNDEFINED> instruction: 0x112a0300
    53e0:	00002b9f 	muleq	r0, pc, fp	; <UNPREDICTABLE>
    53e4:	00002b9f 	muleq	r0, pc, fp	; <UNPREDICTABLE>
    53e8:	bc002301 	stclt	3, cr2, [r0], {1}
    53ec:	04000004 	streq	r0, [r0], #-4
    53f0:	0016ae00 	andseq	sl, r6, r0, lsl #28
    53f4:	ac010400 	cfstrsge	mvf0, [r1], {-0}
    53f8:	0c00002a 	stceq	0, cr0, [r0], {42}	; 0x2a
    53fc:	00002c8e 	andeq	r2, r0, lr, lsl #25
    5400:	00002b24 	andeq	r2, r0, r4, lsr #22
    5404:	00009e24 	andeq	r9, r0, r4, lsr #28
    5408:	0000074c 	andeq	r0, r0, ip, asr #14
    540c:	00001729 	andeq	r1, r0, r9, lsr #14
    5410:	69050402 	stmdbvs	r5, {r1, sl}
    5414:	0300746e 	movweq	r7, #1134	; 0x46e
    5418:	00570704 	subseq	r0, r7, r4, lsl #14
    541c:	08030000 	stmdaeq	r3, {}	; <UNPREDICTABLE>
    5420:	00010c05 	andeq	r0, r1, r5, lsl #24
    5424:	04080300 	streq	r0, [r8], #-768	; 0xfffffd00
    5428:	0000041a 	andeq	r0, r0, sl, lsl r4
    542c:	0d060103 	stfeqs	f0, [r6, #-12]
    5430:	03000000 	movweq	r0, #0
    5434:	000b0801 	andeq	r0, fp, r1, lsl #16
    5438:	02030000 	andeq	r0, r3, #0
    543c:	00016b05 	andeq	r6, r1, r5, lsl #22
    5440:	07020300 	streq	r0, [r2, -r0, lsl #6]
    5444:	00000019 	andeq	r0, r0, r9, lsl r0
    5448:	11050403 	tstne	r5, r3, lsl #8
    544c:	03000001 	movweq	r0, #1
    5450:	00520704 	subseq	r0, r2, r4, lsl #14
    5454:	08030000 	stmdaeq	r3, {}	; <UNPREDICTABLE>
    5458:	00004d07 	andeq	r4, r0, r7, lsl #26
    545c:	07040300 	streq	r0, [r4, -r0, lsl #6]
    5460:	00000343 	andeq	r0, r0, r3, asr #6
    5464:	04050404 	streq	r0, [r5], #-1028	; 0xfffffbfc
    5468:	00000081 	andeq	r0, r0, r1, lsl #1
    546c:	14080103 	strne	r0, [r8], #-259	; 0xfffffefd
    5470:	05000000 	streq	r0, [r0, #-0]
    5474:	00008e04 	andeq	r8, r0, r4, lsl #28
    5478:	00810600 	addeq	r0, r1, r0, lsl #12
    547c:	f5070000 			; <UNDEFINED> instruction: 0xf5070000
    5480:	02000009 	andeq	r0, r0, #9
    5484:	00009e28 	andeq	r9, r0, r8, lsr #28
    5488:	08410800 	stmdaeq	r1, {fp}^
    548c:	03040000 	movweq	r0, #16384	; 0x4000
    5490:	0000b500 	andeq	fp, r0, r0, lsl #10
    5494:	0be90900 	bleq	ffa4789c <__kernel_end+0xff8e189c>
    5498:	00790000 	rsbseq	r0, r9, r0
    549c:	00000000 	andeq	r0, r0, r0
    54a0:	00084307 	andeq	r4, r8, r7, lsl #6
    54a4:	93620200 	cmnls	r2, #0, 4
    54a8:	0a000000 	beq	54b0 <SCTLR_ENABLE_INSTRUCTION_CACHE+0x44b0>
    54ac:	00002c35 	andeq	r2, r0, r5, lsr ip
    54b0:	00004801 	andeq	r4, r0, r1, lsl #16
    54b4:	e9130100 	ldmdb	r3, {r8}
    54b8:	0b000000 	bleq	54c0 <SCTLR_ENABLE_INSTRUCTION_CACHE+0x44c0>
    54bc:	00002bf7 	strdeq	r2, [r0], -r7
    54c0:	2bfd0b00 	blcs	fff480c8 <__kernel_end+0xffde20c8>
    54c4:	0b010000 	bleq	454cc <__first_lvl_tbl_end+0x204cc>
    54c8:	00002c81 	andeq	r2, r0, r1, lsl #25
    54cc:	2ca20b02 	vstmiacs	r2!, {d0}
    54d0:	00030000 	andeq	r0, r3, r0
    54d4:	002c250c 	eoreq	r2, ip, ip, lsl #10
    54d8:	01f90100 	mvnseq	r0, r0, lsl #2
    54dc:	00016301 	andeq	r6, r1, r1, lsl #6
    54e0:	756e0d00 	strbvc	r0, [lr, #-3328]!	; 0xfffff300
    54e4:	f901006d 			; <UNDEFINED> instruction: 0xf901006d
    54e8:	00006401 	andeq	r6, r0, r1, lsl #8
    54ec:	74730d00 	ldrbtvc	r0, [r3], #-3328	; 0xfffff300
    54f0:	f9010072 			; <UNDEFINED> instruction: 0xf9010072
    54f4:	00007b01 	andeq	r7, r0, r1, lsl #22
    54f8:	0ee50e00 	cdpeq	14, 14, cr0, cr5, cr0, {0}
    54fc:	fa010000 	blx	45504 <__first_lvl_tbl_end+0x20504>
    5500:	00002c01 	andeq	r2, r0, r1, lsl #24
    5504:	2cba0e00 	ldccs	14, cr0, [sl]
    5508:	fa010000 	blx	45510 <__first_lvl_tbl_end+0x20510>
    550c:	00002501 	andeq	r2, r0, r1, lsl #10
    5510:	2cbe0f00 	ldccs	15, cr0, [lr]
    5514:	fc010000 	stc2	0, cr0, [r1], {-0}
    5518:	00008801 	andeq	r8, r0, r1, lsl #16
    551c:	2c160f00 	ldccs	15, cr0, [r6], {-0}
    5520:	fd010000 	stc2	0, cr0, [r1, #-0]
    5524:	00016301 	andeq	r6, r1, r1, lsl #6
    5528:	00691000 	rsbeq	r1, r9, r0
    552c:	2501fe01 	strcs	pc, [r1, #-3585]	; 0xfffff1ff
    5530:	11000000 	mrsne	r0, (UNDEF: 0)
    5534:	002bb00f 	eoreq	fp, fp, pc
    5538:	021a0100 	andseq	r0, sl, #0, 2
    553c:	00000048 	andeq	r0, r0, r8, asr #32
    5540:	0012ae0f 	andseq	sl, r2, pc, lsl #28
    5544:	021b0100 	andseq	r0, fp, #0, 2
    5548:	00000064 	andeq	r0, r0, r4, rrx
    554c:	81120000 	tsthi	r2, r0
    5550:	73000000 	movwvc	r0, #0
    5554:	13000001 	movwne	r0, #1
    5558:	00000072 	andeq	r0, r0, r2, ror r0
    555c:	9f140020 	svcls	0x00140020
    5560:	0100002b 	tsteq	r0, fp, lsr #32
    5564:	0000255b 	andeq	r2, r0, fp, asr r5
    5568:	009e2400 	addseq	r2, lr, r0, lsl #8
    556c:	00074c00 	andeq	r4, r7, r0, lsl #24
    5570:	0f9c0100 	svceq	0x009c0100
    5574:	15000004 	strne	r0, [r0, #-4]
    5578:	00746d66 	rsbseq	r6, r4, r6, ror #26
    557c:	00885b01 	addeq	r5, r8, r1, lsl #22
    5580:	11660000 	cmnne	r6, r0
    5584:	61150000 	tstvs	r5, r0
    5588:	5b010070 	blpl	45750 <__first_lvl_tbl_end+0x20750>
    558c:	000000b5 	strheq	r0, [r0], -r5
    5590:	0000133a 	andeq	r1, r0, sl, lsr r3
    5594:	002c6716 	eoreq	r6, ip, r6, lsl r7
    5598:	235c0100 	cmpcs	ip, #0, 2
    559c:	79000004 	stmdbvc	r0, {r2}
    55a0:	16000013 			; <UNDEFINED> instruction: 0x16000013
    55a4:	00002bce 	andeq	r2, r0, lr, asr #23
    55a8:	00255c01 	eoreq	r5, r5, r1, lsl #24
    55ac:	139a0000 	orrsne	r0, sl, #0
    55b0:	ac170000 	ldcge	0, cr0, [r7], {-0}
    55b4:	0100002c 	tsteq	r0, ip, lsr #32
    55b8:	0000255e 	andeq	r2, r0, lr, asr r5
    55bc:	0013d100 	andseq	sp, r3, r0, lsl #2
    55c0:	00691800 	rsbeq	r1, r9, r0, lsl #16
    55c4:	00256001 	eoreq	r6, r5, r1
    55c8:	14800000 	strne	r0, [r0], #0
    55cc:	73180000 	tstvc	r8, #0
    55d0:	01007274 	tsteq	r0, r4, ror r2
    55d4:	00007b61 	andeq	r7, r0, r1, ror #22
    55d8:	0014d000 	andseq	sp, r4, r0
    55dc:	2c2e1900 	stccs	9, cr1, [lr], #-0
    55e0:	62010000 	andvs	r0, r1, #0
    55e4:	00000163 	andeq	r0, r0, r3, ror #2
    55e8:	7f909103 	svcvc	0x00909103
    55ec:	002bdc17 	eoreq	sp, fp, r7, lsl ip
    55f0:	25640100 	strbcs	r0, [r4, #-256]!	; 0xffffff00
    55f4:	9d000000 	stcls	0, cr0, [r0, #-0]
    55f8:	17000015 	smladne	r0, r5, r0, r0
    55fc:	00002ba7 	andeq	r2, r0, r7, lsr #23
    5600:	00816601 	addeq	r6, r1, r1, lsl #12
    5604:	16090000 	strne	r0, [r9], -r0
    5608:	d7170000 	ldrle	r0, [r7, -r0]
    560c:	0100002b 	tsteq	r0, fp, lsr #32
    5610:	00002567 	andeq	r2, r0, r7, ror #10
    5614:	00168600 	andseq	r8, r6, r0, lsl #12
    5618:	2c9d1700 	ldccs	7, cr1, [sp], {0}
    561c:	68010000 	stmdavs	r1, {}	; <UNPREDICTABLE>
    5620:	00000025 	andeq	r0, r0, r5, lsr #32
    5624:	0000170f 	andeq	r1, r0, pc, lsl #14
    5628:	000ff417 	andeq	pc, pc, r7, lsl r4	; <UNPREDICTABLE>
    562c:	c0690100 	rsbgt	r0, r9, r0, lsl #2
    5630:	bc000000 	stclt	0, cr0, [r0], {-0}
    5634:	17000017 	smladne	r0, r7, r0, r0
    5638:	00002cc5 	andeq	r2, r0, r5, asr #25
    563c:	00816a01 	addeq	r6, r1, r1, lsl #20
    5640:	17e80000 	strbne	r0, [r8, r0]!
    5644:	b7170000 	ldrlt	r0, [r7, -r0]
    5648:	0100002b 	tsteq	r0, fp, lsr #32
    564c:	00005d6c 	andeq	r5, r0, ip, ror #26
    5650:	00185200 	andseq	r5, r8, r0, lsl #4
    5654:	2bb61700 	blcs	fed8b25c <__kernel_end+0xfec2525c>
    5658:	6d010000 	stcvs	0, cr0, [r1, #-0]
    565c:	00000064 	andeq	r0, r0, r4, rrx
    5660:	0000187e 	andeq	r1, r0, lr, ror r8
    5664:	002cba17 	eoreq	fp, ip, r7, lsl sl
    5668:	256e0100 	strbcs	r0, [lr, #-256]!	; 0xffffff00
    566c:	b2000000 	andlt	r0, r0, #0
    5670:	17000018 	smladne	r0, r8, r0, r0
    5674:	00000ee5 	andeq	r0, r0, r5, ror #29
    5678:	002c6f01 	eoreq	r6, ip, r1, lsl #30
    567c:	19310000 	ldmdbne	r1!, {}	; <UNPREDICTABLE>
    5680:	50170000 	andspl	r0, r7, r0
    5684:	0100002c 	tsteq	r0, ip, lsr #32
    5688:	00002571 	andeq	r2, r0, r1, ror r5
    568c:	0019e400 	andseq	lr, r9, r0, lsl #8
    5690:	2bec1700 	blcs	ffb0b298 <__kernel_end+0xff9a5298>
    5694:	72010000 	andvc	r0, r1, #0
    5698:	00000025 	andeq	r0, r0, r5, lsr #32
    569c:	00001a48 	andeq	r1, r0, r8, asr #20
    56a0:	002c5817 	eoreq	r5, ip, r7, lsl r8
    56a4:	25740100 	ldrbcs	r0, [r4, #-256]!	; 0xffffff00
    56a8:	c2000000 	andgt	r0, r0, #0
    56ac:	1700001a 	smladne	r0, sl, r0, r0
    56b0:	00002cd5 	ldrdeq	r2, [r0], -r5
    56b4:	00257601 	eoreq	r7, r5, r1, lsl #12
    56b8:	1aeb0000 	bne	ffac56c0 <__kernel_end+0xff95f6c0>
    56bc:	ca1a0000 	bgt	6856c4 <__kernel_end+0x51f6c4>
    56c0:	0100002c 	tsteq	r0, ip, lsr #32
    56c4:	00008878 	andeq	r8, r0, r8, ror r8
    56c8:	2c421b00 	mcrrcs	11, 0, r1, r2, cr0
    56cc:	9f010000 	svcls	0x00010000
    56d0:	00009ed4 	ldrdeq	r9, [r0], -r4
    56d4:	002c711c 	eoreq	r7, ip, ip, lsl r1
    56d8:	01460100 	mrseq	r0, (UNDEF: 86)
    56dc:	00009fe0 	andeq	r9, r0, r0, ror #31
    56e0:	002bbc1c 	eoreq	fp, fp, ip, lsl ip
    56e4:	01d30100 	bicseq	r0, r3, r0, lsl #2
    56e8:	00009eac 	andeq	r9, r0, ip, lsr #29
    56ec:	0000e91d 	andeq	lr, r0, sp, lsl r9
    56f0:	009fec00 	addseq	lr, pc, r0, lsl #24
    56f4:	0000e800 	andeq	lr, r0, r0, lsl #16
    56f8:	01630100 	cmneq	r3, r0, lsl #2
    56fc:	0000036f 	andeq	r0, r0, pc, ror #6
    5700:	00011a1e 	andeq	r1, r1, lr, lsl sl
    5704:	001b4e00 	andseq	r4, fp, r0, lsl #28
    5708:	010e1e00 	tsteq	lr, r0, lsl #28
    570c:	1b6d0000 	blne	1b45714 <__kernel_end+0x19df714>
    5710:	021e0000 	andseq	r0, lr, #0
    5714:	a8000001 	stmdage	r0, {r0}
    5718:	1e00001b 	mcrne	0, 0, r0, cr0, cr11, {0}
    571c:	000000f6 	strdeq	r0, [r0], -r6
    5720:	00001c0f 	andeq	r1, r0, pc, lsl #24
    5724:	0000e81f 	andeq	lr, r0, pc, lsl r8
    5728:	01262000 			; <UNDEFINED> instruction: 0x01262000
    572c:	1c7f0000 	ldclne	0, cr0, [pc], #-0	; 5734 <SCTLR_ENABLE_INSTRUCTION_CACHE+0x4734>
    5730:	32210000 	eorcc	r0, r1, #0
    5734:	03000001 	movweq	r0, #1
    5738:	207fb491 			; <UNDEFINED> instruction: 0x207fb491
    573c:	0000013e 	andeq	r0, r0, lr, lsr r1
    5740:	00001cd9 	ldrdeq	r1, [r0], -r9
    5744:	0001201f 	andeq	r2, r1, pc, lsl r0
    5748:	01492200 	mrseq	r2, (UNDEF: 105)
    574c:	55200000 	strpl	r0, [r0, #-0]!
    5750:	4c000001 	stcmi	0, cr0, [r0], {1}
    5754:	0000001d 	andeq	r0, r0, sp, lsl r0
    5758:	b8230000 	stmdalt	r3!, {}	; <UNPREDICTABLE>
    575c:	7f00009e 	svcvc	0x0000009e
    5760:	24000003 	strcs	r0, [r0], #-3
    5764:	7a025101 	bvc	99b70 <__first_lvl_tbl_end+0x74b70>
    5768:	8c250000 	stchi	0, cr0, [r5], #-0
    576c:	b40000a0 	strlt	r0, [r0], #-160	; 0xffffff60
    5770:	94000004 	strls	r0, [r0], #-4
    5774:	24000003 	strcs	r0, [r0], #-3
    5778:	91035001 	tstls	r3, r1
    577c:	23007f88 	movwcs	r7, #3976	; 0xf88
    5780:	0000a0fc 	strdeq	sl, [r0], -ip
    5784:	000003aa 	andeq	r0, r0, sl, lsr #7
    5788:	02500124 	subseq	r0, r0, #36, 2
    578c:	01243008 			; <UNDEFINED> instruction: 0x01243008
    5790:	007a0251 	rsbseq	r0, sl, r1, asr r2
    5794:	a1dc2500 	bicsge	r2, ip, r0, lsl #10
    5798:	04b40000 	ldrteq	r0, [r4], #0
    579c:	03be0000 			; <UNDEFINED> instruction: 0x03be0000
    57a0:	01240000 			; <UNDEFINED> instruction: 0x01240000
    57a4:	00790250 	rsbseq	r0, r9, r0, asr r2
    57a8:	a2942300 	addsge	r2, r4, #0, 6
    57ac:	03d40000 	bicseq	r0, r4, #0
    57b0:	01240000 			; <UNDEFINED> instruction: 0x01240000
    57b4:	00740250 	rsbseq	r0, r4, r0, asr r2
    57b8:	02510124 	subseq	r0, r1, #36, 2
    57bc:	2300007a 	movwcs	r0, #122	; 0x7a
    57c0:	0000a41c 	andeq	sl, r0, ip, lsl r4
    57c4:	000003e4 	andeq	r0, r0, r4, ror #7
    57c8:	02510124 	subseq	r0, r1, #36, 2
    57cc:	2300007a 	movwcs	r0, #122	; 0x7a
    57d0:	0000a43c 	andeq	sl, r0, ip, lsr r4
    57d4:	000003fc 	strdeq	r0, [r0], -ip
    57d8:	04500124 	ldrbeq	r0, [r0], #-292	; 0xfffffedc
    57dc:	067ef891 			; <UNDEFINED> instruction: 0x067ef891
    57e0:	02510124 	subseq	r0, r1, #36, 2
    57e4:	2600007a 			; <UNDEFINED> instruction: 0x2600007a
    57e8:	0000a4a8 	andeq	sl, r0, r8, lsr #9
    57ec:	02500124 	subseq	r0, r0, #36, 2
    57f0:	01240074 			; <UNDEFINED> instruction: 0x01240074
    57f4:	007a0251 	rsbseq	r0, sl, r1, asr r2
    57f8:	25270000 	strcs	r0, [r7, #-0]!
    57fc:	23000000 	movwcs	r0, #0
    5800:	28000004 	stmdacs	r0, {r2}
    5804:	00000025 	andeq	r0, r0, r5, lsr #32
    5808:	00002528 	andeq	r2, r0, r8, lsr #10
    580c:	04050000 	streq	r0, [r5], #-0
    5810:	0000040f 	andeq	r0, r0, pc, lsl #8
    5814:	00008e12 	andeq	r8, r0, r2, lsl lr
    5818:	00043900 	andeq	r3, r4, r0, lsl #18
    581c:	00721300 	rsbseq	r1, r2, r0, lsl #6
    5820:	000f0000 	andeq	r0, pc, r0
    5824:	002c1b29 	eoreq	r1, ip, r9, lsr #22
    5828:	01e00100 	mvneq	r0, r0, lsl #2
    582c:	0000044b 	andeq	r0, r0, fp, asr #8
    5830:	b07c0305 	rsbslt	r0, ip, r5, lsl #6
    5834:	29060000 	stmdbcs	r6, {}	; <UNPREDICTABLE>
    5838:	29000004 	stmdbcs	r0, {r2}
    583c:	00002bc4 	andeq	r2, r0, r4, asr #23
    5840:	6201e101 	andvs	lr, r1, #1073741824	; 0x40000000
    5844:	05000004 	streq	r0, [r0, #-4]
    5848:	00b06c03 	adcseq	r6, r0, r3, lsl #24
    584c:	04290600 	strteq	r0, [r9], #-1536	; 0xfffffa00
    5850:	77120000 	ldrvc	r0, [r2, -r0]
    5854:	77000004 	strvc	r0, [r0, -r4]
    5858:	13000004 	movwne	r0, #4
    585c:	00000072 	andeq	r0, r0, r2, ror r0
    5860:	48060010 	stmdami	r6, {r4}
    5864:	2a000000 	bcs	586c <SCTLR_ENABLE_INSTRUCTION_CACHE+0x486c>
    5868:	00002c08 	andeq	r2, r0, r8, lsl #24
    586c:	9a01e201 	bls	7e078 <__first_lvl_tbl_end+0x59078>
    5870:	11000004 	tstne	r0, r4
    5874:	00010000 	andeq	r0, r1, r0
    5878:	00000002 	andeq	r0, r0, r2
    587c:	00000003 	andeq	r0, r0, r3
    5880:	00000000 	andeq	r0, r0, r0
    5884:	04670604 	strbteq	r0, [r7], #-1540	; 0xfffff9fc
    5888:	132b0000 			; <UNDEFINED> instruction: 0x132b0000
    588c:	3130119e 	teqcc	r0, lr	; <illegal shifter operand>
    5890:	35343332 	ldrcc	r3, [r4, #-818]!	; 0xfffffcce
    5894:	39383736 	ldmdbcc	r8!, {r1, r2, r4, r5, r8, r9, sl, ip, sp}
    5898:	64636261 	strbtvs	r6, [r3], #-609	; 0xfffffd9f
    589c:	2c006665 	stccs	6, cr6, [r0], {101}	; 0x65
    58a0:	00002be5 	andeq	r2, r0, r5, ror #23
    58a4:	00002be5 	andeq	r2, r0, r5, ror #23
    58a8:	c7002504 	strgt	r2, [r0, -r4, lsl #10]
    58ac:	04000000 	streq	r0, [r0], #-0
    58b0:	0018cb00 	andseq	ip, r8, r0, lsl #22
    58b4:	ac010400 	cfstrsge	mvf0, [r1], {-0}
    58b8:	0c00002a 	stceq	0, cr0, [r0], {42}	; 0x2a
    58bc:	00002ce1 	andeq	r2, r0, r1, ror #25
    58c0:	00002b24 	andeq	r2, r0, r4, lsr #22
    58c4:	0000a570 	andeq	sl, r0, r0, ror r5
    58c8:	00000030 	andeq	r0, r0, r0, lsr r0
    58cc:	000019c9 	andeq	r1, r0, r9, asr #19
    58d0:	69050402 	stmdbvs	r5, {r1, sl}
    58d4:	0300746e 	movweq	r7, #1134	; 0x46e
    58d8:	0000033c 	andeq	r0, r0, ip, lsr r3
    58dc:	0037d802 	eorseq	sp, r7, r2, lsl #16
    58e0:	04040000 	streq	r0, [r4], #-0
    58e4:	00005707 	andeq	r5, r0, r7, lsl #14
    58e8:	05080400 	streq	r0, [r8, #-1024]	; 0xfffffc00
    58ec:	0000010c 	andeq	r0, r0, ip, lsl #2
    58f0:	1a040804 	bne	107908 <__first_lvl_tbl_end+0xe2908>
    58f4:	04000004 	streq	r0, [r0], #-4
    58f8:	000d0601 	andeq	r0, sp, r1, lsl #12
    58fc:	01040000 	mrseq	r0, (UNDEF: 4)
    5900:	00000b08 	andeq	r0, r0, r8, lsl #22
    5904:	05020400 	streq	r0, [r2, #-1024]	; 0xfffffc00
    5908:	0000016b 	andeq	r0, r0, fp, ror #2
    590c:	19070204 	stmdbne	r7, {r2, r9}
    5910:	04000000 	streq	r0, [r0], #-0
    5914:	01110504 	tsteq	r1, r4, lsl #10
    5918:	04040000 	streq	r0, [r4], #-0
    591c:	00005207 	andeq	r5, r0, r7, lsl #4
    5920:	07080400 	streq	r0, [r8, -r0, lsl #8]
    5924:	0000004d 	andeq	r0, r0, sp, asr #32
    5928:	43070404 	movwmi	r0, #29700	; 0x7404
    592c:	04000003 	streq	r0, [r0], #-3
    5930:	00140801 	andseq	r0, r4, r1, lsl #16
    5934:	04050000 	streq	r0, [r5], #-0
    5938:	00000091 	muleq	r0, r1, r0
    593c:	00008406 	andeq	r8, r0, r6, lsl #8
    5940:	2be50700 	blcs	ff947548 <__kernel_end+0xff7e1548>
    5944:	25030000 	strcs	r0, [r3, #-0]
    5948:	0000002c 	andeq	r0, r0, ip, lsr #32
    594c:	0000a570 	andeq	sl, r0, r0, ror r5
    5950:	00000030 	andeq	r0, r0, r0, lsr r0
    5954:	73089c01 	movwvc	r9, #35841	; 0x8c01
    5958:	01007274 	tsteq	r0, r4, ror r2
    595c:	00008b03 	andeq	r8, r0, r3, lsl #22
    5960:	001d6a00 	andseq	r6, sp, r0, lsl #20
    5964:	656c0900 	strbvs	r0, [ip, #-2304]!	; 0xfffff700
    5968:	0401006e 	streq	r0, [r1], #-110	; 0xffffff92
    596c:	0000002c 	andeq	r0, r0, ip, lsr #32
    5970:	00001da4 	andeq	r1, r0, r4, lsr #27
	...

Disassembly of section .debug_abbrev:

00000000 <.debug_abbrev>:
       0:	10001101 	andne	r1, r0, r1, lsl #2
       4:	12011106 	andne	r1, r1, #-2147483647	; 0x80000001
       8:	1b080301 	blne	200c14 <__kernel_end+0x9ac14>
       c:	13082508 	movwne	r2, #34056	; 0x8508
      10:	00000005 	andeq	r0, r0, r5
      14:	25011101 	strcs	r1, [r1, #-257]	; 0xfffffeff
      18:	030b130e 	movweq	r1, #45838	; 0xb30e
      1c:	110e1b0e 	tstne	lr, lr, lsl #22
      20:	10061201 	andne	r1, r6, r1, lsl #4
      24:	02000017 	andeq	r0, r0, #23
      28:	0b0b0024 	bleq	2c00c0 <__kernel_end+0x15a0c0>
      2c:	0e030b3e 	vmoveq.16	d3[0], r0
      30:	16030000 	strne	r0, [r3], -r0
      34:	3a0e0300 	bcc	380c3c <__kernel_end+0x21ac3c>
      38:	490b3b0b 	stmdbmi	fp, {r0, r1, r3, r8, r9, fp, ip, sp}
      3c:	04000013 	streq	r0, [r0], #-19	; 0xffffffed
      40:	0b0b0024 	bleq	2c00d8 <__kernel_end+0x15a0d8>
      44:	08030b3e 	stmdaeq	r3, {r1, r2, r3, r4, r5, r8, r9, fp}
      48:	2e050000 	cdpcs	0, 0, cr0, cr5, cr0, {0}
      4c:	03193f01 	tsteq	r9, #1, 30
      50:	3b0b3a0e 	blcc	2ce890 <__kernel_end+0x168890>
      54:	1119270b 	tstne	r9, fp, lsl #14
      58:	40061201 	andmi	r1, r6, r1, lsl #4
      5c:	19429718 	stmdbne	r2, {r3, r4, r8, r9, sl, ip, pc}^
      60:	00001301 	andeq	r1, r0, r1, lsl #6
      64:	03000506 	movweq	r0, #1286	; 0x506
      68:	3b0b3a08 	blcc	2ce890 <__kernel_end+0x168890>
      6c:	0213490b 	andseq	r4, r3, #180224	; 0x2c000
      70:	07000017 	smladeq	r0, r7, r0, r0
      74:	08030034 	stmdaeq	r3, {r2, r4, r5}
      78:	0b3b0b3a 	bleq	ec2d68 <__kernel_end+0xd5cd68>
      7c:	17021349 	strne	r1, [r2, -r9, asr #6]
      80:	34080000 	strcc	r0, [r8], #-0
      84:	3a0e0300 	bcc	380c8c <__kernel_end+0x21ac8c>
      88:	490b3b0b 	stmdbmi	fp, {r0, r1, r3, r8, r9, fp, ip, sp}
      8c:	09000013 	stmdbeq	r0, {r0, r1, r4}
      90:	00018289 	andeq	r8, r1, r9, lsl #5
      94:	13310111 	teqne	r1, #1073741828	; 0x40000004
      98:	0f0a0000 	svceq	0x000a0000
      9c:	490b0b00 	stmdbmi	fp, {r8, r9, fp}
      a0:	0b000013 	bleq	f4 <ARM_I_BIT+0x74>
      a4:	0e030034 	mcreq	0, 0, r0, cr3, cr4, {1}
      a8:	0b3b0b3a 	bleq	ec2d98 <__kernel_end+0xd5cd98>
      ac:	193f1349 	ldmdbne	pc!, {r0, r3, r6, r8, r9, ip}	; <UNPREDICTABLE>
      b0:	0000193c 	andeq	r1, r0, ip, lsr r9
      b4:	3f002e0c 	svccc	0x00002e0c
      b8:	6e193c19 	mrcvs	12, 0, r3, cr9, cr9, {0}
      bc:	3a0e030e 	bcc	380cfc <__kernel_end+0x21acfc>
      c0:	000b3b0b 	andeq	r3, fp, fp, lsl #22
      c4:	11010000 	mrsne	r0, (UNDEF: 1)
      c8:	130e2501 	movwne	r2, #58625	; 0xe501
      cc:	1b0e030b 	blne	380d00 <__kernel_end+0x21ad00>
      d0:	1201110e 	andne	r1, r1, #-2147483645	; 0x80000003
      d4:	00171006 	andseq	r1, r7, r6
      d8:	00240200 	eoreq	r0, r4, r0, lsl #4
      dc:	0b3e0b0b 	bleq	f82d10 <__kernel_end+0xe1cd10>
      e0:	00000e03 	andeq	r0, r0, r3, lsl #28
      e4:	03001603 	movweq	r1, #1539	; 0x603
      e8:	3b0b3a0e 	blcc	2ce928 <__kernel_end+0x168928>
      ec:	0013490b 	andseq	r4, r3, fp, lsl #18
      f0:	00240400 	eoreq	r0, r4, r0, lsl #8
      f4:	0b3e0b0b 	bleq	f82d28 <__kernel_end+0xe1cd28>
      f8:	00000803 	andeq	r0, r0, r3, lsl #16
      fc:	49003505 	stmdbmi	r0, {r0, r2, r8, sl, ip, sp}
     100:	06000013 			; <UNDEFINED> instruction: 0x06000013
     104:	0b0b0113 	bleq	2c0558 <__kernel_end+0x15a558>
     108:	0b3b0b3a 	bleq	ec2df8 <__kernel_end+0xd5cdf8>
     10c:	00001301 	andeq	r1, r0, r1, lsl #6
     110:	03000d07 	movweq	r0, #3335	; 0xd07
     114:	3b0b3a0e 	blcc	2ce954 <__kernel_end+0x168954>
     118:	3813490b 	ldmdacc	r3, {r0, r1, r3, r8, fp, lr}
     11c:	0800000b 	stmdaeq	r0, {r0, r1, r3}
     120:	0b0b0104 	bleq	2c0538 <__kernel_end+0x15a538>
     124:	0b3a1349 	bleq	e84e50 <__kernel_end+0xd1ee50>
     128:	13010b3b 	movwne	r0, #6971	; 0x1b3b
     12c:	28090000 	stmdacs	r9, {}	; <UNPREDICTABLE>
     130:	1c0e0300 	stcne	3, cr0, [lr], {-0}
     134:	0a00000b 	beq	168 <ARM_I_BIT+0xe8>
     138:	193f002e 	ldmdbne	pc!, {r1, r2, r3, r5}	; <UNPREDICTABLE>
     13c:	0b3a0e03 	bleq	e83950 <__kernel_end+0xd1d950>
     140:	19270b3b 	stmdbne	r7!, {r0, r1, r3, r4, r5, r8, r9, fp}
     144:	01111349 	tsteq	r1, r9, asr #6
     148:	18400612 	stmdane	r0, {r1, r4, r9, sl}^
     14c:	00194297 	mulseq	r9, r7, r2
     150:	000f0b00 	andeq	r0, pc, r0, lsl #22
     154:	13490b0b 	movtne	r0, #39691	; 0x9b0b
     158:	2e0c0000 	cdpcs	0, 0, cr0, cr12, cr0, {0}
     15c:	03193f01 	tsteq	r9, #1, 30
     160:	3b0b3a0e 	blcc	2ce9a0 <__kernel_end+0x1689a0>
     164:	1119270b 	tstne	r9, fp, lsl #14
     168:	40061201 	andmi	r1, r6, r1, lsl #4
     16c:	19429718 	stmdbne	r2, {r3, r4, r8, r9, sl, ip, pc}^
     170:	00001301 	andeq	r1, r0, r1, lsl #6
     174:	0182890d 	orreq	r8, r2, sp, lsl #18
     178:	31011100 	mrscc	r1, (UNDEF: 17)
     17c:	0e000013 	mcreq	0, 0, r0, cr0, cr3, {0}
     180:	0e030034 	mcreq	0, 0, r0, cr3, cr4, {1}
     184:	0b3b0b3a 	bleq	ec2e74 <__kernel_end+0xd5ce74>
     188:	061c1349 	ldreq	r1, [ip], -r9, asr #6
     18c:	260f0000 	strcs	r0, [pc], -r0
     190:	00134900 	andseq	r4, r3, r0, lsl #18
     194:	002e1000 	eoreq	r1, lr, r0
     198:	193c193f 	ldmdbne	ip!, {r0, r1, r2, r3, r4, r5, r8, fp, ip}
     19c:	0e030e6e 	cdpeq	14, 0, cr0, cr3, cr14, {3}
     1a0:	0b3b0b3a 	bleq	ec2e90 <__kernel_end+0xd5ce90>
     1a4:	01000000 	mrseq	r0, (UNDEF: 0)
     1a8:	0e250111 	mcreq	1, 1, r0, cr5, cr1, {0}
     1ac:	0e030b13 	vmoveq.32	d3[0], r0
     1b0:	01110e1b 	tsteq	r1, fp, lsl lr
     1b4:	17100612 			; <UNDEFINED> instruction: 0x17100612
     1b8:	24020000 	strcs	r0, [r2], #-0
     1bc:	3e0b0b00 	vmlacc.f64	d0, d11, d0
     1c0:	000e030b 	andeq	r0, lr, fp, lsl #6
     1c4:	00240300 	eoreq	r0, r4, r0, lsl #6
     1c8:	0b3e0b0b 	bleq	f82dfc <__kernel_end+0xe1cdfc>
     1cc:	00000803 	andeq	r0, r0, r3, lsl #16
     1d0:	03001604 	movweq	r1, #1540	; 0x604
     1d4:	3b0b3a0e 	blcc	2cea14 <__kernel_end+0x168a14>
     1d8:	0013490b 	andseq	r4, r3, fp, lsl #18
     1dc:	00350500 	eorseq	r0, r5, r0, lsl #10
     1e0:	00001349 	andeq	r1, r0, r9, asr #6
     1e4:	0b000f06 	bleq	3e04 <SCTLR_ENABLE_INSTRUCTION_CACHE+0x2e04>
     1e8:	0013490b 	andseq	r4, r3, fp, lsl #18
     1ec:	00150700 	andseq	r0, r5, r0, lsl #14
     1f0:	00001927 	andeq	r1, r0, r7, lsr #18
     1f4:	0b010408 	bleq	4121c <__first_lvl_tbl_end+0x1c21c>
     1f8:	3a13490b 	bcc	4d262c <__kernel_end+0x36c62c>
     1fc:	010b3b0b 	tsteq	fp, fp, lsl #22
     200:	09000013 	stmdbeq	r0, {r0, r1, r4}
     204:	0e030028 	cdpeq	0, 0, cr0, cr3, cr8, {1}
     208:	00000b1c 	andeq	r0, r0, ip, lsl fp
     20c:	0b01130a 	bleq	44e3c <__first_lvl_tbl_end+0x1fe3c>
     210:	3b0b3a0b 	blcc	2cea44 <__kernel_end+0x168a44>
     214:	0013010b 	andseq	r0, r3, fp, lsl #2
     218:	000d0b00 	andeq	r0, sp, r0, lsl #22
     21c:	0b3a0e03 	bleq	e83a30 <__kernel_end+0xd1da30>
     220:	13490b3b 	movtne	r0, #39739	; 0x9b3b
     224:	00000b38 	andeq	r0, r0, r8, lsr fp
     228:	3f012e0c 	svccc	0x00012e0c
     22c:	3a0e0319 	bcc	380e98 <__kernel_end+0x21ae98>
     230:	270b3b0b 	strcs	r3, [fp, -fp, lsl #22]
     234:	20134919 	andscs	r4, r3, r9, lsl r9
     238:	0013010b 	andseq	r0, r3, fp, lsl #2
     23c:	00340d00 	eorseq	r0, r4, r0, lsl #26
     240:	0b3a0803 	bleq	e82254 <__kernel_end+0xd1c254>
     244:	13490b3b 	movtne	r0, #39739	; 0x9b3b
     248:	2e0e0000 	cdpcs	0, 0, cr0, cr14, cr0, {0}
     24c:	03193f00 	tsteq	r9, #0, 30
     250:	3b0b3a0e 	blcc	2cea90 <__kernel_end+0x168a90>
     254:	2019270b 	andscs	r2, r9, fp, lsl #14
     258:	0f00000b 	svceq	0x0000000b
     25c:	193f002e 	ldmdbne	pc!, {r1, r2, r3, r5}	; <UNPREDICTABLE>
     260:	0b3a0e03 	bleq	e83a74 <__kernel_end+0xd1da74>
     264:	19270b3b 	stmdbne	r7!, {r0, r1, r3, r4, r5, r8, r9, fp}
     268:	01111349 	tsteq	r1, r9, asr #6
     26c:	18400612 	stmdane	r0, {r1, r4, r9, sl}^
     270:	00194297 	mulseq	r9, r7, r2
     274:	012e1000 			; <UNDEFINED> instruction: 0x012e1000
     278:	0e03193f 	mcreq	9, 0, r1, cr3, cr15, {1}
     27c:	0b3b0b3a 	bleq	ec2f6c <__kernel_end+0xd5cf6c>
     280:	01111927 	tsteq	r1, r7, lsr #18
     284:	18400612 	stmdane	r0, {r1, r4, r9, sl}^
     288:	01194297 			; <UNDEFINED> instruction: 0x01194297
     28c:	11000013 	tstne	r0, r3, lsl r0
     290:	00018289 	andeq	r8, r1, r9, lsl #5
     294:	13310111 	teqne	r1, #1073741828	; 0x40000004
     298:	2e120000 	cdpcs	0, 1, cr0, cr2, cr0, {0}
     29c:	03193f01 	tsteq	r9, #1, 30
     2a0:	3b0b3a0e 	blcc	2ceae0 <__kernel_end+0x168ae0>
     2a4:	1119270b 	tstne	r9, fp, lsl #14
     2a8:	40061201 	andmi	r1, r6, r1, lsl #4
     2ac:	19429618 	stmdbne	r2, {r3, r4, r9, sl, ip, pc}^
     2b0:	00001301 	andeq	r1, r0, r1, lsl #6
     2b4:	03003413 	movweq	r3, #1043	; 0x413
     2b8:	3b0b3a08 	blcc	2ceae0 <__kernel_end+0x168ae0>
     2bc:	0213490b 	andseq	r4, r3, #180224	; 0x2c000
     2c0:	14000017 	strne	r0, [r0], #-23	; 0xffffffe9
     2c4:	1331011d 	teqne	r1, #1073741831	; 0x40000007
     2c8:	06120111 			; <UNDEFINED> instruction: 0x06120111
     2cc:	0b590b58 	bleq	1643034 <__kernel_end+0x14dd034>
     2d0:	00001301 	andeq	r1, r0, r1, lsl #6
     2d4:	31011d15 	tstcc	r1, r5, lsl sp
     2d8:	12011113 	andne	r1, r1, #-1073741820	; 0xc0000004
     2dc:	590b5806 	stmdbpl	fp, {r1, r2, fp, ip, lr}
     2e0:	1600000b 	strne	r0, [r0], -fp
     2e4:	0111010b 	tsteq	r1, fp, lsl #2
     2e8:	00000612 	andeq	r0, r0, r2, lsl r6
     2ec:	31003417 	tstcc	r0, r7, lsl r4
     2f0:	18000013 	stmdane	r0, {r0, r1, r4}
     2f4:	0e030005 	cdpeq	0, 0, cr0, cr3, cr5, {0}
     2f8:	0b3b0b3a 	bleq	ec2fe8 <__kernel_end+0xd5cfe8>
     2fc:	17021349 	strne	r1, [r2, -r9, asr #6]
     300:	05190000 	ldreq	r0, [r9, #-0]
     304:	3a0e0300 	bcc	380f0c <__kernel_end+0x21af0c>
     308:	490b3b0b 	stmdbmi	fp, {r0, r1, r3, r8, r9, fp, ip, sp}
     30c:	00180213 	andseq	r0, r8, r3, lsl r2
     310:	00341a00 	eorseq	r1, r4, r0, lsl #20
     314:	0b3a0e03 	bleq	e83b28 <__kernel_end+0xd1db28>
     318:	13490b3b 	movtne	r0, #39739	; 0x9b3b
     31c:	00001702 	andeq	r1, r0, r2, lsl #14
     320:	3f012e1b 	svccc	0x00012e1b
     324:	3a0e0319 	bcc	380f90 <__kernel_end+0x21af90>
     328:	270b3b0b 	strcs	r3, [fp, -fp, lsl #22]
     32c:	11134919 	tstne	r3, r9, lsl r9
     330:	40061201 	andmi	r1, r6, r1, lsl #4
     334:	19429718 	stmdbne	r2, {r3, r4, r8, r9, sl, ip, pc}^
     338:	00001301 	andeq	r1, r0, r1, lsl #6
     33c:	0300051c 	movweq	r0, #1308	; 0x51c
     340:	3b0b3a08 	blcc	2ceb68 <__kernel_end+0x168b68>
     344:	0213490b 	andseq	r4, r3, #180224	; 0x2c000
     348:	1d000018 	stcne	0, cr0, [r0, #-96]	; 0xffffffa0
     34c:	08030005 	stmdaeq	r3, {r0, r2}
     350:	0b3b0b3a 	bleq	ec3040 <__kernel_end+0xd5d040>
     354:	17021349 	strne	r1, [r2, -r9, asr #6]
     358:	341e0000 	ldrcc	r0, [lr], #-0
     35c:	3a080300 	bcc	200f64 <__kernel_end+0x9af64>
     360:	490b3b0b 	stmdbmi	fp, {r0, r1, r3, r8, r9, fp, ip, sp}
     364:	00180213 	andseq	r0, r8, r3, lsl r2
     368:	00341f00 	eorseq	r1, r4, r0, lsl #30
     36c:	0b3a0e03 	bleq	e83b80 <__kernel_end+0xd1db80>
     370:	13490b3b 	movtne	r0, #39739	; 0x9b3b
     374:	00001802 	andeq	r1, r0, r2, lsl #16
     378:	0b000f20 	bleq	4000 <SCTLR_ENABLE_INSTRUCTION_CACHE+0x3000>
     37c:	2100000b 	tstcs	r0, fp
     380:	01018289 	smlabbeq	r1, r9, r2, r8
     384:	42950111 	addsmi	r0, r5, #1073741828	; 0x40000004
     388:	00133119 	andseq	r3, r3, r9, lsl r1
     38c:	828a2200 	addhi	r2, sl, #0, 4
     390:	18020001 	stmdane	r2, {r0}
     394:	00184291 	mulseq	r8, r1, r2
     398:	82892300 	addhi	r2, r9, #0, 6
     39c:	01110101 	tsteq	r1, r1, lsl #2
     3a0:	13011331 	movwne	r1, #4913	; 0x1331
     3a4:	89240000 	stmdbhi	r4!, {}	; <UNPREDICTABLE>
     3a8:	11010182 	smlabbne	r1, r2, r1, r0
     3ac:	00133101 	andseq	r3, r3, r1, lsl #2
     3b0:	00342500 	eorseq	r2, r4, r0, lsl #10
     3b4:	0b3a0e03 	bleq	e83bc8 <__kernel_end+0xd1dbc8>
     3b8:	13490b3b 	movtne	r0, #39739	; 0x9b3b
     3bc:	0000061c 	andeq	r0, r0, ip, lsl r6
     3c0:	49002626 	stmdbmi	r0, {r1, r2, r5, r9, sl, sp}
     3c4:	27000013 	smladcs	r0, r3, r0, r0
     3c8:	13490101 	movtne	r0, #37121	; 0x9101
     3cc:	00001301 	andeq	r1, r0, r1, lsl #6
     3d0:	49002128 	stmdbmi	r0, {r3, r5, r8, sp}
     3d4:	000b2f13 	andeq	r2, fp, r3, lsl pc
     3d8:	00342900 	eorseq	r2, r4, r0, lsl #18
     3dc:	0b3a0e03 	bleq	e83bf0 <__kernel_end+0xd1dbf0>
     3e0:	13490b3b 	movtne	r0, #39739	; 0x9b3b
     3e4:	1802193f 	stmdane	r2, {r0, r1, r2, r3, r4, r5, r8, fp, ip}
     3e8:	2e2a0000 	cdpcs	0, 2, cr0, cr10, cr0, {0}
     3ec:	3c193f00 	ldccc	15, cr3, [r9], {-0}
     3f0:	030e6e19 	movweq	r6, #60953	; 0xee19
     3f4:	3b0b3a0e 	blcc	2cec34 <__kernel_end+0x168c34>
     3f8:	0000000b 	andeq	r0, r0, fp
     3fc:	25011101 	strcs	r1, [r1, #-257]	; 0xfffffeff
     400:	030b130e 	movweq	r1, #45838	; 0xb30e
     404:	110e1b0e 	tstne	lr, lr, lsl #22
     408:	10061201 	andne	r1, r6, r1, lsl #4
     40c:	02000017 	andeq	r0, r0, #23
     410:	0b0b0024 	bleq	2c04a8 <__kernel_end+0x15a4a8>
     414:	0e030b3e 	vmoveq.16	d3[0], r0
     418:	16030000 	strne	r0, [r3], -r0
     41c:	3a0e0300 	bcc	381024 <__kernel_end+0x21b024>
     420:	490b3b0b 	stmdbmi	fp, {r0, r1, r3, r8, r9, fp, ip, sp}
     424:	04000013 	streq	r0, [r0], #-19	; 0xffffffed
     428:	0b0b0024 	bleq	2c04c0 <__kernel_end+0x15a4c0>
     42c:	08030b3e 	stmdaeq	r3, {r1, r2, r3, r4, r5, r8, r9, fp}
     430:	35050000 	strcc	r0, [r5, #-0]
     434:	00134900 	andseq	r4, r3, r0, lsl #18
     438:	01040600 	tsteq	r4, r0, lsl #12
     43c:	13490b0b 	movtne	r0, #39691	; 0x9b0b
     440:	0b3b0b3a 	bleq	ec3130 <__kernel_end+0xd5d130>
     444:	00001301 	andeq	r1, r0, r1, lsl #6
     448:	03002807 	movweq	r2, #2055	; 0x807
     44c:	000b1c0e 	andeq	r1, fp, lr, lsl #24
     450:	01040800 	tsteq	r4, r0, lsl #16
     454:	0b0b0e03 	bleq	2c3c68 <__kernel_end+0x15dc68>
     458:	0b3a1349 	bleq	e85184 <__kernel_end+0xd1f184>
     45c:	13010b3b 	movwne	r0, #6971	; 0x1b3b
     460:	28090000 	stmdacs	r9, {}	; <UNPREDICTABLE>
     464:	1c0e0300 	stcne	3, cr0, [lr], {-0}
     468:	0a000006 	beq	488 <ARM_I_BIT+0x408>
     46c:	0b0b0113 	bleq	2c08c0 <__kernel_end+0x15a8c0>
     470:	0b3b0b3a 	bleq	ec3160 <__kernel_end+0xd5d160>
     474:	00001301 	andeq	r1, r0, r1, lsl #6
     478:	03000d0b 	movweq	r0, #3339	; 0xd0b
     47c:	3b0b3a0e 	blcc	2cecbc <__kernel_end+0x168cbc>
     480:	3813490b 	ldmdacc	r3, {r0, r1, r3, r8, fp, lr}
     484:	0c00000b 	stceq	0, cr0, [r0], {11}
     488:	13490101 	movtne	r0, #37121	; 0x9101
     48c:	00001301 	andeq	r1, r0, r1, lsl #6
     490:	4900210d 	stmdbmi	r0, {r0, r2, r3, r8, sp}
     494:	000b2f13 	andeq	r2, fp, r3, lsl pc
     498:	012e0e00 			; <UNDEFINED> instruction: 0x012e0e00
     49c:	0e03193f 	mcreq	9, 0, r1, cr3, cr15, {1}
     4a0:	0b3b0b3a 	bleq	ec3190 <__kernel_end+0xd5d190>
     4a4:	01111927 	tsteq	r1, r7, lsr #18
     4a8:	18400612 	stmdane	r0, {r1, r4, r9, sl}^
     4ac:	01194297 			; <UNDEFINED> instruction: 0x01194297
     4b0:	0f000013 	svceq	0x00000013
     4b4:	0e030005 	cdpeq	0, 0, cr0, cr3, cr5, {0}
     4b8:	0b3b0b3a 	bleq	ec31a8 <__kernel_end+0xd5d1a8>
     4bc:	17021349 	strne	r1, [r2, -r9, asr #6]
     4c0:	2e100000 	cdpcs	0, 1, cr0, cr0, cr0, {0}
     4c4:	03193f01 	tsteq	r9, #1, 30
     4c8:	3b0b3a0e 	blcc	2ced08 <__kernel_end+0x168d08>
     4cc:	4919270b 	ldmdbmi	r9, {r0, r1, r3, r8, r9, sl, sp}
     4d0:	12011113 	andne	r1, r1, #-1073741820	; 0xc0000004
     4d4:	97184006 	ldrls	r4, [r8, -r6]
     4d8:	13011942 	movwne	r1, #6466	; 0x1942
     4dc:	34110000 	ldrcc	r0, [r1], #-0
     4e0:	3a0e0300 	bcc	3810e8 <__kernel_end+0x21b0e8>
     4e4:	490b3b0b 	stmdbmi	fp, {r0, r1, r3, r8, r9, fp, ip, sp}
     4e8:	00170213 	andseq	r0, r7, r3, lsl r2
     4ec:	00341200 	eorseq	r1, r4, r0, lsl #4
     4f0:	0b3a0e03 	bleq	e83d04 <__kernel_end+0xd1dd04>
     4f4:	13490b3b 	movtne	r0, #39739	; 0x9b3b
     4f8:	0000061c 	andeq	r0, r0, ip, lsl r6
     4fc:	0b000f13 	bleq	4150 <SCTLR_ENABLE_INSTRUCTION_CACHE+0x3150>
     500:	0013490b 	andseq	r4, r3, fp, lsl #18
     504:	00261400 	eoreq	r1, r6, r0, lsl #8
     508:	00001349 	andeq	r1, r0, r9, asr #6
     50c:	01110100 	tsteq	r1, r0, lsl #2
     510:	0b130e25 	bleq	4c3dac <__kernel_end+0x35ddac>
     514:	0e1b0e03 	cdpeq	14, 1, cr0, cr11, cr3, {0}
     518:	06120111 			; <UNDEFINED> instruction: 0x06120111
     51c:	00001710 	andeq	r1, r0, r0, lsl r7
     520:	03001602 	movweq	r1, #1538	; 0x602
     524:	3b0b3a0e 	blcc	2ced64 <__kernel_end+0x168d64>
     528:	0013490b 	andseq	r4, r3, fp, lsl #18
     52c:	01130300 	tsteq	r3, r0, lsl #6
     530:	0b0b0e03 	bleq	2c3d44 <__kernel_end+0x15dd44>
     534:	0b3b0b3a 	bleq	ec3224 <__kernel_end+0xd5d224>
     538:	00001301 	andeq	r1, r0, r1, lsl #6
     53c:	03000d04 	movweq	r0, #3332	; 0xd04
     540:	3813490e 	ldmdacc	r3, {r1, r2, r3, r8, fp, lr}
     544:	0019340b 	andseq	r3, r9, fp, lsl #8
     548:	000f0500 	andeq	r0, pc, r0, lsl #10
     54c:	00000b0b 	andeq	r0, r0, fp, lsl #22
     550:	0b002406 	bleq	9570 <show_dma_demo+0x138>
     554:	030b3e0b 	movweq	r3, #48651	; 0xbe0b
     558:	0700000e 	streq	r0, [r0, -lr]
     55c:	0b0b0024 	bleq	2c05f4 <__kernel_end+0x15a5f4>
     560:	08030b3e 	stmdaeq	r3, {r1, r2, r3, r4, r5, r8, r9, fp}
     564:	04080000 	streq	r0, [r8], #-0
     568:	490b0b01 	stmdbmi	fp, {r0, r8, r9, fp}
     56c:	3b0b3a13 	blcc	2cedc0 <__kernel_end+0x168dc0>
     570:	0013010b 	andseq	r0, r3, fp, lsl #2
     574:	00280900 	eoreq	r0, r8, r0, lsl #18
     578:	0b1c0e03 	bleq	703d8c <__kernel_end+0x59dd8c>
     57c:	280a0000 	stmdacs	sl, {}	; <UNPREDICTABLE>
     580:	1c0e0300 	stcne	3, cr0, [lr], {-0}
     584:	0b000006 	bleq	5a4 <ARM_I_BIT+0x524>
     588:	0e030028 	cdpeq	0, 0, cr0, cr3, cr8, {1}
     58c:	0000051c 	andeq	r0, r0, ip, lsl r5
     590:	0b01170c 	bleq	461c8 <__first_lvl_tbl_end+0x211c8>
     594:	3b0b3a05 	blcc	2cedb0 <__kernel_end+0x168db0>
     598:	0013010b 	andseq	r0, r3, fp, lsl #2
     59c:	000d0d00 	andeq	r0, sp, r0, lsl #26
     5a0:	0b3a0e03 	bleq	e83db4 <__kernel_end+0xd1ddb4>
     5a4:	13490b3b 	movtne	r0, #39739	; 0x9b3b
     5a8:	010e0000 	mrseq	r0, (UNDEF: 14)
     5ac:	01134901 	tsteq	r3, r1, lsl #18
     5b0:	0f000013 	svceq	0x00000013
     5b4:	13490021 	movtne	r0, #36897	; 0x9021
     5b8:	00000b2f 	andeq	r0, r0, pc, lsr #22
     5bc:	0b011310 	bleq	45204 <__first_lvl_tbl_end+0x20204>
     5c0:	3b0b3a05 	blcc	2ceddc <__kernel_end+0x168ddc>
     5c4:	0013010b 	andseq	r0, r3, fp, lsl #2
     5c8:	000d1100 	andeq	r1, sp, r0, lsl #2
     5cc:	0b3a0803 	bleq	e825e0 <__kernel_end+0xd1c5e0>
     5d0:	13490b3b 	movtne	r0, #39739	; 0x9b3b
     5d4:	00000b38 	andeq	r0, r0, r8, lsr fp
     5d8:	03000d12 	movweq	r0, #3346	; 0xd12
     5dc:	3b0b3a0e 	blcc	2cee1c <__kernel_end+0x168e1c>
     5e0:	3813490b 	ldmdacc	r3, {r0, r1, r3, r8, fp, lr}
     5e4:	1300000b 	movwne	r0, #11
     5e8:	193f002e 	ldmdbne	pc!, {r1, r2, r3, r5}	; <UNPREDICTABLE>
     5ec:	0b3a0e03 	bleq	e83e00 <__kernel_end+0xd1de00>
     5f0:	19270b3b 	stmdbne	r7!, {r0, r1, r3, r4, r5, r8, r9, fp}
     5f4:	06120111 			; <UNDEFINED> instruction: 0x06120111
     5f8:	42971840 	addsmi	r1, r7, #64, 16	; 0x400000
     5fc:	14000019 	strne	r0, [r0], #-25	; 0xffffffe7
     600:	193f012e 	ldmdbne	pc!, {r1, r2, r3, r5, r8}	; <UNPREDICTABLE>
     604:	0b3a0e03 	bleq	e83e18 <__kernel_end+0xd1de18>
     608:	19270b3b 	stmdbne	r7!, {r0, r1, r3, r4, r5, r8, r9, fp}
     60c:	06120111 			; <UNDEFINED> instruction: 0x06120111
     610:	42971840 	addsmi	r1, r7, #64, 16	; 0x400000
     614:	00130119 	andseq	r0, r3, r9, lsl r1
     618:	00051500 	andeq	r1, r5, r0, lsl #10
     61c:	0b3a0803 	bleq	e82630 <__kernel_end+0xd1c630>
     620:	13490b3b 	movtne	r0, #39739	; 0x9b3b
     624:	00001802 	andeq	r1, r0, r2, lsl #16
     628:	00001816 	andeq	r1, r0, r6, lsl r8
     62c:	00341700 	eorseq	r1, r4, r0, lsl #14
     630:	0b3a0803 	bleq	e82644 <__kernel_end+0xd1c644>
     634:	13490b3b 	movtne	r0, #39739	; 0x9b3b
     638:	00001802 	andeq	r1, r0, r2, lsl #16
     63c:	3f012e18 	svccc	0x00012e18
     640:	3a0e0319 	bcc	3812ac <__kernel_end+0x21b2ac>
     644:	270b3b0b 	strcs	r3, [fp, -fp, lsl #22]
     648:	11134919 	tstne	r3, r9, lsl r9
     64c:	40061201 	andmi	r1, r6, r1, lsl #4
     650:	19429718 	stmdbne	r2, {r3, r4, r8, r9, sl, ip, pc}^
     654:	00001301 	andeq	r1, r0, r1, lsl #6
     658:	03003419 	movweq	r3, #1049	; 0x419
     65c:	3b0b3a0e 	blcc	2cee9c <__kernel_end+0x168e9c>
     660:	0013490b 	andseq	r4, r3, fp, lsl #18
     664:	82891a00 	addhi	r1, r9, #0, 20
     668:	01110101 	tsteq	r1, r1, lsl #2
     66c:	13011331 	movwne	r1, #4913	; 0x1331
     670:	8a1b0000 	bhi	6c0678 <__kernel_end+0x55a678>
     674:	02000182 	andeq	r0, r0, #-2147483616	; 0x80000020
     678:	18429118 	stmdane	r2, {r3, r4, r8, ip, pc}^
     67c:	891c0000 	ldmdbhi	ip, {}	; <UNPREDICTABLE>
     680:	11010182 	smlabbne	r1, r2, r1, r0
     684:	19429501 	stmdbne	r2, {r0, r8, sl, ip, pc}^
     688:	00001331 	andeq	r1, r0, r1, lsr r3
     68c:	0300051d 	movweq	r0, #1309	; 0x51d
     690:	3b0b3a08 	blcc	2ceeb8 <__kernel_end+0x168eb8>
     694:	0213490b 	andseq	r4, r3, #180224	; 0x2c000
     698:	1e000017 	mcrne	0, 0, r0, cr0, cr7, {0}
     69c:	0e030034 	mcreq	0, 0, r0, cr3, cr4, {1}
     6a0:	0b3b0b3a 	bleq	ec3390 <__kernel_end+0xd5d390>
     6a4:	18021349 	stmdane	r2, {r0, r3, r6, r8, r9, ip}
     6a8:	341f0000 	ldrcc	r0, [pc], #-0	; 6b0 <ARM_I_BIT+0x630>
     6ac:	3a0e0300 	bcc	3812b4 <__kernel_end+0x21b2b4>
     6b0:	490b3b0b 	stmdbmi	fp, {r0, r1, r3, r8, r9, fp, ip, sp}
     6b4:	00170213 	andseq	r0, r7, r3, lsl r2
     6b8:	82892000 	addhi	r2, r9, #0
     6bc:	01110101 	tsteq	r1, r1, lsl #2
     6c0:	00001331 	andeq	r1, r0, r1, lsr r3
     6c4:	0b000f21 	bleq	4350 <SCTLR_ENABLE_INSTRUCTION_CACHE+0x3350>
     6c8:	0013490b 	andseq	r4, r3, fp, lsl #18
     6cc:	00212200 	eoreq	r2, r1, r0, lsl #4
     6d0:	052f1349 	streq	r1, [pc, #-841]!	; 38f <ARM_I_BIT+0x30f>
     6d4:	2e230000 	cdpcs	0, 2, cr0, cr3, cr0, {0}
     6d8:	3c193f00 	ldccc	15, cr3, [r9], {-0}
     6dc:	030e6e19 	movweq	r6, #60953	; 0xee19
     6e0:	3b0b3a0e 	blcc	2cef20 <__kernel_end+0x168f20>
     6e4:	0000000b 	andeq	r0, r0, fp
     6e8:	25011101 	strcs	r1, [r1, #-257]	; 0xfffffeff
     6ec:	030b130e 	movweq	r1, #45838	; 0xb30e
     6f0:	110e1b0e 	tstne	lr, lr, lsl #22
     6f4:	10061201 	andne	r1, r6, r1, lsl #4
     6f8:	02000017 	andeq	r0, r0, #23
     6fc:	0b0b0024 	bleq	2c0794 <__kernel_end+0x15a794>
     700:	0e030b3e 	vmoveq.16	d3[0], r0
     704:	16030000 	strne	r0, [r3], -r0
     708:	3a0e0300 	bcc	381310 <__kernel_end+0x21b310>
     70c:	490b3b0b 	stmdbmi	fp, {r0, r1, r3, r8, r9, fp, ip, sp}
     710:	04000013 	streq	r0, [r0], #-19	; 0xffffffed
     714:	0b0b0024 	bleq	2c07ac <__kernel_end+0x15a7ac>
     718:	08030b3e 	stmdaeq	r3, {r1, r2, r3, r4, r5, r8, r9, fp}
     71c:	35050000 	strcc	r0, [r5, #-0]
     720:	00134900 	andseq	r4, r3, r0, lsl #18
     724:	01130600 	tsteq	r3, r0, lsl #12
     728:	0b3a0b0b 	bleq	e8335c <__kernel_end+0xd1d35c>
     72c:	13010b3b 	movwne	r0, #6971	; 0x1b3b
     730:	0d070000 	stceq	0, cr0, [r7, #-0]
     734:	3a0e0300 	bcc	38133c <__kernel_end+0x21b33c>
     738:	490b3b0b 	stmdbmi	fp, {r0, r1, r3, r8, r9, fp, ip, sp}
     73c:	0d0b0b13 	vstreq	d0, [fp, #-76]	; 0xffffffb4
     740:	380b0c0b 	stmdacc	fp, {r0, r1, r3, sl, fp}
     744:	0800000b 	stmdaeq	r0, {r0, r1, r3}
     748:	0e03000d 	cdpeq	0, 0, cr0, cr3, cr13, {0}
     74c:	0b3b0b3a 	bleq	ec343c <__kernel_end+0xd5d43c>
     750:	0b381349 	bleq	e0547c <__kernel_end+0xc9f47c>
     754:	2e090000 	cdpcs	0, 0, cr0, cr9, cr0, {0}
     758:	03193f01 	tsteq	r9, #1, 30
     75c:	3b0b3a0e 	blcc	2cef9c <__kernel_end+0x168f9c>
     760:	1119270b 	tstne	r9, fp, lsl #14
     764:	40061201 	andmi	r1, r6, r1, lsl #4
     768:	19429718 	stmdbne	r2, {r3, r4, r8, r9, sl, ip, pc}^
     76c:	00001301 	andeq	r1, r0, r1, lsl #6
     770:	0182890a 	orreq	r8, r2, sl, lsl #18
     774:	95011100 	strls	r1, [r1, #-256]	; 0xffffff00
     778:	13311942 	teqne	r1, #1081344	; 0x108000
     77c:	050b0000 	streq	r0, [fp, #-0]
     780:	3a0e0300 	bcc	381388 <__kernel_end+0x21b388>
     784:	490b3b0b 	stmdbmi	fp, {r0, r1, r3, r8, r9, fp, ip, sp}
     788:	00170213 	andseq	r0, r7, r3, lsl r2
     78c:	00340c00 	eorseq	r0, r4, r0, lsl #24
     790:	0b3a0e03 	bleq	e83fa4 <__kernel_end+0xd1dfa4>
     794:	13490b3b 	movtne	r0, #39739	; 0x9b3b
     798:	00001802 	andeq	r1, r0, r2, lsl #16
     79c:	0300340d 	movweq	r3, #1037	; 0x40d
     7a0:	3b0b3a08 	blcc	2cefc8 <__kernel_end+0x168fc8>
     7a4:	0213490b 	andseq	r4, r3, #180224	; 0x2c000
     7a8:	0e000018 	mcreq	0, 0, r0, cr0, cr8, {0}
     7ac:	00018289 	andeq	r8, r1, r9, lsl #5
     7b0:	13310111 	teqne	r1, #1073741828	; 0x40000004
     7b4:	890f0000 	stmdbhi	pc, {}	; <UNPREDICTABLE>
     7b8:	11010182 	smlabbne	r1, r2, r1, r0
     7bc:	00133101 	andseq	r3, r3, r1, lsl #2
     7c0:	828a1000 	addhi	r1, sl, #0
     7c4:	18020001 	stmdane	r2, {r0}
     7c8:	00184291 	mulseq	r8, r1, r2
     7cc:	012e1100 			; <UNDEFINED> instruction: 0x012e1100
     7d0:	0e03193f 	mcreq	9, 0, r1, cr3, cr15, {1}
     7d4:	0b3b0b3a 	bleq	ec34c4 <__kernel_end+0xd5d4c4>
     7d8:	13491927 	movtne	r1, #39207	; 0x9927
     7dc:	06120111 			; <UNDEFINED> instruction: 0x06120111
     7e0:	42971840 	addsmi	r1, r7, #64, 16	; 0x400000
     7e4:	00130119 	andseq	r0, r3, r9, lsl r1
     7e8:	000f1200 	andeq	r1, pc, r0, lsl #4
     7ec:	13490b0b 	movtne	r0, #39691	; 0x9b0b
     7f0:	2e130000 	cdpcs	0, 1, cr0, cr3, cr0, {0}
     7f4:	3c193f00 	ldccc	15, cr3, [r9], {-0}
     7f8:	030e6e19 	movweq	r6, #60953	; 0xee19
     7fc:	3b0b3a0e 	blcc	2cf03c <__kernel_end+0x16903c>
     800:	0000000b 	andeq	r0, r0, fp
     804:	25011101 	strcs	r1, [r1, #-257]	; 0xfffffeff
     808:	030b130e 	movweq	r1, #45838	; 0xb30e
     80c:	110e1b0e 	tstne	lr, lr, lsl #22
     810:	10061201 	andne	r1, r6, r1, lsl #4
     814:	02000017 	andeq	r0, r0, #23
     818:	0b0b0024 	bleq	2c08b0 <__kernel_end+0x15a8b0>
     81c:	0e030b3e 	vmoveq.16	d3[0], r0
     820:	16030000 	strne	r0, [r3], -r0
     824:	3a0e0300 	bcc	38142c <__kernel_end+0x21b42c>
     828:	490b3b0b 	stmdbmi	fp, {r0, r1, r3, r8, r9, fp, ip, sp}
     82c:	04000013 	streq	r0, [r0], #-19	; 0xffffffed
     830:	0b0b0024 	bleq	2c08c8 <__kernel_end+0x15a8c8>
     834:	08030b3e 	stmdaeq	r3, {r1, r2, r3, r4, r5, r8, r9, fp}
     838:	2e050000 	cdpcs	0, 0, cr0, cr5, cr0, {0}
     83c:	03193f01 	tsteq	r9, #1, 30
     840:	3b0b3a0e 	blcc	2cf080 <__kernel_end+0x169080>
     844:	4919270b 	ldmdbmi	r9, {r0, r1, r3, r8, r9, sl, sp}
     848:	12011113 	andne	r1, r1, #-1073741820	; 0xc0000004
     84c:	97184006 	ldrls	r4, [r8, -r6]
     850:	13011942 	movwne	r1, #6466	; 0x1942
     854:	05060000 	streq	r0, [r6, #-0]
     858:	3a0e0300 	bcc	381460 <__kernel_end+0x21b460>
     85c:	490b3b0b 	stmdbmi	fp, {r0, r1, r3, r8, r9, fp, ip, sp}
     860:	00170213 	andseq	r0, r7, r3, lsl r2
     864:	00340700 	eorseq	r0, r4, r0, lsl #14
     868:	0b3a0e03 	bleq	e8407c <__kernel_end+0xd1e07c>
     86c:	13490b3b 	movtne	r0, #39739	; 0x9b3b
     870:	00001702 	andeq	r1, r0, r2, lsl #14
     874:	01828908 	orreq	r8, r2, r8, lsl #18
     878:	31011101 	tstcc	r1, r1, lsl #2
     87c:	09000013 	stmdbeq	r0, {r0, r1, r4}
     880:	0001828a 	andeq	r8, r1, sl, lsl #5
     884:	42911802 	addsmi	r1, r1, #131072	; 0x20000
     888:	0a000018 	beq	8f0 <SCTLR_ENABLE_BRANCH_PREDICTION+0xf0>
     88c:	193f012e 	ldmdbne	pc!, {r1, r2, r3, r5, r8}	; <UNPREDICTABLE>
     890:	0b3a0e03 	bleq	e840a4 <__kernel_end+0xd1e0a4>
     894:	19270b3b 	stmdbne	r7!, {r0, r1, r3, r4, r5, r8, r9, fp}
     898:	06120111 			; <UNDEFINED> instruction: 0x06120111
     89c:	42971840 	addsmi	r1, r7, #64, 16	; 0x400000
     8a0:	00130119 	andseq	r0, r3, r9, lsl r1
     8a4:	00340b00 	eorseq	r0, r4, r0, lsl #22
     8a8:	0b3a0803 	bleq	e828bc <__kernel_end+0xd1c8bc>
     8ac:	13490b3b 	movtne	r0, #39739	; 0x9b3b
     8b0:	00001702 	andeq	r1, r0, r2, lsl #14
     8b4:	0182890c 	orreq	r8, r2, ip, lsl #18
     8b8:	31011101 	tstcc	r1, r1, lsl #2
     8bc:	00130113 	andseq	r0, r3, r3, lsl r1
     8c0:	82890d00 	addhi	r0, r9, #0, 26
     8c4:	01110001 	tsteq	r1, r1
     8c8:	00001331 	andeq	r1, r0, r1, lsr r3
     8cc:	0182890e 	orreq	r8, r2, lr, lsl #18
     8d0:	95011101 	strls	r1, [r1, #-257]	; 0xfffffeff
     8d4:	13311942 	teqne	r1, #1081344	; 0x108000
     8d8:	340f0000 	strcc	r0, [pc], #-0	; 8e0 <SCTLR_ENABLE_BRANCH_PREDICTION+0xe0>
     8dc:	3a0e0300 	bcc	3814e4 <__kernel_end+0x21b4e4>
     8e0:	490b3b0b 	stmdbmi	fp, {r0, r1, r3, r8, r9, fp, ip, sp}
     8e4:	00180213 	andseq	r0, r8, r3, lsl r2
     8e8:	00341000 	eorseq	r1, r4, r0
     8ec:	0b3a0e03 	bleq	e84100 <__kernel_end+0xd1e100>
     8f0:	13490b3b 	movtne	r0, #39739	; 0x9b3b
     8f4:	193c193f 	ldmdbne	ip!, {r0, r1, r2, r3, r4, r5, r8, fp, ip}
     8f8:	2e110000 	cdpcs	0, 1, cr0, cr1, cr0, {0}
     8fc:	3c193f00 	ldccc	15, cr3, [r9], {-0}
     900:	030e6e19 	movweq	r6, #60953	; 0xee19
     904:	3b0b3a0e 	blcc	2cf144 <__kernel_end+0x169144>
     908:	0000000b 	andeq	r0, r0, fp
     90c:	25011101 	strcs	r1, [r1, #-257]	; 0xfffffeff
     910:	030b130e 	movweq	r1, #45838	; 0xb30e
     914:	110e1b0e 	tstne	lr, lr, lsl #22
     918:	10061201 	andne	r1, r6, r1, lsl #4
     91c:	02000017 	andeq	r0, r0, #23
     920:	0b0b0024 	bleq	2c09b8 <__kernel_end+0x15a9b8>
     924:	0e030b3e 	vmoveq.16	d3[0], r0
     928:	24030000 	strcs	r0, [r3], #-0
     92c:	3e0b0b00 	vmlacc.f64	d0, d11, d0
     930:	0008030b 	andeq	r0, r8, fp, lsl #6
     934:	00160400 	andseq	r0, r6, r0, lsl #8
     938:	0b3a0e03 	bleq	e8414c <__kernel_end+0xd1e14c>
     93c:	13490b3b 	movtne	r0, #39739	; 0x9b3b
     940:	13050000 	movwne	r0, #20480	; 0x5000
     944:	3a0b0b01 	bcc	2c3550 <__kernel_end+0x15d550>
     948:	010b3b0b 	tsteq	fp, fp, lsl #22
     94c:	06000013 			; <UNDEFINED> instruction: 0x06000013
     950:	0e03000d 	cdpeq	0, 0, cr0, cr3, cr13, {0}
     954:	0b3b0b3a 	bleq	ec3644 <__kernel_end+0xd5d644>
     958:	0b0b1349 	bleq	2c5684 <__kernel_end+0x15f684>
     95c:	0b0c0b0d 	bleq	303598 <__kernel_end+0x19d598>
     960:	00000b38 	andeq	r0, r0, r8, lsr fp
     964:	03011307 	movweq	r1, #4871	; 0x1307
     968:	3a0b0b0e 	bcc	2c35a8 <__kernel_end+0x15d5a8>
     96c:	010b3b0b 	tsteq	fp, fp, lsl #22
     970:	08000013 	stmdaeq	r0, {r0, r1, r4}
     974:	0e03000d 	cdpeq	0, 0, cr0, cr3, cr13, {0}
     978:	0b3b0b3a 	bleq	ec3668 <__kernel_end+0xd5d668>
     97c:	0b381349 	bleq	e056a8 <__kernel_end+0xc9f6a8>
     980:	0f090000 	svceq	0x00090000
     984:	490b0b00 	stmdbmi	fp, {r8, r9, fp}
     988:	0a000013 	beq	9dc <SCTLR_ENABLE_BRANCH_PREDICTION+0x1dc>
     98c:	0b0b0104 	bleq	2c0da4 <__kernel_end+0x15ada4>
     990:	0b3a1349 	bleq	e856bc <__kernel_end+0xd1f6bc>
     994:	13010b3b 	movwne	r0, #6971	; 0x1b3b
     998:	280b0000 	stmdacs	fp, {}	; <UNPREDICTABLE>
     99c:	1c0e0300 	stcne	3, cr0, [lr], {-0}
     9a0:	0c00000b 	stceq	0, cr0, [r0], {11}
     9a4:	0e030028 	cdpeq	0, 0, cr0, cr3, cr8, {1}
     9a8:	0000061c 	andeq	r0, r0, ip, lsl r6
     9ac:	0300280d 	movweq	r2, #2061	; 0x80d
     9b0:	00051c0e 	andeq	r1, r5, lr, lsl #24
     9b4:	01170e00 	tsteq	r7, r0, lsl #28
     9b8:	0b3a050b 	bleq	e81dec <__kernel_end+0xd1bdec>
     9bc:	13010b3b 	movwne	r0, #6971	; 0x1b3b
     9c0:	0d0f0000 	stceq	0, cr0, [pc, #-0]	; 9c8 <SCTLR_ENABLE_BRANCH_PREDICTION+0x1c8>
     9c4:	3a0e0300 	bcc	3815cc <__kernel_end+0x21b5cc>
     9c8:	490b3b0b 	stmdbmi	fp, {r0, r1, r3, r8, r9, fp, ip, sp}
     9cc:	10000013 	andne	r0, r0, r3, lsl r0
     9d0:	13490101 	movtne	r0, #37121	; 0x9101
     9d4:	00001301 	andeq	r1, r0, r1, lsl #6
     9d8:	49002111 	stmdbmi	r0, {r0, r4, r8, sp}
     9dc:	000b2f13 	andeq	r2, fp, r3, lsl pc
     9e0:	01131200 	tsteq	r3, r0, lsl #4
     9e4:	0b3a050b 	bleq	e81e18 <__kernel_end+0xd1be18>
     9e8:	13010b3b 	movwne	r0, #6971	; 0x1b3b
     9ec:	0d130000 	ldceq	0, cr0, [r3, #-0]
     9f0:	3a080300 	bcc	2015f8 <__kernel_end+0x9b5f8>
     9f4:	490b3b0b 	stmdbmi	fp, {r0, r1, r3, r8, r9, fp, ip, sp}
     9f8:	000b3813 	andeq	r3, fp, r3, lsl r8
     9fc:	012e1400 			; <UNDEFINED> instruction: 0x012e1400
     a00:	0e03193f 	mcreq	9, 0, r1, cr3, cr15, {1}
     a04:	0b3b0b3a 	bleq	ec36f4 <__kernel_end+0xd5d6f4>
     a08:	0b201349 	bleq	805734 <__kernel_end+0x69f734>
     a0c:	00001301 	andeq	r1, r0, r1, lsl #6
     a10:	03003415 	movweq	r3, #1045	; 0x415
     a14:	3b0b3a08 	blcc	2cf23c <__kernel_end+0x16923c>
     a18:	0013490b 	andseq	r4, r3, fp, lsl #18
     a1c:	012e1600 			; <UNDEFINED> instruction: 0x012e1600
     a20:	0e03193f 	mcreq	9, 0, r1, cr3, cr15, {1}
     a24:	0b3b0b3a 	bleq	ec3714 <__kernel_end+0xd5d714>
     a28:	01111927 	tsteq	r1, r7, lsr #18
     a2c:	18400612 	stmdane	r0, {r1, r4, r9, sl}^
     a30:	01194297 			; <UNDEFINED> instruction: 0x01194297
     a34:	17000013 	smladne	r0, r3, r0, r0
     a38:	0e030005 	cdpeq	0, 0, cr0, cr3, cr5, {0}
     a3c:	0b3b0b3a 	bleq	ec372c <__kernel_end+0xd5d72c>
     a40:	18021349 	stmdane	r2, {r0, r3, r6, r8, r9, ip}
     a44:	2e180000 	cdpcs	0, 1, cr0, cr8, cr0, {0}
     a48:	03193f01 	tsteq	r9, #1, 30
     a4c:	3b0b3a0e 	blcc	2cf28c <__kernel_end+0x16928c>
     a50:	4919270b 	ldmdbmi	r9, {r0, r1, r3, r8, r9, sl, sp}
     a54:	12011113 	andne	r1, r1, #-1073741820	; 0xc0000004
     a58:	97184006 	ldrls	r4, [r8, -r6]
     a5c:	13011942 	movwne	r1, #6466	; 0x1942
     a60:	05190000 	ldreq	r0, [r9, #-0]
     a64:	3a0e0300 	bcc	38166c <__kernel_end+0x21b66c>
     a68:	490b3b0b 	stmdbmi	fp, {r0, r1, r3, r8, r9, fp, ip, sp}
     a6c:	00170213 	andseq	r0, r7, r3, lsl r2
     a70:	00341a00 	eorseq	r1, r4, r0, lsl #20
     a74:	0b3a0803 	bleq	e82a88 <__kernel_end+0xd1ca88>
     a78:	13490b3b 	movtne	r0, #39739	; 0x9b3b
     a7c:	00001702 	andeq	r1, r0, r2, lsl #14
     a80:	3f012e1b 	svccc	0x00012e1b
     a84:	3a0e0319 	bcc	3816f0 <__kernel_end+0x21b6f0>
     a88:	490b3b0b 	stmdbmi	fp, {r0, r1, r3, r8, r9, fp, ip, sp}
     a8c:	12011113 	andne	r1, r1, #-1073741820	; 0xc0000004
     a90:	97184006 	ldrls	r4, [r8, -r6]
     a94:	13011942 	movwne	r1, #6466	; 0x1942
     a98:	891c0000 	ldmdbhi	ip, {}	; <UNPREDICTABLE>
     a9c:	11000182 	smlabbne	r0, r2, r1, r0
     aa0:	19429501 	stmdbne	r2, {r0, r8, sl, ip, pc}^
     aa4:	00001331 	andeq	r1, r0, r1, lsr r3
     aa8:	0300341d 	movweq	r3, #1053	; 0x41d
     aac:	3b0b3a0e 	blcc	2cf2ec <__kernel_end+0x1692ec>
     ab0:	0213490b 	andseq	r4, r3, #180224	; 0x2c000
     ab4:	1e000017 	mcrne	0, 0, r0, cr0, cr7, {0}
     ab8:	0e030034 	mcreq	0, 0, r0, cr3, cr4, {1}
     abc:	0b3b0b3a 	bleq	ec37ac <__kernel_end+0xd5d7ac>
     ac0:	18021349 	stmdane	r2, {r0, r3, r6, r8, r9, ip}
     ac4:	891f0000 	ldmdbhi	pc, {}	; <UNPREDICTABLE>
     ac8:	11010182 	smlabbne	r1, r2, r1, r0
     acc:	01133101 	tsteq	r3, r1, lsl #2
     ad0:	20000013 	andcs	r0, r0, r3, lsl r0
     ad4:	0001828a 	andeq	r8, r1, sl, lsl #5
     ad8:	42911802 	addsmi	r1, r1, #131072	; 0x20000
     adc:	21000018 	tstcs	r0, r8, lsl r0
     ae0:	01018289 	smlabbeq	r1, r9, r2, r8
     ae4:	13310111 	teqne	r1, #1073741828	; 0x40000004
     ae8:	0f220000 	svceq	0x00220000
     aec:	000b0b00 	andeq	r0, fp, r0, lsl #22
     af0:	00052300 	andeq	r2, r5, r0, lsl #6
     af4:	0b3a0803 	bleq	e82b08 <__kernel_end+0xd1cb08>
     af8:	13490b3b 	movtne	r0, #39739	; 0x9b3b
     afc:	00001702 	andeq	r1, r0, r2, lsl #14
     b00:	31012e24 	tstcc	r1, r4, lsr #28
     b04:	12011113 	andne	r1, r1, #-1073741820	; 0xc0000004
     b08:	97184006 	ldrls	r4, [r8, -r6]
     b0c:	13011942 	movwne	r1, #6466	; 0x1942
     b10:	34250000 	strtcc	r0, [r5], #-0
     b14:	00133100 	andseq	r3, r3, r0, lsl #2
     b18:	010b2600 	tsteq	fp, r0, lsl #12
     b1c:	06120111 			; <UNDEFINED> instruction: 0x06120111
     b20:	34270000 	strtcc	r0, [r7], #-0
     b24:	02133100 	andseq	r3, r3, #0, 2
     b28:	28000017 	stmdacs	r0, {r0, r1, r2, r4}
     b2c:	00018289 	andeq	r8, r1, r9, lsl #5
     b30:	13310111 	teqne	r1, #1073741828	; 0x40000004
     b34:	2e290000 	cdpcs	0, 2, cr0, cr9, cr0, {0}
     b38:	03193f01 	tsteq	r9, #1, 30
     b3c:	3b0b3a0e 	blcc	2cf37c <__kernel_end+0x16937c>
     b40:	1201110b 	andne	r1, r1, #-1073741822	; 0xc0000002
     b44:	97184006 	ldrls	r4, [r8, -r6]
     b48:	13011942 	movwne	r1, #6466	; 0x1942
     b4c:	342a0000 	strtcc	r0, [sl], #-0
     b50:	3a0e0300 	bcc	381758 <__kernel_end+0x21b758>
     b54:	490b3b0b 	stmdbmi	fp, {r0, r1, r3, r8, r9, fp, ip, sp}
     b58:	3c193f13 	ldccc	15, cr3, [r9], {19}
     b5c:	2b000019 	blcs	bc8 <SCTLR_ENABLE_BRANCH_PREDICTION+0x3c8>
     b60:	0e030034 	mcreq	0, 0, r0, cr3, cr4, {1}
     b64:	0b3b0b3a 	bleq	ec3854 <__kernel_end+0xd5d854>
     b68:	193f1349 	ldmdbne	pc!, {r0, r3, r6, r8, r9, ip}	; <UNPREDICTABLE>
     b6c:	00001802 	andeq	r1, r0, r2, lsl #16
     b70:	3f002e2c 	svccc	0x00002e2c
     b74:	6e193c19 	mrcvs	12, 0, r3, cr9, cr9, {0}
     b78:	3a0e030e 	bcc	3817b8 <__kernel_end+0x21b7b8>
     b7c:	000b3b0b 	andeq	r3, fp, fp, lsl #22
     b80:	11010000 	mrsne	r0, (UNDEF: 1)
     b84:	130e2501 	movwne	r2, #58625	; 0xe501
     b88:	1b0e030b 	blne	3817bc <__kernel_end+0x21b7bc>
     b8c:	1201110e 	andne	r1, r1, #-2147483645	; 0x80000003
     b90:	00171006 	andseq	r1, r7, r6
     b94:	00240200 	eoreq	r0, r4, r0, lsl #4
     b98:	0b3e0b0b 	bleq	f837cc <__kernel_end+0xe1d7cc>
     b9c:	00000e03 	andeq	r0, r0, r3, lsl #28
     ba0:	03001603 	movweq	r1, #1539	; 0x603
     ba4:	3b0b3a0e 	blcc	2cf3e4 <__kernel_end+0x1693e4>
     ba8:	0013490b 	andseq	r4, r3, fp, lsl #18
     bac:	00240400 	eoreq	r0, r4, r0, lsl #8
     bb0:	0b3e0b0b 	bleq	f837e4 <__kernel_end+0xe1d7e4>
     bb4:	00000803 	andeq	r0, r0, r3, lsl #16
     bb8:	0b010405 	bleq	41bd4 <__first_lvl_tbl_end+0x1cbd4>
     bbc:	3a13490b 	bcc	4d2ff0 <__kernel_end+0x36cff0>
     bc0:	010b3b0b 	tsteq	fp, fp, lsl #22
     bc4:	06000013 			; <UNDEFINED> instruction: 0x06000013
     bc8:	0e030028 	cdpeq	0, 0, cr0, cr3, cr8, {1}
     bcc:	0000061c 	andeq	r0, r0, ip, lsl r6
     bd0:	03012e07 	movweq	r2, #7687	; 0x1e07
     bd4:	3b0b3a0e 	blcc	2cf414 <__kernel_end+0x169414>
     bd8:	2019270b 	andscs	r2, r9, fp, lsl #14
     bdc:	0013010b 	andseq	r0, r3, fp, lsl #2
     be0:	00050800 	andeq	r0, r5, r0, lsl #16
     be4:	0b3a0803 	bleq	e82bf8 <__kernel_end+0xd1cbf8>
     be8:	13490b3b 	movtne	r0, #39739	; 0x9b3b
     bec:	05090000 	streq	r0, [r9, #-0]
     bf0:	3a0e0300 	bcc	3817f8 <__kernel_end+0x21b7f8>
     bf4:	490b3b0b 	stmdbmi	fp, {r0, r1, r3, r8, r9, fp, ip, sp}
     bf8:	0a000013 	beq	c4c <SCTLR_ENABLE_BRANCH_PREDICTION+0x44c>
     bfc:	0e03012e 	adfeqsp	f0, f3, #0.5
     c00:	0b3b0b3a 	bleq	ec38f0 <__kernel_end+0xd5d8f0>
     c04:	13491927 	movtne	r1, #39207	; 0x9927
     c08:	13010b20 	movwne	r0, #6944	; 0x1b20
     c0c:	2e0b0000 	cdpcs	0, 0, cr0, cr11, cr0, {0}
     c10:	03193f01 	tsteq	r9, #1, 30
     c14:	3b0b3a0e 	blcc	2cf454 <__kernel_end+0x169454>
     c18:	1201110b 	andne	r1, r1, #-1073741822	; 0xc0000002
     c1c:	97184006 	ldrls	r4, [r8, -r6]
     c20:	13011942 	movwne	r1, #6466	; 0x1942
     c24:	1d0c0000 	stcne	0, cr0, [ip, #-0]
     c28:	52133101 	andspl	r3, r3, #1073741824	; 0x40000000
     c2c:	58175501 	ldmdapl	r7, {r0, r8, sl, ip, lr}
     c30:	010b590b 	tsteq	fp, fp, lsl #18
     c34:	0d000013 	stceq	0, cr0, [r0, #-76]	; 0xffffffb4
     c38:	13310005 	teqne	r1, #5
     c3c:	00001702 	andeq	r1, r0, r2, lsl #14
     c40:	31011d0e 	tstcc	r1, lr, lsl #26
     c44:	12011113 	andne	r1, r1, #-1073741820	; 0xc0000004
     c48:	590b5806 	stmdbpl	fp, {r1, r2, fp, ip, lr}
     c4c:	0013010b 	andseq	r0, r3, fp, lsl #2
     c50:	011d0f00 	tsteq	sp, r0, lsl #30
     c54:	01521331 	cmpeq	r2, r1, lsr r3
     c58:	0b581755 	bleq	16069b4 <__kernel_end+0x14a09b4>
     c5c:	00000b59 	andeq	r0, r0, r9, asr fp
     c60:	3f012e10 	svccc	0x00012e10
     c64:	3a0e0319 	bcc	3818d0 <__kernel_end+0x21b8d0>
     c68:	270b3b0b 	strcs	r3, [fp, -fp, lsl #22]
     c6c:	12011119 	andne	r1, r1, #1073741830	; 0x40000006
     c70:	97184006 	ldrls	r4, [r8, -r6]
     c74:	13011942 	movwne	r1, #6466	; 0x1942
     c78:	05110000 	ldreq	r0, [r1, #-0]
     c7c:	3a080300 	bcc	201884 <__kernel_end+0x9b884>
     c80:	490b3b0b 	stmdbmi	fp, {r0, r1, r3, r8, r9, fp, ip, sp}
     c84:	00180213 	andseq	r0, r8, r3, lsl r2
     c88:	011d1200 	tsteq	sp, r0, lsl #4
     c8c:	01111331 	tsteq	r1, r1, lsr r3
     c90:	0b580612 	bleq	16024e0 <__kernel_end+0x149c4e0>
     c94:	00000b59 	andeq	r0, r0, r9, asr fp
     c98:	3f012e13 	svccc	0x00012e13
     c9c:	3a0e0319 	bcc	381908 <__kernel_end+0x21b908>
     ca0:	490b3b0b 	stmdbmi	fp, {r0, r1, r3, r8, r9, fp, ip, sp}
     ca4:	12011113 	andne	r1, r1, #-1073741820	; 0xc0000004
     ca8:	97184006 	ldrls	r4, [r8, -r6]
     cac:	13011942 	movwne	r1, #6466	; 0x1942
     cb0:	05140000 	ldreq	r0, [r4, #-0]
     cb4:	3a080300 	bcc	2018bc <__kernel_end+0x9b8bc>
     cb8:	490b3b0b 	stmdbmi	fp, {r0, r1, r3, r8, r9, fp, ip, sp}
     cbc:	00170213 	andseq	r0, r7, r3, lsl r2
     cc0:	010b1500 	tsteq	fp, r0, lsl #10
     cc4:	06120111 			; <UNDEFINED> instruction: 0x06120111
     cc8:	34160000 	ldrcc	r0, [r6], #-0
     ccc:	3a080300 	bcc	2018d4 <__kernel_end+0x9b8d4>
     cd0:	490b3b0b 	stmdbmi	fp, {r0, r1, r3, r8, r9, fp, ip, sp}
     cd4:	00170213 	andseq	r0, r7, r3, lsl r2
     cd8:	82891700 	addhi	r1, r9, #0, 14
     cdc:	01110001 	tsteq	r1, r1
     ce0:	00001331 	andeq	r1, r0, r1, lsr r3
     ce4:	0b000f18 	bleq	494c <SCTLR_ENABLE_INSTRUCTION_CACHE+0x394c>
     ce8:	0013490b 	andseq	r4, r3, fp, lsl #18
     cec:	00261900 	eoreq	r1, r6, r0, lsl #18
     cf0:	00001349 	andeq	r1, r0, r9, asr #6
     cf4:	3f012e1a 	svccc	0x00012e1a
     cf8:	3a0e0319 	bcc	381964 <__kernel_end+0x21b964>
     cfc:	270b3b0b 	strcs	r3, [fp, -fp, lsl #22]
     d00:	12011119 	andne	r1, r1, #1073741830	; 0x40000006
     d04:	97184006 	ldrls	r4, [r8, -r6]
     d08:	00001942 	andeq	r1, r0, r2, asr #18
     d0c:	0182891b 	orreq	r8, r2, fp, lsl r9
     d10:	31011101 	tstcc	r1, r1, lsl #2
     d14:	00130113 	andseq	r0, r3, r3, lsl r1
     d18:	828a1c00 	addhi	r1, sl, #0, 24
     d1c:	18020001 	stmdane	r2, {r0}
     d20:	00184291 	mulseq	r8, r1, r2
     d24:	82891d00 	addhi	r1, r9, #0, 26
     d28:	01110101 	tsteq	r1, r1, lsl #2
     d2c:	31194295 			; <UNDEFINED> instruction: 0x31194295
     d30:	00000013 	andeq	r0, r0, r3, lsl r0
     d34:	25011101 	strcs	r1, [r1, #-257]	; 0xfffffeff
     d38:	030b130e 	movweq	r1, #45838	; 0xb30e
     d3c:	110e1b0e 	tstne	lr, lr, lsl #22
     d40:	10061201 	andne	r1, r6, r1, lsl #4
     d44:	02000017 	andeq	r0, r0, #23
     d48:	0b0b0024 	bleq	2c0de0 <__kernel_end+0x15ade0>
     d4c:	0e030b3e 	vmoveq.16	d3[0], r0
     d50:	16030000 	strne	r0, [r3], -r0
     d54:	3a0e0300 	bcc	38195c <__kernel_end+0x21b95c>
     d58:	490b3b0b 	stmdbmi	fp, {r0, r1, r3, r8, r9, fp, ip, sp}
     d5c:	04000013 	streq	r0, [r0], #-19	; 0xffffffed
     d60:	0b0b0024 	bleq	2c0df8 <__kernel_end+0x15adf8>
     d64:	08030b3e 	stmdaeq	r3, {r1, r2, r3, r4, r5, r8, r9, fp}
     d68:	35050000 	strcc	r0, [r5, #-0]
     d6c:	00134900 	andseq	r4, r3, r0, lsl #18
     d70:	01130600 	tsteq	r3, r0, lsl #12
     d74:	0b0b0e03 	bleq	2c4588 <__kernel_end+0x15e588>
     d78:	0b3b0b3a 	bleq	ec3a68 <__kernel_end+0xd5da68>
     d7c:	00001301 	andeq	r1, r0, r1, lsl #6
     d80:	03000d07 	movweq	r0, #3335	; 0xd07
     d84:	3b0b3a0e 	blcc	2cf5c4 <__kernel_end+0x1695c4>
     d88:	3813490b 	ldmdacc	r3, {r0, r1, r3, r8, fp, lr}
     d8c:	0800000b 	stmdaeq	r0, {r0, r1, r3}
     d90:	0803000d 	stmdaeq	r3, {r0, r2, r3}
     d94:	0b3b0b3a 	bleq	ec3a84 <__kernel_end+0xd5da84>
     d98:	0b381349 	bleq	e05ac4 <__kernel_end+0xc9fac4>
     d9c:	01090000 	mrseq	r0, (UNDEF: 9)
     da0:	01134901 	tsteq	r3, r1, lsl #18
     da4:	0a000013 	beq	df8 <SCTLR_ENABLE_BRANCH_PREDICTION+0x5f8>
     da8:	13490021 	movtne	r0, #36897	; 0x9021
     dac:	00000b2f 	andeq	r0, r0, pc, lsr #22
     db0:	0b000f0b 	bleq	49e4 <SCTLR_ENABLE_INSTRUCTION_CACHE+0x39e4>
     db4:	0013490b 	andseq	r4, r3, fp, lsl #18
     db8:	012e0c00 			; <UNDEFINED> instruction: 0x012e0c00
     dbc:	0b3a0e03 	bleq	e845d0 <__kernel_end+0xd1e5d0>
     dc0:	19270b3b 	stmdbne	r7!, {r0, r1, r3, r4, r5, r8, r9, fp}
     dc4:	06120111 			; <UNDEFINED> instruction: 0x06120111
     dc8:	42971840 	addsmi	r1, r7, #64, 16	; 0x400000
     dcc:	00130119 	andseq	r0, r3, r9, lsl r1
     dd0:	00340d00 	eorseq	r0, r4, r0, lsl #26
     dd4:	0b3a0e03 	bleq	e845e8 <__kernel_end+0xd1e5e8>
     dd8:	13490b3b 	movtne	r0, #39739	; 0x9b3b
     ddc:	0000061c 	andeq	r0, r0, ip, lsl r6
     de0:	0300340e 	movweq	r3, #1038	; 0x40e
     de4:	3b0b3a0e 	blcc	2cf624 <__kernel_end+0x169624>
     de8:	0213490b 	andseq	r4, r3, #180224	; 0x2c000
     dec:	0f000017 	svceq	0x00000017
     df0:	00018289 	andeq	r8, r1, r9, lsl #5
     df4:	42950111 	addsmi	r0, r5, #1073741828	; 0x40000004
     df8:	00133119 	andseq	r3, r3, r9, lsl r1
     dfc:	012e1000 			; <UNDEFINED> instruction: 0x012e1000
     e00:	0e03193f 	mcreq	9, 0, r1, cr3, cr15, {1}
     e04:	0b3b0b3a 	bleq	ec3af4 <__kernel_end+0xd5daf4>
     e08:	01111927 	tsteq	r1, r7, lsr #18
     e0c:	18400612 	stmdane	r0, {r1, r4, r9, sl}^
     e10:	01194297 			; <UNDEFINED> instruction: 0x01194297
     e14:	11000013 	tstne	r0, r3, lsl r0
     e18:	0e030005 	cdpeq	0, 0, cr0, cr3, cr5, {0}
     e1c:	0b3b0b3a 	bleq	ec3b0c <__kernel_end+0xd5db0c>
     e20:	17021349 	strne	r1, [r2, -r9, asr #6]
     e24:	0b120000 	bleq	480e2c <__kernel_end+0x31ae2c>
     e28:	12011101 	andne	r1, r1, #1073741824	; 0x40000000
     e2c:	00130106 	andseq	r0, r3, r6, lsl #2
     e30:	00341300 	eorseq	r1, r4, r0, lsl #6
     e34:	0b3a0803 	bleq	e82e48 <__kernel_end+0xd1ce48>
     e38:	13490b3b 	movtne	r0, #39739	; 0x9b3b
     e3c:	00001702 	andeq	r1, r0, r2, lsl #14
     e40:	01828914 	orreq	r8, r2, r4, lsl r9
     e44:	31011100 	mrscc	r1, (UNDEF: 17)
     e48:	15000013 	strne	r0, [r0, #-19]	; 0xffffffed
     e4c:	0e030005 	cdpeq	0, 0, cr0, cr3, cr5, {0}
     e50:	0b3b0b3a 	bleq	ec3b40 <__kernel_end+0xd5db40>
     e54:	18021349 	stmdane	r2, {r0, r3, r6, r8, r9, ip}
     e58:	34160000 	ldrcc	r0, [r6], #-0
     e5c:	3a080300 	bcc	201a64 <__kernel_end+0x9ba64>
     e60:	490b3b0b 	stmdbmi	fp, {r0, r1, r3, r8, r9, fp, ip, sp}
     e64:	00180213 	andseq	r0, r8, r3, lsl r2
     e68:	012e1700 			; <UNDEFINED> instruction: 0x012e1700
     e6c:	0e03193f 	mcreq	9, 0, r1, cr3, cr15, {1}
     e70:	0b3b0b3a 	bleq	ec3b60 <__kernel_end+0xd5db60>
     e74:	06120111 			; <UNDEFINED> instruction: 0x06120111
     e78:	42971840 	addsmi	r1, r7, #64, 16	; 0x400000
     e7c:	00130119 	andseq	r0, r3, r9, lsl r1
     e80:	00341800 	eorseq	r1, r4, r0, lsl #16
     e84:	0b3a0e03 	bleq	e84698 <__kernel_end+0xd1e698>
     e88:	13490b3b 	movtne	r0, #39739	; 0x9b3b
     e8c:	00001802 	andeq	r1, r0, r2, lsl #16
     e90:	03003419 	movweq	r3, #1049	; 0x419
     e94:	3b0b3a0e 	blcc	2cf6d4 <__kernel_end+0x1696d4>
     e98:	1c13490b 	ldcne	9, cr4, [r3], {11}
     e9c:	1a00000b 	bne	ed0 <SCTLR_ENABLE_BRANCH_PREDICTION+0x6d0>
     ea0:	0e030034 	mcreq	0, 0, r0, cr3, cr4, {1}
     ea4:	0b3b0b3a 	bleq	ec3b94 <__kernel_end+0xd5db94>
     ea8:	00001349 	andeq	r1, r0, r9, asr #6
     eac:	0300341b 	movweq	r3, #1051	; 0x41b
     eb0:	3b0b3a08 	blcc	2cf6d8 <__kernel_end+0x1696d8>
     eb4:	0013490b 	andseq	r4, r3, fp, lsl #18
     eb8:	00341c00 	eorseq	r1, r4, r0, lsl #24
     ebc:	0b3a0803 	bleq	e82ed0 <__kernel_end+0xd1ced0>
     ec0:	13490b3b 	movtne	r0, #39739	; 0x9b3b
     ec4:	0000051c 	andeq	r0, r0, ip, lsl r5
     ec8:	0182891d 	orreq	r8, r2, sp, lsl r9
     ecc:	31011101 	tstcc	r1, r1, lsl #2
     ed0:	00130113 	andseq	r0, r3, r3, lsl r1
     ed4:	828a1e00 	addhi	r1, sl, #0, 28
     ed8:	18020001 	stmdane	r2, {r0}
     edc:	00184291 	mulseq	r8, r1, r2
     ee0:	82891f00 	addhi	r1, r9, #0, 30
     ee4:	01110101 	tsteq	r1, r1, lsl #2
     ee8:	00001331 	andeq	r1, r0, r1, lsr r3
     eec:	03003420 	movweq	r3, #1056	; 0x420
     ef0:	3b0b3a0e 	blcc	2cf730 <__kernel_end+0x169730>
     ef4:	3f13490b 	svccc	0x0013490b
     ef8:	00193c19 	andseq	r3, r9, r9, lsl ip
     efc:	00342100 	eorseq	r2, r4, r0, lsl #2
     f00:	0b3a0e03 	bleq	e84714 <__kernel_end+0xd1e714>
     f04:	13490b3b 	movtne	r0, #39739	; 0x9b3b
     f08:	1802193f 	stmdane	r2, {r0, r1, r2, r3, r4, r5, r8, fp, ip}
     f0c:	2e220000 	cdpcs	0, 2, cr0, cr2, cr0, {0}
     f10:	3c193f00 	ldccc	15, cr3, [r9], {-0}
     f14:	030e6e19 	movweq	r6, #60953	; 0xee19
     f18:	3b0b3a0e 	blcc	2cf758 <__kernel_end+0x169758>
     f1c:	0000000b 	andeq	r0, r0, fp
     f20:	25011101 	strcs	r1, [r1, #-257]	; 0xfffffeff
     f24:	030b130e 	movweq	r1, #45838	; 0xb30e
     f28:	110e1b0e 	tstne	lr, lr, lsl #22
     f2c:	10061201 	andne	r1, r6, r1, lsl #4
     f30:	02000017 	andeq	r0, r0, #23
     f34:	0b0b0024 	bleq	2c0fcc <__kernel_end+0x15afcc>
     f38:	0e030b3e 	vmoveq.16	d3[0], r0
     f3c:	16030000 	strne	r0, [r3], -r0
     f40:	3a0e0300 	bcc	381b48 <__kernel_end+0x21bb48>
     f44:	490b3b0b 	stmdbmi	fp, {r0, r1, r3, r8, r9, fp, ip, sp}
     f48:	04000013 	streq	r0, [r0], #-19	; 0xffffffed
     f4c:	0b0b0024 	bleq	2c0fe4 <__kernel_end+0x15afe4>
     f50:	08030b3e 	stmdaeq	r3, {r1, r2, r3, r4, r5, r8, r9, fp}
     f54:	35050000 	strcc	r0, [r5, #-0]
     f58:	00134900 	andseq	r4, r3, r0, lsl #18
     f5c:	00260600 	eoreq	r0, r6, r0, lsl #12
     f60:	00001349 	andeq	r1, r0, r9, asr #6
     f64:	0b010407 	bleq	41f88 <__first_lvl_tbl_end+0x1cf88>
     f68:	3a13490b 	bcc	4d339c <__kernel_end+0x36d39c>
     f6c:	010b3b0b 	tsteq	fp, fp, lsl #22
     f70:	08000013 	stmdaeq	r0, {r0, r1, r4}
     f74:	08030028 	stmdaeq	r3, {r3, r5}
     f78:	00000b1c 	andeq	r0, r0, ip, lsl fp
     f7c:	03002809 	movweq	r2, #2057	; 0x809
     f80:	000d1c0e 	andeq	r1, sp, lr, lsl #24
     f84:	00280a00 	eoreq	r0, r8, r0, lsl #20
     f88:	0b1c0e03 	bleq	70479c <__kernel_end+0x59e79c>
     f8c:	040b0000 	streq	r0, [fp], #-0
     f90:	0b0e0301 	bleq	381b9c <__kernel_end+0x21bb9c>
     f94:	3a13490b 	bcc	4d33c8 <__kernel_end+0x36d3c8>
     f98:	010b3b0b 	tsteq	fp, fp, lsl #22
     f9c:	0c000013 	stceq	0, cr0, [r0], {19}
     fa0:	0e030028 	cdpeq	0, 0, cr0, cr3, cr8, {1}
     fa4:	0000051c 	andeq	r0, r0, ip, lsl r5
     fa8:	0301130d 	movweq	r1, #4877	; 0x130d
     fac:	3a0b0b0e 	bcc	2c3bec <__kernel_end+0x15dbec>
     fb0:	010b3b0b 	tsteq	fp, fp, lsl #22
     fb4:	0e000013 	mcreq	0, 0, r0, cr0, cr3, {0}
     fb8:	0e03000d 	cdpeq	0, 0, cr0, cr3, cr13, {0}
     fbc:	0b3b0b3a 	bleq	ec3cac <__kernel_end+0xd5dcac>
     fc0:	0b0b1349 	bleq	2c5cec <__kernel_end+0x15fcec>
     fc4:	0b0c0b0d 	bleq	303c00 <__kernel_end+0x19dc00>
     fc8:	00000b38 	andeq	r0, r0, r8, lsr fp
     fcc:	03000d0f 	movweq	r0, #3343	; 0xd0f
     fd0:	3b0b3a08 	blcc	2cf7f8 <__kernel_end+0x1697f8>
     fd4:	0b13490b 	bleq	4d3408 <__kernel_end+0x36d408>
     fd8:	0c0b0d0b 	stceq	13, cr0, [fp], {11}
     fdc:	000b380b 	andeq	r3, fp, fp, lsl #16
     fe0:	01131000 	tsteq	r3, r0
     fe4:	0b3a0b0b 	bleq	e83c18 <__kernel_end+0xd1dc18>
     fe8:	13010b3b 	movwne	r0, #6971	; 0x1b3b
     fec:	17110000 	ldrne	r0, [r1, -r0]
     ff0:	3a0b0b01 	bcc	2c3bfc <__kernel_end+0x15dbfc>
     ff4:	010b3b0b 	tsteq	fp, fp, lsl #22
     ff8:	12000013 	andne	r0, r0, #19
     ffc:	1349000d 	movtne	r0, #36877	; 0x900d
    1000:	0d130000 	ldceq	0, cr0, [r3, #-0]
    1004:	3a0e0300 	bcc	381c0c <__kernel_end+0x21bc0c>
    1008:	490b3b0b 	stmdbmi	fp, {r0, r1, r3, r8, r9, fp, ip, sp}
    100c:	14000013 	strne	r0, [r0], #-19	; 0xffffffed
    1010:	1349000d 	movtne	r0, #36877	; 0x900d
    1014:	00000b38 	andeq	r0, r0, r8, lsr fp
    1018:	0b011315 	bleq	45c74 <__first_lvl_tbl_end+0x20c74>
    101c:	3b0b3a0b 	blcc	2cf850 <__kernel_end+0x169850>
    1020:	00130105 	andseq	r0, r3, r5, lsl #2
    1024:	000d1600 	andeq	r1, sp, r0, lsl #12
    1028:	0b3a0e03 	bleq	e8483c <__kernel_end+0xd1e83c>
    102c:	1349053b 	movtne	r0, #38203	; 0x953b
    1030:	0b0d0b0b 	bleq	343c64 <__kernel_end+0x1ddc64>
    1034:	0b380b0c 	bleq	e03c6c <__kernel_end+0xc9dc6c>
    1038:	04170000 	ldreq	r0, [r7], #-0
    103c:	490b0b01 	stmdbmi	fp, {r0, r8, r9, fp}
    1040:	3b0b3a13 	blcc	2cf894 <__kernel_end+0x169894>
    1044:	00130105 	andseq	r0, r3, r5, lsl #2
    1048:	01131800 	tsteq	r3, r0, lsl #16
    104c:	0b0b0e03 	bleq	2c4860 <__kernel_end+0x15e860>
    1050:	053b0b3a 	ldreq	r0, [fp, #-2874]!	; 0xfffff4c6
    1054:	00001301 	andeq	r1, r0, r1, lsl #6
    1058:	03000d19 	movweq	r0, #3353	; 0xd19
    105c:	3b0b3a0e 	blcc	2cf89c <__kernel_end+0x16989c>
    1060:	38134905 	ldmdacc	r3, {r0, r2, r8, fp, lr}
    1064:	1a00000b 	bne	1098 <SCTLR_ENABLE_INSTRUCTION_CACHE+0x98>
    1068:	0803000d 	stmdaeq	r3, {r0, r2, r3}
    106c:	053b0b3a 	ldreq	r0, [fp, #-2874]!	; 0xfffff4c6
    1070:	0b381349 	bleq	e05d9c <__kernel_end+0xc9fd9c>
    1074:	0d1b0000 	ldceq	0, cr0, [fp, #-0]
    1078:	3a080300 	bcc	201c80 <__kernel_end+0x9bc80>
    107c:	49053b0b 	stmdbmi	r5, {r0, r1, r3, r8, r9, fp, ip, sp}
    1080:	0d0b0b13 	vstreq	d0, [fp, #-76]	; 0xffffffb4
    1084:	380b0c0b 	stmdacc	fp, {r0, r1, r3, sl, fp}
    1088:	1c00000b 	stcne	0, cr0, [r0], {11}
    108c:	0b0b0117 	bleq	2c14f0 <__kernel_end+0x15b4f0>
    1090:	053b0b3a 	ldreq	r0, [fp, #-2874]!	; 0xfffff4c6
    1094:	00001301 	andeq	r1, r0, r1, lsl #6
    1098:	03000d1d 	movweq	r0, #3357	; 0xd1d
    109c:	3b0b3a0e 	blcc	2cf8dc <__kernel_end+0x1698dc>
    10a0:	00134905 	andseq	r4, r3, r5, lsl #18
    10a4:	01011e00 	tsteq	r1, r0, lsl #28
    10a8:	13011349 	movwne	r1, #4937	; 0x1349
    10ac:	211f0000 	tstcs	pc, r0
    10b0:	2f134900 	svccs	0x00134900
    10b4:	2000000b 	andcs	r0, r0, fp
    10b8:	0e030113 	mcreq	1, 0, r0, cr3, cr3, {0}
    10bc:	0b3a050b 	bleq	e824f0 <__kernel_end+0xd1c4f0>
    10c0:	13010b3b 	movwne	r0, #6971	; 0x1b3b
    10c4:	0d210000 	stceq	0, cr0, [r1, #-0]
    10c8:	3a0e0300 	bcc	381cd0 <__kernel_end+0x21bcd0>
    10cc:	490b3b0b 	stmdbmi	fp, {r0, r1, r3, r8, r9, fp, ip, sp}
    10d0:	000b3813 	andeq	r3, fp, r3, lsl r8
    10d4:	000d2200 	andeq	r2, sp, r0, lsl #4
    10d8:	0b3a0e03 	bleq	e848ec <__kernel_end+0xd1e8ec>
    10dc:	1349053b 	movtne	r0, #38203	; 0x953b
    10e0:	00000538 	andeq	r0, r0, r8, lsr r5
    10e4:	49002123 	stmdbmi	r0, {r0, r1, r5, r8, sp}
    10e8:	00052f13 	andeq	r2, r5, r3, lsl pc
    10ec:	01042400 	tsteq	r4, r0, lsl #8
    10f0:	0b0b0e03 	bleq	2c4904 <__kernel_end+0x15e904>
    10f4:	0b3a1349 	bleq	e85e20 <__kernel_end+0xd1fe20>
    10f8:	1301053b 	movwne	r0, #5435	; 0x153b
    10fc:	0f250000 	svceq	0x00250000
    1100:	490b0b00 	stmdbmi	fp, {r8, r9, fp}
    1104:	26000013 			; <UNDEFINED> instruction: 0x26000013
    1108:	00000035 	andeq	r0, r0, r5, lsr r0
    110c:	03011327 	movweq	r1, #4903	; 0x1327
    1110:	3a050b0e 	bcc	143d50 <dma_src_page_2+0xdd50>
    1114:	01053b0b 	tsteq	r5, fp, lsl #22
    1118:	28000013 	stmdacs	r0, {r0, r1, r4}
    111c:	0e030028 	cdpeq	0, 0, cr0, cr3, cr8, {1}
    1120:	0000061c 	andeq	r0, r0, ip, lsl r6
    1124:	0b011729 	bleq	46dd0 <__first_lvl_tbl_end+0x21dd0>
    1128:	3b0b3a05 	blcc	2cf944 <__kernel_end+0x169944>
    112c:	0013010b 	andseq	r0, r3, fp, lsl #2
    1130:	01132a00 	tsteq	r3, r0, lsl #20
    1134:	0b3a050b 	bleq	e82568 <__kernel_end+0xd1c568>
    1138:	13010b3b 	movwne	r0, #6971	; 0x1b3b
    113c:	0d2b0000 	stceq	0, cr0, [fp, #-0]
    1140:	3a080300 	bcc	201d48 <__kernel_end+0x9bd48>
    1144:	490b3b0b 	stmdbmi	fp, {r0, r1, r3, r8, r9, fp, ip, sp}
    1148:	000b3813 	andeq	r3, fp, r3, lsl r8
    114c:	012e2c00 			; <UNDEFINED> instruction: 0x012e2c00
    1150:	0e03193f 	mcreq	9, 0, r1, cr3, cr15, {1}
    1154:	0b3b0b3a 	bleq	ec3e44 <__kernel_end+0xd5de44>
    1158:	06120111 			; <UNDEFINED> instruction: 0x06120111
    115c:	42971840 	addsmi	r1, r7, #64, 16	; 0x400000
    1160:	00130119 	andseq	r0, r3, r9, lsl r1
    1164:	00342d00 	eorseq	r2, r4, r0, lsl #26
    1168:	0b3a0e03 	bleq	e8497c <__kernel_end+0xd1e97c>
    116c:	13490b3b 	movtne	r0, #39739	; 0x9b3b
    1170:	00000b1c 	andeq	r0, r0, ip, lsl fp
    1174:	0182892e 	orreq	r8, r2, lr, lsr #18
    1178:	31011100 	mrscc	r1, (UNDEF: 17)
    117c:	2f000013 	svccs	0x00000013
    1180:	01018289 	smlabbeq	r1, r9, r2, r8
    1184:	13310111 	teqne	r1, #1073741828	; 0x40000004
    1188:	00001301 	andeq	r1, r0, r1, lsl #6
    118c:	01828a30 	orreq	r8, r2, r0, lsr sl
    1190:	91180200 	tstls	r8, r0, lsl #4
    1194:	00001842 	andeq	r1, r0, r2, asr #16
    1198:	01828931 	orreq	r8, r2, r1, lsr r9
    119c:	95011100 	strls	r1, [r1, #-256]	; 0xffffff00
    11a0:	13311942 	teqne	r1, #1081344	; 0x108000
    11a4:	34320000 	ldrtcc	r0, [r2], #-0
    11a8:	3a080300 	bcc	201db0 <__kernel_end+0x9bdb0>
    11ac:	490b3b0b 	stmdbmi	fp, {r0, r1, r3, r8, r9, fp, ip, sp}
    11b0:	00170213 	andseq	r0, r7, r3, lsl r2
    11b4:	012e3300 			; <UNDEFINED> instruction: 0x012e3300
    11b8:	0e03193f 	mcreq	9, 0, r1, cr3, cr15, {1}
    11bc:	0b3b0b3a 	bleq	ec3eac <__kernel_end+0xd5deac>
    11c0:	01111349 	tsteq	r1, r9, asr #6
    11c4:	18400612 	stmdane	r0, {r1, r4, r9, sl}^
    11c8:	01194297 			; <UNDEFINED> instruction: 0x01194297
    11cc:	34000013 	strcc	r0, [r0], #-19	; 0xffffffed
    11d0:	0e030034 	mcreq	0, 0, r0, cr3, cr4, {1}
    11d4:	0b3b0b3a 	bleq	ec3ec4 <__kernel_end+0xd5dec4>
    11d8:	061c1349 	ldreq	r1, [ip], -r9, asr #6
    11dc:	2e350000 	cdpcs	0, 3, cr0, cr5, cr0, {0}
    11e0:	03193f01 	tsteq	r9, #1, 30
    11e4:	3b0b3a0e 	blcc	2cfa24 <__kernel_end+0x169a24>
    11e8:	4919270b 	ldmdbmi	r9, {r0, r1, r3, r8, r9, sl, sp}
    11ec:	12011113 	andne	r1, r1, #-1073741820	; 0xc0000004
    11f0:	97184006 	ldrls	r4, [r8, -r6]
    11f4:	13011942 	movwne	r1, #6466	; 0x1942
    11f8:	05360000 	ldreq	r0, [r6, #-0]!
    11fc:	3a080300 	bcc	201e04 <__kernel_end+0x9be04>
    1200:	490b3b0b 	stmdbmi	fp, {r0, r1, r3, r8, r9, fp, ip, sp}
    1204:	00170213 	andseq	r0, r7, r3, lsl r2
    1208:	00053700 	andeq	r3, r5, r0, lsl #14
    120c:	0b3a0803 	bleq	e83220 <__kernel_end+0xd1d220>
    1210:	13490b3b 	movtne	r0, #39739	; 0x9b3b
    1214:	00001802 	andeq	r1, r0, r2, lsl #16
    1218:	03003438 	movweq	r3, #1080	; 0x438
    121c:	3b0b3a0e 	blcc	2cfa5c <__kernel_end+0x169a5c>
    1220:	0213490b 	andseq	r4, r3, #180224	; 0x2c000
    1224:	39000018 	stmdbcc	r0, {r3, r4}
    1228:	0e030034 	mcreq	0, 0, r0, cr3, cr4, {1}
    122c:	0b3b0b3a 	bleq	ec3f1c <__kernel_end+0xd5df1c>
    1230:	193f1349 	ldmdbne	pc!, {r0, r3, r6, r8, r9, ip}	; <UNPREDICTABLE>
    1234:	00001802 	andeq	r1, r0, r2, lsl #16
    1238:	3f002e3a 	svccc	0x00002e3a
    123c:	6e193c19 	mrcvs	12, 0, r3, cr9, cr9, {0}
    1240:	3a0e030e 	bcc	381e80 <__kernel_end+0x21be80>
    1244:	000b3b0b 	andeq	r3, fp, fp, lsl #22
    1248:	11010000 	mrsne	r0, (UNDEF: 1)
    124c:	130e2501 	movwne	r2, #58625	; 0xe501
    1250:	1b0e030b 	blne	381e84 <__kernel_end+0x21be84>
    1254:	1201110e 	andne	r1, r1, #-2147483645	; 0x80000003
    1258:	00171006 	andseq	r1, r7, r6
    125c:	00240200 	eoreq	r0, r4, r0, lsl #4
    1260:	0b3e0b0b 	bleq	f83e94 <__kernel_end+0xe1de94>
    1264:	00000e03 	andeq	r0, r0, r3, lsl #28
    1268:	0b002403 	bleq	a27c <_doprnt+0x458>
    126c:	030b3e0b 	movweq	r3, #48651	; 0xbe0b
    1270:	04000008 	streq	r0, [r0], #-8
    1274:	0b0b0104 	bleq	2c168c <__kernel_end+0x15b68c>
    1278:	0b3a1349 	bleq	e85fa4 <__kernel_end+0xd1ffa4>
    127c:	13010b3b 	movwne	r0, #6971	; 0x1b3b
    1280:	28050000 	stmdacs	r5, {}	; <UNPREDICTABLE>
    1284:	1c080300 	stcne	3, cr0, [r8], {-0}
    1288:	0600000b 	streq	r0, [r0], -fp
    128c:	0e030028 	cdpeq	0, 0, cr0, cr3, cr8, {1}
    1290:	00000d1c 	andeq	r0, r0, ip, lsl sp
    1294:	03001607 	movweq	r1, #1543	; 0x607
    1298:	3b0b3a0e 	blcc	2cfad8 <__kernel_end+0x169ad8>
    129c:	0013490b 	andseq	r4, r3, fp, lsl #18
    12a0:	012e0800 			; <UNDEFINED> instruction: 0x012e0800
    12a4:	0e03193f 	mcreq	9, 0, r1, cr3, cr15, {1}
    12a8:	0b3b0b3a 	bleq	ec3f98 <__kernel_end+0xd5df98>
    12ac:	01111349 	tsteq	r1, r9, asr #6
    12b0:	18400612 	stmdane	r0, {r1, r4, r9, sl}^
    12b4:	01194297 			; <UNDEFINED> instruction: 0x01194297
    12b8:	09000013 	stmdbeq	r0, {r0, r1, r4}
    12bc:	0e030034 	mcreq	0, 0, r0, cr3, cr4, {1}
    12c0:	0b3b0b3a 	bleq	ec3fb0 <__kernel_end+0xd5dfb0>
    12c4:	17021349 	strne	r1, [r2, -r9, asr #6]
    12c8:	890a0000 	stmdbhi	sl, {}	; <UNPREDICTABLE>
    12cc:	11000182 	smlabbne	r0, r2, r1, r0
    12d0:	00133101 	andseq	r3, r3, r1, lsl #2
    12d4:	82890b00 	addhi	r0, r9, #0, 22
    12d8:	01110101 	tsteq	r1, r1, lsl #2
    12dc:	13011331 	movwne	r1, #4913	; 0x1331
    12e0:	8a0c0000 	bhi	3012e8 <__kernel_end+0x19b2e8>
    12e4:	02000182 	andeq	r0, r0, #-2147483616	; 0x80000020
    12e8:	18429118 	stmdane	r2, {r3, r4, r8, ip, pc}^
    12ec:	2e0d0000 	cdpcs	0, 0, cr0, cr13, cr0, {0}
    12f0:	3c193f00 	ldccc	15, cr3, [r9], {-0}
    12f4:	030e6e19 	movweq	r6, #60953	; 0xee19
    12f8:	3b0b3a0e 	blcc	2cfb38 <__kernel_end+0x169b38>
    12fc:	0e00000b 	cdpeq	0, 0, cr0, cr0, cr11, {0}
    1300:	193f002e 	ldmdbne	pc!, {r1, r2, r3, r5}	; <UNPREDICTABLE>
    1304:	0e6e193c 	mcreq	9, 3, r1, cr14, cr12, {1}
    1308:	0b3a0e03 	bleq	e84b1c <__kernel_end+0xd1eb1c>
    130c:	0000053b 	andeq	r0, r0, fp, lsr r5
    1310:	01110100 	tsteq	r1, r0, lsl #2
    1314:	0b130e25 	bleq	4c4bb0 <__kernel_end+0x35ebb0>
    1318:	0e1b0e03 	cdpeq	14, 1, cr0, cr11, cr3, {0}
    131c:	06120111 			; <UNDEFINED> instruction: 0x06120111
    1320:	00001710 	andeq	r1, r0, r0, lsl r7
    1324:	0b002402 	bleq	a334 <_doprnt+0x510>
    1328:	030b3e0b 	movweq	r3, #48651	; 0xbe0b
    132c:	0300000e 	movweq	r0, #14
    1330:	0e030016 	mcreq	0, 0, r0, cr3, cr6, {0}
    1334:	0b3b0b3a 	bleq	ec4024 <__kernel_end+0xd5e024>
    1338:	00001349 	andeq	r1, r0, r9, asr #6
    133c:	0b002404 	bleq	a354 <_doprnt+0x530>
    1340:	030b3e0b 	movweq	r3, #48651	; 0xbe0b
    1344:	05000008 	streq	r0, [r0, #-8]
    1348:	0b0b000f 	bleq	2c138c <__kernel_end+0x15b38c>
    134c:	13060000 	movwne	r0, #24576	; 0x6000
    1350:	0b0e0301 	bleq	381f5c <__kernel_end+0x21bf5c>
    1354:	3b0b3a0b 	blcc	2cfb88 <__kernel_end+0x169b88>
    1358:	0013010b 	andseq	r0, r3, fp, lsl #2
    135c:	000d0700 	andeq	r0, sp, r0, lsl #14
    1360:	0b3a0e03 	bleq	e84b74 <__kernel_end+0xd1eb74>
    1364:	13490b3b 	movtne	r0, #39739	; 0x9b3b
    1368:	00000b38 	andeq	r0, r0, r8, lsr fp
    136c:	0b000f08 	bleq	4f94 <SCTLR_ENABLE_INSTRUCTION_CACHE+0x3f94>
    1370:	0013490b 	andseq	r4, r3, fp, lsl #18
    1374:	012e0900 			; <UNDEFINED> instruction: 0x012e0900
    1378:	0e03193f 	mcreq	9, 0, r1, cr3, cr15, {1}
    137c:	0b3b0b3a 	bleq	ec406c <__kernel_end+0xd5e06c>
    1380:	13491927 	movtne	r1, #39207	; 0x9927
    1384:	06120111 			; <UNDEFINED> instruction: 0x06120111
    1388:	42971840 	addsmi	r1, r7, #64, 16	; 0x400000
    138c:	00130119 	andseq	r0, r3, r9, lsl r1
    1390:	00050a00 	andeq	r0, r5, r0, lsl #20
    1394:	0b3a0e03 	bleq	e84ba8 <__kernel_end+0xd1eba8>
    1398:	13490b3b 	movtne	r0, #39739	; 0x9b3b
    139c:	00001702 	andeq	r1, r0, r2, lsl #14
    13a0:	0182890b 	orreq	r8, r2, fp, lsl #18
    13a4:	31011101 	tstcc	r1, r1, lsl #2
    13a8:	0c000013 	stceq	0, cr0, [r0], {19}
    13ac:	0001828a 	andeq	r8, r1, sl, lsl #5
    13b0:	42911802 	addsmi	r1, r1, #131072	; 0x20000
    13b4:	0d000018 	stceq	0, cr0, [r0, #-96]	; 0xffffffa0
    13b8:	0e030034 	mcreq	0, 0, r0, cr3, cr4, {1}
    13bc:	0b3b0b3a 	bleq	ec40ac <__kernel_end+0xd5e0ac>
    13c0:	17021349 	strne	r1, [r2, -r9, asr #6]
    13c4:	890e0000 	stmdbhi	lr, {}	; <UNPREDICTABLE>
    13c8:	11000182 	smlabbne	r0, r2, r1, r0
    13cc:	00133101 	andseq	r3, r3, r1, lsl #2
    13d0:	82890f00 	addhi	r0, r9, #0, 30
    13d4:	01110101 	tsteq	r1, r1, lsl #2
    13d8:	13011331 	movwne	r1, #4913	; 0x1331
    13dc:	2e100000 	cdpcs	0, 1, cr0, cr0, cr0, {0}
    13e0:	03193f01 	tsteq	r9, #1, 30
    13e4:	3b0b3a0e 	blcc	2cfc24 <__kernel_end+0x169c24>
    13e8:	1119270b 	tstne	r9, fp, lsl #14
    13ec:	40061201 	andmi	r1, r6, r1, lsl #4
    13f0:	19429718 	stmdbne	r2, {r3, r4, r8, r9, sl, ip, pc}^
    13f4:	00001301 	andeq	r1, r0, r1, lsl #6
    13f8:	01828911 	orreq	r8, r2, r1, lsl r9
    13fc:	95011100 	strls	r1, [r1, #-256]	; 0xffffff00
    1400:	13311942 	teqne	r1, #1081344	; 0x108000
    1404:	89120000 	ldmdbhi	r2, {}	; <UNPREDICTABLE>
    1408:	11010182 	smlabbne	r1, r2, r1, r0
    140c:	19429501 	stmdbne	r2, {r0, r8, sl, ip, pc}^
    1410:	00001331 	andeq	r1, r0, r1, lsr r3
    1414:	03003413 	movweq	r3, #1043	; 0x413
    1418:	3b0b3a08 	blcc	2cfc40 <__kernel_end+0x169c40>
    141c:	0213490b 	andseq	r4, r3, #180224	; 0x2c000
    1420:	14000017 	strne	r0, [r0], #-23	; 0xffffffe9
    1424:	193f002e 	ldmdbne	pc!, {r1, r2, r3, r5}	; <UNPREDICTABLE>
    1428:	0b3a0e03 	bleq	e84c3c <__kernel_end+0xd1ec3c>
    142c:	01110b3b 	tsteq	r1, fp, lsr fp
    1430:	18400612 	stmdane	r0, {r1, r4, r9, sl}^
    1434:	00194297 	mulseq	r9, r7, r2
    1438:	01011500 	tsteq	r1, r0, lsl #10
    143c:	13011349 	movwne	r1, #4937	; 0x1349
    1440:	21160000 	tstcs	r6, r0
    1444:	2f134900 	svccs	0x00134900
    1448:	17000005 	strne	r0, [r0, -r5]
    144c:	0e030034 	mcreq	0, 0, r0, cr3, cr4, {1}
    1450:	0b3b0b3a 	bleq	ec4140 <__kernel_end+0xd5e140>
    1454:	193f1349 	ldmdbne	pc!, {r0, r3, r6, r8, r9, ip}	; <UNPREDICTABLE>
    1458:	00001802 	andeq	r1, r0, r2, lsl #16
    145c:	49002118 	stmdbmi	r0, {r3, r4, r8, sp}
    1460:	000b2f13 	andeq	r2, fp, r3, lsl pc
    1464:	002e1900 	eoreq	r1, lr, r0, lsl #18
    1468:	193c193f 	ldmdbne	ip!, {r0, r1, r2, r3, r4, r5, r8, fp, ip}
    146c:	0e030e6e 	cdpeq	14, 0, cr0, cr3, cr14, {3}
    1470:	0b3b0b3a 	bleq	ec4160 <__kernel_end+0xd5e160>
    1474:	01000000 	mrseq	r0, (UNDEF: 0)
    1478:	0e250111 	mcreq	1, 1, r0, cr5, cr1, {0}
    147c:	0e030b13 	vmoveq.32	d3[0], r0
    1480:	01110e1b 	tsteq	r1, fp, lsl lr
    1484:	17100612 			; <UNDEFINED> instruction: 0x17100612
    1488:	24020000 	strcs	r0, [r2], #-0
    148c:	3e0b0b00 	vmlacc.f64	d0, d11, d0
    1490:	0008030b 	andeq	r0, r8, fp, lsl #6
    1494:	00240300 	eoreq	r0, r4, r0, lsl #6
    1498:	0b3e0b0b 	bleq	f840cc <__kernel_end+0xe1e0cc>
    149c:	00000e03 	andeq	r0, r0, r3, lsl #28
    14a0:	03001604 	movweq	r1, #1540	; 0x604
    14a4:	3b0b3a0e 	blcc	2cfce4 <__kernel_end+0x169ce4>
    14a8:	0013490b 	andseq	r4, r3, fp, lsl #18
    14ac:	012e0500 			; <UNDEFINED> instruction: 0x012e0500
    14b0:	0e03193f 	mcreq	9, 0, r1, cr3, cr15, {1}
    14b4:	0b3b0b3a 	bleq	ec41a4 <__kernel_end+0xd5e1a4>
    14b8:	01111927 	tsteq	r1, r7, lsr #18
    14bc:	18400612 	stmdane	r0, {r1, r4, r9, sl}^
    14c0:	01194297 			; <UNDEFINED> instruction: 0x01194297
    14c4:	06000013 			; <UNDEFINED> instruction: 0x06000013
    14c8:	08030005 	stmdaeq	r3, {r0, r2}
    14cc:	0b3b0b3a 	bleq	ec41bc <__kernel_end+0xd5e1bc>
    14d0:	17021349 	strne	r1, [r2, -r9, asr #6]
    14d4:	05070000 	streq	r0, [r7, #-0]
    14d8:	3a0e0300 	bcc	3820e0 <__kernel_end+0x21c0e0>
    14dc:	490b3b0b 	stmdbmi	fp, {r0, r1, r3, r8, r9, fp, ip, sp}
    14e0:	00170213 	andseq	r0, r7, r3, lsl r2
    14e4:	82890800 	addhi	r0, r9, #0, 16
    14e8:	01110001 	tsteq	r1, r1
    14ec:	00001331 	andeq	r1, r0, r1, lsr r3
    14f0:	03003409 	movweq	r3, #1033	; 0x409
    14f4:	3b0b3a0e 	blcc	2cfd34 <__kernel_end+0x169d34>
    14f8:	3f13490b 	svccc	0x0013490b
    14fc:	00193c19 	andseq	r3, r9, r9, lsl ip
    1500:	002e0a00 	eoreq	r0, lr, r0, lsl #20
    1504:	193c193f 	ldmdbne	ip!, {r0, r1, r2, r3, r4, r5, r8, fp, ip}
    1508:	0e030e6e 	cdpeq	14, 0, cr0, cr3, cr14, {3}
    150c:	0b3b0b3a 	bleq	ec41fc <__kernel_end+0xd5e1fc>
    1510:	01000000 	mrseq	r0, (UNDEF: 0)
    1514:	0e250111 	mcreq	1, 1, r0, cr5, cr1, {0}
    1518:	0e030b13 	vmoveq.32	d3[0], r0
    151c:	01110e1b 	tsteq	r1, fp, lsl lr
    1520:	17100612 			; <UNDEFINED> instruction: 0x17100612
    1524:	24020000 	strcs	r0, [r2], #-0
    1528:	3e0b0b00 	vmlacc.f64	d0, d11, d0
    152c:	0008030b 	andeq	r0, r8, fp, lsl #6
    1530:	00160300 	andseq	r0, r6, r0, lsl #6
    1534:	0b3a0e03 	bleq	e84d48 <__kernel_end+0xd1ed48>
    1538:	13490b3b 	movtne	r0, #39739	; 0x9b3b
    153c:	24040000 	strcs	r0, [r4], #-0
    1540:	3e0b0b00 	vmlacc.f64	d0, d11, d0
    1544:	000e030b 	andeq	r0, lr, fp, lsl #6
    1548:	000f0500 	andeq	r0, pc, r0, lsl #10
    154c:	00000b0b 	andeq	r0, r0, fp, lsl #22
    1550:	0b000f06 	bleq	5170 <SCTLR_ENABLE_INSTRUCTION_CACHE+0x4170>
    1554:	0013490b 	andseq	r4, r3, fp, lsl #18
    1558:	012e0700 			; <UNDEFINED> instruction: 0x012e0700
    155c:	0e03193f 	mcreq	9, 0, r1, cr3, cr15, {1}
    1560:	0b3b0b3a 	bleq	ec4250 <__kernel_end+0xd5e250>
    1564:	13491927 	movtne	r1, #39207	; 0x9927
    1568:	06120111 			; <UNDEFINED> instruction: 0x06120111
    156c:	42971840 	addsmi	r1, r7, #64, 16	; 0x400000
    1570:	00130119 	andseq	r0, r3, r9, lsl r1
    1574:	00050800 	andeq	r0, r5, r0, lsl #16
    1578:	0b3a0e03 	bleq	e84d8c <__kernel_end+0xd1ed8c>
    157c:	13490b3b 	movtne	r0, #39739	; 0x9b3b
    1580:	00001802 	andeq	r1, r0, r2, lsl #16
    1584:	03000509 	movweq	r0, #1289	; 0x509
    1588:	3b0b3a0e 	blcc	2cfdc8 <__kernel_end+0x169dc8>
    158c:	0213490b 	andseq	r4, r3, #180224	; 0x2c000
    1590:	0a000017 	beq	15f4 <SCTLR_ENABLE_INSTRUCTION_CACHE+0x5f4>
    1594:	08030034 	stmdaeq	r3, {r2, r4, r5}
    1598:	0b3b0b3a 	bleq	ec4288 <__kernel_end+0xd5e288>
    159c:	18021349 	stmdane	r2, {r0, r3, r6, r8, r9, ip}
    15a0:	340b0000 	strcc	r0, [fp], #-0
    15a4:	3a080300 	bcc	2021ac <__kernel_end+0x9c1ac>
    15a8:	490b3b0b 	stmdbmi	fp, {r0, r1, r3, r8, r9, fp, ip, sp}
    15ac:	00170213 	andseq	r0, r7, r3, lsl r2
    15b0:	010b0c00 	tsteq	fp, r0, lsl #24
    15b4:	06120111 			; <UNDEFINED> instruction: 0x06120111
    15b8:	370d0000 	strcc	r0, [sp, -r0]
    15bc:	00134900 	andseq	r4, r3, r0, lsl #18
    15c0:	00260e00 	eoreq	r0, r6, r0, lsl #28
    15c4:	260f0000 	strcs	r0, [pc], -r0
    15c8:	00134900 	andseq	r4, r3, r0, lsl #18
    15cc:	11010000 	mrsne	r0, (UNDEF: 1)
    15d0:	130e2501 	movwne	r2, #58625	; 0xe501
    15d4:	1b0e030b 	blne	382208 <__kernel_end+0x21c208>
    15d8:	1201110e 	andne	r1, r1, #-2147483645	; 0x80000003
    15dc:	00171006 	andseq	r1, r7, r6
    15e0:	00160200 	andseq	r0, r6, r0, lsl #4
    15e4:	0b3a0e03 	bleq	e84df8 <__kernel_end+0xd1edf8>
    15e8:	13490b3b 	movtne	r0, #39739	; 0x9b3b
    15ec:	13030000 	movwne	r0, #12288	; 0x3000
    15f0:	0b0e0301 	bleq	3821fc <__kernel_end+0x21c1fc>
    15f4:	3b0b3a0b 	blcc	2cfe28 <__kernel_end+0x169e28>
    15f8:	0013010b 	andseq	r0, r3, fp, lsl #2
    15fc:	000d0400 	andeq	r0, sp, r0, lsl #8
    1600:	13490e03 	movtne	r0, #40451	; 0x9e03
    1604:	19340b38 	ldmdbne	r4!, {r3, r4, r5, r8, r9, fp}
    1608:	0f050000 	svceq	0x00050000
    160c:	000b0b00 	andeq	r0, fp, r0, lsl #22
    1610:	00240600 	eoreq	r0, r4, r0, lsl #12
    1614:	0b3e0b0b 	bleq	f84248 <__kernel_end+0xe1e248>
    1618:	00000e03 	andeq	r0, r0, r3, lsl #28
    161c:	0b002407 	bleq	a640 <__aeabi_uidiv+0xa0>
    1620:	030b3e0b 	movweq	r3, #48651	; 0xbe0b
    1624:	08000008 	stmdaeq	r0, {r3}
    1628:	193f012e 	ldmdbne	pc!, {r1, r2, r3, r5, r8}	; <UNPREDICTABLE>
    162c:	0b3a0e03 	bleq	e84e40 <__kernel_end+0xd1ee40>
    1630:	19270b3b 	stmdbne	r7!, {r0, r1, r3, r4, r5, r8, r9, fp}
    1634:	01111349 	tsteq	r1, r9, asr #6
    1638:	18400612 	stmdane	r0, {r1, r4, r9, sl}^
    163c:	01194297 			; <UNDEFINED> instruction: 0x01194297
    1640:	09000013 	stmdbeq	r0, {r0, r1, r4}
    1644:	08030005 	stmdaeq	r3, {r0, r2}
    1648:	0b3b0b3a 	bleq	ec4338 <__kernel_end+0xd5e338>
    164c:	17021349 	strne	r1, [r2, -r9, asr #6]
    1650:	890a0000 	stmdbhi	sl, {}	; <UNPREDICTABLE>
    1654:	11010182 	smlabbne	r1, r2, r1, r0
    1658:	00133101 	andseq	r3, r3, r1, lsl #2
    165c:	828a0b00 	addhi	r0, sl, #0, 22
    1660:	18020001 	stmdane	r2, {r0}
    1664:	00184291 	mulseq	r8, r1, r2
    1668:	00050c00 	andeq	r0, r5, r0, lsl #24
    166c:	0b3a0e03 	bleq	e84e80 <__kernel_end+0xd1ee80>
    1670:	13490b3b 	movtne	r0, #39739	; 0x9b3b
    1674:	00001802 	andeq	r1, r0, r2, lsl #16
    1678:	0000180d 	andeq	r1, r0, sp, lsl #16
    167c:	00340e00 	eorseq	r0, r4, r0, lsl #28
    1680:	0b3a0803 	bleq	e83694 <__kernel_end+0xd1d694>
    1684:	13490b3b 	movtne	r0, #39739	; 0x9b3b
    1688:	00001802 	andeq	r1, r0, r2, lsl #16
    168c:	0b000f0f 	bleq	52d0 <SCTLR_ENABLE_INSTRUCTION_CACHE+0x42d0>
    1690:	0013490b 	andseq	r4, r3, fp, lsl #18
    1694:	00261000 	eoreq	r1, r6, r0
    1698:	00001349 	andeq	r1, r0, r9, asr #6
    169c:	3f002e11 	svccc	0x00002e11
    16a0:	6e193c19 	mrcvs	12, 0, r3, cr9, cr9, {0}
    16a4:	3a0e030e 	bcc	3822e4 <__kernel_end+0x21c2e4>
    16a8:	000b3b0b 	andeq	r3, fp, fp, lsl #22
    16ac:	11010000 	mrsne	r0, (UNDEF: 1)
    16b0:	130e2501 	movwne	r2, #58625	; 0xe501
    16b4:	1b0e030b 	blne	3822e8 <__kernel_end+0x21c2e8>
    16b8:	1201110e 	andne	r1, r1, #-2147483645	; 0x80000003
    16bc:	00171006 	andseq	r1, r7, r6
    16c0:	00240200 	eoreq	r0, r4, r0, lsl #4
    16c4:	0b3e0b0b 	bleq	f842f8 <__kernel_end+0xe1e2f8>
    16c8:	00000803 	andeq	r0, r0, r3, lsl #16
    16cc:	0b002403 	bleq	a6e0 <__aeabi_idiv0+0x2c>
    16d0:	030b3e0b 	movweq	r3, #48651	; 0xbe0b
    16d4:	0400000e 	streq	r0, [r0], #-14
    16d8:	0b0b000f 	bleq	2c171c <__kernel_end+0x15b71c>
    16dc:	0f050000 	svceq	0x00050000
    16e0:	490b0b00 	stmdbmi	fp, {r8, r9, fp}
    16e4:	06000013 			; <UNDEFINED> instruction: 0x06000013
    16e8:	13490026 	movtne	r0, #36902	; 0x9026
    16ec:	16070000 	strne	r0, [r7], -r0
    16f0:	3a0e0300 	bcc	3822f8 <__kernel_end+0x21c2f8>
    16f4:	490b3b0b 	stmdbmi	fp, {r0, r1, r3, r8, r9, fp, ip, sp}
    16f8:	08000013 	stmdaeq	r0, {r0, r1, r4}
    16fc:	0e030113 	mcreq	1, 0, r0, cr3, cr3, {0}
    1700:	0b3a0b0b 	bleq	e84334 <__kernel_end+0xd1e334>
    1704:	13010b3b 	movwne	r0, #6971	; 0x1b3b
    1708:	0d090000 	stceq	0, cr0, [r9, #-0]
    170c:	490e0300 	stmdbmi	lr, {r8, r9}
    1710:	340b3813 	strcc	r3, [fp], #-2067	; 0xfffff7ed
    1714:	0a000019 	beq	1780 <SCTLR_ENABLE_INSTRUCTION_CACHE+0x780>
    1718:	0e030104 	adfeqs	f0, f3, f4
    171c:	13490b0b 	movtne	r0, #39691	; 0x9b0b
    1720:	0b3b0b3a 	bleq	ec4410 <__kernel_end+0xd5e410>
    1724:	00001301 	andeq	r1, r0, r1, lsl #6
    1728:	0300280b 	movweq	r2, #2059	; 0x80b
    172c:	000b1c0e 	andeq	r1, fp, lr, lsl #24
    1730:	012e0c00 			; <UNDEFINED> instruction: 0x012e0c00
    1734:	0b3a0e03 	bleq	e84f48 <__kernel_end+0xd1ef48>
    1738:	1927053b 	stmdbne	r7!, {r0, r1, r3, r4, r5, r8, sl}
    173c:	13010b20 	movwne	r0, #6944	; 0x1b20
    1740:	050d0000 	streq	r0, [sp, #-0]
    1744:	3a080300 	bcc	20234c <__kernel_end+0x9c34c>
    1748:	49053b0b 	stmdbmi	r5, {r0, r1, r3, r8, r9, fp, ip, sp}
    174c:	0e000013 	mcreq	0, 0, r0, cr0, cr3, {0}
    1750:	0e030005 	cdpeq	0, 0, cr0, cr3, cr5, {0}
    1754:	053b0b3a 	ldreq	r0, [fp, #-2874]!	; 0xfffff4c6
    1758:	00001349 	andeq	r1, r0, r9, asr #6
    175c:	0300340f 	movweq	r3, #1039	; 0x40f
    1760:	3b0b3a0e 	blcc	2cffa0 <__kernel_end+0x169fa0>
    1764:	00134905 	andseq	r4, r3, r5, lsl #18
    1768:	00341000 	eorseq	r1, r4, r0
    176c:	0b3a0803 	bleq	e83780 <__kernel_end+0xd1d780>
    1770:	1349053b 	movtne	r0, #38203	; 0x953b
    1774:	0b110000 	bleq	44177c <__kernel_end+0x2db77c>
    1778:	12000001 	andne	r0, r0, #1
    177c:	13490101 	movtne	r0, #37121	; 0x9101
    1780:	00001301 	andeq	r1, r0, r1, lsl #6
    1784:	49002113 	stmdbmi	r0, {r0, r1, r4, r8, sp}
    1788:	000b2f13 	andeq	r2, fp, r3, lsl pc
    178c:	012e1400 			; <UNDEFINED> instruction: 0x012e1400
    1790:	0e03193f 	mcreq	9, 0, r1, cr3, cr15, {1}
    1794:	0b3b0b3a 	bleq	ec4484 <__kernel_end+0xd5e484>
    1798:	13491927 	movtne	r1, #39207	; 0x9927
    179c:	06120111 			; <UNDEFINED> instruction: 0x06120111
    17a0:	42961840 	addsmi	r1, r6, #64, 16	; 0x400000
    17a4:	00130119 	andseq	r0, r3, r9, lsl r1
    17a8:	00051500 	andeq	r1, r5, r0, lsl #10
    17ac:	0b3a0803 	bleq	e837c0 <__kernel_end+0xd1d7c0>
    17b0:	13490b3b 	movtne	r0, #39739	; 0x9b3b
    17b4:	00001702 	andeq	r1, r0, r2, lsl #14
    17b8:	03000516 	movweq	r0, #1302	; 0x516
    17bc:	3b0b3a0e 	blcc	2cfffc <__kernel_end+0x169ffc>
    17c0:	0213490b 	andseq	r4, r3, #180224	; 0x2c000
    17c4:	17000017 	smladne	r0, r7, r0, r0
    17c8:	0e030034 	mcreq	0, 0, r0, cr3, cr4, {1}
    17cc:	0b3b0b3a 	bleq	ec44bc <__kernel_end+0xd5e4bc>
    17d0:	17021349 	strne	r1, [r2, -r9, asr #6]
    17d4:	34180000 	ldrcc	r0, [r8], #-0
    17d8:	3a080300 	bcc	2023e0 <__kernel_end+0x9c3e0>
    17dc:	490b3b0b 	stmdbmi	fp, {r0, r1, r3, r8, r9, fp, ip, sp}
    17e0:	00170213 	andseq	r0, r7, r3, lsl r2
    17e4:	00341900 	eorseq	r1, r4, r0, lsl #18
    17e8:	0b3a0e03 	bleq	e84ffc <__kernel_end+0xd1effc>
    17ec:	13490b3b 	movtne	r0, #39739	; 0x9b3b
    17f0:	00001802 	andeq	r1, r0, r2, lsl #16
    17f4:	0300341a 	movweq	r3, #1050	; 0x41a
    17f8:	3b0b3a0e 	blcc	2d0038 <__kernel_end+0x16a038>
    17fc:	0013490b 	andseq	r4, r3, fp, lsl #18
    1800:	000a1b00 	andeq	r1, sl, r0, lsl #22
    1804:	0b3a0e03 	bleq	e85018 <__kernel_end+0xd1f018>
    1808:	01110b3b 	tsteq	r1, fp, lsr fp
    180c:	0a1c0000 	beq	701814 <__kernel_end+0x59b814>
    1810:	3a0e0300 	bcc	382418 <__kernel_end+0x21c418>
    1814:	11053b0b 	tstne	r5, fp, lsl #22
    1818:	1d000001 	stcne	0, cr0, [r0, #-4]
    181c:	1331011d 	teqne	r1, #1073741831	; 0x40000007
    1820:	17550152 			; <UNDEFINED> instruction: 0x17550152
    1824:	05590b58 	ldrbeq	r0, [r9, #-2904]	; 0xfffff4a8
    1828:	00001301 	andeq	r1, r0, r1, lsl #6
    182c:	3100051e 	tstcc	r0, lr, lsl r5
    1830:	00170213 	andseq	r0, r7, r3, lsl r2
    1834:	010b1f00 	tsteq	fp, r0, lsl #30
    1838:	00001755 	andeq	r1, r0, r5, asr r7
    183c:	31003420 	tstcc	r0, r0, lsr #8
    1840:	00170213 	andseq	r0, r7, r3, lsl r2
    1844:	00342100 	eorseq	r2, r4, r0, lsl #2
    1848:	18021331 	stmdane	r2, {r0, r4, r5, r8, r9, ip}
    184c:	34220000 	strtcc	r0, [r2], #-0
    1850:	00133100 	andseq	r3, r3, r0, lsl #2
    1854:	82892300 	addhi	r2, r9, #0, 6
    1858:	01110101 	tsteq	r1, r1, lsl #2
    185c:	00001301 	andeq	r1, r0, r1, lsl #6
    1860:	01828a24 	orreq	r8, r2, r4, lsr #20
    1864:	91180200 	tstls	r8, r0, lsl #4
    1868:	00001842 	andeq	r1, r0, r2, asr #16
    186c:	01828925 	orreq	r8, r2, r5, lsr #18
    1870:	31011101 	tstcc	r1, r1, lsl #2
    1874:	00130113 	andseq	r0, r3, r3, lsl r1
    1878:	82892600 	addhi	r2, r9, #0, 12
    187c:	01110101 	tsteq	r1, r1, lsl #2
    1880:	15270000 	strne	r0, [r7, #-0]!
    1884:	49192701 	ldmdbmi	r9, {r0, r8, r9, sl, sp}
    1888:	00130113 	andseq	r0, r3, r3, lsl r1
    188c:	00052800 	andeq	r2, r5, r0, lsl #16
    1890:	00001349 	andeq	r1, r0, r9, asr #6
    1894:	03003429 	movweq	r3, #1065	; 0x429
    1898:	3b0b3a0e 	blcc	2d00d8 <__kernel_end+0x16a0d8>
    189c:	02134905 	andseq	r4, r3, #81920	; 0x14000
    18a0:	2a000018 	bcs	1908 <SCTLR_ENABLE_INSTRUCTION_CACHE+0x908>
    18a4:	0e030034 	mcreq	0, 0, r0, cr3, cr4, {1}
    18a8:	053b0b3a 	ldreq	r0, [fp, #-2874]!	; 0xfffff4c6
    18ac:	0a1c1349 	beq	7065d8 <__kernel_end+0x5a05d8>
    18b0:	362b0000 	strtcc	r0, [fp], -r0
    18b4:	00180200 	andseq	r0, r8, r0, lsl #4
    18b8:	002e2c00 	eoreq	r2, lr, r0, lsl #24
    18bc:	193c193f 	ldmdbne	ip!, {r0, r1, r2, r3, r4, r5, r8, fp, ip}
    18c0:	0e030e6e 	cdpeq	14, 0, cr0, cr3, cr14, {3}
    18c4:	0b3b0b3a 	bleq	ec45b4 <__kernel_end+0xd5e5b4>
    18c8:	01000000 	mrseq	r0, (UNDEF: 0)
    18cc:	0e250111 	mcreq	1, 1, r0, cr5, cr1, {0}
    18d0:	0e030b13 	vmoveq.32	d3[0], r0
    18d4:	01110e1b 	tsteq	r1, fp, lsl lr
    18d8:	17100612 			; <UNDEFINED> instruction: 0x17100612
    18dc:	24020000 	strcs	r0, [r2], #-0
    18e0:	3e0b0b00 	vmlacc.f64	d0, d11, d0
    18e4:	0008030b 	andeq	r0, r8, fp, lsl #6
    18e8:	00160300 	andseq	r0, r6, r0, lsl #6
    18ec:	0b3a0e03 	bleq	e85100 <__kernel_end+0xd1f100>
    18f0:	13490b3b 	movtne	r0, #39739	; 0x9b3b
    18f4:	24040000 	strcs	r0, [r4], #-0
    18f8:	3e0b0b00 	vmlacc.f64	d0, d11, d0
    18fc:	000e030b 	andeq	r0, lr, fp, lsl #6
    1900:	000f0500 	andeq	r0, pc, r0, lsl #10
    1904:	13490b0b 	movtne	r0, #39691	; 0x9b0b
    1908:	26060000 	strcs	r0, [r6], -r0
    190c:	00134900 	andseq	r4, r3, r0, lsl #18
    1910:	012e0700 			; <UNDEFINED> instruction: 0x012e0700
    1914:	0e03193f 	mcreq	9, 0, r1, cr3, cr15, {1}
    1918:	0b3b0b3a 	bleq	ec4608 <__kernel_end+0xd5e608>
    191c:	13491927 	movtne	r1, #39207	; 0x9927
    1920:	06120111 			; <UNDEFINED> instruction: 0x06120111
    1924:	42971840 	addsmi	r1, r7, #64, 16	; 0x400000
    1928:	08000019 	stmdaeq	r0, {r0, r3, r4}
    192c:	08030005 	stmdaeq	r3, {r0, r2}
    1930:	0b3b0b3a 	bleq	ec4620 <__kernel_end+0xd5e620>
    1934:	17021349 	strne	r1, [r2, -r9, asr #6]
    1938:	34090000 	strcc	r0, [r9], #-0
    193c:	3a080300 	bcc	202544 <__kernel_end+0x9c544>
    1940:	490b3b0b 	stmdbmi	fp, {r0, r1, r3, r8, r9, fp, ip, sp}
    1944:	00170213 	andseq	r0, r7, r3, lsl r2
	...

Disassembly of section .debug_aranges:

00000000 <.debug_aranges>:
   0:	0000001c 	andeq	r0, r0, ip, lsl r0
   4:	00000002 	andeq	r0, r0, r2
   8:	00040000 	andeq	r0, r4, r0
   c:	00000000 	andeq	r0, r0, r0
  10:	00008000 	andeq	r8, r0, r0
  14:	00000214 	andeq	r0, r0, r4, lsl r2
	...
  20:	0000001c 	andeq	r0, r0, ip, lsl r0
  24:	00890002 	addeq	r0, r9, r2
  28:	00040000 	andeq	r0, r4, r0
  2c:	00000000 	andeq	r0, r0, r0
  30:	00008214 	andeq	r8, r0, r4, lsl r2
  34:	00000060 	andeq	r0, r0, r0, rrx
	...
  40:	0000001c 	andeq	r0, r0, ip, lsl r0
  44:	01950002 	orrseq	r0, r5, r2
  48:	00040000 	andeq	r0, r4, r0
  4c:	00000000 	andeq	r0, r0, r0
  50:	00008274 	andeq	r8, r0, r4, ror r2
  54:	00000038 	andeq	r0, r0, r8, lsr r0
	...
  60:	0000001c 	andeq	r0, r0, ip, lsl r0
  64:	03390002 	teqeq	r9, #2
  68:	00040000 	andeq	r0, r4, r0
  6c:	00000000 	andeq	r0, r0, r0
  70:	000082ac 	andeq	r8, r0, ip, lsr #5
  74:	000003b0 			; <UNDEFINED> instruction: 0x000003b0
	...
  80:	0000001c 	andeq	r0, r0, ip, lsl r0
  84:	08e80002 	stmiaeq	r8!, {r1}^
  88:	00040000 	andeq	r0, r4, r0
  8c:	00000000 	andeq	r0, r0, r0
  90:	0000865c 	andeq	r8, r0, ip, asr r6
  94:	0000006c 	andeq	r0, r0, ip, rrx
	...
  a0:	0000001c 	andeq	r0, r0, ip, lsl r0
  a4:	0afe0002 	beq	fff800b4 <__kernel_end+0xffe1a0b4>
  a8:	00040000 	andeq	r0, r4, r0
  ac:	00000000 	andeq	r0, r0, r0
  b0:	000086c8 	andeq	r8, r0, r8, asr #13
  b4:	000005d0 	ldrdeq	r0, [r0], -r0	; <UNPREDICTABLE>
	...
  c0:	0000001c 	andeq	r0, r0, ip, lsl r0
  c4:	107c0002 	rsbsne	r0, ip, r2
  c8:	00040000 	andeq	r0, r4, r0
  cc:	00000000 	andeq	r0, r0, r0
  d0:	00008c98 	muleq	r0, r8, ip
  d4:	000001f8 	strdeq	r0, [r0], -r8
	...
  e0:	0000001c 	andeq	r0, r0, ip, lsl r0
  e4:	13360002 	teqne	r6, #2
  e8:	00040000 	andeq	r0, r4, r0
  ec:	00000000 	andeq	r0, r0, r0
  f0:	00008e90 	muleq	r0, r0, lr
  f4:	000000e4 	andeq	r0, r0, r4, ror #1
	...
 100:	0000001c 	andeq	r0, r0, ip, lsl r0
 104:	151e0002 	ldrne	r0, [lr, #-2]
 108:	00040000 	andeq	r0, r4, r0
 10c:	00000000 	andeq	r0, r0, r0
 110:	00008f74 	andeq	r8, r0, r4, ror pc
 114:	000002c0 	andeq	r0, r0, r0, asr #5
	...
 120:	0000001c 	andeq	r0, r0, ip, lsl r0
 124:	1ce00002 	stclne	0, cr0, [r0], #8
 128:	00040000 	andeq	r0, r4, r0
 12c:	00000000 	andeq	r0, r0, r0
 130:	00009234 	andeq	r9, r0, r4, lsr r2
 134:	00000128 	andeq	r0, r0, r8, lsr #2
	...
 140:	0000001c 	andeq	r0, r0, ip, lsl r0
 144:	21f20002 	mvnscs	r0, r2
 148:	00040000 	andeq	r0, r4, r0
 14c:	00000000 	andeq	r0, r0, r0
 150:	0000935c 	andeq	r9, r0, ip, asr r3
 154:	00000324 	andeq	r0, r0, r4, lsr #6
	...
 160:	0000001c 	andeq	r0, r0, ip, lsl r0
 164:	277e0002 	ldrbcs	r0, [lr, -r2]!
 168:	00040000 	andeq	r0, r4, r0
 16c:	00000000 	andeq	r0, r0, r0
 170:	00009680 	andeq	r9, r0, r0, lsl #13
 174:	000001e0 	andeq	r0, r0, r0, ror #3
	...
 180:	0000001c 	andeq	r0, r0, ip, lsl r0
 184:	4b5e0002 	blmi	1780194 <__kernel_end+0x161a194>
 188:	00040000 	andeq	r0, r4, r0
 18c:	00000000 	andeq	r0, r0, r0
 190:	00009860 	andeq	r9, r0, r0, ror #16
 194:	0000004c 	andeq	r0, r0, ip, asr #32
	...
 1a0:	0000001c 	andeq	r0, r0, ip, lsl r0
 1a4:	4cc00002 	stclmi	0, cr0, [r0], {2}
 1a8:	00040000 	andeq	r0, r4, r0
 1ac:	00000000 	andeq	r0, r0, r0
 1b0:	000098ac 	andeq	r9, r0, ip, lsr #17
 1b4:	000004b4 			; <UNDEFINED> instruction: 0x000004b4
	...
 1c0:	0000001c 	andeq	r0, r0, ip, lsl r0
 1c4:	50240002 	eorpl	r0, r4, r2
 1c8:	00040000 	andeq	r0, r4, r0
 1cc:	00000000 	andeq	r0, r0, r0
 1d0:	00009d60 	andeq	r9, r0, r0, ror #26
 1d4:	0000004c 	andeq	r0, r0, ip, asr #32
	...
 1e0:	0000001c 	andeq	r0, r0, ip, lsl r0
 1e4:	514e0002 	cmppl	lr, r2
 1e8:	00040000 	andeq	r0, r4, r0
 1ec:	00000000 	andeq	r0, r0, r0
 1f0:	00009dac 	andeq	r9, r0, ip, lsr #27
 1f4:	00000024 	andeq	r0, r0, r4, lsr #32
	...
 200:	0000001c 	andeq	r0, r0, ip, lsl r0
 204:	52760002 	rsbspl	r0, r6, #2
 208:	00040000 	andeq	r0, r4, r0
 20c:	00000000 	andeq	r0, r0, r0
 210:	00009dd0 	ldrdeq	r9, [r0], -r0
 214:	00000054 	andeq	r0, r0, r4, asr r0
	...
 220:	0000001c 	andeq	r0, r0, ip, lsl r0
 224:	53eb0002 	mvnpl	r0, #2
 228:	00040000 	andeq	r0, r4, r0
 22c:	00000000 	andeq	r0, r0, r0
 230:	00009e24 	andeq	r9, r0, r4, lsr #28
 234:	0000074c 	andeq	r0, r0, ip, asr #14
	...
 240:	0000001c 	andeq	r0, r0, ip, lsl r0
 244:	58ab0002 	stmiapl	fp!, {r1}
 248:	00040000 	andeq	r0, r4, r0
 24c:	00000000 	andeq	r0, r0, r0
 250:	0000a570 	andeq	sl, r0, r0, ror r5
 254:	00000030 	andeq	r0, r0, r0, lsr r0
	...

Disassembly of section .debug_loc:

00000000 <.debug_loc>:
       0:	00000000 	andeq	r0, r0, r0
       4:	0000004f 	andeq	r0, r0, pc, asr #32
       8:	4f500001 	svcmi	0x00500001
       c:	60000000 	andvs	r0, r0, r0
      10:	04000000 	streq	r0, [r0], #-0
      14:	5001f300 	andpl	pc, r1, r0, lsl #6
      18:	0000009f 	muleq	r0, pc, r0	; <UNPREDICTABLE>
	...
      24:	00004f00 	andeq	r4, r0, r0, lsl #30
      28:	51000100 	mrspl	r0, (UNDEF: 16)
      2c:	0000004f 	andeq	r0, r0, pc, asr #32
      30:	00000060 	andeq	r0, r0, r0, rrx
      34:	01f30004 	mvnseq	r0, r4
      38:	00009f51 	andeq	r9, r0, r1, asr pc
	...
      44:	004f0000 	subeq	r0, pc, r0
      48:	00010000 	andeq	r0, r1, r0
      4c:	00004f52 	andeq	r4, r0, r2, asr pc
      50:	00006000 	andeq	r6, r0, r0
      54:	f3000400 	vshl.u8	d0, d0, d0
      58:	009f5201 	addseq	r5, pc, r1, lsl #4
      5c:	00000000 	andeq	r0, r0, r0
      60:	40000000 	andmi	r0, r0, r0
      64:	4c000000 	stcmi	0, cr0, [r0], {-0}
      68:	01000000 	mrseq	r0, (UNDEF: 0)
      6c:	00005400 	andeq	r5, r0, r0, lsl #8
      70:	00000000 	andeq	r0, r0, r0
      74:	00c00000 	sbceq	r0, r0, r0
      78:	00dc0000 	sbcseq	r0, ip, r0
      7c:	00020000 	andeq	r0, r2, r0
      80:	00dc9f30 	sbcseq	r9, ip, r0, lsr pc
      84:	01940000 	orrseq	r0, r4, r0
      88:	00010000 	andeq	r0, r1, r0
      8c:	00000054 	andeq	r0, r0, r4, asr r0
      90:	00000000 	andeq	r0, r0, r0
      94:	00019400 	andeq	r9, r1, r0, lsl #8
      98:	0001d800 	andeq	sp, r1, r0, lsl #16
      9c:	50000100 	andpl	r0, r0, r0, lsl #2
      a0:	000001d8 	ldrdeq	r0, [r0], -r8
      a4:	000001e0 	andeq	r0, r0, r0, ror #3
      a8:	01f30004 	mvnseq	r0, r4
      ac:	01e09f50 	mvneq	r9, r0, asr pc
      b0:	02500000 	subseq	r0, r0, #0
      b4:	00010000 	andeq	r0, r1, r0
      b8:	00000050 	andeq	r0, r0, r0, asr r0
      bc:	00000000 	andeq	r0, r0, r0
      c0:	0001b000 	andeq	fp, r1, r0
      c4:	0001d800 	andeq	sp, r1, r0, lsl #16
      c8:	70000600 	andvc	r0, r0, r0, lsl #12
      cc:	1aff0800 	bne	fffc20d4 <__kernel_end+0xffe5c0d4>
      d0:	0001d89f 	muleq	r1, pc, r8	; <UNPREDICTABLE>
      d4:	0001e000 	andeq	lr, r1, r0
      d8:	f3000700 	vabd.u8	d0, d0, d0
      dc:	ff085001 			; <UNDEFINED> instruction: 0xff085001
      e0:	01e09f1a 	mvneq	r9, sl, lsl pc
      e4:	02100000 	andseq	r0, r0, #0
      e8:	00030000 	andeq	r0, r3, r0
      ec:	109f6070 	addsne	r6, pc, r0, ror r0	; <UNPREDICTABLE>
      f0:	24000002 	strcs	r0, [r0], #-2
      f4:	03000002 	movweq	r0, #2
      f8:	9f407000 	svcls	0x00407000
      fc:	00000224 	andeq	r0, r0, r4, lsr #4
     100:	00000250 	andeq	r0, r0, r0, asr r2
     104:	00550001 	subseq	r0, r5, r1
     108:	00000000 	andeq	r0, r0, r0
     10c:	50000000 	andpl	r0, r0, r0
     110:	98000002 	stmdals	r0, {r1}
     114:	01000002 	tsteq	r0, r2
     118:	02985000 	addseq	r5, r8, #0
     11c:	02a00000 	adceq	r0, r0, #0
     120:	00040000 	andeq	r0, r4, r0
     124:	9f5001f3 	svcls	0x005001f3
     128:	000002a0 	andeq	r0, r0, r0, lsr #5
     12c:	00000318 	andeq	r0, r0, r8, lsl r3
     130:	00500001 	subseq	r0, r0, r1
     134:	00000000 	andeq	r0, r0, r0
     138:	6c000000 	stcvs	0, cr0, [r0], {-0}
     13c:	98000002 	stmdals	r0, {r1}
     140:	06000002 	streq	r0, [r0], -r2
     144:	08007000 	stmdaeq	r0, {ip, sp, lr}
     148:	989f1aff 	ldmls	pc, {r0, r1, r2, r3, r4, r5, r6, r7, r9, fp, ip}	; <UNPREDICTABLE>
     14c:	a0000002 	andge	r0, r0, r2
     150:	07000002 	streq	r0, [r0, -r2]
     154:	5001f300 	andpl	pc, r1, r0, lsl #6
     158:	9f1aff08 	svcls	0x001aff08
     15c:	000002a0 	andeq	r0, r0, r0, lsr #5
     160:	000002d4 	ldrdeq	r0, [r0], -r4
     164:	60700003 	rsbsvs	r0, r0, r3
     168:	0002d49f 	muleq	r2, pc, r4	; <UNPREDICTABLE>
     16c:	0002e800 	andeq	lr, r2, r0, lsl #16
     170:	70000300 	andvc	r0, r0, r0, lsl #6
     174:	02e89f40 	rsceq	r9, r8, #64, 30	; 0x100
     178:	03180000 	tsteq	r8, #0
     17c:	00010000 	andeq	r0, r1, r0
     180:	00000054 	andeq	r0, r0, r4, asr r0
     184:	00000000 	andeq	r0, r0, r0
     188:	00031800 	andeq	r1, r3, r0, lsl #16
     18c:	00032000 	andeq	r2, r3, r0
     190:	51000100 	mrspl	r0, (UNDEF: 16)
     194:	00000320 	andeq	r0, r0, r0, lsr #6
     198:	0000033c 	andeq	r0, r0, ip, lsr r3
     19c:	01f30004 	mvnseq	r0, r4
     1a0:	00009f51 	andeq	r9, r0, r1, asr pc
     1a4:	00000000 	andeq	r0, r0, r0
     1a8:	03180000 	tsteq	r8, #0
     1ac:	03280000 			; <UNDEFINED> instruction: 0x03280000
     1b0:	00010000 	andeq	r0, r1, r0
     1b4:	00032852 	andeq	r2, r3, r2, asr r8
     1b8:	00033c00 	andeq	r3, r3, r0, lsl #24
     1bc:	f3000400 	vshl.u8	d0, d0, d0
     1c0:	009f5201 	addseq	r5, pc, r1, lsl #4
     1c4:	00000000 	andeq	r0, r0, r0
     1c8:	20000000 	andcs	r0, r0, r0
     1cc:	2c000003 	stccs	0, cr0, [r0], {3}
     1d0:	02000003 	andeq	r0, r0, #3
     1d4:	009f3000 	addseq	r3, pc, r0
     1d8:	00000000 	andeq	r0, r0, r0
     1dc:	3c000000 	stccc	0, cr0, [r0], {-0}
     1e0:	47000003 	strmi	r0, [r0, -r3]
     1e4:	01000003 	tsteq	r0, r3
     1e8:	03475000 	movteq	r5, #28672	; 0x7000
     1ec:	03480000 	movteq	r0, #32768	; 0x8000
     1f0:	00040000 	andeq	r0, r4, r0
     1f4:	9f5001f3 	svcls	0x005001f3
	...
     200:	0000033c 	andeq	r0, r0, ip, lsr r3
     204:	00000344 	andeq	r0, r0, r4, asr #6
     208:	44510001 	ldrbmi	r0, [r1], #-1
     20c:	47000003 	strmi	r0, [r0, -r3]
     210:	01000003 	tsteq	r0, r3
     214:	03475200 	movteq	r5, #29184	; 0x7200
     218:	03480000 	movteq	r0, #32768	; 0x8000
     21c:	00040000 	andeq	r0, r4, r0
     220:	9f5101f3 	svcls	0x005101f3
	...
     230:	00000010 	andeq	r0, r0, r0, lsl r0
     234:	10500001 	subsne	r0, r0, r1
     238:	2c000000 	stccs	0, cr0, [r0], {-0}
     23c:	04000000 	streq	r0, [r0], #-0
     240:	5001f300 	andpl	pc, r1, r0, lsl #6
     244:	0000009f 	muleq	r0, pc, r0	; <UNPREDICTABLE>
	...
     250:	00000400 	andeq	r0, r0, r0, lsl #8
     254:	51000100 	mrspl	r0, (UNDEF: 16)
     258:	00000004 	andeq	r0, r0, r4
     25c:	00000010 	andeq	r0, r0, r0, lsl r0
     260:	10510001 	subsne	r0, r1, r1
     264:	2c000000 	stccs	0, cr0, [r0], {-0}
     268:	01000000 	mrseq	r0, (UNDEF: 0)
     26c:	00005000 	andeq	r5, r0, r0
     270:	00000000 	andeq	r0, r0, r0
     274:	002c0000 	eoreq	r0, ip, r0
     278:	00600000 	rsbeq	r0, r0, r0
     27c:	00010000 	andeq	r0, r1, r0
     280:	00006050 	andeq	r6, r0, r0, asr r0
     284:	00006400 	andeq	r6, r0, r0, lsl #8
     288:	f3000400 	vshl.u8	d0, d0, d0
     28c:	649f5001 	ldrvs	r5, [pc], #1	; 294 <ARM_I_BIT+0x214>
     290:	68000000 	stmdavs	r0, {}	; <UNPREDICTABLE>
     294:	01000000 	mrseq	r0, (UNDEF: 0)
     298:	00685000 	rsbeq	r5, r8, r0
     29c:	006c0000 	rsbeq	r0, ip, r0
     2a0:	00040000 	andeq	r0, r4, r0
     2a4:	9f5001f3 	svcls	0x005001f3
	...
     2b0:	0000002c 	andeq	r0, r0, ip, lsr #32
     2b4:	00000040 	andeq	r0, r0, r0, asr #32
     2b8:	ff090003 			; <UNDEFINED> instruction: 0xff090003
     2bc:	0000509f 	muleq	r0, pc, r0	; <UNPREDICTABLE>
     2c0:	00006400 	andeq	r6, r0, r0, lsl #8
     2c4:	53000100 	movwpl	r0, #256	; 0x100
     2c8:	00000064 	andeq	r0, r0, r4, rrx
     2cc:	0000006c 	andeq	r0, r0, ip, rrx
     2d0:	ff090003 			; <UNDEFINED> instruction: 0xff090003
     2d4:	0000009f 	muleq	r0, pc, r0	; <UNPREDICTABLE>
     2d8:	00000000 	andeq	r0, r0, r0
     2dc:	00052400 	andeq	r2, r5, r0, lsl #8
     2e0:	00058800 	andeq	r8, r5, r0, lsl #16
     2e4:	50000100 	andpl	r0, r0, r0, lsl #2
     2e8:	00000588 	andeq	r0, r0, r8, lsl #11
     2ec:	0000058c 	andeq	r0, r0, ip, lsl #11
     2f0:	54030005 	strpl	r0, [r3], #-5
     2f4:	8c000152 	stfhis	f0, [r0], {82}	; 0x52
     2f8:	ac000005 	stcge	0, cr0, [r0], {5}
     2fc:	01000005 	tsteq	r0, r5
     300:	05ac5000 	streq	r5, [ip, #0]!
     304:	05b70000 	ldreq	r0, [r7, #0]!
     308:	00050000 	andeq	r0, r5, r0
     30c:	01525403 	cmpeq	r2, r3, lsl #8
     310:	0005b700 	andeq	fp, r5, r0, lsl #14
     314:	0005d000 	andeq	sp, r5, r0
     318:	f3000400 	vshl.u8	d0, d0, d0
     31c:	009f5001 	addseq	r5, pc, r1
     320:	00000000 	andeq	r0, r0, r0
     324:	24000000 	strcs	r0, [r0], #-0
     328:	9c000005 	stcls	0, cr0, [r0], {5}
     32c:	02000005 	andeq	r0, r0, #5
     330:	9c9f3000 	ldcls	0, cr3, [pc], {0}
     334:	b7000005 	strlt	r0, [r0, -r5]
     338:	01000005 	tsteq	r0, r5
     33c:	00005300 	andeq	r5, r0, r0, lsl #6
     340:	00000000 	andeq	r0, r0, r0
     344:	05400000 	strbeq	r0, [r0, #-0]
     348:	05600000 	strbeq	r0, [r0, #-0]!
     34c:	00020000 	andeq	r0, r2, r0
     350:	05609f32 	strbeq	r9, [r0, #-3890]!	; 0xfffff0ce
     354:	05780000 	ldrbeq	r0, [r8, #-0]!
     358:	00010000 	andeq	r0, r1, r0
     35c:	00057c53 	andeq	r7, r5, r3, asr ip
     360:	00058400 	andeq	r8, r5, r0, lsl #8
     364:	53000100 	movwpl	r0, #256	; 0x100
	...
     370:	0000002c 	andeq	r0, r0, ip, lsr #32
     374:	0000003c 	andeq	r0, r0, ip, lsr r0
     378:	3c500001 	mrrccc	0, 0, r0, r0, cr1	; <UNPREDICTABLE>
     37c:	48000000 	stmdami	r0, {}	; <UNPREDICTABLE>
     380:	04000000 	streq	r0, [r0], #-0
     384:	5001f300 	andpl	pc, r1, r0, lsl #6
     388:	0000009f 	muleq	r0, pc, r0	; <UNPREDICTABLE>
     38c:	00000000 	andeq	r0, r0, r0
     390:	00004800 	andeq	r4, r0, r0, lsl #16
     394:	00009c00 	andeq	r9, r0, r0, lsl #24
     398:	50000100 	andpl	r0, r0, r0, lsl #2
     39c:	0000009c 	muleq	r0, ip, r0
     3a0:	00000144 	andeq	r0, r0, r4, asr #2
     3a4:	687b0002 	ldmdavs	fp!, {r1}^
     3a8:	00000144 	andeq	r0, r0, r4, asr #2
     3ac:	00000170 	andeq	r0, r0, r0, ror r1
     3b0:	64910002 	ldrvs	r0, [r1], #2
	...
     3c0:	00000010 	andeq	r0, r0, r0, lsl r0
     3c4:	10500001 	subsne	r0, r0, r1
     3c8:	3c000000 	stccc	0, cr0, [r0], {-0}
     3cc:	04000000 	streq	r0, [r0], #-0
     3d0:	5001f300 	andpl	pc, r1, r0, lsl #6
     3d4:	0000009f 	muleq	r0, pc, r0	; <UNPREDICTABLE>
	...
     3e0:	00000800 	andeq	r0, r0, r0, lsl #16
     3e4:	51000100 	mrspl	r0, (UNDEF: 16)
     3e8:	00000008 	andeq	r0, r0, r8
     3ec:	0000003c 	andeq	r0, r0, ip, lsr r0
     3f0:	01f30004 	mvnseq	r0, r4
     3f4:	00009f51 	andeq	r9, r0, r1, asr pc
	...
     400:	000c0000 	andeq	r0, ip, r0
     404:	00010000 	andeq	r0, r1, r0
     408:	00000c52 	andeq	r0, r0, r2, asr ip
     40c:	00003c00 	andeq	r3, r0, r0, lsl #24
     410:	f3000400 	vshl.u8	d0, d0, d0
     414:	009f5201 	addseq	r5, pc, r1, lsl #4
	...
     420:	10000000 	andne	r0, r0, r0
     424:	07000000 	streq	r0, [r0, -r0]
     428:	44007000 	strmi	r7, [r0], #-0
     42c:	9f243225 	svcls	0x00243225
     430:	00000010 	andeq	r0, r0, r0, lsl r0
     434:	0000003c 	andeq	r0, r0, ip, lsr r0
     438:	01f30008 	mvnseq	r0, r8
     43c:	32254450 	eorcc	r4, r5, #80, 8	; 0x50000000
     440:	00009f24 	andeq	r9, r0, r4, lsr #30
	...
     44c:	00100000 	andseq	r0, r0, r0
     450:	000e0000 	andeq	r0, lr, r0
     454:	25440070 	strbcs	r0, [r4, #-112]	; 0xffffff90
     458:	60032432 	andvs	r2, r3, r2, lsr r4
     45c:	06000153 			; <UNDEFINED> instruction: 0x06000153
     460:	00109f21 	andseq	r9, r0, r1, lsr #30
     464:	002c0000 	eoreq	r0, ip, r0
     468:	000f0000 	andeq	r0, pc, r0
     46c:	445001f3 	ldrbmi	r0, [r0], #-499	; 0xfffffe0d
     470:	03243225 			; <UNDEFINED> instruction: 0x03243225
     474:	00015360 	andeq	r5, r1, r0, ror #6
     478:	2c9f2106 	ldfcss	f2, [pc], {6}
     47c:	2f000000 	svccs	0x00000000
     480:	01000000 	mrseq	r0, (UNDEF: 0)
     484:	00005000 	andeq	r5, r0, r0
     488:	00000000 	andeq	r0, r0, r0
     48c:	001c0000 	andseq	r0, ip, r0
     490:	00280000 	eoreq	r0, r8, r0
     494:	000b0000 	andeq	r0, fp, r0
     498:	715201f3 	ldrshvc	r0, [r2, #-19]	; 0xffffffed
     49c:	020a2100 	andeq	r2, sl, #0, 2
     4a0:	289f210c 	ldmcs	pc, {r2, r3, r8, sp}	; <UNPREDICTABLE>
     4a4:	3c000000 	stccc	0, cr0, [r0], {-0}
     4a8:	10000000 	andne	r0, r0, r0
     4ac:	5101f300 	mrspl	pc, SP_irq	; <UNPREDICTABLE>
     4b0:	24442544 	strbcs	r2, [r4], #-1348	; 0xfffffabc
     4b4:	215201f3 	ldrshcs	r0, [r2, #-19]	; 0xffffffed
     4b8:	210c020a 	tstcs	ip, sl, lsl #4
     4bc:	0000009f 	muleq	r0, pc, r0	; <UNPREDICTABLE>
     4c0:	00000000 	andeq	r0, r0, r0
     4c4:	00006400 	andeq	r6, r0, r0, lsl #8
     4c8:	00006800 	andeq	r6, r0, r0, lsl #16
     4cc:	30000200 	andcc	r0, r0, r0, lsl #4
     4d0:	0000689f 	muleq	r0, pc, r8	; <UNPREDICTABLE>
     4d4:	0000c400 	andeq	ip, r0, r0, lsl #8
     4d8:	54000100 	strpl	r0, [r0], #-256	; 0xffffff00
	...
     4e4:	00000048 	andeq	r0, r0, r8, asr #32
     4e8:	0000004c 	andeq	r0, r0, ip, asr #32
     4ec:	4c500001 	mrrcmi	0, 0, r0, r0, cr1	; <UNPREDICTABLE>
     4f0:	50000000 	andpl	r0, r0, r0
     4f4:	04000000 	streq	r0, [r0], #-0
     4f8:	5001f300 	andpl	pc, r1, r0, lsl #6
     4fc:	0000009f 	muleq	r0, pc, r0	; <UNPREDICTABLE>
     500:	00000000 	andeq	r0, r0, r0
     504:	00005000 	andeq	r5, r0, r0
     508:	00006400 	andeq	r6, r0, r0, lsl #8
     50c:	50000100 	andpl	r0, r0, r0, lsl #2
     510:	00000064 	andeq	r0, r0, r4, rrx
     514:	0000007c 	andeq	r0, r0, ip, ror r0
     518:	00530001 	subseq	r0, r3, r1
     51c:	00000000 	andeq	r0, r0, r0
     520:	54000000 	strpl	r0, [r0], #-0
     524:	68000000 	stmdavs	r0, {}	; <UNPREDICTABLE>
     528:	01000000 	mrseq	r0, (UNDEF: 0)
     52c:	00685100 	rsbeq	r5, r8, r0, lsl #2
     530:	007c0000 	rsbseq	r0, ip, r0
     534:	00010000 	andeq	r0, r1, r0
     538:	00000050 	andeq	r0, r0, r0, asr r0
     53c:	00000000 	andeq	r0, r0, r0
     540:	00007c00 	andeq	r7, r0, r0, lsl #24
     544:	00008000 	andeq	r8, r0, r0
     548:	50000100 	andpl	r0, r0, r0, lsl #2
     54c:	00000080 	andeq	r0, r0, r0, lsl #1
     550:	00000084 	andeq	r0, r0, r4, lsl #1
     554:	01f30004 	mvnseq	r0, r4
     558:	00009f50 	andeq	r9, r0, r0, asr pc
     55c:	00000000 	andeq	r0, r0, r0
     560:	00840000 	addeq	r0, r4, r0
     564:	00880000 	addeq	r0, r8, r0
     568:	00010000 	andeq	r0, r1, r0
     56c:	00008850 	andeq	r8, r0, r0, asr r8
     570:	00008c00 	andeq	r8, r0, r0, lsl #24
     574:	f3000400 	vshl.u8	d0, d0, d0
     578:	009f5001 	addseq	r5, pc, r1
     57c:	00000000 	andeq	r0, r0, r0
     580:	d4000000 	strle	r0, [r0], #-0
     584:	f4000000 	vst4.8	{d0-d3}, [r0], r0
     588:	01000000 	mrseq	r0, (UNDEF: 0)
     58c:	00005000 	andeq	r5, r0, r0
     590:	00000000 	andeq	r0, r0, r0
     594:	01140000 	tsteq	r4, r0
     598:	011c0000 	tsteq	ip, r0
     59c:	00010000 	andeq	r0, r1, r0
     5a0:	00011c50 	andeq	r1, r1, r0, asr ip
     5a4:	00015800 	andeq	r5, r1, r0, lsl #16
     5a8:	f3000400 	vshl.u8	d0, d0, d0
     5ac:	009f5001 	addseq	r5, pc, r1
     5b0:	00000000 	andeq	r0, r0, r0
     5b4:	34000000 	strcc	r0, [r0], #-0
     5b8:	48000001 	stmdami	r0, {r0}
     5bc:	01000001 	tsteq	r0, r1
     5c0:	01485000 	mrseq	r5, (UNDEF: 72)
     5c4:	014b0000 	mrseq	r0, (UNDEF: 75)
     5c8:	00010000 	andeq	r0, r1, r0
     5cc:	00000051 	andeq	r0, r0, r1, asr r0
     5d0:	00000000 	andeq	r0, r0, r0
     5d4:	00019000 	andeq	r9, r1, r0
     5d8:	00019800 	andeq	r9, r1, r0, lsl #16
     5dc:	50000100 	andpl	r0, r0, r0, lsl #2
	...
     5e8:	000001b8 			; <UNDEFINED> instruction: 0x000001b8
     5ec:	000001bc 			; <UNDEFINED> instruction: 0x000001bc
     5f0:	bc500001 	mrrclt	0, 0, r0, r0, cr1	; <UNPREDICTABLE>
     5f4:	cb000001 	blgt	600 <ARM_I_BIT+0x580>
     5f8:	01000001 	tsteq	r0, r1
     5fc:	00005100 	andeq	r5, r0, r0, lsl #2
     600:	00000000 	andeq	r0, r0, r0
     604:	01f40000 	mvnseq	r0, r0
     608:	01fc0000 	mvnseq	r0, r0
     60c:	00050000 	andeq	r0, r5, r0
     610:	24340071 	ldrtcs	r0, [r4], #-113	; 0xffffff8f
     614:	0001fc9f 	muleq	r1, pc, ip	; <UNPREDICTABLE>
     618:	00020700 	andeq	r0, r2, r0, lsl #14
     61c:	51000100 	mrspl	r0, (UNDEF: 16)
	...
     628:	00000208 	andeq	r0, r0, r8, lsl #4
     62c:	00000210 	andeq	r0, r0, r0, lsl r2
     630:	00740005 	rsbseq	r0, r4, r5
     634:	109f253c 	addsne	r2, pc, ip, lsr r5	; <UNPREDICTABLE>
     638:	6c000002 	stcvs	0, cr0, [r0], {2}
     63c:	01000002 	tsteq	r0, r2
     640:	00005400 	andeq	r5, r0, r0, lsl #8
     644:	00000000 	andeq	r0, r0, r0
     648:	02080000 	andeq	r0, r8, #0
     64c:	02300000 	eorseq	r0, r0, #0
     650:	00020000 	andeq	r0, r2, r0
     654:	02309f30 	eorseq	r9, r0, #48, 30	; 0xc0
     658:	02540000 	subseq	r0, r4, #0
     65c:	00010000 	andeq	r0, r1, r0
     660:	00025453 	andeq	r5, r2, r3, asr r4
     664:	00027800 	andeq	r7, r2, r0, lsl #16
     668:	54000100 	strpl	r0, [r0], #-256	; 0xffffff00
     66c:	00000278 	andeq	r0, r0, r8, ror r2
     670:	00000294 	muleq	r0, r4, r2
     674:	7f740003 	svcvc	0x00740003
     678:	0002949f 	muleq	r2, pc, r4	; <UNPREDICTABLE>
     67c:	0002c000 	andeq	ip, r2, r0
     680:	54000100 	strpl	r0, [r0], #-256	; 0xffffff00
	...
     690:	00000020 	andeq	r0, r0, r0, lsr #32
     694:	9f300002 	svcls	0x00300002
	...
     6a4:	00000020 	andeq	r0, r0, r0, lsr #32
     6a8:	300c0006 	andcc	r0, ip, r6
     6ac:	9f3f2010 	svcls	0x003f2010
	...
     6b8:	00000020 	andeq	r0, r0, r0, lsr #32
     6bc:	00000024 	andeq	r0, r0, r4, lsr #32
     6c0:	9f300002 	svcls	0x00300002
	...
     6cc:	00000020 	andeq	r0, r0, r0, lsr #32
     6d0:	00000024 	andeq	r0, r0, r4, lsr #32
     6d4:	940c0006 	strls	r0, [ip], #-6
     6d8:	9f3f2000 	svcls	0x003f2000
	...
     6e4:	00000024 	andeq	r0, r0, r4, lsr #32
     6e8:	0000002c 	andeq	r0, r0, ip, lsr #32
     6ec:	96080003 	strls	r0, [r8], -r3
     6f0:	0000009f 	muleq	r0, pc, r0	; <UNPREDICTABLE>
     6f4:	00000000 	andeq	r0, r0, r0
     6f8:	00002c00 	andeq	r2, r0, r0, lsl #24
     6fc:	00003400 	andeq	r3, r0, r0, lsl #8
     700:	0a000400 	beq	1708 <SCTLR_ENABLE_INSTRUCTION_CACHE+0x708>
     704:	009fc000 	addseq	ip, pc, r0
     708:	00000000 	andeq	r0, r0, r0
     70c:	2c000000 	stccs	0, cr0, [r0], {-0}
     710:	34000000 	strcc	r0, [r0], #-0
     714:	06000000 	streq	r0, [r0], -r0
     718:	00980c00 	addseq	r0, r8, r0, lsl #24
     71c:	009f3f20 	addseq	r3, pc, r0, lsr #30
     720:	00000000 	andeq	r0, r0, r0
     724:	34000000 	strcc	r0, [r0], #-0
     728:	3c000000 	stccc	0, cr0, [r0], {-0}
     72c:	03000000 	movweq	r0, #0
     730:	9f960800 	svcls	0x00960800
	...
     73c:	00000050 	andeq	r0, r0, r0, asr r0
     740:	00000054 	andeq	r0, r0, r4, asr r0
     744:	9f310002 	svcls	0x00310002
	...
     750:	00000050 	andeq	r0, r0, r0, asr r0
     754:	00000054 	andeq	r0, r0, r4, asr r0
     758:	240c0006 	strcs	r0, [ip], #-6
     75c:	9f3f2010 	svcls	0x003f2010
	...
     768:	0000003c 	andeq	r0, r0, ip, lsr r0
     76c:	00000044 	andeq	r0, r0, r4, asr #32
     770:	9f300002 	svcls	0x00300002
	...
     77c:	0000003c 	andeq	r0, r0, ip, lsr r0
     780:	00000044 	andeq	r0, r0, r4, asr #32
     784:	980c0006 	stmdals	ip, {r1, r2}
     788:	9f3f2000 	svcls	0x003f2000
	...
     794:	00000044 	andeq	r0, r0, r4, asr #32
     798:	00000050 	andeq	r0, r0, r0, asr r0
     79c:	ff0a0004 			; <UNDEFINED> instruction: 0xff0a0004
     7a0:	00009f07 	andeq	r9, r0, r7, lsl #30
     7a4:	00000000 	andeq	r0, r0, r0
     7a8:	00440000 	subeq	r0, r4, r0
     7ac:	00500000 	subseq	r0, r0, r0
     7b0:	00060000 	andeq	r0, r6, r0
     7b4:	2010440c 	andscs	r4, r0, ip, lsl #8
     7b8:	00009f3f 	andeq	r9, r0, pc, lsr pc
     7bc:	00000000 	andeq	r0, r0, r0
     7c0:	00540000 	subseq	r0, r4, r0
     7c4:	005c0000 	subseq	r0, ip, r0
     7c8:	00030000 	andeq	r0, r3, r0
     7cc:	009f2808 	addseq	r2, pc, r8, lsl #16
     7d0:	00000000 	andeq	r0, r0, r0
     7d4:	54000000 	strpl	r0, [r0], #-0
     7d8:	5c000000 	stcpl	0, cr0, [r0], {-0}
     7dc:	06000000 	streq	r0, [r0], -r0
     7e0:	10280c00 	eorne	r0, r8, r0, lsl #24
     7e4:	009f3f20 	addseq	r3, pc, r0, lsr #30
     7e8:	00000000 	andeq	r0, r0, r0
     7ec:	5c000000 	stcpl	0, cr0, [r0], {-0}
     7f0:	64000000 	strvs	r0, [r0], #-0
     7f4:	03000000 	movweq	r0, #0
     7f8:	9f700800 	svcls	0x00700800
	...
     804:	0000005c 	andeq	r0, r0, ip, asr r0
     808:	00000064 	andeq	r0, r0, r4, rrx
     80c:	2c0c0006 	stccs	0, cr0, [ip], {6}
     810:	9f3f2010 	svcls	0x003f2010
	...
     81c:	00000064 	andeq	r0, r0, r4, rrx
     820:	0000006c 	andeq	r0, r0, ip, rrx
     824:	f20a0004 	vhadd.s8	d0, d10, d4
     828:	00009f07 	andeq	r9, r0, r7, lsl #30
     82c:	00000000 	andeq	r0, r0, r0
     830:	00640000 	rsbeq	r0, r4, r0
     834:	006c0000 	rsbeq	r0, ip, r0
     838:	00060000 	andeq	r0, r6, r0
     83c:	2010380c 	andscs	r3, r0, ip, lsl #16
     840:	00009f3f 	andeq	r9, r0, pc, lsr pc
     844:	00000000 	andeq	r0, r0, r0
     848:	006c0000 	rsbeq	r0, ip, r0
     84c:	00700000 	rsbseq	r0, r0, r0
     850:	00040000 	andeq	r0, r4, r0
     854:	9f03010a 	svcls	0x0003010a
	...
     860:	0000006c 	andeq	r0, r0, ip, rrx
     864:	00000070 	andeq	r0, r0, r0, ror r0
     868:	300c0006 	andcc	r0, ip, r6
     86c:	9f3f2010 	svcls	0x003f2010
	...
     878:	0000007c 	andeq	r0, r0, ip, ror r0
     87c:	00000080 	andeq	r0, r0, r0, lsl #1
     880:	180c0006 	stmdane	ip, {r1, r2}
     884:	9f3f2010 	svcls	0x003f2010
	...
     890:	00000090 	muleq	r0, r0, r0
     894:	00000094 	muleq	r0, r4, r0
     898:	00500001 	subseq	r0, r0, r1
     89c:	00000000 	andeq	r0, r0, r0
     8a0:	90000000 	andls	r0, r0, r0
     8a4:	94000000 	strls	r0, [r0], #-0
     8a8:	06000000 	streq	r0, [r0], -r0
     8ac:	10000c00 	andne	r0, r0, r0, lsl #24
     8b0:	009f3f20 	addseq	r3, pc, r0, lsr #30
     8b4:	00000000 	andeq	r0, r0, r0
     8b8:	a0000000 	andge	r0, r0, r0
     8bc:	a4000000 	strge	r0, [r0], #-0
     8c0:	06000000 	streq	r0, [r0], -r0
     8c4:	10180c00 	andsne	r0, r8, r0, lsl #24
     8c8:	009f3f20 	addseq	r3, pc, r0, lsr #30
     8cc:	00000000 	andeq	r0, r0, r0
     8d0:	b4000000 	strlt	r0, [r0], #-0
     8d4:	b8000000 	stmdalt	r0, {}	; <UNPREDICTABLE>
     8d8:	06000000 	streq	r0, [r0], -r0
     8dc:	10000c00 	andne	r0, r0, r0, lsl #24
     8e0:	009f3f20 	addseq	r3, pc, r0, lsr #30
     8e4:	00000000 	andeq	r0, r0, r0
     8e8:	c0000000 	andgt	r0, r0, r0
     8ec:	cc000000 	stcgt	0, cr0, [r0], {-0}
     8f0:	01000000 	mrseq	r0, (UNDEF: 0)
     8f4:	00cc5000 	sbceq	r5, ip, r0
     8f8:	00d40000 	sbcseq	r0, r4, r0
     8fc:	00010000 	andeq	r0, r1, r0
     900:	0000d454 	andeq	sp, r0, r4, asr r4
     904:	0000e800 	andeq	lr, r0, r0, lsl #16
     908:	f3000400 	vshl.u8	d0, d0, d0
     90c:	009f5001 	addseq	r5, pc, r1
     910:	00000000 	andeq	r0, r0, r0
     914:	c0000000 	andgt	r0, r0, r0
     918:	d4000000 	strle	r0, [r0], #-0
     91c:	02000000 	andeq	r0, r0, #0
     920:	d49f3000 	ldrle	r3, [pc], #0	; 928 <SCTLR_ENABLE_BRANCH_PREDICTION+0x128>
     924:	d8000000 	stmdale	r0, {}	; <UNPREDICTABLE>
     928:	07000000 	streq	r0, [r0, -r0]
     92c:	f3007400 	vshl.u8	d7, d0, d0
     930:	9f1c5001 	svcls	0x001c5001
     934:	000000d8 	ldrdeq	r0, [r0], -r8
     938:	000000dc 	ldrdeq	r0, [r0], -ip
     93c:	00740009 	rsbseq	r0, r4, r9
     940:	1c5001f3 	ldfnee	f0, [r0], {243}	; 0xf3
     944:	dc9f0123 	ldfles	f0, [pc], {35}	; 0x23
     948:	e8000000 	stmda	r0, {}	; <UNPREDICTABLE>
     94c:	07000000 	streq	r0, [r0, -r0]
     950:	f3007400 	vshl.u8	d7, d0, d0
     954:	9f1c5001 	svcls	0x001c5001
	...
     960:	000000e8 	andeq	r0, r0, r8, ror #1
     964:	000000f4 	strdeq	r0, [r0], -r4
     968:	f4500001 			; <UNDEFINED> instruction: 0xf4500001
     96c:	24000000 	strcs	r0, [r0], #-0
     970:	01000001 	tsteq	r0, r1
     974:	01245500 			; <UNDEFINED> instruction: 0x01245500
     978:	01280000 			; <UNDEFINED> instruction: 0x01280000
     97c:	00040000 	andeq	r0, r4, r0
     980:	9f5001f3 	svcls	0x005001f3
	...
     98c:	000000e8 	andeq	r0, r0, r8, ror #1
     990:	000000f4 	strdeq	r0, [r0], -r4
     994:	20080003 	andcs	r0, r8, r3
     998:	0000f49f 	muleq	r0, pc, r4	; <UNPREDICTABLE>
     99c:	00012400 	andeq	r2, r1, r0, lsl #8
     9a0:	54000100 	strpl	r0, [r0], #-256	; 0xffffff00
	...
     9ac:	00000100 	andeq	r0, r0, r0, lsl #2
     9b0:	00000108 	andeq	r0, r0, r8, lsl #2
     9b4:	08530001 	ldmdaeq	r3, {r0}^
     9b8:	10000001 	andne	r0, r0, r1
     9bc:	01000001 	tsteq	r0, r1
     9c0:	01135000 	tsteq	r3, r0
     9c4:	01240000 			; <UNDEFINED> instruction: 0x01240000
     9c8:	00290000 	eoreq	r0, r9, r0
     9cc:	00740075 	rsbseq	r0, r4, r5, ror r0
     9d0:	231a3f25 	tstcs	sl, #37, 30	; 0x94
     9d4:	74007537 	strvc	r7, [r0], #-1335	; 0xfffffac9
     9d8:	1a3f2500 	bne	fc9de0 <__kernel_end+0xe63de0>
     9dc:	00753023 	rsbseq	r3, r5, r3, lsr #32
     9e0:	3f250074 	svccc	0x00250074
     9e4:	244b401a 	strbcs	r4, [fp], #-26	; 0xffffffe6
     9e8:	00090c22 	andeq	r0, r9, r2, lsr #24
     9ec:	282b8000 	stmdacs	fp!, {pc}
     9f0:	13160001 	tstne	r6, #1
     9f4:	0000009f 	muleq	r0, pc, r0	; <UNPREDICTABLE>
     9f8:	00000000 	andeq	r0, r0, r0
     9fc:	00002c00 	andeq	r2, r0, r0, lsl #24
     a00:	00003300 	andeq	r3, r0, r0, lsl #6
     a04:	53000100 	movwpl	r0, #256	; 0x100
	...
     a10:	00000050 	andeq	r0, r0, r0, asr r0
     a14:	0000005c 	andeq	r0, r0, ip, asr r0
     a18:	5c500001 	mrrcpl	0, 0, r0, r0, cr1	; <UNPREDICTABLE>
     a1c:	78000000 	stmdavc	r0, {}	; <UNPREDICTABLE>
     a20:	01000000 	mrseq	r0, (UNDEF: 0)
     a24:	00785400 	rsbseq	r5, r8, r0, lsl #8
     a28:	007c0000 	rsbseq	r0, ip, r0
     a2c:	00030000 	andeq	r0, r3, r0
     a30:	7c9f7f74 	ldcvc	15, cr7, [pc], {116}	; 0x74
     a34:	8c000000 	stchi	0, cr0, [r0], {-0}
     a38:	01000000 	mrseq	r0, (UNDEF: 0)
     a3c:	00005400 	andeq	r5, r0, r0, lsl #8
     a40:	00000000 	andeq	r0, r0, r0
     a44:	00500000 	subseq	r0, r0, r0
     a48:	00670000 	rsbeq	r0, r7, r0
     a4c:	00010000 	andeq	r0, r1, r0
     a50:	00006751 	andeq	r6, r0, r1, asr r7
     a54:	00007000 	andeq	r7, r0, r0
     a58:	55000100 	strpl	r0, [r0, #-256]	; 0xffffff00
     a5c:	00000070 	andeq	r0, r0, r0, ror r0
     a60:	0000009c 	muleq	r0, ip, r0
     a64:	01f30004 	mvnseq	r0, r4
     a68:	00009f51 	andeq	r9, r0, r1, asr pc
     a6c:	00000000 	andeq	r0, r0, r0
     a70:	00680000 	rsbeq	r0, r8, r0
     a74:	00840000 	addeq	r0, r4, r0
     a78:	00020000 	andeq	r0, r2, r0
     a7c:	00009f30 	andeq	r9, r0, r0, lsr pc
     a80:	00000000 	andeq	r0, r0, r0
     a84:	009c0000 	addseq	r0, ip, r0
     a88:	00a80000 	adceq	r0, r8, r0
     a8c:	00010000 	andeq	r0, r1, r0
     a90:	0000a850 	andeq	sl, r0, r0, asr r8
     a94:	0000b000 	andeq	fp, r0, r0
     a98:	70000300 	andvc	r0, r0, r0, lsl #6
     a9c:	00b09f01 	adcseq	r9, r0, r1, lsl #30
     aa0:	00b40000 	adcseq	r0, r4, r0
     aa4:	00010000 	andeq	r0, r1, r0
     aa8:	0000b450 	andeq	fp, r0, r0, asr r4
     aac:	0000c000 	andeq	ip, r0, r0
     ab0:	70000300 	andvc	r0, r0, r0, lsl #6
     ab4:	00009f01 	andeq	r9, r0, r1, lsl #30
     ab8:	00000000 	andeq	r0, r0, r0
     abc:	009c0000 	addseq	r0, ip, r0
     ac0:	00b40000 	adcseq	r0, r4, r0
     ac4:	00010000 	andeq	r0, r1, r0
     ac8:	0000b451 	andeq	fp, r0, r1, asr r4
     acc:	0000c000 	andeq	ip, r0, r0
     ad0:	51000100 	mrspl	r0, (UNDEF: 16)
	...
     adc:	0000009c 	muleq	r0, ip, r0
     ae0:	000000ac 	andeq	r0, r0, ip, lsr #1
     ae4:	ac520001 	mrrcge	0, 0, r0, r2, cr1
     ae8:	b0000000 	andlt	r0, r0, r0
     aec:	0c000000 	stceq	0, cr0, [r0], {-0}
     af0:	20007000 	andcs	r7, r0, r0
     af4:	225201f3 	subscs	r0, r2, #-1073741764	; 0xc000003c
     af8:	225001f3 	subscs	r0, r0, #-1073741764	; 0xc000003c
     afc:	0000b09f 	muleq	r0, pc, r0	; <UNPREDICTABLE>
     b00:	0000b400 	andeq	fp, r0, r0, lsl #8
     b04:	f3000b00 	vqrdmulh.s<illegal width 8>	d0, d0, d0
     b08:	01f35001 	mvnseq	r5, r1
     b0c:	00702252 	rsbseq	r2, r0, r2, asr r2
     b10:	00b49f1c 	adcseq	r9, r4, ip, lsl pc
     b14:	00c00000 	sbceq	r0, r0, r0
     b18:	000c0000 	andeq	r0, ip, r0
     b1c:	f3200070 	vqadd.u32	q0, q0, q8
     b20:	f3225201 	vhsub.u32	d5, d2, d1
     b24:	9f225001 	svcls	0x00225001
	...
     b30:	000000c0 	andeq	r0, r0, r0, asr #1
     b34:	000000cc 	andeq	r0, r0, ip, asr #1
     b38:	cc510001 	mrrcgt	0, 0, r0, r1, cr1
     b3c:	dc000000 	stcle	0, cr0, [r0], {-0}
     b40:	04000000 	streq	r0, [r0], #-0
     b44:	5101f300 	mrspl	pc, SP_irq	; <UNPREDICTABLE>
     b48:	0000009f 	muleq	r0, pc, r0	; <UNPREDICTABLE>
     b4c:	00000000 	andeq	r0, r0, r0
     b50:	0000c000 	andeq	ip, r0, r0
     b54:	0000c800 	andeq	ip, r0, r0, lsl #16
     b58:	52000100 	andpl	r0, r0, #0, 2
     b5c:	000000c8 	andeq	r0, r0, r8, asr #1
     b60:	000000dc 	ldrdeq	r0, [r0], -ip
     b64:	01f30004 	mvnseq	r0, r4
     b68:	00009f52 	andeq	r9, r0, r2, asr pc
     b6c:	00000000 	andeq	r0, r0, r0
     b70:	00c40000 	sbceq	r0, r4, r0
     b74:	00d00000 	sbcseq	r0, r0, r0
     b78:	00010000 	andeq	r0, r1, r0
     b7c:	00000053 	andeq	r0, r0, r3, asr r0
     b80:	00000000 	andeq	r0, r0, r0
     b84:	00025c00 	andeq	r5, r2, r0, lsl #24
     b88:	0002d400 	andeq	sp, r2, r0, lsl #8
     b8c:	55000100 	strpl	r0, [r0, #-256]	; 0xffffff00
	...
     b98:	000000cc 	andeq	r0, r0, ip, asr #1
     b9c:	000000d0 	ldrdeq	r0, [r0], -r0	; <UNPREDICTABLE>
     ba0:	d0500001 	subsle	r0, r0, r1
     ba4:	ec000000 	stc	0, cr0, [r0], {-0}
     ba8:	01000000 	mrseq	r0, (UNDEF: 0)
     bac:	00005400 	andeq	r5, r0, r0, lsl #8
     bb0:	00000000 	andeq	r0, r0, r0
     bb4:	017c0000 	cmneq	ip, r0
     bb8:	01800000 	orreq	r0, r0, r0
     bbc:	00060000 	andeq	r0, r6, r0
     bc0:	51049350 	tstpl	r4, r0, asr r3
     bc4:	01800493 			; <UNDEFINED> instruction: 0x01800493
     bc8:	01880000 	orreq	r0, r8, r0
     bcc:	00060000 	andeq	r0, r6, r0
     bd0:	00f503f3 	ldrshteq	r0, [r5], #51	; 0x33
     bd4:	00009f25 	andeq	r9, r0, r5, lsr #30
	...
     be0:	001c0000 	andseq	r0, ip, r0
     be4:	00020000 	andeq	r0, r2, r0
     be8:	001c9f30 	andseq	r9, ip, r0, lsr pc
     bec:	00270000 	eoreq	r0, r7, r0
     bf0:	00010000 	andeq	r0, r1, r0
     bf4:	00003050 	andeq	r3, r0, r0, asr r0
     bf8:	00003400 	andeq	r3, r0, r0, lsl #8
     bfc:	50000100 	andpl	r0, r0, r0, lsl #2
	...
     c0c:	00000010 	andeq	r0, r0, r0, lsl r0
     c10:	10500001 	subsne	r0, r0, r1
     c14:	17000000 	strne	r0, [r0, -r0]
     c18:	01000000 	mrseq	r0, (UNDEF: 0)
     c1c:	00175100 	andseq	r5, r7, r0, lsl #2
     c20:	00240000 	eoreq	r0, r4, r0
     c24:	00040000 	andeq	r0, r4, r0
     c28:	9f5001f3 	svcls	0x005001f3
	...
     c38:	0000000c 	andeq	r0, r0, ip
     c3c:	0c510001 	mrrceq	0, 0, r0, r1, cr1
     c40:	24000000 	strcs	r0, [r0], #-0
     c44:	01000000 	mrseq	r0, (UNDEF: 0)
     c48:	00005400 	andeq	r5, r0, r0, lsl #8
     c4c:	00000000 	andeq	r0, r0, r0
     c50:	00240000 	eoreq	r0, r4, r0
     c54:	004c0000 	subeq	r0, ip, r0
     c58:	00010000 	andeq	r0, r1, r0
     c5c:	00004c50 	andeq	r4, r0, r0, asr ip
     c60:	00005c00 	andeq	r5, r0, r0, lsl #24
     c64:	54000100 	strpl	r0, [r0], #-256	; 0xffffff00
     c68:	0000005c 	andeq	r0, r0, ip, asr r0
     c6c:	00000153 	andeq	r0, r0, r3, asr r1
     c70:	53510001 	cmppl	r1, #1
     c74:	60000001 	andvs	r0, r0, r1
     c78:	0b000001 	bleq	c84 <SCTLR_ENABLE_BRANCH_PREDICTION+0x484>
     c7c:	5001f300 	andpl	pc, r1, r0, lsl #6
     c80:	f31a371f 	vaba.u16	d3, d10, d15
     c84:	9f225001 	svcls	0x00225001
     c88:	00000160 	andeq	r0, r0, r0, ror #2
     c8c:	000001a3 	andeq	r0, r0, r3, lsr #3
     c90:	a3510001 	cmpge	r1, #1
     c94:	b4000001 	strlt	r0, [r0], #-1
     c98:	0b000001 	bleq	ca4 <SCTLR_ENABLE_BRANCH_PREDICTION+0x4a4>
     c9c:	5001f300 	andpl	pc, r1, r0, lsl #6
     ca0:	f31a371f 	vaba.u16	d3, d10, d15
     ca4:	9f225001 	svcls	0x00225001
     ca8:	000001b4 			; <UNDEFINED> instruction: 0x000001b4
     cac:	000001fb 	strdeq	r0, [r0], -fp
     cb0:	fb510001 	blx	1440cbe <__kernel_end+0x12dacbe>
     cb4:	08000001 	stmdaeq	r0, {r0}
     cb8:	0b000002 	bleq	cc8 <SCTLR_ENABLE_BRANCH_PREDICTION+0x4c8>
     cbc:	5001f300 	andpl	pc, r1, r0, lsl #6
     cc0:	f31a371f 	vaba.u16	d3, d10, d15
     cc4:	9f225001 	svcls	0x00225001
     cc8:	00000208 	andeq	r0, r0, r8, lsl #4
     ccc:	0000020c 	andeq	r0, r0, ip, lsl #4
     cd0:	0c500001 	mrrceq	0, 0, r0, r0, cr1	; <UNPREDICTABLE>
     cd4:	40000002 	andmi	r0, r0, r2
     cd8:	01000002 	tsteq	r0, r2
     cdc:	02405400 	subeq	r5, r0, #0, 8
     ce0:	02b30000 	adcseq	r0, r3, #0
     ce4:	00010000 	andeq	r0, r1, r0
     ce8:	0002b351 	andeq	fp, r2, r1, asr r3
     cec:	0002bc00 	andeq	fp, r2, r0, lsl #24
     cf0:	74000900 	strvc	r0, [r0], #-2304	; 0xfffff700
     cf4:	1a371f00 	bne	dc88fc <__kernel_end+0xc628fc>
     cf8:	9f220074 	svcls	0x00220074
     cfc:	000002bc 			; <UNDEFINED> instruction: 0x000002bc
     d00:	000002d3 	ldrdeq	r0, [r0], -r3
     d04:	d3510001 	cmple	r1, #1
     d08:	f8000002 			; <UNDEFINED> instruction: 0xf8000002
     d0c:	02000002 	andeq	r0, r0, #2
     d10:	f8549100 			; <UNDEFINED> instruction: 0xf8549100
     d14:	03000002 	movweq	r0, #2
     d18:	01000003 	tsteq	r0, r3
     d1c:	03035100 	movweq	r5, #12544	; 0x3100
     d20:	03440000 	movteq	r0, #16384	; 0x4000
     d24:	000b0000 	andeq	r0, fp, r0
     d28:	1f5001f3 	svcne	0x005001f3
     d2c:	01f31a37 	mvnseq	r1, r7, lsr sl
     d30:	009f2250 	addseq	r2, pc, r0, asr r2	; <UNPREDICTABLE>
     d34:	00000000 	andeq	r0, r0, r0
     d38:	88000000 	stmdahi	r0, {}	; <UNPREDICTABLE>
     d3c:	bc000000 	stclt	0, cr0, [r0], {-0}
     d40:	01000000 	mrseq	r0, (UNDEF: 0)
     d44:	00bc5900 	adcseq	r5, ip, r0, lsl #18
     d48:	01530000 	cmpeq	r3, r0
     d4c:	00010000 	andeq	r0, r1, r0
     d50:	0001605c 	andeq	r6, r1, ip, asr r0
     d54:	0001bc00 	andeq	fp, r1, r0, lsl #24
     d58:	59000100 	stmdbpl	r0, {r8}
     d5c:	000001bc 			; <UNDEFINED> instruction: 0x000001bc
     d60:	000001fb 	strdeq	r0, [r0], -fp
     d64:	405c0001 	subsmi	r0, ip, r1
     d68:	60000002 	andvs	r0, r0, r2
     d6c:	01000002 	tsteq	r0, r2
     d70:	02605900 	rsbeq	r5, r0, #0, 18
     d74:	02a80000 	adceq	r0, r8, #0
     d78:	00010000 	andeq	r0, r1, r0
     d7c:	0002bc5c 	andeq	fp, r2, ip, asr ip
     d80:	0002c400 	andeq	ip, r2, r0, lsl #8
     d84:	59000100 	stmdbpl	r0, {r8}
     d88:	000002c4 	andeq	r0, r0, r4, asr #5
     d8c:	000002d3 	ldrdeq	r0, [r0], -r3
     d90:	005c0001 	subseq	r0, ip, r1
     d94:	00000000 	andeq	r0, r0, r0
     d98:	1c000000 	stcne	0, cr0, [r0], {-0}
     d9c:	58000001 	stmdapl	r0, {r0}
     da0:	01000001 	tsteq	r0, r1
     da4:	01645400 	cmneq	r4, r0, lsl #8
     da8:	018c0000 	orreq	r0, ip, r0
     dac:	00010000 	andeq	r0, r1, r0
     db0:	0001c850 	andeq	ip, r1, r0, asr r8
     db4:	00020800 	andeq	r0, r2, r0, lsl #16
     db8:	54000100 	strpl	r0, [r0], #-256	; 0xffffff00
     dbc:	00000240 	andeq	r0, r0, r0, asr #4
     dc0:	00000260 	andeq	r0, r0, r0, ror #4
     dc4:	60500001 	subsvs	r0, r0, r1
     dc8:	a8000002 	stmdage	r0, {r1}
     dcc:	01000002 	tsteq	r0, r2
     dd0:	00005400 	andeq	r5, r0, r0, lsl #8
     dd4:	00000000 	andeq	r0, r0, r0
     dd8:	03440000 	movteq	r0, #16384	; 0x4000
     ddc:	03a40000 			; <UNDEFINED> instruction: 0x03a40000
     de0:	00010000 	andeq	r0, r1, r0
     de4:	0003a450 	andeq	sl, r3, r0, asr r4
     de8:	0003b700 	andeq	fp, r3, r0, lsl #14
     dec:	51000100 	mrspl	r0, (UNDEF: 16)
     df0:	000003b7 			; <UNDEFINED> instruction: 0x000003b7
     df4:	000003c8 	andeq	r0, r0, r8, asr #7
     df8:	01f30004 	mvnseq	r0, r4
     dfc:	03c89f50 	biceq	r9, r8, #80, 30	; 0x140
     e00:	03e00000 	mvneq	r0, #0
     e04:	00010000 	andeq	r0, r1, r0
     e08:	0003e050 	andeq	lr, r3, r0, asr r0
     e0c:	00041300 	andeq	r1, r4, r0, lsl #6
     e10:	51000100 	mrspl	r0, (UNDEF: 16)
     e14:	00000413 	andeq	r0, r0, r3, lsl r4
     e18:	00000430 	andeq	r0, r0, r0, lsr r4
     e1c:	01f30004 	mvnseq	r0, r4
     e20:	00009f50 	andeq	r9, r0, r0, asr pc
     e24:	00000000 	andeq	r0, r0, r0
     e28:	035c0000 	cmpeq	ip, #0
     e2c:	03b70000 			; <UNDEFINED> instruction: 0x03b70000
     e30:	00010000 	andeq	r0, r1, r0
     e34:	0003c85c 	andeq	ip, r3, ip, asr r8
     e38:	00041300 	andeq	r1, r4, r0, lsl #6
     e3c:	5c000100 	stfpls	f0, [r0], {-0}
	...
     e48:	00000344 	andeq	r0, r0, r4, asr #6
     e4c:	00000378 	andeq	r0, r0, r8, ror r3
     e50:	08030006 	stmdaeq	r3, {r1, r2}
     e54:	9f0000c0 	svcls	0x000000c0
     e58:	00000378 	andeq	r0, r0, r8, ror r3
     e5c:	00000388 	andeq	r0, r0, r8, lsl #7
     e60:	905e0001 	subsls	r0, lr, r1
     e64:	98000003 	stmdals	r0, {r0, r1}
     e68:	01000003 	tsteq	r0, r3
     e6c:	00005e00 	andeq	r5, r0, r0, lsl #28
     e70:	00000000 	andeq	r0, r0, r0
     e74:	04300000 	ldrteq	r0, [r0], #-0
     e78:	04440000 	strbeq	r0, [r4], #-0
     e7c:	00010000 	andeq	r0, r1, r0
     e80:	00044450 	andeq	r4, r4, r0, asr r4
     e84:	00044800 	andeq	r4, r4, r0, lsl #16
     e88:	70000300 	andvc	r0, r0, r0, lsl #6
     e8c:	04489f01 	strbeq	r9, [r8], #-3841	; 0xfffff0ff
     e90:	045c0000 	ldrbeq	r0, [ip], #-0
     e94:	00040000 	andeq	r0, r4, r0
     e98:	9f5001f3 	svcls	0x005001f3
     e9c:	0000045c 	andeq	r0, r0, ip, asr r4
     ea0:	00000464 	andeq	r0, r0, r4, ror #8
     ea4:	64500001 	ldrbvs	r0, [r0], #-1
     ea8:	7c000004 	stcvc	0, cr0, [r0], {4}
     eac:	04000004 	streq	r0, [r0], #-4
     eb0:	5001f300 	andpl	pc, r1, r0, lsl #6
     eb4:	0000009f 	muleq	r0, pc, r0	; <UNPREDICTABLE>
     eb8:	00000000 	andeq	r0, r0, r0
     ebc:	00043000 	andeq	r3, r4, r0
     ec0:	00044800 	andeq	r4, r4, r0, lsl #16
     ec4:	51000100 	mrspl	r0, (UNDEF: 16)
     ec8:	00000448 	andeq	r0, r0, r8, asr #8
     ecc:	0000045c 	andeq	r0, r0, ip, asr r4
     ed0:	01f30004 	mvnseq	r0, r4
     ed4:	045c9f51 	ldrbeq	r9, [ip], #-3921	; 0xfffff0af
     ed8:	04600000 	strbteq	r0, [r0], #-0
     edc:	00010000 	andeq	r0, r1, r0
     ee0:	00046051 	andeq	r6, r4, r1, asr r0
     ee4:	00047c00 	andeq	r7, r4, r0, lsl #24
     ee8:	f3000400 	vshl.u8	d0, d0, d0
     eec:	009f5101 	addseq	r5, pc, r1, lsl #2
     ef0:	00000000 	andeq	r0, r0, r0
     ef4:	30000000 	andcc	r0, r0, r0
     ef8:	40000004 	andmi	r0, r0, r4
     efc:	01000004 	tsteq	r0, r4
     f00:	04405200 	strbeq	r5, [r0], #-512	; 0xfffffe00
     f04:	04480000 	strbeq	r0, [r8], #-0
     f08:	00030000 	andeq	r0, r3, r0
     f0c:	489f7f72 	ldmmi	pc, {r1, r4, r5, r6, r8, r9, sl, fp, ip, sp, lr}	; <UNPREDICTABLE>
     f10:	4c000004 	stcmi	0, cr0, [r0], {4}
     f14:	0b000004 	bleq	f2c <SCTLR_ENABLE_BRANCH_PREDICTION+0x72c>
     f18:	20007100 	andcs	r7, r0, r0, lsl #2
     f1c:	225201f3 	subscs	r0, r2, #-1073741764	; 0xc000003c
     f20:	9f220071 	svcls	0x00220071
     f24:	0000044c 	andeq	r0, r0, ip, asr #8
     f28:	0000045c 	andeq	r0, r0, ip, asr r4
     f2c:	0071000b 	rsbseq	r0, r1, fp
     f30:	22007120 	andcs	r7, r0, #32, 2
     f34:	225201f3 	subscs	r0, r2, #-1073741764	; 0xc000003c
     f38:	00045c9f 	muleq	r4, pc, ip	; <UNPREDICTABLE>
     f3c:	00046000 	andeq	r6, r4, r0
     f40:	52000100 	andpl	r0, r0, #0, 2
     f44:	00000460 	andeq	r0, r0, r0, ror #8
     f48:	00000468 	andeq	r0, r0, r8, ror #8
     f4c:	7f720003 	svcvc	0x00720003
     f50:	0004689f 	muleq	r4, pc, r8	; <UNPREDICTABLE>
     f54:	00047c00 	andeq	r7, r4, r0, lsl #24
     f58:	71000b00 	tstvc	r0, r0, lsl #22
     f5c:	00712000 	rsbseq	r2, r1, r0
     f60:	5201f322 	andpl	pc, r1, #-2013265920	; 0x88000000
     f64:	00009f22 	andeq	r9, r0, r2, lsr #30
     f68:	00000000 	andeq	r0, r0, r0
     f6c:	04380000 	ldrteq	r0, [r8], #-0
     f70:	04440000 	strbeq	r0, [r4], #-0
     f74:	00010000 	andeq	r0, r1, r0
     f78:	00044450 	andeq	r4, r4, r0, asr r4
     f7c:	00044800 	andeq	r4, r4, r0, lsl #16
     f80:	70000300 	andvc	r0, r0, r0, lsl #6
     f84:	04489f01 	strbeq	r9, [r8], #-3841	; 0xfffff0ff
     f88:	045c0000 	ldrbeq	r0, [ip], #-0
     f8c:	00060000 	andeq	r0, r6, r0
     f90:	235001f3 	cmpcs	r0, #-1073741764	; 0xc000003c
     f94:	045c9f01 	ldrbeq	r9, [ip], #-3841	; 0xfffff0ff
     f98:	04640000 	strbteq	r0, [r4], #-0
     f9c:	00060000 	andeq	r0, r6, r0
     fa0:	00720070 	rsbseq	r0, r2, r0, ror r0
     fa4:	04649f22 	strbteq	r9, [r4], #-3874	; 0xfffff0de
     fa8:	04680000 	strbteq	r0, [r8], #-0
     fac:	00070000 	andeq	r0, r7, r0
     fb0:	725001f3 	subsvc	r0, r0, #-1073741764	; 0xc000003c
     fb4:	689f2200 	ldmvs	pc, {r9, sp}	; <UNPREDICTABLE>
     fb8:	7c000004 	stcvc	0, cr0, [r0], {4}
     fbc:	0a000004 	beq	fd4 <SCTLR_ENABLE_BRANCH_PREDICTION+0x7d4>
     fc0:	5001f300 	andpl	pc, r1, r0, lsl #6
     fc4:	225201f3 	subscs	r0, r2, #-1073741764	; 0xc000003c
     fc8:	009f1c31 	addseq	r1, pc, r1, lsr ip	; <UNPREDICTABLE>
     fcc:	00000000 	andeq	r0, r0, r0
     fd0:	38000000 	stmdacc	r0, {}	; <UNPREDICTABLE>
     fd4:	4c000004 	stcmi	0, cr0, [r0], {4}
     fd8:	01000004 	tsteq	r0, r4
     fdc:	044c5100 	strbeq	r5, [ip], #-256	; 0xffffff00
     fe0:	04500000 	ldrbeq	r0, [r0], #-0
     fe4:	00030000 	andeq	r0, r3, r0
     fe8:	509f7f71 	addspl	r7, pc, r1, ror pc	; <UNPREDICTABLE>
     fec:	6c000004 	stcvs	0, cr0, [r0], {4}
     ff0:	01000004 	tsteq	r0, r4
     ff4:	046c5100 	strbteq	r5, [ip], #-256	; 0xffffff00
     ff8:	04700000 	ldrbteq	r0, [r0], #-0
     ffc:	00030000 	andeq	r0, r3, r0
    1000:	709f0171 	addsvc	r0, pc, r1, ror r1	; <UNPREDICTABLE>
    1004:	7c000004 	stcvc	0, cr0, [r0], {4}
    1008:	01000004 	tsteq	r0, r4
    100c:	00005100 	andeq	r5, r0, r0, lsl #2
	...
    1018:	00040000 	andeq	r0, r4, r0
    101c:	00010000 	andeq	r0, r1, r0
    1020:	00000450 	andeq	r0, r0, r0, asr r4
    1024:	00004c00 	andeq	r4, r0, r0, lsl #24
    1028:	f3000400 	vshl.u8	d0, d0, d0
    102c:	009f5001 	addseq	r5, pc, r1
	...
    1038:	13000000 	movwne	r0, #0
    103c:	01000000 	mrseq	r0, (UNDEF: 0)
    1040:	00135100 	andseq	r5, r3, r0, lsl #2
    1044:	004c0000 	subeq	r0, ip, r0
    1048:	00040000 	andeq	r0, r4, r0
    104c:	9f5101f3 	svcls	0x005101f3
	...
    105c:	00000013 	andeq	r0, r0, r3, lsl r0
    1060:	13520001 	cmpne	r2, #1
    1064:	4c000000 	stcmi	0, cr0, [r0], {-0}
    1068:	04000000 	streq	r0, [r0], #-0
    106c:	5201f300 	andpl	pc, r1, #0, 6
    1070:	0000009f 	muleq	r0, pc, r0	; <UNPREDICTABLE>
	...
    107c:	00001000 	andeq	r1, r0, r0
    1080:	51000100 	mrspl	r0, (UNDEF: 16)
    1084:	00000010 	andeq	r0, r0, r0, lsl r0
    1088:	00000024 	andeq	r0, r0, r4, lsr #32
    108c:	01f30004 	mvnseq	r0, r4
    1090:	00009f51 	andeq	r9, r0, r1, asr pc
	...
    109c:	00100000 	andseq	r0, r0, r0
    10a0:	00010000 	andeq	r0, r1, r0
    10a4:	00001052 	andeq	r1, r0, r2, asr r0
    10a8:	00002400 	andeq	r2, r0, r0, lsl #8
    10ac:	f3000400 	vshl.u8	d0, d0, d0
    10b0:	009f5201 	addseq	r5, pc, r1, lsl #4
    10b4:	00000000 	andeq	r0, r0, r0
    10b8:	04000000 	streq	r0, [r0], #-0
    10bc:	10000000 	andne	r0, r0, r0
    10c0:	01000000 	mrseq	r0, (UNDEF: 0)
    10c4:	00105100 	andseq	r5, r0, r0, lsl #2
    10c8:	00240000 	eoreq	r0, r4, r0
    10cc:	00040000 	andeq	r0, r4, r0
    10d0:	9f5101f3 	svcls	0x005101f3
	...
    10dc:	00000004 	andeq	r0, r0, r4
    10e0:	00000010 	andeq	r0, r0, r0, lsl r0
    10e4:	9f300002 	svcls	0x00300002
    10e8:	00000010 	andeq	r0, r0, r0, lsl r0
    10ec:	00000014 	andeq	r0, r0, r4, lsl r0
    10f0:	00710007 	rsbseq	r0, r1, r7
    10f4:	1c5101f3 	ldfnee	f0, [r1], {243}	; 0xf3
    10f8:	0000149f 	muleq	r0, pc, r4	; <UNPREDICTABLE>
    10fc:	00001c00 	andeq	r1, r0, r0, lsl #24
    1100:	f3000800 	vsub.i8	d0, d0, d0
    1104:	71205101 			; <UNDEFINED> instruction: 0x71205101
    1108:	1c9f2200 	lfmne	f2, 4, [pc], {0}
    110c:	24000000 	strcs	r0, [r0], #-0
    1110:	07000000 	streq	r0, [r0, -r0]
    1114:	f3007100 	vrhadd.u8	d7, d0, d0
    1118:	9f1c5101 	svcls	0x001c5101
	...
    1128:	00000008 	andeq	r0, r0, r8
    112c:	08500001 	ldmdaeq	r0, {r0}^
    1130:	18000000 	stmdane	r0, {}	; <UNPREDICTABLE>
    1134:	04000000 	streq	r0, [r0], #-0
    1138:	5001f300 	andpl	pc, r1, r0, lsl #6
    113c:	0000009f 	muleq	r0, pc, r0	; <UNPREDICTABLE>
	...
    1148:	00000b00 	andeq	r0, r0, r0, lsl #22
    114c:	51000100 	mrspl	r0, (UNDEF: 16)
    1150:	0000000b 	andeq	r0, r0, fp
    1154:	00000018 	andeq	r0, r0, r8, lsl r0
    1158:	01f30004 	mvnseq	r0, r4
    115c:	00009f51 	andeq	r9, r0, r1, asr pc
	...
    1168:	001c0000 	andseq	r0, ip, r0
    116c:	00010000 	andeq	r0, r1, r0
    1170:	00001c50 	andeq	r1, r0, r0, asr ip
    1174:	00004400 	andeq	r4, r0, r0, lsl #8
    1178:	91000300 	mrsls	r0, LR_irq
    117c:	00447ee4 	subeq	r7, r4, r4, ror #29
    1180:	00880000 	addeq	r0, r8, r0
    1184:	00010000 	andeq	r0, r1, r0
    1188:	00008853 	andeq	r8, r0, r3, asr r8
    118c:	0000ac00 	andeq	sl, r0, r0, lsl #24
    1190:	91000300 	mrsls	r0, LR_irq
    1194:	00ac7ee4 	adceq	r7, ip, r4, ror #29
    1198:	00d00000 	sbcseq	r0, r0, r0
    119c:	00010000 	andeq	r0, r1, r0
    11a0:	0000d053 	andeq	sp, r0, r3, asr r0
    11a4:	0000d800 	andeq	sp, r0, r0, lsl #16
    11a8:	73000300 	movwvc	r0, #768	; 0x300
    11ac:	00e89f7f 	rsceq	r9, r8, pc, ror pc
    11b0:	01d40000 	bicseq	r0, r4, r0
    11b4:	00010000 	andeq	r0, r1, r0
    11b8:	0001d453 	andeq	sp, r1, r3, asr r4
    11bc:	0001e000 	andeq	lr, r1, r0
    11c0:	73000300 	movwvc	r0, #768	; 0x300
    11c4:	01e09f7f 	mvneq	r9, pc, ror pc
    11c8:	01e40000 	mvneq	r0, r0
    11cc:	00010000 	andeq	r0, r1, r0
    11d0:	0001e453 	andeq	lr, r1, r3, asr r4
    11d4:	0002f400 	andeq	pc, r2, r0, lsl #8
    11d8:	91000300 	mrsls	r0, LR_irq
    11dc:	02f47ee4 	rscseq	r7, r4, #228, 28	; 0xe40
    11e0:	031c0000 	tsteq	ip, #0
    11e4:	00010000 	andeq	r0, r1, r0
    11e8:	00031c53 	andeq	r1, r3, r3, asr ip
    11ec:	00032400 	andeq	r2, r3, r0, lsl #8
    11f0:	73000300 	movwvc	r0, #768	; 0x300
    11f4:	03249f01 			; <UNDEFINED> instruction: 0x03249f01
    11f8:	03280000 			; <UNDEFINED> instruction: 0x03280000
    11fc:	00010000 	andeq	r0, r1, r0
    1200:	00032853 	andeq	r2, r3, r3, asr r8
    1204:	00033000 	andeq	r3, r3, r0
    1208:	73000300 	movwvc	r0, #768	; 0x300
    120c:	03309f01 	teqeq	r0, #1, 30
    1210:	03340000 	teqeq	r4, #0
    1214:	00010000 	andeq	r0, r1, r0
    1218:	00033453 	andeq	r3, r3, r3, asr r4
    121c:	00035400 	andeq	r5, r3, r0, lsl #8
    1220:	73000300 	movwvc	r0, #768	; 0x300
    1224:	03549f01 	cmpeq	r4, #1, 30
    1228:	035c0000 	cmpeq	ip, #0
    122c:	00010000 	andeq	r0, r1, r0
    1230:	00035c53 	andeq	r5, r3, r3, asr ip
    1234:	00036400 	andeq	r6, r3, r0, lsl #8
    1238:	73000300 	movwvc	r0, #768	; 0x300
    123c:	03789f7f 	cmneq	r8, #508	; 0x1fc
    1240:	03880000 	orreq	r0, r8, #0
    1244:	00030000 	andeq	r0, r3, r0
    1248:	889f0173 	ldmhi	pc, {r0, r1, r4, r5, r6, r8}	; <UNPREDICTABLE>
    124c:	8c000003 	stchi	0, cr0, [r0], {3}
    1250:	03000003 	movweq	r0, #3
    1254:	9f027300 	svcls	0x00027300
    1258:	00000390 	muleq	r0, r0, r3
    125c:	000003ac 	andeq	r0, r0, ip, lsr #7
    1260:	ac530001 	mrrcge	0, 0, r0, r3, cr1
    1264:	b4000003 	strlt	r0, [r0], #-3
    1268:	03000003 	movweq	r0, #3
    126c:	9f7f7300 	svcls	0x007f7300
    1270:	000003b4 			; <UNDEFINED> instruction: 0x000003b4
    1274:	000003b7 			; <UNDEFINED> instruction: 0x000003b7
    1278:	b7530001 	ldrblt	r0, [r3, -r1]
    127c:	80000003 	andhi	r0, r0, r3
    1280:	03000004 	movweq	r0, #4
    1284:	7ee49100 	urdvcs	f1, f0
    1288:	00000480 	andeq	r0, r0, r0, lsl #9
    128c:	0000051c 	andeq	r0, r0, ip, lsl r5
    1290:	1c530001 	mrrcne	0, 0, r0, r3, cr1
    1294:	20000005 	andcs	r0, r0, r5
    1298:	03000005 	movweq	r0, #5
    129c:	9f7f7300 	svcls	0x007f7300
    12a0:	00000520 	andeq	r0, r0, r0, lsr #10
    12a4:	00000524 	andeq	r0, r0, r4, lsr #10
    12a8:	24530001 	ldrbcs	r0, [r3], #-1
    12ac:	a4000005 	strge	r0, [r0], #-5
    12b0:	03000006 	movweq	r0, #6
    12b4:	7ee49100 	urdvcs	f1, f0
    12b8:	000006a4 	andeq	r0, r0, r4, lsr #13
    12bc:	000006ac 	andeq	r0, r0, ip, lsr #13
    12c0:	01730003 	cmneq	r3, r3
    12c4:	0006ac9f 	muleq	r6, pc, ip	; <UNPREDICTABLE>
    12c8:	0006bc00 	andeq	fp, r6, r0, lsl #24
    12cc:	73000300 	movwvc	r0, #768	; 0x300
    12d0:	06bc9f02 	ldrteq	r9, [ip], r2, lsl #30
    12d4:	06c00000 	strbeq	r0, [r0], r0
    12d8:	00010000 	andeq	r0, r1, r0
    12dc:	0006c053 	andeq	ip, r6, r3, asr r0
    12e0:	0006e000 	andeq	lr, r6, r0
    12e4:	91000300 	mrsls	r0, LR_irq
    12e8:	06e07ee4 	strbteq	r7, [r0], r4, ror #29
    12ec:	06e80000 	strbteq	r0, [r8], r0
    12f0:	00010000 	andeq	r0, r1, r0
    12f4:	0006e853 	andeq	lr, r6, r3, asr r8
    12f8:	00070000 	andeq	r0, r7, r0
    12fc:	91000300 	mrsls	r0, LR_irq
    1300:	07007ee4 	streq	r7, [r0, -r4, ror #29]
    1304:	07180000 	ldreq	r0, [r8, -r0]
    1308:	00010000 	andeq	r0, r1, r0
    130c:	00071853 	andeq	r1, r7, r3, asr r8
    1310:	00072800 	andeq	r2, r7, r0, lsl #16
    1314:	91000300 	mrsls	r0, LR_irq
    1318:	07287ee4 	streq	r7, [r8, -r4, ror #29]!
    131c:	07300000 	ldreq	r0, [r0, -r0]!
    1320:	00010000 	andeq	r0, r1, r0
    1324:	00073053 	andeq	r3, r7, r3, asr r0
    1328:	00074c00 	andeq	r4, r7, r0, lsl #24
    132c:	91000300 	mrsls	r0, LR_irq
    1330:	00007ee4 	andeq	r7, r0, r4, ror #29
	...
    133c:	00840000 	addeq	r0, r4, r0
    1340:	00010000 	andeq	r0, r1, r0
    1344:	00008851 	andeq	r8, r0, r1, asr r8
    1348:	00008c00 	andeq	r8, r0, r0, lsl #24
    134c:	51000100 	mrspl	r0, (UNDEF: 16)
    1350:	000000b0 	strheq	r0, [r0], -r0	; <UNPREDICTABLE>
    1354:	000000c0 	andeq	r0, r0, r0, asr #1
    1358:	e8510001 	ldmda	r1, {r0}^
    135c:	0c000002 	stceq	0, cr0, [r0], {2}
    1360:	01000003 	tsteq	r0, r3
    1364:	06e05100 	strbteq	r5, [r0], r0, lsl #2
    1368:	06e80000 	strbteq	r0, [r8], r0
    136c:	00010000 	andeq	r0, r1, r0
    1370:	00000051 	andeq	r0, r0, r1, asr r0
	...
    137c:	00001c00 	andeq	r1, r0, r0, lsl #24
    1380:	52000100 	andpl	r0, r0, #0, 2
    1384:	0000001c 	andeq	r0, r0, ip, lsl r0
    1388:	0000074c 	andeq	r0, r0, ip, asr #14
    138c:	01f30004 	mvnseq	r0, r4
    1390:	00009f52 	andeq	r9, r0, r2, asr pc
	...
    139c:	001c0000 	andseq	r0, ip, r0
    13a0:	00010000 	andeq	r0, r1, r0
    13a4:	00001c53 	andeq	r1, r0, r3, asr ip
    13a8:	0002f000 	andeq	pc, r2, r0
    13ac:	5a000100 	bpl	17b4 <SCTLR_ENABLE_INSTRUCTION_CACHE+0x7b4>
    13b0:	000002f0 	strdeq	r0, [r0], -r0	; <UNPREDICTABLE>
    13b4:	000002f4 	strdeq	r0, [r0], -r4
    13b8:	01f30004 	mvnseq	r0, r4
    13bc:	02f49f53 	rscseq	r9, r4, #332	; 0x14c
    13c0:	074c0000 	strbeq	r0, [ip, -r0]
    13c4:	00010000 	andeq	r0, r1, r0
    13c8:	0000005a 	andeq	r0, r0, sl, asr r0
    13cc:	00000000 	andeq	r0, r0, r0
    13d0:	00001c00 	andeq	r1, r0, r0, lsl #24
    13d4:	00024000 	andeq	r4, r2, r0
    13d8:	5b000100 	blpl	17e0 <SCTLR_ENABLE_INSTRUCTION_CACHE+0x7e0>
    13dc:	000002a4 	andeq	r0, r0, r4, lsr #5
    13e0:	000002e4 	andeq	r0, r0, r4, ror #5
    13e4:	f45b0001 			; <UNDEFINED> instruction: 0xf45b0001
    13e8:	f4000002 	vst4.8	{d0-d3}, [r0], r2
    13ec:	01000003 	tsteq	r0, r3
    13f0:	042c5b00 	strteq	r5, [ip], #-2816	; 0xfffff500
    13f4:	04440000 	strbeq	r0, [r4], #-0
    13f8:	00010000 	andeq	r0, r1, r0
    13fc:	0004445b 	andeq	r4, r4, fp, asr r4
    1400:	00048000 	andeq	r8, r4, r0
    1404:	56000100 	strpl	r0, [r0], -r0, lsl #2
    1408:	00000480 	andeq	r0, r0, r0, lsl #9
    140c:	00000570 	andeq	r0, r0, r0, ror r5
    1410:	705b0001 	subsvc	r0, fp, r1
    1414:	c8000005 	stmdagt	r0, {r0, r2}
    1418:	03000005 	movweq	r0, #5
    141c:	7f809100 	svcvc	0x00809100
    1420:	000005c8 	andeq	r0, r0, r8, asr #11
    1424:	000005cc 	andeq	r0, r0, ip, asr #11
    1428:	cc5b0001 	mrrcgt	0, 0, r0, fp, cr1
    142c:	08000005 	stmdaeq	r0, {r0, r2}
    1430:	01000006 	tsteq	r0, r6
    1434:	06085800 	streq	r5, [r8], -r0, lsl #16
    1438:	06280000 	strteq	r0, [r8], -r0
    143c:	00010000 	andeq	r0, r1, r0
    1440:	0006485b 	andeq	r4, r6, fp, asr r8
    1444:	00065800 	andeq	r5, r6, r0, lsl #16
    1448:	58000100 	stmdapl	r0, {r8}
    144c:	00000658 	andeq	r0, r0, r8, asr r6
    1450:	00000694 	muleq	r0, r4, r6
    1454:	a45b0001 	ldrbge	r0, [fp], #-1
    1458:	e8000006 	stmda	r0, {r1, r2}
    145c:	01000006 	tsteq	r0, r6
    1460:	06e85b00 	strbteq	r5, [r8], r0, lsl #22
    1464:	06fc0000 	ldrbteq	r0, [ip], r0
    1468:	00010000 	andeq	r0, r1, r0
    146c:	0006fc56 	andeq	pc, r6, r6, asr ip	; <UNPREDICTABLE>
    1470:	00074c00 	andeq	r4, r7, r0, lsl #24
    1474:	5b000100 	blpl	187c <SCTLR_ENABLE_INSTRUCTION_CACHE+0x87c>
	...
    1480:	000002b0 			; <UNDEFINED> instruction: 0x000002b0
    1484:	000002e4 	andeq	r0, r0, r4, ror #5
    1488:	9f300002 	svcls	0x00300002
    148c:	0000042c 	andeq	r0, r0, ip, lsr #8
    1490:	00000480 	andeq	r0, r0, r0, lsl #9
    1494:	9f300002 	svcls	0x00300002
    1498:	000005c8 	andeq	r0, r0, r8, asr #11
    149c:	000005e0 	andeq	r0, r0, r0, ror #11
    14a0:	9f300002 	svcls	0x00300002
    14a4:	00000648 	andeq	r0, r0, r8, asr #12
    14a8:	0000064c 	andeq	r0, r0, ip, asr #12
    14ac:	9f300002 	svcls	0x00300002
    14b0:	00000658 	andeq	r0, r0, r8, asr r6
    14b4:	00000694 	muleq	r0, r4, r6
    14b8:	9f300002 	svcls	0x00300002
    14bc:	000006e8 	andeq	r0, r0, r8, ror #13
    14c0:	00000700 	andeq	r0, r0, r0, lsl #14
    14c4:	9f300002 	svcls	0x00300002
	...
    14d0:	00000084 	andeq	r0, r0, r4, lsl #1
    14d4:	00000088 	andeq	r0, r0, r8, lsl #1
    14d8:	88910004 	ldmhi	r1, {r2}
    14dc:	01189f7f 	tsteq	r8, pc, ror pc
    14e0:	02640000 	rsbeq	r0, r4, #0
    14e4:	00040000 	andeq	r0, r4, r0
    14e8:	9f7f8891 	svcls	0x007f8891
    14ec:	00000264 	andeq	r0, r0, r4, ror #4
    14f0:	00000267 	andeq	r0, r0, r7, ror #4
    14f4:	67500001 	ldrbvs	r0, [r0, -r1]
    14f8:	94000002 	strls	r0, [r0], #-2
    14fc:	04000002 	streq	r0, [r0], #-2
    1500:	7f889100 	svcvc	0x00889100
    1504:	0002949f 	muleq	r2, pc, r4	; <UNPREDICTABLE>
    1508:	0002a400 	andeq	sl, r2, r0, lsl #8
    150c:	59000100 	stmdbpl	r0, {r8}
    1510:	00000390 	muleq	r0, r0, r3
    1514:	000003a0 	andeq	r0, r0, r0, lsr #7
    1518:	88910004 	ldmhi	r1, {r2}
    151c:	04809f7f 	streq	r9, [r0], #3967	; 0xf7f
    1520:	04f00000 	ldrbteq	r0, [r0], #0
    1524:	00040000 	andeq	r0, r4, r0
    1528:	9f7f8891 	svcls	0x007f8891
    152c:	000004f0 	strdeq	r0, [r0], -r0	; <UNPREDICTABLE>
    1530:	000004f4 	strdeq	r0, [r0], -r4
    1534:	f4590001 			; <UNDEFINED> instruction: 0xf4590001
    1538:	c8000004 	stmdagt	r0, {r2}
    153c:	04000005 	streq	r0, [r0], #-5
    1540:	7f889100 	svcvc	0x00889100
    1544:	0006289f 	muleq	r6, pc, r8	; <UNPREDICTABLE>
    1548:	00063800 	andeq	r3, r6, r0, lsl #16
    154c:	91000400 	tstls	r0, r0, lsl #8
    1550:	389f7f88 	ldmcc	pc, {r3, r7, r8, r9, sl, fp, ip, sp, lr}	; <UNPREDICTABLE>
    1554:	48000006 	stmdami	r0, {r1, r2}
    1558:	01000006 	tsteq	r0, r6
    155c:	06945900 	ldreq	r5, [r4], r0, lsl #18
    1560:	06a40000 	strteq	r0, [r4], r0
    1564:	00010000 	andeq	r0, r1, r0
    1568:	00070059 	andeq	r0, r7, r9, asr r0
    156c:	00072800 	andeq	r2, r7, r0, lsl #16
    1570:	91000400 	tstls	r0, r0, lsl #8
    1574:	289f7f88 	ldmcs	pc, {r3, r7, r8, r9, sl, fp, ip, sp, lr}	; <UNPREDICTABLE>
    1578:	30000007 	andcc	r0, r0, r7
    157c:	06000007 	streq	r0, [r0], -r7
    1580:	b6740300 	ldrbtlt	r0, [r4], -r0, lsl #6
    1584:	309f0000 	addscc	r0, pc, r0
    1588:	4c000007 	stcmi	0, cr0, [r0], {7}
    158c:	04000007 	streq	r0, [r0], #-7
    1590:	7f889100 	svcvc	0x00889100
    1594:	0000009f 	muleq	r0, pc, r0	; <UNPREDICTABLE>
    1598:	00000000 	andeq	r0, r0, r0
    159c:	00008400 	andeq	r8, r0, r0, lsl #8
    15a0:	00008800 	andeq	r8, r0, r0, lsl #16
    15a4:	91000300 	mrsls	r0, LR_irq
    15a8:	00e87eec 	rsceq	r7, r8, ip, ror #29
    15ac:	02e40000 	rsceq	r0, r4, #0
    15b0:	00030000 	andeq	r0, r3, r0
    15b4:	1c7eec91 	ldclne	12, cr14, [lr], #-580	; 0xfffffdbc
    15b8:	34000003 	strcc	r0, [r0], #-3
    15bc:	03000003 	movweq	r0, #3
    15c0:	7eec9100 	urdvce	f1, f0
    15c4:	00000334 	andeq	r0, r0, r4, lsr r3
    15c8:	00000348 	andeq	r0, r0, r8, asr #6
    15cc:	48510001 	ldmdami	r1, {r0}^
    15d0:	a4000003 	strge	r0, [r0], #-3
    15d4:	03000006 	movweq	r0, #6
    15d8:	7eec9100 	urdvce	f1, f0
    15dc:	000006a4 	andeq	r0, r0, r4, lsr #13
    15e0:	000006c0 	andeq	r0, r0, r0, asr #13
    15e4:	c0510001 	subsgt	r0, r1, r1
    15e8:	e0000006 	and	r0, r0, r6
    15ec:	03000006 	movweq	r0, #6
    15f0:	7eec9100 	urdvce	f1, f0
    15f4:	000006e8 	andeq	r0, r0, r8, ror #13
    15f8:	0000074c 	andeq	r0, r0, ip, asr #14
    15fc:	ec910003 	ldc	0, cr0, [r1], {3}
    1600:	0000007e 	andeq	r0, r0, lr, ror r0
    1604:	00000000 	andeq	r0, r0, r0
    1608:	00008400 	andeq	r8, r0, r0, lsl #8
    160c:	00008800 	andeq	r8, r0, r0, lsl #16
    1610:	91000300 	mrsls	r0, LR_irq
    1614:	01007ee8 	smlatteq	r0, r8, lr, r7
    1618:	02800000 	addeq	r0, r0, #0
    161c:	00030000 	andeq	r0, r3, r0
    1620:	807ee891 			; <UNDEFINED> instruction: 0x807ee891
    1624:	a4000002 	strge	r0, [r0], #-2
    1628:	03000002 	movweq	r0, #2
    162c:	9f200800 	svcls	0x00200800
    1630:	00000328 	andeq	r0, r0, r8, lsr #6
    1634:	0000040c 	andeq	r0, r0, ip, lsl #8
    1638:	e8910003 	ldm	r1, {r0, r1}
    163c:	0004807e 	andeq	r8, r4, lr, ror r0
    1640:	0005c800 	andeq	ip, r5, r0, lsl #16
    1644:	91000300 	mrsls	r0, LR_irq
    1648:	06287ee8 	strteq	r7, [r8], -r8, ror #29
    164c:	06480000 	strbeq	r0, [r8], -r0
    1650:	00030000 	andeq	r0, r3, r0
    1654:	947ee891 	ldrbtls	lr, [lr], #-2193	; 0xfffff76f
    1658:	a4000006 	strge	r0, [r0], #-6
    165c:	03000006 	movweq	r0, #6
    1660:	9f200800 	svcls	0x00200800
    1664:	000006a4 	andeq	r0, r0, r4, lsr #13
    1668:	000006e0 	andeq	r0, r0, r0, ror #13
    166c:	e8910003 	ldm	r1, {r0, r1}
    1670:	0007007e 	andeq	r0, r7, lr, ror r0
    1674:	00074c00 	andeq	r4, r7, r0, lsl #24
    1678:	91000300 	mrsls	r0, LR_irq
    167c:	00007ee8 	andeq	r7, r0, r8, ror #29
    1680:	00000000 	andeq	r0, r0, r0
    1684:	00840000 	addeq	r0, r4, r0
    1688:	00880000 	addeq	r0, r8, r0
    168c:	00010000 	andeq	r0, r1, r0
    1690:	0000b055 	andeq	fp, r0, r5, asr r0
    1694:	0000cc00 	andeq	ip, r0, r0, lsl #24
    1698:	30000200 	andcc	r0, r0, r0, lsl #4
    169c:	0000cc9f 	muleq	r0, pc, ip	; <UNPREDICTABLE>
    16a0:	0000d400 	andeq	sp, r0, r0, lsl #8
    16a4:	55000100 	strpl	r0, [r0, #-256]	; 0xffffff00
    16a8:	000000d4 	ldrdeq	r0, [r0], -r4
    16ac:	000000d8 	ldrdeq	r0, [r0], -r8
    16b0:	00750005 	rsbseq	r0, r5, r5
    16b4:	d89f2431 	ldmle	pc, {r0, r4, r5, sl, sp}	; <UNPREDICTABLE>
    16b8:	40000000 	andmi	r0, r0, r0
    16bc:	01000002 	tsteq	r0, r2
    16c0:	02fc5500 	rscseq	r5, ip, #0, 10
    16c4:	03100000 	tsteq	r0, #0
    16c8:	00020000 	andeq	r0, r2, r0
    16cc:	03109f30 	tsteq	r0, #48, 30	; 0xc0
    16d0:	03f40000 	mvnseq	r0, #0
    16d4:	00010000 	andeq	r0, r1, r0
    16d8:	00048055 	andeq	r8, r4, r5, asr r0
    16dc:	00057800 	andeq	r7, r5, r0, lsl #16
    16e0:	55000100 	strpl	r0, [r0, #-256]	; 0xffffff00
    16e4:	00000578 	andeq	r0, r0, r8, ror r5
    16e8:	000005c8 	andeq	r0, r0, r8, asr #11
    16ec:	84910003 	ldrhi	r0, [r1], #3
    16f0:	0006a47f 	andeq	sl, r6, pc, ror r4
    16f4:	0006e000 	andeq	lr, r6, r0
    16f8:	55000100 	strpl	r0, [r0, #-256]	; 0xffffff00
    16fc:	00000700 	andeq	r0, r0, r0, lsl #14
    1700:	0000074c 	andeq	r0, r0, ip, asr #14
    1704:	00550001 	subseq	r0, r5, r1
    1708:	00000000 	andeq	r0, r0, r0
    170c:	84000000 	strhi	r0, [r0], #-0
    1710:	88000000 	stmdahi	r0, {}	; <UNPREDICTABLE>
    1714:	01000000 	mrseq	r0, (UNDEF: 0)
    1718:	01005800 	tsteq	r0, r0, lsl #16
    171c:	01080000 	mrseq	r0, (UNDEF: 8)
    1720:	00030000 	andeq	r0, r3, r0
    1724:	089fff09 	ldmeq	pc, {r0, r3, r8, r9, sl, fp, ip, sp, lr, pc}	; <UNPREDICTABLE>
    1728:	7c000001 	stcvc	0, cr0, [r0], {1}
    172c:	01000002 	tsteq	r0, r2
    1730:	03285800 			; <UNDEFINED> instruction: 0x03285800
    1734:	03340000 	teqeq	r4, #0
    1738:	00010000 	andeq	r0, r1, r0
    173c:	00033458 	andeq	r3, r3, r8, asr r4
    1740:	00035400 	andeq	r5, r3, r0, lsl #8
    1744:	09000300 	stmdbeq	r0, {r8, r9}
    1748:	03549fff 	cmpeq	r4, #1020	; 0x3fc
    174c:	03580000 	cmpeq	r8, #0
    1750:	00020000 	andeq	r0, r2, r0
    1754:	03589f30 	cmpeq	r8, #48, 30	; 0xc0
    1758:	03600000 	cmneq	r0, #0
    175c:	00010000 	andeq	r0, r1, r0
    1760:	00036058 	andeq	r6, r3, r8, asr r0
    1764:	00036400 	andeq	r6, r3, r0, lsl #8
    1768:	78000500 	stmdavc	r0, {r8, sl}
    176c:	9f243100 	svcls	0x00243100
    1770:	00000364 	andeq	r0, r0, r4, ror #6
    1774:	000003f8 	strdeq	r0, [r0], -r8
    1778:	80580001 	subshi	r0, r8, r1
    177c:	c8000004 	stmdagt	r0, {r2}
    1780:	01000005 	tsteq	r0, r5
    1784:	06285800 	strteq	r5, [r8], -r0, lsl #16
    1788:	06480000 	strbeq	r0, [r8], -r0
    178c:	00010000 	andeq	r0, r1, r0
    1790:	0006a458 	andeq	sl, r6, r8, asr r4
    1794:	0006ac00 	andeq	sl, r6, r0, lsl #24
    1798:	09000300 	stmdbeq	r0, {r8, r9}
    179c:	06ac9fff 			; <UNDEFINED> instruction: 0x06ac9fff
    17a0:	06e00000 	strbteq	r0, [r0], r0
    17a4:	00010000 	andeq	r0, r1, r0
    17a8:	00070058 	andeq	r0, r7, r8, asr r0
    17ac:	00074c00 	andeq	r4, r7, r0, lsl #24
    17b0:	58000100 	stmdapl	r0, {r8}
	...
    17bc:	00000108 	andeq	r0, r0, r8, lsl #2
    17c0:	00000118 	andeq	r0, r0, r8, lsl r1
    17c4:	9f320002 	svcls	0x00320002
    17c8:	00000328 	andeq	r0, r0, r8, lsr #6
    17cc:	00000334 	andeq	r0, r0, r4, lsr r3
    17d0:	9f330002 	svcls	0x00330002
    17d4:	00000378 	andeq	r0, r0, r8, ror r3
    17d8:	00000390 	muleq	r0, r0, r3
    17dc:	9f300002 	svcls	0x00300002
	...
    17e8:	00000084 	andeq	r0, r0, r4, lsl #1
    17ec:	00000088 	andeq	r0, r0, r8, lsl #1
    17f0:	9f300002 	svcls	0x00300002
    17f4:	00000118 	andeq	r0, r0, r8, lsl r1
    17f8:	00000240 	andeq	r0, r0, r0, asr #4
    17fc:	9f300002 	svcls	0x00300002
    1800:	00000390 	muleq	r0, r0, r3
    1804:	000003f4 	strdeq	r0, [r0], -r4
    1808:	9f300002 	svcls	0x00300002
    180c:	00000480 	andeq	r0, r0, r0, lsl #9
    1810:	00000518 	andeq	r0, r0, r8, lsl r5
    1814:	9f300002 	svcls	0x00300002
    1818:	00000518 	andeq	r0, r0, r8, lsl r5
    181c:	00000534 	andeq	r0, r0, r4, lsr r5
    1820:	f8910003 			; <UNDEFINED> instruction: 0xf8910003
    1824:	0006c07e 	andeq	ip, r6, lr, ror r0
    1828:	0006e000 	andeq	lr, r6, r0
    182c:	30000200 	andcc	r0, r0, r0, lsl #4
    1830:	0007009f 	muleq	r7, pc, r0	; <UNPREDICTABLE>
    1834:	00071800 	andeq	r1, r7, r0, lsl #16
    1838:	08000300 	stmdaeq	r0, {r8, r9}
    183c:	07189f2d 	ldreq	r9, [r8, -sp, lsr #30]
    1840:	074c0000 	strbeq	r0, [ip, -r0]
    1844:	00020000 	andeq	r0, r2, r0
    1848:	00009f30 	andeq	r9, r0, r0, lsr pc
    184c:	00000000 	andeq	r0, r0, r0
    1850:	04fc0000 	ldrbteq	r0, [ip], #0
    1854:	05180000 	ldreq	r0, [r8, #-0]
    1858:	00010000 	andeq	r0, r1, r0
    185c:	00070054 	andeq	r0, r7, r4, asr r0
    1860:	00071000 	andeq	r1, r7, r0
    1864:	54000100 	strpl	r0, [r0], #-256	; 0xffffff00
    1868:	00000710 	andeq	r0, r0, r0, lsl r7
    186c:	00000718 	andeq	r0, r0, r8, lsl r7
    1870:	00740004 	rsbseq	r0, r4, r4
    1874:	00009f1f 	andeq	r9, r0, pc, lsl pc
    1878:	00000000 	andeq	r0, r0, r0
    187c:	01c80000 	biceq	r0, r8, r0
    1880:	02180000 	andseq	r0, r8, #0
    1884:	00010000 	andeq	r0, r1, r0
    1888:	0004fc54 	andeq	pc, r4, r4, asr ip	; <UNPREDICTABLE>
    188c:	00055c00 	andeq	r5, r5, r0, lsl #24
    1890:	54000100 	strpl	r0, [r0], #-256	; 0xffffff00
    1894:	00000700 	andeq	r0, r0, r0, lsl #14
    1898:	00000728 	andeq	r0, r0, r8, lsr #14
    189c:	30540001 	subscc	r0, r4, r1
    18a0:	40000007 	andmi	r0, r0, r7
    18a4:	01000007 	tsteq	r0, r7
    18a8:	00005400 	andeq	r5, r0, r0, lsl #8
    18ac:	00000000 	andeq	r0, r0, r0
    18b0:	00840000 	addeq	r0, r4, r0
    18b4:	00880000 	addeq	r0, r8, r0
    18b8:	00020000 	andeq	r0, r2, r0
    18bc:	01189f30 	tsteq	r8, r0, lsr pc
    18c0:	01bc0000 			; <UNDEFINED> instruction: 0x01bc0000
    18c4:	00020000 	andeq	r0, r2, r0
    18c8:	01bc9f30 			; <UNDEFINED> instruction: 0x01bc9f30
    18cc:	01ec0000 	mvneq	r0, r0
    18d0:	00010000 	andeq	r0, r1, r0
    18d4:	00039056 	andeq	r9, r3, r6, asr r0
    18d8:	0003f400 	andeq	pc, r3, r0, lsl #8
    18dc:	30000200 	andcc	r0, r0, r0, lsl #4
    18e0:	0004809f 	muleq	r4, pc, r0	; <UNPREDICTABLE>
    18e4:	0004a800 	andeq	sl, r4, r0, lsl #16
    18e8:	30000200 	andcc	r0, r0, r0, lsl #4
    18ec:	0004a89f 	muleq	r4, pc, r8	; <UNPREDICTABLE>
    18f0:	0004bc00 	andeq	fp, r4, r0, lsl #24
    18f4:	31000200 	mrscc	r0, R8_usr
    18f8:	0004bc9f 	muleq	r4, pc, ip	; <UNPREDICTABLE>
    18fc:	00053400 	andeq	r3, r5, r0, lsl #8
    1900:	30000200 	andcc	r0, r0, r0, lsl #4
    1904:	0006c09f 	muleq	r6, pc, r0	; <UNPREDICTABLE>
    1908:	0006e000 	andeq	lr, r6, r0
    190c:	30000200 	andcc	r0, r0, r0, lsl #4
    1910:	0007009f 	muleq	r7, pc, r0	; <UNPREDICTABLE>
    1914:	00071800 	andeq	r1, r7, r0, lsl #16
    1918:	30000200 	andcc	r0, r0, r0, lsl #4
    191c:	0007289f 	muleq	r7, pc, r8	; <UNPREDICTABLE>
    1920:	00073000 	andeq	r3, r7, r0
    1924:	30000200 	andcc	r0, r0, r0, lsl #4
    1928:	0000009f 	muleq	r0, pc, r0	; <UNPREDICTABLE>
    192c:	00000000 	andeq	r0, r0, r0
    1930:	00008400 	andeq	r8, r0, r0, lsl #8
    1934:	00008800 	andeq	r8, r0, r0, lsl #16
    1938:	30000200 	andcc	r0, r0, r0, lsl #4
    193c:	0001189f 	muleq	r1, pc, r8	; <UNPREDICTABLE>
    1940:	0001bc00 	andeq	fp, r1, r0, lsl #24
    1944:	30000200 	andcc	r0, r0, r0, lsl #4
    1948:	0001bc9f 	muleq	r1, pc, ip	; <UNPREDICTABLE>
    194c:	00024000 	andeq	r4, r2, r0
    1950:	91000300 	mrsls	r0, LR_irq
    1954:	03907efc 	orrseq	r7, r0, #252, 28	; 0xfc0
    1958:	03f40000 	mvnseq	r0, #0
    195c:	00020000 	andeq	r0, r2, r0
    1960:	04809f30 	streq	r9, [r0], #3888	; 0xf30
    1964:	04940000 	ldreq	r0, [r4], #0
    1968:	00020000 	andeq	r0, r2, r0
    196c:	04949f30 	ldreq	r9, [r4], #3888	; 0xf30
    1970:	04bc0000 	ldrteq	r0, [ip], #0
    1974:	00020000 	andeq	r0, r2, r0
    1978:	04bc9f40 	ldrteq	r9, [ip], #3904	; 0xf40
    197c:	04d00000 	ldrbeq	r0, [r0], #0
    1980:	00020000 	andeq	r0, r2, r0
    1984:	04d09f32 	ldrbeq	r9, [r0], #3890	; 0xf32
    1988:	04f40000 	ldrbteq	r0, [r4], #0
    198c:	00020000 	andeq	r0, r2, r0
    1990:	04f49f30 	ldrbteq	r9, [r4], #3888	; 0xf30
    1994:	05340000 	ldreq	r0, [r4, #-0]!
    1998:	00020000 	andeq	r0, r2, r0
    199c:	06c09f3a 			; <UNDEFINED> instruction: 0x06c09f3a
    19a0:	06e00000 	strbteq	r0, [r0], r0
    19a4:	00020000 	andeq	r0, r2, r0
    19a8:	07009f30 	smladxeq	r0, r0, pc, r9	; <UNPREDICTABLE>
    19ac:	07180000 	ldreq	r0, [r8, -r0]
    19b0:	00020000 	andeq	r0, r2, r0
    19b4:	07189f3a 			; <UNDEFINED> instruction: 0x07189f3a
    19b8:	07280000 	streq	r0, [r8, -r0]!
    19bc:	00030000 	andeq	r0, r3, r0
    19c0:	287efc91 	ldmdacs	lr!, {r0, r4, r7, sl, fp, ip, sp, lr, pc}^
    19c4:	30000007 	andcc	r0, r0, r7
    19c8:	02000007 	andeq	r0, r0, #7
    19cc:	309f3000 	addscc	r3, pc, r0
    19d0:	4c000007 	stcmi	0, cr0, [r0], {7}
    19d4:	03000007 	movweq	r0, #7
    19d8:	7efc9100 	nrmvce	f1, f0
	...
    19e4:	00000270 	andeq	r0, r0, r0, ror r2
    19e8:	000002a4 	andeq	r0, r0, r4, lsr #5
    19ec:	c4500001 	ldrbgt	r0, [r0], #-1
    19f0:	f4000003 	vst4.8	{d0-d3}, [r0], r3
    19f4:	01000003 	tsteq	r0, r3
    19f8:	03f45000 	mvnseq	r5, #0
    19fc:	04400000 	strbeq	r0, [r0], #-0
    1a00:	00010000 	andeq	r0, r1, r0
    1a04:	00044056 	andeq	r4, r4, r6, asr r0
    1a08:	00048000 	andeq	r8, r4, r0
    1a0c:	91000300 	mrsls	r0, LR_irq
    1a10:	06287ef4 			; <UNDEFINED> instruction: 0x06287ef4
    1a14:	06480000 	strbeq	r0, [r8], -r0
    1a18:	00010000 	andeq	r0, r1, r0
    1a1c:	00069450 	andeq	r9, r6, r0, asr r4
    1a20:	0006a400 	andeq	sl, r6, r0, lsl #8
    1a24:	50000100 	andpl	r0, r0, r0, lsl #2
    1a28:	000006c0 	andeq	r0, r0, r0, asr #13
    1a2c:	000006e0 	andeq	r0, r0, r0, ror #13
    1a30:	e8500001 	ldmda	r0, {r0}^
    1a34:	00000006 	andeq	r0, r0, r6
    1a38:	03000007 	movweq	r0, #7
    1a3c:	7ef49100 	nrmvcs	f1, f0
	...
    1a48:	00000260 	andeq	r0, r0, r0, ror #4
    1a4c:	00000280 	andeq	r0, r0, r0, lsl #5
    1a50:	9f300002 	svcls	0x00300002
    1a54:	00000280 	andeq	r0, r0, r0, lsl #5
    1a58:	000002a4 	andeq	r0, r0, r4, lsr #5
    1a5c:	b4580001 	ldrblt	r0, [r8], #-1
    1a60:	0c000003 	stceq	0, cr0, [r0], {3}
    1a64:	02000004 	andeq	r0, r0, #4
    1a68:	209f3000 	addscs	r3, pc, r0
    1a6c:	4c000004 	stcmi	0, cr0, [r0], {4}
    1a70:	01000004 	tsteq	r0, r4
    1a74:	044c5800 	strbeq	r5, [ip], #-2048	; 0xfffff800
    1a78:	04800000 	streq	r0, [r0], #0
    1a7c:	00010000 	andeq	r0, r1, r0
    1a80:	00062859 	andeq	r2, r6, r9, asr r8
    1a84:	00064800 	andeq	r4, r6, r0, lsl #16
    1a88:	30000200 	andcc	r0, r0, r0, lsl #4
    1a8c:	0006949f 	muleq	r6, pc, r4	; <UNPREDICTABLE>
    1a90:	0006a400 	andeq	sl, r6, r0, lsl #8
    1a94:	58000100 	stmdapl	r0, {r8}
    1a98:	000006c0 	andeq	r0, r0, r0, asr #13
    1a9c:	000006e0 	andeq	r0, r0, r0, ror #13
    1aa0:	9f300002 	svcls	0x00300002
    1aa4:	000006e8 	andeq	r0, r0, r8, ror #13
    1aa8:	000006f4 	strdeq	r0, [r0], -r4
    1aac:	f4590001 			; <UNDEFINED> instruction: 0xf4590001
    1ab0:	00000006 	andeq	r0, r0, r6
    1ab4:	01000007 	tsteq	r0, r7
    1ab8:	00005800 	andeq	r5, r0, r0, lsl #16
    1abc:	00000000 	andeq	r0, r0, r0
    1ac0:	028c0000 	addeq	r0, ip, #0
    1ac4:	02a40000 	adceq	r0, r4, #0
    1ac8:	00010000 	andeq	r0, r1, r0
    1acc:	00040054 	andeq	r0, r4, r4, asr r0
    1ad0:	00043800 	andeq	r3, r4, r0, lsl #16
    1ad4:	54000100 	strpl	r0, [r0], #-256	; 0xffffff00
    1ad8:	00000694 	muleq	r0, r4, r6
    1adc:	000006a4 	andeq	r0, r0, r4, lsr #13
    1ae0:	00540001 	subseq	r0, r4, r1
    1ae4:	00000000 	andeq	r0, r0, r0
    1ae8:	8c000000 	stchi	0, cr0, [r0], {-0}
    1aec:	a4000002 	strge	r0, [r0], #-2
    1af0:	02000002 	andeq	r0, r0, #2
    1af4:	009f3000 	addseq	r3, pc, r0
    1af8:	10000004 	andne	r0, r0, r4
    1afc:	02000004 	andeq	r0, r0, #4
    1b00:	109f3000 	addsne	r3, pc, r0
    1b04:	1c000004 	stcne	0, cr0, [r0], {4}
    1b08:	01000004 	tsteq	r0, r4
    1b0c:	04205500 	strteq	r5, [r0], #-1280	; 0xfffffb00
    1b10:	04500000 	ldrbeq	r0, [r0], #-0
    1b14:	00010000 	andeq	r0, r1, r0
    1b18:	00045055 	andeq	r5, r4, r5, asr r0
    1b1c:	00048000 	andeq	r8, r4, r0
    1b20:	58000100 	stmdapl	r0, {r8}
    1b24:	00000694 	muleq	r0, r4, r6
    1b28:	000006a4 	andeq	r0, r0, r4, lsr #13
    1b2c:	9f300002 	svcls	0x00300002
    1b30:	000006e8 	andeq	r0, r0, r8, ror #13
    1b34:	000006f0 	strdeq	r0, [r0], -r0	; <UNPREDICTABLE>
    1b38:	f0580001 			; <UNDEFINED> instruction: 0xf0580001
    1b3c:	00000006 	andeq	r0, r0, r6
    1b40:	01000007 	tsteq	r0, r7
    1b44:	00005500 	andeq	r5, r0, r0, lsl #10
    1b48:	00000000 	andeq	r0, r0, r0
    1b4c:	01e00000 	mvneq	r0, r0
    1b50:	01ec0000 	mvneq	r0, r0
    1b54:	00010000 	andeq	r0, r1, r0
    1b58:	00052056 	andeq	r2, r5, r6, asr r0
    1b5c:	00053400 	andeq	r3, r5, r0, lsl #8
    1b60:	30000200 	andcc	r0, r0, r0, lsl #4
    1b64:	0000009f 	muleq	r0, pc, r0	; <UNPREDICTABLE>
    1b68:	00000000 	andeq	r0, r0, r0
    1b6c:	0001e000 	andeq	lr, r1, r0
    1b70:	00024000 	andeq	r4, r2, r0
    1b74:	91000300 	mrsls	r0, LR_irq
    1b78:	05207efc 	streq	r7, [r0, #-3836]!	; 0xfffff104
    1b7c:	05340000 	ldreq	r0, [r4, #-0]!
    1b80:	00020000 	andeq	r0, r2, r0
    1b84:	07189f3a 			; <UNDEFINED> instruction: 0x07189f3a
    1b88:	07280000 	streq	r0, [r8, -r0]!
    1b8c:	00030000 	andeq	r0, r3, r0
    1b90:	307efc91 			; <UNDEFINED> instruction: 0x307efc91
    1b94:	4c000007 	stcmi	0, cr0, [r0], {7}
    1b98:	03000007 	movweq	r0, #7
    1b9c:	7efc9100 	nrmvce	f1, f0
	...
    1ba8:	000001e0 	andeq	r0, r0, r0, ror #3
    1bac:	00000250 	andeq	r0, r0, r0, asr r2
    1bb0:	88910004 	ldmhi	r1, {r2}
    1bb4:	02509f7f 	subseq	r9, r0, #508	; 0x1fc
    1bb8:	02540000 	subseq	r0, r4, #0
    1bbc:	00030000 	andeq	r0, r3, r0
    1bc0:	549f0172 	ldrpl	r0, [pc], #370	; 1bc8 <SCTLR_ENABLE_INSTRUCTION_CACHE+0xbc8>
    1bc4:	5c000002 	stcpl	0, cr0, [r0], {2}
    1bc8:	03000002 	movweq	r0, #2
    1bcc:	9f027200 	svcls	0x00027200
    1bd0:	0000025c 	andeq	r0, r0, ip, asr r2
    1bd4:	00000267 	andeq	r0, r0, r7, ror #4
    1bd8:	01720003 	cmneq	r2, r3
    1bdc:	0005209f 	muleq	r5, pc, r0	; <UNPREDICTABLE>
    1be0:	0005c800 	andeq	ip, r5, r0, lsl #16
    1be4:	91000400 	tstls	r0, r0, lsl #8
    1be8:	189f7f88 	ldmne	pc, {r3, r7, r8, r9, sl, fp, ip, sp, lr}	; <UNPREDICTABLE>
    1bec:	28000007 	stmdacs	r0, {r0, r1, r2}
    1bf0:	04000007 	streq	r0, [r0], #-7
    1bf4:	7f889100 	svcvc	0x00889100
    1bf8:	0007309f 	muleq	r7, pc, r0	; <UNPREDICTABLE>
    1bfc:	00074c00 	andeq	r4, r7, r0, lsl #24
    1c00:	91000400 	tstls	r0, r0, lsl #8
    1c04:	009f7f88 	addseq	r7, pc, r8, lsl #31
    1c08:	00000000 	andeq	r0, r0, r0
    1c0c:	e0000000 	and	r0, r0, r0
    1c10:	00000001 	andeq	r0, r0, r1
    1c14:	01000002 	tsteq	r0, r2
    1c18:	02005400 	andeq	r5, r0, #0, 8
    1c1c:	020c0000 	andeq	r0, ip, #0
    1c20:	00060000 	andeq	r0, r6, r0
    1c24:	00710074 	rsbseq	r0, r1, r4, ror r0
    1c28:	020c9f25 	andeq	r9, ip, #37, 30	; 0x94
    1c2c:	02280000 	eoreq	r0, r8, #0
    1c30:	00010000 	andeq	r0, r1, r0
    1c34:	00052052 	andeq	r2, r5, r2, asr r0
    1c38:	00055400 	andeq	r5, r5, r0, lsl #8
    1c3c:	54000100 	strpl	r0, [r0], #-256	; 0xffffff00
    1c40:	00000554 	andeq	r0, r0, r4, asr r5
    1c44:	00000584 	andeq	r0, r0, r4, lsl #11
    1c48:	84500001 	ldrbhi	r0, [r0], #-1
    1c4c:	a8000005 	stmdage	r0, {r0, r2}
    1c50:	01000005 	tsteq	r0, r5
    1c54:	05ac5b00 	streq	r5, [ip, #2816]!	; 0xb00
    1c58:	05c80000 	strbeq	r0, [r8]
    1c5c:	00010000 	andeq	r0, r1, r0
    1c60:	00071850 	andeq	r1, r7, r0, asr r8
    1c64:	00072800 	andeq	r2, r7, r0, lsl #16
    1c68:	54000100 	strpl	r0, [r0], #-256	; 0xffffff00
    1c6c:	00000730 	andeq	r0, r0, r0, lsr r7
    1c70:	0000074c 	andeq	r0, r0, ip, asr #14
    1c74:	00520001 	subseq	r0, r2, r1
    1c78:	00000000 	andeq	r0, r0, r0
    1c7c:	e0000000 	and	r0, r0, r0
    1c80:	0c000001 	stceq	0, cr0, [r0], {1}
    1c84:	01000002 	tsteq	r0, r2
    1c88:	020c5200 	andeq	r5, ip, #0, 4
    1c8c:	02400000 	subeq	r0, r0, #0
    1c90:	00010000 	andeq	r0, r1, r0
    1c94:	00052056 	andeq	r2, r5, r6, asr r0
    1c98:	00053400 	andeq	r3, r5, r0, lsl #8
    1c9c:	f2000600 	vmax.s8	d0, d0, d0
    1ca0:	0000588a 	andeq	r5, r0, sl, lsl #17
    1ca4:	00053400 	andeq	r3, r5, r0, lsl #8
    1ca8:	00058000 	andeq	r8, r5, r0
    1cac:	56000100 	strpl	r0, [r0], -r0, lsl #2
    1cb0:	00000580 	andeq	r0, r0, r0, lsl #11
    1cb4:	000005b4 			; <UNDEFINED> instruction: 0x000005b4
    1cb8:	18540001 	ldmdane	r4, {r0}^
    1cbc:	28000007 	stmdacs	r0, {r0, r1, r2}
    1cc0:	01000007 	tsteq	r0, r7
    1cc4:	07305200 	ldreq	r5, [r0, -r0, lsl #4]!
    1cc8:	074c0000 	strbeq	r0, [ip, -r0]
    1ccc:	00010000 	andeq	r0, r1, r0
    1cd0:	00000056 	andeq	r0, r0, r6, asr r0
    1cd4:	00000000 	andeq	r0, r0, r0
    1cd8:	0001f000 	andeq	pc, r1, r0
    1cdc:	00021c00 	andeq	r1, r2, r0, lsl #24
    1ce0:	31000200 	mrscc	r0, R8_usr
    1ce4:	00021c9f 	muleq	r2, pc, ip	; <UNPREDICTABLE>
    1ce8:	00022c00 	andeq	r2, r2, r0, lsl #24
    1cec:	74000300 	strvc	r0, [r0], #-768	; 0xfffffd00
    1cf0:	022c9f01 	eoreq	r9, ip, #1, 30
    1cf4:	02400000 	subeq	r0, r0, #0
    1cf8:	00010000 	andeq	r0, r1, r0
    1cfc:	00052854 	andeq	r2, r5, r4, asr r8
    1d00:	00058400 	andeq	r8, r5, r0, lsl #8
    1d04:	31000200 	mrscc	r0, R8_usr
    1d08:	0005849f 	muleq	r5, pc, r4	; <UNPREDICTABLE>
    1d0c:	0005ac00 	andeq	sl, r5, r0, lsl #24
    1d10:	75000300 	strvc	r0, [r0, #-768]	; 0xfffffd00
    1d14:	05ac9f01 	streq	r9, [ip, #3841]!	; 0xf01
    1d18:	05c00000 	strbeq	r0, [r0]
    1d1c:	00010000 	andeq	r0, r1, r0
    1d20:	0005c055 	andeq	ip, r5, r5, asr r0
    1d24:	0005c800 	andeq	ip, r5, r0, lsl #16
    1d28:	54000100 	strpl	r0, [r0], #-256	; 0xffffff00
    1d2c:	00000718 	andeq	r0, r0, r8, lsl r7
    1d30:	00000728 	andeq	r0, r0, r8, lsr #14
    1d34:	9f310002 	svcls	0x00310002
    1d38:	00000730 	andeq	r0, r0, r0, lsr r7
    1d3c:	0000074c 	andeq	r0, r0, ip, asr #14
    1d40:	9f310002 	svcls	0x00310002
	...
    1d4c:	00000200 	andeq	r0, r0, r0, lsl #4
    1d50:	00000240 	andeq	r0, r0, r0, asr #4
    1d54:	305c0001 	subscc	r0, ip, r1
    1d58:	4c000007 	stcmi	0, cr0, [r0], {7}
    1d5c:	01000007 	tsteq	r0, r7
    1d60:	00005c00 	andeq	r5, r0, r0, lsl #24
	...
    1d6c:	00140000 	andseq	r0, r4, r0
    1d70:	00010000 	andeq	r0, r1, r0
    1d74:	00001450 	andeq	r1, r0, r0, asr r4
    1d78:	00002800 	andeq	r2, r0, r0, lsl #16
    1d7c:	f3000400 	vshl.u8	d0, d0, d0
    1d80:	289f5001 	ldmcs	pc, {r0, ip, lr}	; <UNPREDICTABLE>
    1d84:	2c000000 	stccs	0, cr0, [r0], {-0}
    1d88:	01000000 	mrseq	r0, (UNDEF: 0)
    1d8c:	002c5000 	eoreq	r5, ip, r0
    1d90:	00300000 	eorseq	r0, r0, r0
    1d94:	00040000 	andeq	r0, r4, r0
    1d98:	9f5001f3 	svcls	0x005001f3
	...
    1da8:	00000014 	andeq	r0, r0, r4, lsl r0
    1dac:	9f300002 	svcls	0x00300002
    1db0:	00000014 	andeq	r0, r0, r4, lsl r0
    1db4:	00000028 	andeq	r0, r0, r8, lsr #32
    1db8:	28500001 	ldmdacs	r0, {r0}^
    1dbc:	30000000 	andcc	r0, r0, r0
    1dc0:	02000000 	andeq	r0, r0, #0
    1dc4:	009f3000 	addseq	r3, pc, r0
    1dc8:	00000000 	andeq	r0, r0, r0
    1dcc:	Address 0x0000000000001dcc is out of bounds.


Disassembly of section .debug_str:

00000000 <.debug_str>:
       0:	656c635f 	strbvs	r6, [ip, #-863]!	; 0xfffffca1
       4:	625f7261 	subsvs	r7, pc, #268435462	; 0x10000006
       8:	75007373 	strvc	r7, [r0, #-883]	; 0xfffffc8d
       c:	6769736e 	strbvs	r7, [r9, -lr, ror #6]!
      10:	2064656e 	rsbcs	r6, r4, lr, ror #10
      14:	72616863 	rsbvc	r6, r1, #6488064	; 0x630000
      18:	6f687300 	svcvs	0x00687300
      1c:	75207472 	strvc	r7, [r0, #-1138]!	; 0xfffffb8e
      20:	6769736e 	strbvs	r7, [r9, -lr, ror #6]!
      24:	2064656e 	rsbcs	r6, r4, lr, ror #10
      28:	00746e69 	rsbseq	r6, r4, r9, ror #28
      2c:	68637261 	stmdavs	r3!, {r0, r5, r6, r9, ip, sp, lr}^
      30:	6d72612f 	ldfvse	f6, [r2, #-188]!	; 0xffffff44
      34:	7373622f 	cmnvc	r3, #-268435454	; 0xf0000002
      38:	656c632d 	strbvs	r6, [ip, #-813]!	; 0xfffffcd3
      3c:	632e7261 			; <UNDEFINED> instruction: 0x632e7261
      40:	625f5f00 	subsvs	r5, pc, #0, 30
      44:	735f7373 	cmpvc	pc, #-872415231	; 0xcc000001
      48:	74726174 	ldrbtvc	r6, [r2], #-372	; 0xfffffe8c
      4c:	6e6f6c00 	cdpvs	12, 6, cr6, cr15, cr0, {0}
      50:	6f6c2067 	svcvs	0x006c2067
      54:	7520676e 	strvc	r6, [r0, #-1902]!	; 0xfffff892
      58:	6769736e 	strbvs	r7, [r9, -lr, ror #6]!
      5c:	2064656e 	rsbcs	r6, r4, lr, ror #10
      60:	00746e69 	rsbseq	r6, r4, r9, ror #28
      64:	20554e47 	subscs	r4, r5, r7, asr #28
      68:	20313143 	eorscs	r3, r1, r3, asr #2
      6c:	2e342e35 	mrccs	14, 1, r2, cr4, cr5, {1}
      70:	30322031 	eorscc	r2, r2, r1, lsr r0
      74:	39303631 	ldmdbcc	r0!, {r0, r4, r5, r9, sl, ip, sp}
      78:	28203931 	stmdacs	r0!, {r0, r4, r5, r8, fp, ip, sp}
      7c:	656c6572 	strbvs	r6, [ip, #-1394]!	; 0xfffffa8e
      80:	29657361 	stmdbcs	r5!, {r0, r5, r6, r8, r9, ip, sp, lr}^
      84:	52415b20 	subpl	r5, r1, #32, 22	; 0x8000
      88:	6d652f4d 	stclvs	15, cr2, [r5, #-308]!	; 0xfffffecc
      8c:	64646562 	strbtvs	r6, [r4], #-1378	; 0xfffffa9e
      90:	352d6465 	strcc	r6, [sp, #-1125]!	; 0xfffffb9b
      94:	6172622d 	cmnvs	r2, sp, lsr #4
      98:	2068636e 	rsbcs	r6, r8, lr, ror #6
      9c:	69766572 	ldmdbvs	r6!, {r1, r4, r5, r6, r8, sl, sp, lr}^
      a0:	6e6f6973 	mcrvs	9, 3, r6, cr15, cr3, {3}
      a4:	30343220 	eorscc	r3, r4, r0, lsr #4
      a8:	5d363934 	ldcpl	9, cr3, [r6, #-208]!	; 0xffffff30
      ac:	616d2d20 	cmnvs	sp, r0, lsr #26
      b0:	3d686372 	stclcc	3, cr6, [r8, #-456]!	; 0xfffffe38
      b4:	766d7261 	strbtvc	r7, [sp], -r1, ror #4
      b8:	2b612d38 	blcs	184b5a0 <__kernel_end+0x16e55a0>
      bc:	20637263 	rsbcs	r7, r3, r3, ror #4
      c0:	70666d2d 	rsbvc	r6, r6, sp, lsr #26
      c4:	72633d75 	rsbvc	r3, r3, #7488	; 0x1d40
      c8:	6f747079 	svcvs	0x00747079
      cc:	6f656e2d 	svcvs	0x00656e2d
      d0:	70662d6e 	rsbvc	r2, r6, lr, ror #26
      d4:	6d72612d 	ldfvse	f6, [r2, #-180]!	; 0xffffff4c
      d8:	2d203876 	stccs	8, cr3, [r0, #-472]!	; 0xfffffe28
      dc:	4f2d2067 	svcmi	0x002d2067
      e0:	732d2032 			; <UNDEFINED> instruction: 0x732d2032
      e4:	673d6474 			; <UNDEFINED> instruction: 0x673d6474
      e8:	3131756e 	teqcc	r1, lr, ror #10
      ec:	70662d20 	rsbvc	r2, r6, r0, lsr #26
      f0:	2d206369 	stccs	3, cr6, [r0, #-420]!	; 0xfffffe5c
      f4:	65726666 	ldrbvs	r6, [r2, #-1638]!	; 0xfffff99a
      f8:	61747365 	cmnvs	r4, r5, ror #6
      fc:	6e69646e 	cdpvs	4, 6, cr6, cr9, cr14, {3}
     100:	5f5f0067 	svcpl	0x005f0067
     104:	5f737362 	svcpl	0x00737362
     108:	00646e65 	rsbeq	r6, r4, r5, ror #28
     10c:	676e6f6c 	strbvs	r6, [lr, -ip, ror #30]!
     110:	6e6f6c20 	cdpvs	12, 6, cr6, cr15, cr0, {1}
     114:	6e692067 	cdpvs	0, 6, cr2, cr9, cr7, {3}
     118:	552f0074 	strpl	r0, [pc, #-116]!	; ac <ARM_I_BIT+0x2c>
     11c:	73726573 	cmnvc	r2, #482344960	; 0x1cc00000
     120:	6172702f 	cmnvs	r2, pc, lsr #32
     124:	6873616b 	ldmdavs	r3!, {r0, r1, r3, r5, r6, r8, sp, lr}^
     128:	6b726f62 	blvs	1c9beb8 <__kernel_end+0x1b35eb8>
     12c:	442f7261 	strtmi	r7, [pc], #-609	; 134 <ARM_I_BIT+0xb4>
     130:	746b7365 	strbtvc	r7, [fp], #-869	; 0xfffffc9b
     134:	522f706f 	eorpl	r7, pc, #111	; 0x6f
     138:	746f6d65 	strbtvc	r6, [pc], #-3429	; 140 <ARM_I_BIT+0xc0>
     13c:	65525f65 	ldrbvs	r5, [r2, #-3941]	; 0xfffff09b
     140:	722f6f70 	eorvc	r6, pc, #112, 30	; 0x1c0
     144:	6f2d6970 	svcvs	0x002d6970
     148:	61752d73 	cmnvs	r5, r3, ror sp
     14c:	722f7472 	eorvc	r7, pc, #1912602624	; 0x72000000
     150:	62336970 	eorsvs	r6, r3, #112, 18	; 0x1c0000
     154:	61656d2d 	cmnvs	r5, sp, lsr #26
     158:	732d7974 			; <UNDEFINED> instruction: 0x732d7974
     15c:	656c656b 	strbvs	r6, [ip, #-1387]!	; 0xfffffa95
     160:	2f6e6f74 	svccs	0x006e6f74
     164:	6e72656b 	cdpvs	5, 7, cr6, cr2, cr11, {3}
     168:	73006c65 	movwvc	r6, #3173	; 0xc65
     16c:	74726f68 	ldrbtvc	r6, [r2], #-3944	; 0xfffff098
     170:	746e6920 	strbtvc	r6, [lr], #-2336	; 0xfffff6e0
     174:	6e697500 	cdpvs	5, 6, cr7, cr9, cr0, {0}
     178:	5f323374 	svcpl	0x00323374
     17c:	656b0074 	strbvs	r0, [fp, #-116]!	; 0xffffff8c
     180:	6c656e72 	stclvs	14, cr6, [r5], #-456	; 0xfffffe38
     184:	69616d5f 	stmdbvs	r1!, {r0, r1, r2, r3, r4, r6, r8, sl, fp, sp, lr}^
     188:	5052006e 	subspl	r0, r2, lr, rrx
     18c:	41425f49 	cmpmi	r2, r9, asr #30
     190:	5f434953 	svcpl	0x00434953
     194:	5f4d5241 	svcpl	0x004d5241
     198:	454d4954 	strbmi	r4, [sp, #-2388]	; 0xfffff6ac
     19c:	52495f52 	subpl	r5, r9, #328	; 0x148
     1a0:	70720051 	rsbsvc	r0, r2, r1, asr r0
     1a4:	72615f69 	rsbvc	r5, r1, #420	; 0x1a4
     1a8:	69745f6d 	ldmdbvs	r4!, {r0, r2, r3, r5, r6, r8, r9, sl, fp, ip, lr}^
     1ac:	5f72656d 	svcpl	0x0072656d
     1b0:	41520074 	cmpmi	r2, r4, ror r0
     1b4:	51524957 	cmppl	r2, r7, asr r9
     1b8:	6d726100 	ldfvse	f6, [r2, #-0]
     1bc:	6d69745f 	cfstrdvs	mvd7, [r9, #-380]!	; 0xfffffe84
     1c0:	695f7265 	ldmdbvs	pc, {r0, r2, r5, r6, r9, ip, sp, lr}^	; <UNPREDICTABLE>
     1c4:	0074696e 	rsbseq	r6, r4, lr, ror #18
     1c8:	5f495052 	svcpl	0x00495052
     1cc:	49534142 	ldmdbmi	r3, {r1, r6, r8, lr}^
     1d0:	52415f43 	subpl	r5, r1, #268	; 0x10c
     1d4:	4f445f4d 	svcmi	0x00445f4d
     1d8:	4542524f 	strbmi	r5, [r2, #-591]	; 0xfffffdb1
     1dc:	315f4c4c 	cmpcc	pc, ip, asr #24
     1e0:	5152495f 	cmppl	r2, pc, asr r9
     1e4:	65724600 	ldrbvs	r4, [r2, #-1536]!	; 0xfffffa00
     1e8:	6e755265 	cdpvs	2, 7, cr5, cr5, cr5, {3}
     1ec:	676e696e 	strbvs	r6, [lr, -lr, ror #18]!
     1f0:	6e756f43 	cdpvs	15, 7, cr6, cr5, cr3, {2}
     1f4:	00726574 	rsbseq	r6, r2, r4, ror r5
     1f8:	5f495052 	svcpl	0x00495052
     1fc:	49534142 	ldmdbmi	r3, {r1, r6, r8, lr}^
     200:	43415f43 	movtmi	r5, #8003	; 0x1f43
     204:	53534543 	cmppl	r3, #281018368	; 0x10c00000
     208:	5252455f 	subspl	r4, r2, #398458880	; 0x17c00000
     20c:	315f524f 	cmpcc	pc, pc, asr #4
     210:	5152495f 	cmppl	r2, pc, asr r9
     214:	65725000 	ldrbvs	r5, [r2, #-0]!
     218:	69766944 	ldmdbvs	r6!, {r2, r6, r8, fp, sp, lr}^
     21c:	00726564 	rsbseq	r6, r2, r4, ror #10
     220:	756c6156 	strbvc	r6, [ip, #-342]!	; 0xfffffeaa
     224:	50520065 	subspl	r0, r2, r5, rrx
     228:	41425f49 	cmpmi	r2, r9, asr #30
     22c:	5f434953 	svcpl	0x00434953
     230:	5f555047 	svcpl	0x00555047
     234:	41485f30 	cmpmi	r8, r0, lsr pc
     238:	4445544c 	strbmi	r5, [r5], #-1100	; 0xfffffbb4
     23c:	5152495f 	cmppl	r2, pc, asr r9
     240:	49505200 	ldmdbmi	r0, {r9, ip, lr}^
     244:	5341425f 	movtpl	r4, #4703	; 0x125f
     248:	475f4349 	ldrbmi	r4, [pc, -r9, asr #6]
     24c:	315f5550 	cmpcc	pc, r0, asr r5	; <UNPREDICTABLE>
     250:	4c41485f 	mcrrmi	8, 5, r4, r1, cr15
     254:	5f444554 	svcpl	0x00444554
     258:	00515249 	subseq	r5, r1, r9, asr #4
     25c:	5f495052 	svcpl	0x00495052
     260:	41746547 	cmnmi	r4, r7, asr #10
     264:	69546d72 	ldmdbvs	r4, {r1, r4, r5, r6, r8, sl, fp, sp, lr}^
     268:	0072656d 	rsbseq	r6, r2, sp, ror #10
     26c:	68637261 	stmdavs	r3!, {r0, r5, r6, r9, ip, sp, lr}^
     270:	6d72612f 	ldfvse	f6, [r2, #-188]!	; 0xffffff44
     274:	6970722f 	ldmdbvs	r0!, {r0, r1, r2, r3, r5, r9, ip, sp, lr}^
     278:	6d72612d 	ldfvse	f6, [r2, #-180]!	; 0xffffff4c
     27c:	656d6974 	strbvs	r6, [sp, #-2420]!	; 0xfffff68c
     280:	00632e72 	rsbeq	r2, r3, r2, ror lr
     284:	5f495052 	svcpl	0x00495052
     288:	49534142 	ldmdbmi	r3, {r1, r6, r8, lr}^
     28c:	52415f43 	subpl	r5, r1, #268	; 0x10c
     290:	4f445f4d 	svcmi	0x00445f4d
     294:	4542524f 	strbmi	r5, [r2, #-591]	; 0xfffffdb1
     298:	305f4c4c 	subscc	r4, pc, ip, asr #24
     29c:	5152495f 	cmppl	r2, pc, asr r9
     2a0:	69707200 	ldmdbvs	r0!, {r9, ip, sp, lr}^
     2a4:	546d7241 	strbtpl	r7, [sp], #-577	; 0xfffffdbf
     2a8:	72656d69 	rsbvc	r6, r5, #6720	; 0x1a40
     2ac:	51524900 	cmppl	r2, r0, lsl #18
     2b0:	61656c43 	cmnvs	r5, r3, asr #24
     2b4:	50520072 	subspl	r0, r2, r2, ror r0
     2b8:	41425f49 	cmpmi	r2, r9, asr #30
     2bc:	5f434953 	svcpl	0x00434953
     2c0:	45434341 	strbmi	r4, [r3, #-833]	; 0xfffffcbf
     2c4:	455f5353 	ldrbmi	r5, [pc, #-851]	; ffffff79 <__kernel_end+0xffe99f79>
     2c8:	524f5252 	subpl	r5, pc, #536870917	; 0x20000005
     2cc:	495f305f 	ldmdbmi	pc, {r0, r1, r2, r3, r4, r6, ip, sp}^	; <UNPREDICTABLE>
     2d0:	52005152 	andpl	r5, r0, #-2147483628	; 0x80000014
     2d4:	475f4950 			; <UNDEFINED> instruction: 0x475f4950
     2d8:	72497465 	subvc	r7, r9, #1694498816	; 0x65000000
     2dc:	6e6f4371 	mcrvs	3, 3, r4, cr15, cr1, {3}
     2e0:	6c6f7274 	sfmvs	f7, 2, [pc], #-464	; 118 <ARM_I_BIT+0x98>
     2e4:	0072656c 	rsbseq	r6, r2, ip, ror #10
     2e8:	6b73614d 	blvs	1cd8824 <__kernel_end+0x1b72824>
     2ec:	52496465 	subpl	r6, r9, #1694498816	; 0x65000000
     2f0:	50520051 	subspl	r0, r2, r1, asr r0
     2f4:	41425f49 	cmpmi	r2, r9, asr #30
     2f8:	5f434953 	svcpl	0x00434953
     2fc:	5f4d5241 	svcpl	0x004d5241
     300:	4c49414d 	stfmie	f4, [r9], {77}	; 0x4d
     304:	5f584f42 	svcpl	0x00584f42
     308:	00515249 	subseq	r5, r1, r9, asr #4
     30c:	66657270 			; <UNDEFINED> instruction: 0x66657270
     310:	68637465 	stmdavs	r3!, {r0, r2, r5, r6, sl, ip, sp, lr}^
     314:	6f62615f 	svcvs	0x0062615f
     318:	765f7472 			; <UNDEFINED> instruction: 0x765f7472
     31c:	6f746365 	svcvs	0x00746365
     320:	6f630072 	svcvs	0x00630072
     324:	5f746e75 	svcpl	0x00746e75
     328:	73717269 	cmnvc	r1, #-1879048186	; 0x90000006
     32c:	73694400 	cmnvc	r9, #0, 8
     330:	656c6261 	strbvs	r6, [ip, #-609]!	; 0xfffffd9f
     334:	5152495f 	cmppl	r2, pc, asr r9
     338:	00325f73 	eorseq	r5, r2, r3, ror pc
     33c:	657a6973 	ldrbvs	r6, [sl, #-2419]!	; 0xfffff68d
     340:	7300745f 	movwvc	r7, #1119	; 0x45f
     344:	74657a69 	strbtvc	r7, [r5], #-2665	; 0xfffff597
     348:	00657079 	rsbeq	r7, r5, r9, ror r0
     34c:	72657a62 	rsbvc	r7, r5, #401408	; 0x62000
     350:	4946006f 	stmdbmi	r6, {r0, r1, r2, r3, r5, r6}^
     354:	6f635f51 	svcvs	0x00635f51
     358:	6f72746e 	svcvs	0x0072746e
     35c:	6975006c 	ldmdbvs	r5!, {r2, r3, r5, r6}^
     360:	5f38746e 	svcpl	0x0038746e
     364:	6e690074 	mcrvs	0, 3, r0, cr9, cr4, {3}
     368:	72726574 	rsbsvc	r6, r2, #116, 10	; 0x1d000000
     36c:	5f747075 	svcpl	0x00747075
     370:	646e6168 	strbtvs	r6, [lr], #-360	; 0xfffffe98
     374:	5f72656c 	svcpl	0x0072656c
     378:	70720066 	rsbsvc	r0, r2, r6, rrx
     37c:	51524969 	cmppl	r2, r9, ror #18
     380:	746e6f43 	strbtvc	r6, [lr], #-3907	; 0xfffff0bd
     384:	6c6c6f72 	stclvs	15, cr6, [ip], #-456	; 0xfffffe38
     388:	75007265 	strvc	r7, [r0, #-613]	; 0xfffffd9b
     38c:	6765726e 	strbvs	r7, [r5, -lr, ror #4]!
     390:	65747369 	ldrbvs	r7, [r4, #-873]!	; 0xfffffc97
     394:	72695f72 	rsbvc	r5, r9, #456	; 0x1c8
     398:	61685f71 	smcvs	34289	; 0x85f1
     39c:	656c646e 	strbvs	r6, [ip, #-1134]!	; 0xfffffb92
     3a0:	6f730072 	svcvs	0x00730072
     3a4:	61777466 	cmnvs	r7, r6, ror #8
     3a8:	695f6572 	ldmdbvs	pc, {r1, r4, r5, r6, r8, sl, sp, lr}^	; <UNPREDICTABLE>
     3ac:	7265746e 	rsbvc	r7, r5, #1845493760	; 0x6e000000
     3b0:	74707572 	ldrbtvc	r7, [r0], #-1394	; 0xfffffa8e
     3b4:	6365765f 	cmnvs	r5, #99614720	; 0x5f00000
     3b8:	00726f74 	rsbseq	r6, r2, r4, ror pc
     3bc:	65646e75 	strbvs	r6, [r4, #-3701]!	; 0xfffff18b
     3c0:	656e6966 	strbvs	r6, [lr, #-2406]!	; 0xfffff69a
     3c4:	6e695f64 	cdpvs	15, 6, cr5, cr9, cr4, {3}
     3c8:	75727473 	ldrbvc	r7, [r2, #-1139]!	; 0xfffffb8d
     3cc:	6f697463 	svcvs	0x00697463
     3d0:	65765f6e 	ldrbvs	r5, [r6, #-3950]!	; 0xfffff092
     3d4:	726f7463 	rsbvc	r7, pc, #1660944384	; 0x63000000
     3d8:	6d656d00 	stclvs	13, cr6, [r5, #-0]
     3dc:	00746573 	rsbseq	r6, r4, r3, ror r5
     3e0:	74736166 	ldrbtvc	r6, [r3], #-358	; 0xfffffe9a
     3e4:	746e695f 	strbtvc	r6, [lr], #-2399	; 0xfffff6a1
     3e8:	75727265 	ldrbvc	r7, [r2, #-613]!	; 0xfffffd9b
     3ec:	765f7470 			; <UNDEFINED> instruction: 0x765f7470
     3f0:	6f746365 	svcvs	0x00746365
     3f4:	72690072 	rsbvc	r0, r9, #114	; 0x72
     3f8:	756e5f71 	strbvc	r5, [lr, #-3953]!	; 0xfffff08f
     3fc:	6e45006d 	cdpvs	0, 4, cr0, cr5, cr13, {3}
     400:	656c6261 	strbvs	r6, [ip, #-609]!	; 0xfffffd9f
     404:	5152495f 	cmppl	r2, pc, asr r9
     408:	00315f73 	eorseq	r5, r1, r3, ror pc
     40c:	62616e45 	rsbvs	r6, r1, #1104	; 0x450
     410:	495f656c 	ldmdbmi	pc, {r2, r3, r5, r6, r8, sl, sp, lr}^	; <UNPREDICTABLE>
     414:	5f735152 	svcpl	0x00735152
     418:	6f6c0032 	svcvs	0x006c0032
     41c:	6420676e 	strtvs	r6, [r0], #-1902	; 0xfffff892
     420:	6c62756f 	cfstr64vs	mvdx7, [r2], #-444	; 0xfffffe44
     424:	69440065 	stmdbvs	r4, {r0, r2, r5, r6}^
     428:	6c626173 	stfvse	f6, [r2], #-460	; 0xfffffe34
     42c:	61425f65 	cmpvs	r2, r5, ror #30
     430:	5f636973 	svcpl	0x00636973
     434:	73515249 	cmpvc	r1, #-1879048188	; 0x90000004
     438:	6e616800 	cdpvs	8, 6, cr6, cr1, cr0, {0}
     43c:	72656c64 	rsbvc	r6, r5, #100, 24	; 0x6400
     440:	79620073 	stmdbvc	r2!, {r0, r1, r4, r5, r6}^
     444:	69006574 	stmdbvs	r0, {r2, r4, r5, r6, r8, sl, sp, lr}
     448:	705f7172 	subsvc	r7, pc, r2, ror r1	; <UNPREDICTABLE>
     44c:	7200736f 	andvc	r7, r0, #-1140850687	; 0xbc000001
     450:	74657365 	strbtvc	r7, [r5], #-869	; 0xfffffc9b
     454:	6365765f 	cmnvs	r5, #99614720	; 0x5f00000
     458:	00726f74 	rsbseq	r6, r2, r4, ror pc
     45c:	65746e69 	ldrbvs	r6, [r4, #-3689]!	; 0xfffff197
     460:	70757272 	rsbsvc	r7, r5, r2, ror r2
     464:	6c635f74 	stclvs	15, cr5, [r3], #-464	; 0xfffffe30
     468:	65726165 	ldrbvs	r6, [r2, #-357]!	; 0xfffffe9b
     46c:	00665f72 	rsbeq	r5, r6, r2, ror pc
     470:	5f515249 	svcpl	0x00515249
     474:	646e6570 	strbtvs	r6, [lr], #-1392	; 0xfffffa90
     478:	5f676e69 	svcpl	0x00676e69
     47c:	72700032 	rsbsvc	r0, r0, #50	; 0x32
     480:	66746e69 	ldrbtvs	r6, [r4], -r9, ror #28
     484:	53494400 	movtpl	r4, #37888	; 0x9400
     488:	454c4241 	strbmi	r4, [ip, #-577]	; 0xfffffdbf
     48c:	544e495f 	strbpl	r4, [lr], #-2399	; 0xfffff6a1
     490:	55525245 	ldrbpl	r5, [r2, #-581]	; 0xfffffdbb
     494:	00535450 	subseq	r5, r3, r0, asr r4
     498:	68637261 	stmdavs	r3!, {r0, r5, r6, r9, ip, sp, lr}^
     49c:	6d72612f 	ldfvse	f6, [r2, #-188]!	; 0xffffff44
     4a0:	6970722f 	ldmdbvs	r0!, {r0, r1, r2, r3, r5, r9, ip, sp, lr}^
     4a4:	746e692d 	strbtvc	r6, [lr], #-2349	; 0xfffff6d3
     4a8:	75727265 	ldrbvc	r7, [r2, #-613]!	; 0xfffffd9b
     4ac:	2e737470 	mrccs	4, 3, r7, cr3, cr0, {3}
     4b0:	655f0063 	ldrbvs	r0, [pc, #-99]	; 455 <ARM_I_BIT+0x3d5>
     4b4:	6c62616e 	stfvse	f6, [r2], #-440	; 0xfffffe48
     4b8:	6e695f65 	cdpvs	15, 6, cr5, cr9, cr5, {3}
     4bc:	72726574 	rsbsvc	r6, r2, #116, 10	; 0x1d000000
     4c0:	73747075 	cmnvc	r4, #117	; 0x75
     4c4:	73694400 	cmnvc	r9, #0, 8
     4c8:	656c6261 	strbvs	r6, [ip, #-609]!	; 0xfffffd9f
     4cc:	5152495f 	cmppl	r2, pc, asr r9
     4d0:	00315f73 	eorseq	r5, r1, r3, ror pc
     4d4:	62616e45 	rsbvs	r6, r1, #1104	; 0x450
     4d8:	425f656c 	subsmi	r6, pc, #108, 10	; 0x1b000000
     4dc:	63697361 	cmnvs	r9, #-2080374783	; 0x84000001
     4e0:	5152495f 	cmppl	r2, pc, asr r9
     4e4:	4e450073 	mcrmi	0, 2, r0, cr5, cr3, {3}
     4e8:	454c4241 	strbmi	r4, [ip, #-577]	; 0xfffffdbf
     4ec:	544e495f 	strbpl	r4, [lr], #-2399	; 0xfffff6a1
     4f0:	55525245 	ldrbpl	r5, [r2, #-581]	; 0xfffffdbb
     4f4:	00535450 	subseq	r5, r3, r0, asr r4
     4f8:	5f697072 	svcpl	0x00697072
     4fc:	5f717269 	svcpl	0x00717269
     500:	746e6f63 	strbtvc	r6, [lr], #-3939	; 0xfffff09d
     504:	6c6c6f72 	stclvs	15, cr6, [ip], #-456	; 0xfffffe38
     508:	745f7265 	ldrbvc	r7, [pc], #-613	; 510 <ARM_I_BIT+0x490>
     50c:	72617500 	rsbvc	r7, r1, #0, 10
     510:	75705f74 	ldrbvc	r5, [r0, #-3956]!	; 0xfffff08c
     514:	69007374 	stmdbvs	r0, {r2, r4, r5, r6, r8, r9, ip, sp, lr}
     518:	7265746e 	rsbvc	r7, r5, #1845493760	; 0x6e000000
     51c:	74707572 	ldrbtvc	r7, [r0], #-1394	; 0xfffffa8e
     520:	6e695f73 	mcrvs	15, 3, r5, cr9, cr3, {3}
     524:	63007469 	movwvs	r7, #1129	; 0x469
     528:	7261656c 	rsbvc	r6, r1, #108, 10	; 0x1b000000
     52c:	00737265 	rsbseq	r7, r3, r5, ror #4
     530:	5f717269 	svcpl	0x00717269
     534:	626d756e 	rsbvs	r7, sp, #461373440	; 0x1b800000
     538:	745f7265 	ldrbvc	r7, [pc], #-613	; 540 <ARM_I_BIT+0x4c0>
     53c:	544e4900 	strbpl	r4, [lr], #-2304	; 0xfffff700
     540:	55525245 	ldrbpl	r5, [r2, #-581]	; 0xfffffdbb
     544:	5f535450 	svcpl	0x00535450
     548:	42414e45 	submi	r4, r1, #1104	; 0x450
     54c:	0044454c 	subeq	r4, r4, ip, asr #10
     550:	61746164 	cmnvs	r4, r4, ror #2
     554:	6f62615f 	svcvs	0x0062615f
     558:	765f7472 			; <UNDEFINED> instruction: 0x765f7472
     55c:	6f746365 	svcvs	0x00746365
     560:	52490072 	subpl	r0, r9, #114	; 0x72
     564:	65705f51 	ldrbvs	r5, [r0, #-3921]!	; 0xfffff0af
     568:	6e69646e 	cdpvs	4, 6, cr6, cr9, cr14, {3}
     56c:	00315f67 	eorseq	r5, r1, r7, ror #30
     570:	5f515249 	svcpl	0x00515249
     574:	69736162 	ldmdbvs	r3!, {r1, r5, r6, r8, sp, lr}^
     578:	65705f63 	ldrbvs	r5, [r0, #-3939]!	; 0xfffff09d
     57c:	6e69646e 	cdpvs	4, 6, cr6, cr9, cr14, {3}
     580:	52410067 	subpl	r0, r1, #103	; 0x67
     584:	534d5f4d 	movtpl	r5, #57165	; 0xdf4d
     588:	4c55465f 	mrrcmi	6, 5, r4, r5, cr15
     58c:	616d004c 	cmnvs	sp, ip, asr #32
     590:	6f626c69 	svcvs	0x00626c69
     594:	74735f78 	ldrbtvc	r5, [r3], #-3960	; 0xfffff088
     598:	73757461 	cmnvc	r5, #1627389952	; 0x61000000
     59c:	6765725f 			; <UNDEFINED> instruction: 0x6765725f
     5a0:	7469625f 	strbtvc	r6, [r9], #-607	; 0xfffffda1
     5a4:	68630073 	stmdavs	r3!, {r0, r1, r4, r5, r6}^
     5a8:	656e6e61 	strbvs	r6, [lr, #-3681]!	; 0xfffff19f
     5ac:	424d006c 	submi	r0, sp, #108	; 0x6c
     5b0:	41545f30 	cmpmi	r4, r0, lsr pc
     5b4:	415f5347 	cmpmi	pc, r7, asr #6
     5b8:	545f4d52 	ldrbpl	r4, [pc], #-3410	; 5c0 <ARM_I_BIT+0x540>
     5bc:	43565f4f 	cmpmi	r6, #316	; 0x13c
     5c0:	6c617600 	stclvs	6, cr7, [r1], #-0
     5c4:	72006575 	andvc	r6, r0, #490733568	; 0x1d400000
     5c8:	614d6970 	hvcvs	54928	; 0xd690
     5cc:	6f626c69 	svcvs	0x00626c69
     5d0:	6d003078 	stcvs	0, cr3, [r0, #-480]	; 0xfffffe20
     5d4:	626c6961 	rsbvs	r6, ip, #1589248	; 0x184000
     5d8:	745f786f 	ldrbvc	r7, [pc], #-2159	; 5e0 <ARM_I_BIT+0x560>
     5dc:	6e655300 	cdpvs	3, 6, cr5, cr5, cr0, {0}
     5e0:	00726564 	rsbseq	r6, r2, r4, ror #10
     5e4:	5f30424d 	svcpl	0x0030424d
     5e8:	53554e55 	cmppl	r5, #1360	; 0x550
     5ec:	4d004445 	cfstrsmi	mvf4, [r0, #-276]	; 0xfffffeec
     5f0:	465f3042 	ldrbmi	r3, [pc], -r2, asr #32
     5f4:	454d4152 	strbmi	r4, [sp, #-338]	; 0xfffffeae
     5f8:	46465542 	strbmi	r5, [r6], -r2, asr #10
     5fc:	52005245 	andpl	r5, r0, #1342177284	; 0x50000004
     600:	4d5f4950 	ldclmi	9, cr4, [pc, #-320]	; 4c8 <ARM_I_BIT+0x448>
     604:	626c6961 	rsbvs	r6, ip, #1589248	; 0x184000
     608:	5230786f 	eorspl	r7, r0, #7274496	; 0x6f0000
     60c:	00646165 	rsbeq	r6, r4, r5, ror #2
     610:	5f30424d 	svcpl	0x0030424d
     614:	49484356 	stmdbmi	r8, {r1, r2, r4, r6, r8, r9, lr}^
     618:	424d0051 	submi	r0, sp, #81	; 0x51
     61c:	4f545f30 	svcmi	0x00545f30
     620:	53484355 	movtpl	r4, #33621	; 0x8355
     624:	45455243 	strbmi	r5, [r5, #-579]	; 0xfffffdbd
     628:	5241004e 	subpl	r0, r1, #78	; 0x4e
     62c:	534d5f4d 	movtpl	r5, #57165	; 0xdf4d
     630:	504d455f 	subpl	r4, sp, pc, asr r5
     634:	41005954 	tstmi	r0, r4, asr r9
     638:	4d5f4d52 	ldclmi	13, cr4, [pc, #-328]	; 4f8 <ARM_I_BIT+0x478>
     63c:	454c5f53 	strbmi	r5, [ip, #-3923]	; 0xfffff0ad
     640:	004c4556 	subeq	r4, ip, r6, asr r5
     644:	5f30424d 	svcpl	0x0030424d
     648:	54524956 	ldrbpl	r4, [r2], #-2390	; 0xfffff6aa
     64c:	5f4c4155 	svcpl	0x004c4155
     650:	54524155 	ldrbpl	r4, [r2], #-341	; 0xfffffeab
     654:	30424d00 	subcc	r4, r2, r0, lsl #26
     658:	574f505f 	smlsldpl	r5, pc, pc, r0	; <UNPREDICTABLE>
     65c:	4d5f5245 	lfmmi	f5, 2, [pc, #-276]	; 550 <ARM_I_BIT+0x4d0>
     660:	47414e41 	strbmi	r4, [r1, -r1, asr #28]
     664:	4e454d45 	cdpmi	13, 4, cr4, cr5, cr5, {2}
     668:	6f500054 	svcvs	0x00500054
     66c:	6d006c6c 	stcvs	12, cr6, [r0, #-432]	; 0xfffffe50
     670:	626c6961 	rsbvs	r6, ip, #1589248	; 0x184000
     674:	5f30786f 	svcpl	0x0030786f
     678:	6e616863 	cdpvs	8, 6, cr6, cr1, cr3, {3}
     67c:	5f6c656e 	svcpl	0x006c656e
     680:	424d0074 	submi	r0, sp, #116	; 0x74
     684:	454c5f30 	strbmi	r5, [ip, #-3888]	; 0xfffff0d0
     688:	61005344 	tstvs	r0, r4, asr #6
     68c:	2f686372 	svccs	0x00686372
     690:	2f6d7261 	svccs	0x006d7261
     694:	2d697072 	stclcs	0, cr7, [r9, #-456]!	; 0xfffffe38
     698:	6c69616d 	stfvse	f6, [r9], #-436	; 0xfffffe4c
     69c:	2e786f62 	cdpcs	15, 7, cr6, cr8, cr2, {3}
     6a0:	424d0063 	submi	r0, sp, #99	; 0x63
     6a4:	41545f30 	cmpmi	r4, r0, lsr pc
     6a8:	565f5347 	ldrbpl	r5, [pc], -r7, asr #6
     6ac:	4f545f43 	svcmi	0x00545f43
     6b0:	4d52415f 	ldfmie	f4, [r2, #-380]	; 0xfffffe84
     6b4:	49505200 	ldmdbmi	r0, {r9, ip, lr}^
     6b8:	69614d5f 	stmdbvs	r1!, {r0, r1, r2, r3, r4, r6, r8, sl, fp, lr}^
     6bc:	786f626c 	stmdavc	pc!, {r2, r3, r5, r6, r9, sp, lr}^	; <UNPREDICTABLE>
     6c0:	69725730 	ldmdbvs	r2!, {r4, r5, r8, r9, sl, ip, lr}^
     6c4:	4d006574 	cfstr32mi	mvfx6, [r0, #-464]	; 0xfffffe30
     6c8:	425f3042 	subsmi	r3, pc, #66	; 0x42
     6cc:	4f545455 	svcmi	0x00545455
     6d0:	7200534e 	andvc	r5, r0, #939524097	; 0x38000001
     6d4:	72657365 	rsbvc	r7, r5, #-1811939327	; 0x94000001
     6d8:	31646576 	smccc	18006	; 0x4656
     6dc:	47415400 	strbmi	r5, [r1, -r0, lsl #8]
     6e0:	414c425f 	cmpmi	ip, pc, asr r2
     6e4:	535f4b4e 	cmppl	pc, #79872	; 0x13800
     6e8:	45455243 	strbmi	r5, [r5, #-579]	; 0xfffffdbd
     6ec:	4154004e 	cmpmi	r4, lr, asr #32
     6f0:	45475f47 	strbmi	r5, [r7, #-3911]	; 0xfffff0b9
     6f4:	564f5f54 			; <UNDEFINED> instruction: 0x564f5f54
     6f8:	43535245 	cmpmi	r3, #1342177284	; 0x50000004
     6fc:	54004e41 	strpl	r4, [r0], #-3649	; 0xfffff1bf
     700:	475f4741 	ldrbmi	r4, [pc, -r1, asr #14]
     704:	425f5445 	subsmi	r5, pc, #1157627904	; 0x45000000
     708:	4452414f 	ldrbmi	r4, [r2], #-335	; 0xfffffeb1
     70c:	5245535f 	subpl	r5, r5, #2080374785	; 0x7c000001
     710:	004c4149 	subeq	r4, ip, r9, asr #2
     714:	5f474154 	svcpl	0x00474154
     718:	5f544547 	svcpl	0x00544547
     71c:	52414f42 	subpl	r4, r1, #264	; 0x108
     720:	45525f44 	ldrbmi	r5, [r2, #-3908]	; 0xfffff0bc
     724:	49534956 	ldmdbmi	r3, {r1, r2, r4, r6, r8, fp, lr}^
     728:	54004e4f 	strpl	r4, [r0], #-3663	; 0xfffff1b1
     72c:	475f4741 	ldrbmi	r4, [pc, -r1, asr #14]
     730:	4d5f5445 	cfldrdmi	mvd5, [pc, #-276]	; 624 <ARM_I_BIT+0x5a4>
     734:	435f4e49 	cmpmi	pc, #1168	; 0x490
     738:	4b434f4c 	blmi	10d4470 <__kernel_end+0xf6e470>
     73c:	5441525f 	strbpl	r5, [r1], #-607	; 0xfffffda1
     740:	41540045 	cmpmi	r4, r5, asr #32
     744:	45545f47 	ldrbmi	r5, [r4, #-3911]	; 0xfffff0b9
     748:	565f5453 			; <UNDEFINED> instruction: 0x565f5453
     74c:	55545249 	ldrbpl	r5, [r4, #-585]	; 0xfffffdb7
     750:	4f5f4c41 	svcmi	0x005f4c41
     754:	45534646 	ldrbmi	r4, [r3, #-1606]	; 0xfffff9ba
     758:	41540054 	cmpmi	r4, r4, asr r0
     75c:	45535f47 	ldrbmi	r5, [r3, #-3911]	; 0xfffff0b9
     760:	49565f54 	ldmdbmi	r6, {r2, r4, r6, r8, r9, sl, fp, ip, lr}^
     764:	41555452 	cmpmi	r5, r2, asr r4
     768:	464f5f4c 	strbmi	r5, [pc], -ip, asr #30
     76c:	54455346 	strbpl	r5, [r5], #-838	; 0xfffffcba
     770:	47415400 	strbmi	r5, [r1, -r0, lsl #8]
     774:	5445475f 	strbpl	r4, [r5], #-1887	; 0xfffff8a1
     778:	5948505f 	stmdbpl	r8, {r0, r1, r2, r3, r4, r6, ip, lr}^
     77c:	41434953 	cmpmi	r3, r3, asr r9
     780:	49535f4c 	ldmdbmi	r3, {r2, r3, r6, r8, r9, sl, fp, ip, lr}^
     784:	6400455a 	strvs	r4, [r0], #-1370	; 0xfffffaa6
     788:	00617461 	rsbeq	r7, r1, r1, ror #8
     78c:	5f474154 	svcpl	0x00474154
     790:	5f544547 	svcpl	0x00544547
     794:	504d4554 	subpl	r4, sp, r4, asr r5
     798:	54415245 	strbpl	r5, [r1], #-581	; 0xfffffdbb
     79c:	00455255 	subeq	r5, r5, r5, asr r2
     7a0:	5f474154 	svcpl	0x00474154
     7a4:	454c4552 	strbmi	r4, [ip, #-1362]	; 0xfffffaae
     7a8:	5f455341 	svcpl	0x00455341
     7ac:	46465542 	strbmi	r5, [r6], -r2, asr #10
     7b0:	54005245 	strpl	r5, [r0], #-581	; 0xfffffdbb
     7b4:	535f4741 	cmppl	pc, #17039360	; 0x1040000
     7b8:	565f5445 	ldrbpl	r5, [pc], -r5, asr #8
     7bc:	41544c4f 	cmpmi	r4, pc, asr #24
     7c0:	54004547 	strpl	r4, [r0], #-1351	; 0xfffffab9
     7c4:	475f4741 	ldrbmi	r4, [pc, -r1, asr #14]
     7c8:	435f5445 	cmpmi	pc, #1157627904	; 0x45000000
     7cc:	4b434f4c 	blmi	10d4504 <__kernel_end+0xf6e504>
     7d0:	5441525f 	strbpl	r5, [r1], #-607	; 0xfffffda1
     7d4:	41540045 	cmpmi	r4, r5, asr #32
     7d8:	45535f47 	ldrbmi	r5, [r3, #-3911]	; 0xfffff0b9
     7dc:	45445f54 	strbmi	r5, [r4, #-3924]	; 0xfffff0ac
     7e0:	00485450 	subeq	r5, r8, r0, asr r4
     7e4:	5f474154 	svcpl	0x00474154
     7e8:	5f544547 	svcpl	0x00544547
     7ec:	454c4150 	strbmi	r4, [ip, #-336]	; 0xfffffeb0
     7f0:	00455454 	subeq	r5, r5, r4, asr r4
     7f4:	5f474154 	svcpl	0x00474154
     7f8:	5f544547 	svcpl	0x00544547
     7fc:	4d5f4356 	ldclmi	3, cr4, [pc, #-344]	; 6ac <ARM_I_BIT+0x62c>
     800:	524f4d45 	subpl	r4, pc, #4416	; 0x1140
     804:	75620059 	strbvc	r0, [r2, #-89]!	; 0xffffffa7
     808:	72656666 	rsbvc	r6, r5, #106954752	; 0x6600000
     80c:	7000385f 	andvc	r3, r0, pc, asr r8
     810:	65706f72 	ldrbvs	r6, [r0, #-3954]!	; 0xfffff08e
     814:	00797472 	rsbseq	r7, r9, r2, ror r4
     818:	5f474154 	svcpl	0x00474154
     81c:	5f544553 	svcpl	0x00544553
     820:	434f4c43 	movtmi	r4, #64579	; 0xfc43
     824:	54535f4b 	ldrbpl	r5, [r3], #-3915	; 0xfffff0b5
     828:	00455441 	subeq	r5, r5, r1, asr #8
     82c:	5f474154 	svcpl	0x00474154
     830:	54534554 	ldrbpl	r4, [r3], #-1364	; 0xfffffaac
     834:	5849505f 	stmdapl	r9, {r0, r1, r2, r3, r4, r6, ip, lr}^
     838:	4f5f4c45 	svcmi	0x005f4c45
     83c:	52454452 	subpl	r4, r5, #1375731712	; 0x52000000
     840:	765f5f00 	ldrbvc	r5, [pc], -r0, lsl #30
     844:	696c5f61 	stmdbvs	ip!, {r0, r5, r6, r8, r9, sl, fp, ip, lr}^
     848:	54007473 	strpl	r7, [r0], #-1139	; 0xfffffb8d
     84c:	535f4741 	cmppl	pc, #17039360	; 0x1040000
     850:	435f5445 	cmpmi	pc, #1157627904	; 0x45000000
     854:	4f535255 	svcmi	0x00535255
     858:	4e495f52 	mcrmi	15, 2, r5, cr9, cr2, {2}
     85c:	54004f46 	strpl	r4, [r0], #-3910	; 0xfffff0ba
     860:	475f4741 	ldrbmi	r4, [pc, -r1, asr #14]
     864:	505f5445 	subspl	r5, pc, r5, asr #8
     868:	4c455849 	mcrrmi	8, 4, r5, r5, cr9
     86c:	44524f5f 	ldrbmi	r4, [r2], #-3935	; 0xfffff0a1
     870:	54005245 	strpl	r5, [r0], #-581	; 0xfffffdbb
     874:	475f4741 	ldrbmi	r4, [pc, -r1, asr #14]
     878:	455f5445 	ldrbmi	r5, [pc, #-1093]	; 43b <ARM_I_BIT+0x3bb>
     87c:	5f444944 	svcpl	0x00444944
     880:	434f4c42 	movtmi	r4, #64578	; 0xfc42
     884:	4154004b 	cmpmi	r4, fp, asr #32
     888:	45475f47 	strbmi	r5, [r7, #-3911]	; 0xfffff0b9
     88c:	414d5f54 	cmpmi	sp, r4, asr pc
     890:	4c435f58 	mcrrmi	15, 5, r5, r3, cr8
     894:	5f4b434f 	svcpl	0x004b434f
     898:	45544152 	ldrbmi	r4, [r4, #-338]	; 0xfffffeae
     89c:	47415400 	strbmi	r5, [r1, -r0, lsl #8]
     8a0:	5345545f 	movtpl	r5, #21599	; 0x545f
     8a4:	4c415f54 	mcrrmi	15, 5, r5, r1, cr4
     8a8:	5f414850 	svcpl	0x00414850
     8ac:	45444f4d 	strbmi	r4, [r4, #-3917]	; 0xfffff0b3
     8b0:	49505200 	ldmdbmi	r0, {r9, ip, lr}^
     8b4:	6f72505f 	svcvs	0x0072505f
     8b8:	74726570 	ldrbtvc	r6, [r2], #-1392	; 0xfffffa90
     8bc:	696e4979 	stmdbvs	lr!, {r0, r3, r4, r5, r6, r8, fp, lr}^
     8c0:	54500074 	ldrbpl	r0, [r0], #-116	; 0xffffff8c
     8c4:	49534f5f 	ldmdbmi	r3, {r0, r1, r2, r3, r4, r6, r8, r9, sl, fp, lr}^
     8c8:	5400455a 	strpl	r4, [r0], #-1370	; 0xfffffaa6
     8cc:	545f4741 	ldrbpl	r4, [pc], #-1857	; 8d4 <SCTLR_ENABLE_BRANCH_PREDICTION+0xd4>
     8d0:	5f545345 	svcpl	0x00545345
     8d4:	454c4150 	strbmi	r4, [ip, #-336]	; 0xfffffeb0
     8d8:	00455454 	subeq	r5, r5, r4, asr r4
     8dc:	5f495052 	svcpl	0x00495052
     8e0:	706f7250 	rsbvc	r7, pc, r0, asr r2	; <UNPREDICTABLE>
     8e4:	79747265 	ldmdbvc	r4!, {r0, r2, r5, r6, r9, ip, sp, lr}^
     8e8:	54646441 	strbtpl	r6, [r4], #-1089	; 0xfffffbbf
     8ec:	72006761 	andvc	r6, r0, #25427968	; 0x1840000
     8f0:	6d5f6970 	ldclvs	9, cr6, [pc, #-448]	; 738 <ARM_I_BIT+0x6b8>
     8f4:	626c6961 	rsbvs	r6, ip, #1589248	; 0x184000
     8f8:	705f786f 	subsvc	r7, pc, pc, ror #16
     8fc:	65706f72 	ldrbvs	r6, [r0, #-3954]!	; 0xfffff08e
     900:	5f797472 	svcpl	0x00797472
     904:	54500074 	ldrbpl	r0, [r0], #-116	; 0xffffff8c
     908:	45524f5f 	ldrbmi	r4, [r2, #-3935]	; 0xfffff0a1
     90c:	53455551 	movtpl	r5, #21841	; 0x5551
     910:	524f5f54 	subpl	r5, pc, #84, 30	; 0x150
     914:	5345525f 	movtpl	r5, #21087	; 0x525f
     918:	534e4f50 	movtpl	r4, #61264	; 0xef50
     91c:	41540045 	cmpmi	r4, r5, asr #32
     920:	45545f47 	ldrbmi	r5, [r4, #-3911]	; 0xfffff0b9
     924:	4f5f5453 	svcmi	0x005f5453
     928:	53524556 	cmppl	r2, #360710144	; 0x15800000
     92c:	004e4143 	subeq	r4, lr, r3, asr #2
     930:	5f474154 	svcpl	0x00474154
     934:	5f544547 	svcpl	0x00544547
     938:	54524956 	ldrbpl	r4, [r2], #-2390	; 0xfffff6aa
     93c:	5f4c4155 	svcpl	0x004c4155
     940:	5346464f 	movtpl	r4, #26191	; 0x664f
     944:	54005445 	strpl	r5, [r0], #-1093	; 0xfffffbbb
     948:	475f4741 	ldrbmi	r4, [pc, -r1, asr #14]
     94c:	415f5445 	cmpmi	pc, r5, asr #8
     950:	4d5f4d52 	ldclmi	13, cr4, [pc, #-328]	; 810 <SCTLR_ENABLE_BRANCH_PREDICTION+0x10>
     954:	524f4d45 	subpl	r4, pc, #4416	; 0x1140
     958:	41540059 	cmpmi	r4, r9, asr r0
     95c:	45475f47 	strbmi	r5, [r7, #-3911]	; 0xfffff0b9
     960:	45445f54 	strbmi	r5, [r4, #-3924]	; 0xfffff0ac
     964:	00485450 	subeq	r5, r8, r0, asr r4
     968:	5f474154 	svcpl	0x00474154
     96c:	5f544547 	svcpl	0x00544547
     970:	54524956 	ldrbpl	r4, [r2], #-2390	; 0xfffff6aa
     974:	5f4c4155 	svcpl	0x004c4155
     978:	455a4953 	ldrbmi	r4, [sl, #-2387]	; 0xfffff6ad
     97c:	47415400 	strbmi	r5, [r1, -r0, lsl #8]
     980:	4c45525f 	sfmmi	f5, 2, [r5], {95}	; 0x5f
     984:	45534145 	ldrbmi	r4, [r3, #-325]	; 0xfffffebb
     988:	4d454d5f 	stclmi	13, cr4, [r5, #-380]	; 0xfffffe84
     98c:	0059524f 	subseq	r5, r9, pc, asr #4
     990:	5f474154 	svcpl	0x00474154
     994:	5f544553 	svcpl	0x00544553
     998:	45574f50 	ldrbmi	r4, [r7, #-3920]	; 0xfffff0b0
     99c:	54535f52 	ldrbpl	r5, [r3], #-3922	; 0xfffff0ae
     9a0:	00455441 	subeq	r5, r5, r1, asr #8
     9a4:	5f474154 	svcpl	0x00474154
     9a8:	4b434f4c 	blmi	10d46e0 <__kernel_end+0xf6e6e0>
     9ac:	4d454d5f 	stclmi	13, cr4, [r5, #-380]	; 0xfffffe84
     9b0:	0059524f 	subseq	r5, r9, pc, asr #4
     9b4:	65747962 	ldrbvs	r7, [r4, #-2402]!	; 0xfffff69e
     9b8:	6e656c5f 	mcrvs	12, 3, r6, cr5, cr15, {2}
     9bc:	00687467 	rsbeq	r7, r8, r7, ror #8
     9c0:	5f474154 	svcpl	0x00474154
     9c4:	5f544547 	svcpl	0x00544547
     9c8:	48504c41 	ldmdami	r0, {r0, r6, sl, fp, lr}^
     9cc:	4f4d5f41 	svcmi	0x004d5f41
     9d0:	54004544 	strpl	r4, [r0], #-1348	; 0xfffffabc
     9d4:	475f4741 	ldrbmi	r4, [pc, -r1, asr #14]
     9d8:	505f5445 	subspl	r5, pc, r5, asr #8
     9dc:	48435449 	stmdami	r3, {r0, r3, r6, sl, ip, lr}^
     9e0:	47415400 	strbmi	r5, [r1, -r0, lsl #8]
     9e4:	4c4c415f 	stfmie	f4, [ip], {95}	; 0x5f
     9e8:	5441434f 	strbpl	r4, [r1], #-847	; 0xfffffcb1
     9ec:	55425f45 	strbpl	r5, [r2, #-3909]	; 0xfffff0bb
     9f0:	52454646 	subpl	r4, r5, #73400320	; 0x4600000
     9f4:	675f5f00 	ldrbvs	r5, [pc, -r0, lsl #30]
     9f8:	5f63756e 	svcpl	0x0063756e
     9fc:	6c5f6176 	ldfvse	f6, [pc], {118}	; 0x76
     a00:	00747369 	rsbseq	r7, r4, r9, ror #6
     a04:	5f474154 	svcpl	0x00474154
     a08:	5f544553 	svcpl	0x00544553
     a0c:	53594850 	cmppl	r9, #80, 16	; 0x500000
     a10:	4c414349 	mcrrmi	3, 4, r4, r1, cr9
     a14:	5a49535f 	bpl	1255798 <__kernel_end+0x10ef798>
     a18:	41540045 	cmpmi	r4, r5, asr #32
     a1c:	45475f47 	strbmi	r5, [r7, #-3911]	; 0xfffff0b9
     a20:	4f565f54 	svcmi	0x00565f54
     a24:	4741544c 	strbmi	r5, [r1, -ip, asr #8]
     a28:	41540045 	cmpmi	r4, r5, asr #32
     a2c:	45535f47 	ldrbmi	r5, [r3, #-3911]	; 0xfffff0b9
     a30:	49565f54 	ldmdbmi	r6, {r2, r4, r6, r8, r9, sl, fp, ip, lr}^
     a34:	41555452 	cmpmi	r5, r2, asr r4
     a38:	49535f4c 	ldmdbmi	r3, {r2, r3, r6, r8, r9, sl, fp, ip, lr}^
     a3c:	5200455a 	andpl	r4, r0, #377487360	; 0x16800000
     a40:	505f4950 	subspl	r4, pc, r0, asr r9	; <UNPREDICTABLE>
     a44:	65706f72 	ldrbvs	r6, [r0, #-3954]!	; 0xfffff08e
     a48:	50797472 	rsbspl	r7, r9, r2, ror r4
     a4c:	65636f72 	strbvs	r6, [r3, #-3954]!	; 0xfffff08e
     a50:	54007373 	strpl	r7, [r0], #-883	; 0xfffffc8d
     a54:	455f4741 	ldrbmi	r4, [pc, #-1857]	; 31b <ARM_I_BIT+0x29b>
     a58:	55434558 	strbpl	r4, [r3, #-1368]	; 0xfffffaa8
     a5c:	435f4554 	cmpmi	pc, #84, 10	; 0x15000000
     a60:	0045444f 	subeq	r4, r5, pc, asr #8
     a64:	5f697072 	svcpl	0x00697072
     a68:	6c69616d 	stfvse	f6, [r9], #-436	; 0xfffffe4c
     a6c:	5f786f62 	svcpl	0x00786f62
     a70:	5f676174 	svcpl	0x00676174
     a74:	61740074 	cmnvs	r4, r4, ror r0
     a78:	75625f67 	strbvc	r5, [r2, #-3943]!	; 0xfffff099
     a7c:	72656666 	rsbvc	r6, r5, #106954752	; 0x6600000
     a80:	4f5f5400 	svcmi	0x005f5400
     a84:	4e454449 	cdpmi	4, 4, cr4, cr5, cr9, {2}
     a88:	41540054 	cmpmi	r4, r4, asr r0
     a8c:	45475f47 	strbmi	r5, [r7, #-3911]	; 0xfffff0b9
     a90:	4f435f54 	svcmi	0x00435f54
     a94:	4e414d4d 	cdpmi	13, 4, cr4, cr1, cr13, {2}
     a98:	494c5f44 	stmdbmi	ip, {r2, r6, r8, r9, sl, fp, ip, lr}^
     a9c:	5400454e 	strpl	r4, [r0], #-1358	; 0xfffffab2
     aa0:	475f4741 	ldrbmi	r4, [pc, -r1, asr #14]
     aa4:	425f5445 	subsmi	r5, pc, #1157627904	; 0x45000000
     aa8:	4452414f 	ldrbmi	r4, [r2], #-335	; 0xfffffeb1
     aac:	444f4d5f 	strbmi	r4, [pc], #-3423	; ab4 <SCTLR_ENABLE_BRANCH_PREDICTION+0x2b4>
     ab0:	54004c45 	strpl	r4, [r0], #-3141	; 0xfffff3bb
     ab4:	475f4741 	ldrbmi	r4, [pc, -r1, asr #14]
     ab8:	465f5445 	ldrbmi	r5, [pc], -r5, asr #8
     abc:	574d5249 	strbpl	r5, [sp, -r9, asr #4]
     ac0:	5f455241 	svcpl	0x00455241
     ac4:	53524556 	cmppl	r2, #360710144	; 0x15800000
     ac8:	004e4f49 	subeq	r4, lr, r9, asr #30
     acc:	66667562 	strbtvs	r7, [r6], -r2, ror #10
     ad0:	335f7265 	cmpcc	pc, #1342177286	; 0x50000006
     ad4:	41540032 	cmpmi	r4, r2, lsr r0
     ad8:	45475f47 	strbmi	r5, [r7, #-3911]	; 0xfffff0b9
     adc:	414d5f54 	cmpmi	sp, r4, asr pc
     ae0:	45545f58 	ldrbmi	r5, [r4, #-3928]	; 0xfffff0a8
     ae4:	5245504d 	subpl	r5, r5, #77	; 0x4d
     ae8:	52555441 	subspl	r5, r5, #1090519040	; 0x41000000
     aec:	5f540045 	svcpl	0x00540045
     af0:	4c41564f 	mcrrmi	6, 4, r5, r1, cr15
     af4:	535f4555 	cmppl	pc, #356515840	; 0x15400000
     af8:	00455a49 	subeq	r5, r5, r9, asr #20
     afc:	5f474154 	svcpl	0x00474154
     b00:	5f544553 	svcpl	0x00544553
     b04:	45584950 	ldrbmi	r4, [r8, #-2384]	; 0xfffff6b0
     b08:	524f5f4c 	subpl	r5, pc, #76, 30	; 0x130
     b0c:	00524544 	subseq	r4, r2, r4, asr #10
     b10:	5f474154 	svcpl	0x00474154
     b14:	4f4c4c41 	svcmi	0x004c4c41
     b18:	45544143 	ldrbmi	r4, [r4, #-323]	; 0xfffffebd
     b1c:	4d454d5f 	stclmi	13, cr4, [r5, #-380]	; 0xfffffe84
     b20:	0059524f 	subseq	r5, r9, pc, asr #4
     b24:	5f474154 	svcpl	0x00474154
     b28:	5f544547 	svcpl	0x00544547
     b2c:	5f58414d 	svcpl	0x0058414d
     b30:	544c4f56 	strbpl	r4, [ip], #-3926	; 0xfffff0aa
     b34:	00454741 	subeq	r4, r5, r1, asr #14
     b38:	5f474154 	svcpl	0x00474154
     b3c:	5f544553 	svcpl	0x00544553
     b40:	434f4c43 	movtmi	r4, #64579	; 0xfc43
     b44:	41525f4b 	cmpmi	r2, fp, asr #30
     b48:	54004554 	strpl	r4, [r0], #-1364	; 0xfffffaac
     b4c:	475f4741 	ldrbmi	r4, [pc, -r1, asr #14]
     b50:	435f5445 	cmpmi	pc, #1157627904	; 0x45000000
     b54:	4b434f4c 	blmi	10d488c <__kernel_end+0xf6e88c>
     b58:	4154535f 	cmpmi	r4, pc, asr r3
     b5c:	54004554 	strpl	r4, [r0], #-1364	; 0xfffffaac
     b60:	535f4741 	cmppl	pc, #17039360	; 0x1040000
     b64:	545f5445 	ldrbpl	r5, [pc], #-1093	; b6c <SCTLR_ENABLE_BRANCH_PREDICTION+0x36c>
     b68:	4f425255 	svcmi	0x00425255
     b6c:	4f5f5400 	svcmi	0x005f5400
     b70:	554c4156 	strbpl	r4, [ip, #-342]	; 0xfffffeaa
     b74:	41540045 	cmpmi	r4, r5, asr #32
     b78:	45535f47 	ldrbmi	r5, [r3, #-3911]	; 0xfffff0b9
     b7c:	41505f54 	cmpmi	r0, r4, asr pc
     b80:	5454454c 	ldrbpl	r4, [r4], #-1356	; 0xfffffab4
     b84:	41540045 	cmpmi	r4, r5, asr #32
     b88:	45535f47 	ldrbmi	r5, [r3, #-3911]	; 0xfffff0b9
     b8c:	4c415f54 	mcrrmi	15, 5, r5, r1, cr4
     b90:	5f414850 	svcpl	0x00414850
     b94:	45444f4d 	strbmi	r4, [r4, #-3917]	; 0xfffff0b3
     b98:	47415400 	strbmi	r5, [r1, -r0, lsl #8]
     b9c:	5445535f 	strbpl	r5, [r5], #-863	; 0xfffffca1
     ba0:	5255435f 	subspl	r4, r5, #2080374785	; 0x7c000001
     ba4:	5f524f53 	svcpl	0x00524f53
     ba8:	54415453 	strbpl	r5, [r1], #-1107	; 0xfffffbad
     bac:	41540045 	cmpmi	r4, r5, asr #32
     bb0:	45475f47 	strbmi	r5, [r7, #-3911]	; 0xfffff0b9
     bb4:	494d5f54 	stmdbmi	sp, {r2, r4, r6, r8, r9, sl, fp, ip, lr}^
     bb8:	4f565f4e 	svcmi	0x00565f4e
     bbc:	4741544c 	strbmi	r5, [r1, -ip, asr #8]
     bc0:	41540045 	cmpmi	r4, r5, asr #32
     bc4:	45475f47 	strbmi	r5, [r7, #-3911]	; 0xfffff0b9
     bc8:	4c435f54 	mcrrmi	15, 5, r5, r3, cr4
     bcc:	534b434f 	movtpl	r4, #45903	; 0xb34f
     bd0:	47415400 	strbmi	r5, [r1, -r0, lsl #8]
     bd4:	5445535f 	strbpl	r5, [r5], #-863	; 0xfffffca1
     bd8:	45564f5f 	ldrbmi	r4, [r6, #-3935]	; 0xfffff0a1
     bdc:	41435352 	cmpmi	r3, r2, asr r3
     be0:	656d004e 	strbvs	r0, [sp, #-78]!	; 0xffffffb2
     be4:	7970636d 	ldmdbvc	r0!, {r0, r2, r3, r5, r6, r8, r9, sp, lr}^
     be8:	615f5f00 	cmpvs	pc, r0, lsl #30
     bec:	61760070 	cmnvs	r6, r0, ror r0
     bf0:	5f65756c 	svcpl	0x0065756c
     bf4:	54003233 	strpl	r3, [r0], #-563	; 0xfffffdcd
     bf8:	545f4741 	ldrbpl	r4, [pc], #-1857	; c00 <SCTLR_ENABLE_BRANCH_PREDICTION+0x400>
     bfc:	5f545345 	svcpl	0x00545345
     c00:	54524956 	ldrbpl	r4, [r2], #-2390	; 0xfffff6aa
     c04:	5f4c4155 	svcpl	0x004c4155
     c08:	455a4953 	ldrbmi	r4, [sl, #-2387]	; 0xfffff6ad
     c0c:	49505200 	ldmdbmi	r0, {r9, ip, lr}^
     c10:	6f72505f 	svcvs	0x0072505f
     c14:	74726570 	ldrbtvc	r6, [r2], #-1392	; 0xfffffa90
     c18:	74654779 	strbtvc	r4, [r5], #-1913	; 0xfffff887
     c1c:	47415400 	strbmi	r5, [r1, -r0, lsl #8]
     c20:	5345545f 	movtpl	r5, #21599	; 0x545f
     c24:	45445f54 	strbmi	r5, [r4, #-3924]	; 0xfffff0ac
     c28:	00485450 	subeq	r5, r8, r0, asr r4
     c2c:	5f474154 	svcpl	0x00474154
     c30:	5f544547 	svcpl	0x00544547
     c34:	50534944 	subspl	r4, r3, r4, asr #18
     c38:	584e414d 	stmdapl	lr, {r0, r2, r3, r6, r8, lr}^
     c3c:	4d454d5f 	stclmi	13, cr4, [r5, #-380]	; 0xfffffe84
     c40:	4e41485f 	mcrmi	8, 2, r4, cr1, cr15, {2}
     c44:	00454c44 	subeq	r4, r5, r4, asr #24
     c48:	695f7470 	ldmdbvs	pc, {r4, r5, r6, sl, ip, sp, lr}^	; <UNPREDICTABLE>
     c4c:	7865646e 	stmdavc	r5!, {r1, r2, r3, r5, r6, sl, sp, lr}^
     c50:	63726100 	cmnvs	r2, #0, 2
     c54:	72612f68 	rsbvc	r2, r1, #104, 30	; 0x1a0
     c58:	70722f6d 	rsbsvc	r2, r2, sp, ror #30
     c5c:	616d2d69 	cmnvs	sp, r9, ror #26
     c60:	6f626c69 	svcvs	0x00626c69
     c64:	6e692d78 	mcrvs	13, 3, r2, cr9, cr8, {3}
     c68:	66726574 			; <UNDEFINED> instruction: 0x66726574
     c6c:	2e656361 	cdpcs	3, 6, cr6, cr5, cr1, {3}
     c70:	41540063 	cmpmi	r4, r3, rrx
     c74:	4e555f47 	cdpmi	15, 5, cr5, cr5, cr7, {2}
     c78:	4b434f4c 	blmi	10d49b0 <__kernel_end+0xf6e9b0>
     c7c:	4d454d5f 	stclmi	13, cr4, [r5, #-380]	; 0xfffffe84
     c80:	0059524f 	subseq	r5, r9, pc, asr #4
     c84:	5f474154 	svcpl	0x00474154
     c88:	5f544547 	svcpl	0x00544547
     c8c:	52414f42 	subpl	r4, r1, #264	; 0x108
     c90:	414d5f44 	cmpmi	sp, r4, asr #30
     c94:	44415f43 	strbmi	r5, [r1], #-3907	; 0xfffff0bd
     c98:	53455244 	movtpl	r5, #21060	; 0x5244
     c9c:	41540053 	cmpmi	r4, r3, asr r0
     ca0:	45475f47 	strbmi	r5, [r7, #-3911]	; 0xfffff0b9
     ca4:	55545f54 	ldrbpl	r5, [r4, #-3924]	; 0xfffff0ac
     ca8:	004f4252 	subeq	r4, pc, r2, asr r2	; <UNPREDICTABLE>
     cac:	5f474154 	svcpl	0x00474154
     cb0:	5f544547 	svcpl	0x00544547
     cb4:	5f414d44 	svcpl	0x00414d44
     cb8:	4e414843 	cdpmi	8, 4, cr4, cr1, cr3, {2}
     cbc:	534c454e 	movtpl	r4, #50510	; 0xc54e
     cc0:	4f5f5400 	svcmi	0x005f5400
     cc4:	50534552 	subspl	r4, r3, r2, asr r5
     cc8:	45534e4f 	ldrbmi	r4, [r3, #-3663]	; 0xfffff1b1
     ccc:	47415400 	strbmi	r5, [r1, -r0, lsl #8]
     cd0:	5345545f 	movtpl	r5, #21599	; 0x545f
     cd4:	48505f54 	ldmdami	r0, {r2, r4, r6, r8, r9, sl, fp, ip, lr}^
     cd8:	43495359 	movtmi	r5, #37721	; 0x9359
     cdc:	535f4c41 	cmppl	pc, #16640	; 0x4100
     ce0:	00455a49 	subeq	r5, r5, r9, asr #20
     ce4:	5f474154 	svcpl	0x00474154
     ce8:	5f544547 	svcpl	0x00544547
     cec:	45574f50 	ldrbmi	r4, [r7, #-3920]	; 0xfffff0b0
     cf0:	54535f52 	ldrbpl	r5, [r3], #-3922	; 0xfffff0ae
     cf4:	00455441 	subeq	r5, r5, r1, asr #8
     cf8:	75736572 	ldrbvc	r6, [r3, #-1394]!	; 0xfffffa8e
     cfc:	5400746c 	strpl	r7, [r0], #-1132	; 0xfffffb94
     d00:	475f4741 	ldrbmi	r4, [pc, -r1, asr #14]
     d04:	545f5445 	ldrbpl	r5, [pc], #-1093	; d0c <SCTLR_ENABLE_BRANCH_PREDICTION+0x50c>
     d08:	4e494d49 	cdpmi	13, 4, cr4, cr9, cr9, {2}
     d0c:	69740047 	ldmdbvs	r4!, {r0, r1, r2, r6}^
     d10:	3072656d 	rsbscc	r6, r2, sp, ror #10
     d14:	6d697400 	cfstrdvs	mvd7, [r9, #-0]
     d18:	00317265 	eorseq	r7, r1, r5, ror #4
     d1c:	656d6974 	strbvs	r6, [sp, #-2420]!	; 0xfffff68c
     d20:	74003272 	strvc	r3, [r0], #-626	; 0xfffffd8e
     d24:	72656d69 	rsbvc	r6, r5, #6720	; 0x1a40
     d28:	69750033 	ldmdbvs	r5!, {r0, r1, r4, r5}^
     d2c:	3436746e 	ldrtcc	r7, [r6], #-1134	; 0xfffffb92
     d30:	7400745f 	strvc	r7, [r0], #-1119	; 0xfffffba1
     d34:	72656d69 	rsbvc	r6, r5, #6720	; 0x1a40
     d38:	616d5f30 	cmnvs	sp, r0, lsr pc
     d3c:	65686374 	strbvs	r6, [r8, #-884]!	; 0xfffffc8c
     d40:	69740064 	ldmdbvs	r4!, {r2, r5, r6}^
     d44:	5f72656d 	svcpl	0x0072656d
     d48:	00746573 	rsbseq	r6, r4, r3, ror r5
     d4c:	56736572 			; <UNDEFINED> instruction: 0x56736572
     d50:	75006c61 	strvc	r6, [r0, #-3169]	; 0xfffff39f
     d54:	616c6564 	cmnvs	ip, r4, ror #10
     d58:	69740079 	ldmdbvs	r4!, {r0, r3, r4, r5, r6}^
     d5c:	5f72656d 	svcpl	0x0072656d
     d60:	73676572 	cmnvc	r7, #478150656	; 0x1c800000
     d64:	776f6c00 	strbvc	r6, [pc, -r0, lsl #24]!
     d68:	6e756f43 	cdpvs	15, 7, cr6, cr5, cr3, {2}
     d6c:	69740074 	ldmdbvs	r4!, {r2, r4, r5, r6}^
     d70:	5f72656d 	svcpl	0x0072656d
     d74:	54746567 	ldrbtpl	r6, [r4], #-1383	; 0xfffffa99
     d78:	436b6369 	cmnmi	fp, #-1543503871	; 0xa4000001
     d7c:	746e756f 	strbtvc	r7, [lr], #-1391	; 0xfffffa91
     d80:	63003436 	movwvs	r3, #1078	; 0x436
     d84:	746e756f 	strbtvc	r7, [lr], #-1391	; 0xfffffa91
     d88:	685f7265 	ldmdavs	pc, {r0, r2, r5, r6, r9, ip, sp, lr}^	; <UNPREDICTABLE>
     d8c:	00686769 	rsbeq	r6, r8, r9, ror #14
     d90:	656d6974 	strbvs	r6, [sp, #-2420]!	; 0xfffff68c
     d94:	6d5f3272 	lfmvs	f3, 2, [pc, #-456]	; bd4 <SCTLR_ENABLE_BRANCH_PREDICTION+0x3d4>
     d98:	68637461 	stmdavs	r3!, {r0, r5, r6, sl, ip, sp, lr}^
     d9c:	75006465 	strvc	r6, [r0, #-1125]	; 0xfffffb9b
     da0:	73636573 	cmnvc	r3, #482344960	; 0x1cc00000
     da4:	6d697400 	cfstrdvs	mvd7, [r9, #-0]
     da8:	5f337265 	svcpl	0x00337265
     dac:	6374616d 	cmnvs	r4, #1073741851	; 0x4000001b
     db0:	00646568 	rsbeq	r6, r4, r8, ror #10
     db4:	6e756f63 	cdpvs	15, 7, cr6, cr5, cr3, {3}
     db8:	5f726574 	svcpl	0x00726574
     dbc:	00776f6c 	rsbseq	r6, r7, ip, ror #30
     dc0:	68637261 	stmdavs	r3!, {r0, r5, r6, r9, ip, sp, lr}^
     dc4:	6d72612f 	ldfvse	f6, [r2, #-188]!	; 0xffffff44
     dc8:	7379732f 	cmnvc	r9, #-1140850688	; 0xbc000000
     dcc:	656d6974 	strbvs	r6, [sp, #-2420]!	; 0xfffff68c
     dd0:	00632e72 	rsbeq	r2, r3, r2, ror lr
     dd4:	68676968 	stmdavs	r7!, {r3, r5, r6, r8, fp, sp, lr}^
     dd8:	6e756f43 	cdpvs	15, 7, cr6, cr5, cr3, {2}
     ddc:	75630074 	strbvc	r0, [r3, #-116]!	; 0xffffff8c
     de0:	74007272 	strvc	r7, [r0], #-626	; 0xfffffd8e
     de4:	72656d69 	rsbvc	r6, r5, #6720	; 0x1a40
     de8:	7465675f 	strbtvc	r6, [r5], #-1887	; 0xfffff8a1
     dec:	6b636954 	blvs	18db344 <__kernel_end+0x1775344>
     df0:	6e756f43 	cdpvs	15, 7, cr6, cr5, cr3, {2}
     df4:	00323374 	eorseq	r3, r2, r4, ror r3
     df8:	6e756f63 	cdpvs	15, 7, cr6, cr5, cr3, {3}
     dfc:	69740074 	ldmdbvs	r4!, {r2, r4, r5, r6}^
     e00:	5f72656d 	svcpl	0x0072656d
     e04:	69676572 	stmdbvs	r7!, {r1, r4, r5, r6, r8, sl, sp, lr}^
     e08:	72657473 	rsbvc	r7, r5, #1929379840	; 0x73000000
     e0c:	00745f73 	rsbseq	r5, r4, r3, ror pc
     e10:	656d6974 	strbvs	r6, [sp, #-2420]!	; 0xfffff68c
     e14:	6f635f72 	svcvs	0x00635f72
     e18:	6f72746e 	svcvs	0x0072746e
     e1c:	65725f6c 	ldrbvs	r5, [r2, #-3948]!	; 0xfffff094
     e20:	00745f67 	rsbseq	r5, r4, r7, ror #30
     e24:	65736572 	ldrbvs	r6, [r3, #-1394]!	; 0xfffffa8e
     e28:	64657672 	strbtvs	r7, [r5], #-1650	; 0xfffff98e
     e2c:	6d697400 	cfstrdvs	mvd7, [r9, #-0]
     e30:	5f317265 	svcpl	0x00317265
     e34:	6374616d 	cmnvs	r4, #1073741851	; 0x4000001b
     e38:	00646568 	rsbeq	r6, r4, r8, ror #10
     e3c:	72617473 	rsbvc	r7, r1, #1929379840	; 0x73000000
     e40:	6d6d5f74 	stclvs	15, cr5, [sp, #-464]!	; 0xfffffe30
     e44:	6c660075 	stclvs	0, cr0, [r6], #-468	; 0xfffffe2c
     e48:	00736761 	rsbseq	r6, r3, r1, ror #14
     e4c:	74696e69 	strbtvc	r6, [r9], #-3689	; 0xfffff197
     e50:	696c6169 	stmdbvs	ip!, {r0, r3, r5, r6, r8, sp, lr}^
     e54:	765f657a 			; <UNDEFINED> instruction: 0x765f657a
     e58:	75747269 	ldrbvc	r7, [r4, #-617]!	; 0xfffffd97
     e5c:	6d5f6c61 	ldclvs	12, cr6, [pc, #-388]	; ce0 <SCTLR_ENABLE_BRANCH_PREDICTION+0x4e0>
     e60:	726f6d65 	rsbvc	r6, pc, #6464	; 0x1940
     e64:	61740079 	cmnvs	r4, r9, ror r0
     e68:	31656c62 	cmncc	r5, r2, ror #24
     e6c:	72746e45 	rsbsvc	r6, r4, #1104	; 0x450
     e70:	66664f79 	uqsub16vs	r4, r6, r9
     e74:	00746573 	rsbseq	r6, r4, r3, ror r5
     e78:	6c626174 	stfvse	f6, [r2], #-464	; 0xfffffe30
     e7c:	746e4565 	strbtvc	r4, [lr], #-1381	; 0xfffffa9b
     e80:	50007972 	andpl	r7, r0, r2, ror r9
     e84:	32335455 	eorscc	r5, r3, #1426063360	; 0x55000000
     e88:	6d656d00 	stclvs	13, cr6, [r5, #-0]
     e8c:	7269762f 	rsbvc	r7, r9, #49283072	; 0x2f00000
     e90:	6d656d74 	stclvs	13, cr6, [r5, #-464]!	; 0xfffffe30
     e94:	7400632e 	strvc	r6, [r0], #-814	; 0xfffffcd2
     e98:	656c6261 	strbvs	r6, [ip, #-609]!	; 0xfffffd9f
     e9c:	746e4531 	strbtvc	r4, [lr], #-1329	; 0xfffffacf
     ea0:	64417972 	strbvs	r7, [r1], #-2418	; 0xfffff68e
     ea4:	73657264 	cmnvc	r5, #100, 4	; 0x40000006
     ea8:	6d6d0073 	stclvs	0, cr0, [sp, #-460]!	; 0xfffffe34
     eac:	65735f75 	ldrbvs	r5, [r3, #-3957]!	; 0xfffff08b
     eb0:	6f697463 	svcvs	0x00697463
     eb4:	6176006e 	cmnvs	r6, lr, rrx
     eb8:	5f006464 	svcpl	0x00006464
     ebc:	72656b5f 	rsbvc	r6, r5, #97280	; 0x17c00
     ec0:	5f6c656e 	svcpl	0x006c656e
     ec4:	00646e65 	rsbeq	r6, r4, r5, ror #28
     ec8:	54554d4d 	ldrbpl	r4, [r5], #-3405	; 0xfffff2b3
     ecc:	454c4241 	strbmi	r4, [ip, #-577]	; 0xfffffdbf
     ed0:	45534142 	ldrbmi	r4, [r3, #-322]	; 0xfffffebe
     ed4:	665f5f00 	ldrbvs	r5, [pc], -r0, lsl #30
     ed8:	74737269 	ldrbtvc	r7, [r3], #-617	; 0xfffffd97
     edc:	6c766c5f 	ldclvs	12, cr6, [r6], #-380	; 0xfffffe84
     ee0:	6c62745f 	cfstrdvs	mvd7, [r2], #-380	; 0xfffffe84
     ee4:	7361625f 	cmnvc	r1, #-268435451	; 0xf0000005
     ee8:	61700065 	cmnvs	r0, r5, rrx
     eec:	67006464 	strvs	r6, [r0, -r4, ror #8]
     ef0:	6e5f7465 	cdpvs	4, 5, cr7, cr15, cr5, {3}
     ef4:	6f5f6d75 	svcvs	0x005f6d75
     ef8:	72665f66 	rsbvc	r5, r6, #408	; 0x198
     efc:	705f6565 	subsvc	r6, pc, r5, ror #10
     f00:	73656761 	cmnvc	r5, #25427968	; 0x1840000
     f04:	67617000 	strbvs	r7, [r1, -r0]!
     f08:	73696c65 	cmnvc	r9, #25856	; 0x6500
     f0c:	6c610074 	stclvs	0, cr0, [r1], #-464	; 0xfffffe30
     f10:	5f636f6c 	svcpl	0x00636f6c
     f14:	65676170 	strbvs	r6, [r7, #-368]!	; 0xfffffe90
     f18:	72656b00 	rsbvc	r6, r5, #0, 22
     f1c:	5f6c656e 	svcpl	0x006c656e
     f20:	65676170 	strbvs	r6, [r7, #-368]!	; 0xfffffe90
     f24:	61700073 	cmnvs	r0, r3, ror r0
     f28:	615f6567 	cmpvs	pc, r7, ror #10
     f2c:	79617272 	stmdbvc	r1!, {r1, r4, r5, r6, r9, ip, sp, lr}^
     f30:	6e656c5f 	mcrvs	12, 3, r6, cr5, cr15, {2}
     f34:	65657000 	strbvs	r7, [r5, #-0]!
     f38:	61705f6b 	cmnvs	r0, fp, ror #30
     f3c:	6c5f6567 	cfldr64vs	mvdx6, [pc], {103}	; 0x67
     f40:	00747369 	rsbseq	r7, r4, r9, ror #6
     f44:	5f746567 	svcpl	0x00746567
     f48:	5f6d656d 	svcpl	0x006d656d
     f4c:	657a6973 	ldrbvs	r6, [sl, #-2419]!	; 0xfffff68d
     f50:	67617000 	strbvs	r7, [r1, -r0]!
     f54:	6c665f65 	stclvs	15, cr5, [r6], #-404	; 0xfffffe6c
     f58:	5f736761 	svcpl	0x00736761
     f5c:	61700074 	cmnvs	r0, r4, ror r0
     f60:	745f6567 	ldrbvc	r6, [pc], #-1383	; f68 <SCTLR_ENABLE_BRANCH_PREDICTION+0x768>
     f64:	78656e00 	stmdavc	r5!, {r9, sl, fp, sp, lr}^
     f68:	67617074 			; <UNDEFINED> instruction: 0x67617074
     f6c:	72660065 	rsbvc	r0, r6, #101	; 0x65
     f70:	705f6565 	subsvc	r6, pc, r5, ror #10
     f74:	00656761 	rsbeq	r6, r5, r1, ror #14
     f78:	6c696174 	stfvse	f6, [r9], #-464	; 0xfffffe30
     f7c:	78656e00 	stmdavc	r5!, {r9, sl, fp, sp, lr}^
     f80:	61705f74 	cmnvs	r0, r4, ror pc
     f84:	6c5f6567 	cfldr64vs	mvdx6, [pc], {103}	; 0x67
     f88:	00747369 	rsbseq	r7, r4, r9, ror #6
     f8c:	65646f6e 	strbvs	r6, [r4, #-3950]!	; 0xfffff092
     f90:	72656b00 	rsbvc	r6, r5, #0, 22
     f94:	5f6c656e 	svcpl	0x006c656e
     f98:	65676170 	strbvs	r6, [r7, #-368]!	; 0xfffffe90
     f9c:	73757000 	cmnvc	r5, #0
     fa0:	61705f68 	cmnvs	r0, r8, ror #30
     fa4:	6c5f6567 	cfldr64vs	mvdx6, [pc], {103}	; 0x67
     fa8:	00747369 	rsbseq	r7, r4, r9, ror #6
     fac:	5f6d656d 	svcpl	0x006d656d
     fb0:	74696e69 	strbtvc	r6, [r9], #-3689	; 0xfffff197
     fb4:	6d656d00 	stclvs	13, cr6, [r5, #-0]
     fb8:	7968702f 	stmdbvc	r8!, {r0, r1, r2, r3, r5, ip, sp, lr}^
     fbc:	6d656d73 	stclvs	13, cr6, [r5, #-460]!	; 0xfffffe34
     fc0:	7000632e 	andvc	r6, r0, lr, lsr #6
     fc4:	705f706f 	subsvc	r7, pc, pc, rrx
     fc8:	5f656761 	svcpl	0x00656761
     fcc:	7473696c 	ldrbtvc	r6, [r3], #-2412	; 0xfffff694
     fd0:	61656800 	cmnvs	r5, r0, lsl #16
     fd4:	61700064 	cmnvs	r0, r4, rrx
     fd8:	6c5f6567 	cfldr64vs	mvdx6, [pc], {103}	; 0x67
     fdc:	5f747369 	svcpl	0x00747369
     fe0:	756e0074 	strbvc	r0, [lr, #-116]!	; 0xffffff8c
     fe4:	61705f6d 	cmnvs	r0, sp, ror #30
     fe8:	00736567 	rsbseq	r6, r3, r7, ror #10
     fec:	5f6d7261 	svcpl	0x006d7261
     ff0:	5f6d656d 	svcpl	0x006d656d
     ff4:	657a6973 	ldrbvs	r6, [sl, #-2419]!	; 0xfffff68d
     ff8:	64617600 	strbtvs	r7, [r1], #-1536	; 0xfffffa00
     ffc:	6d5f7264 	lfmvs	f7, 2, [pc, #-400]	; e74 <SCTLR_ENABLE_BRANCH_PREDICTION+0x674>
    1000:	65707061 	ldrbvs	r7, [r0, #-97]!	; 0xffffff9f
    1004:	6c610064 	stclvs	0, cr0, [r1], #-400	; 0xfffffe70
    1008:	61636f6c 	cmnvs	r3, ip, ror #30
    100c:	00646574 	rsbeq	r6, r4, r4, ror r5
    1010:	657a6973 	ldrbvs	r6, [sl, #-2419]!	; 0xfffff68d
    1014:	6761705f 			; <UNDEFINED> instruction: 0x6761705f
    1018:	696c5f65 	stmdbvs	ip!, {r0, r2, r5, r6, r8, r9, sl, fp, ip, lr}^
    101c:	61007473 	tstvs	r0, r3, ror r4
    1020:	6e657070 	mcrvs	0, 3, r7, cr5, cr0, {3}
    1024:	61705f64 	cmnvs	r0, r4, ror #30
    1028:	6c5f6567 	cfldr64vs	mvdx6, [pc], {103}	; 0x67
    102c:	00747369 	rsbseq	r7, r4, r9, ror #6
    1030:	65676170 	strbvs	r6, [r7, #-368]!	; 0xfffffe90
    1034:	6d656d5f 	stclvs	13, cr6, [r5, #-380]!	; 0xfffffe84
    1038:	65727000 	ldrbvs	r7, [r2, #-0]!
    103c:	67617076 			; <UNDEFINED> instruction: 0x67617076
    1040:	6c610065 	stclvs	0, cr0, [r1], #-404	; 0xfffffe6c
    1044:	61705f6c 	cmnvs	r0, ip, ror #30
    1048:	5f736567 	svcpl	0x00736567
    104c:	61727261 	cmnvs	r2, r1, ror #4
    1050:	6d6d0079 	stclvs	0, cr0, [sp, #-484]!	; 0xfffffe1c
    1054:	775f6f69 	ldrbvc	r6, [pc, -r9, ror #30]
    1058:	65746972 	ldrbvs	r6, [r4, #-2418]!	; 0xfffff68e
    105c:	696d6d00 	stmdbvs	sp!, {r8, sl, fp, sp, lr}^
    1060:	65725f6f 	ldrbvs	r5, [r2, #-3951]!	; 0xfffff091
    1064:	55006461 	strpl	r6, [r0, #-1121]	; 0xfffffb9f
    1068:	30545241 	subscc	r5, r4, r1, asr #4
    106c:	53494d5f 	movtpl	r4, #40287	; 0x9d5f
    1070:	52415500 	subpl	r5, r1, #0, 10
    1074:	445f3054 	ldrbmi	r3, [pc], #-84	; 107c <SCTLR_ENABLE_INSTRUCTION_CACHE+0x7c>
    1078:	41550052 	cmpmi	r5, r2, asr r0
    107c:	5f305452 	svcpl	0x00305452
    1080:	45534142 	ldrbmi	r4, [r3, #-322]	; 0xfffffebe
    1084:	52415500 	subpl	r5, r1, #0, 10
    1088:	495f3054 	ldmdbmi	pc, {r2, r4, r6, ip, sp}^	; <UNPREDICTABLE>
    108c:	00504f54 	subseq	r4, r0, r4, asr pc
    1090:	55505047 	ldrbpl	r5, [r0, #-71]	; 0xffffffb9
    1094:	4b4c4344 	blmi	1311dac <__kernel_end+0x11abdac>
    1098:	61750030 	cmnvs	r5, r0, lsr r0
    109c:	695f7472 	ldmdbvs	pc, {r1, r4, r5, r6, sl, ip, sp, lr}^	; <UNPREDICTABLE>
    10a0:	0074696e 	rsbseq	r6, r4, lr, ror #18
    10a4:	55505047 	ldrbpl	r5, [r0, #-71]	; 0xffffffb9
    10a8:	61750044 	cmnvs	r5, r4, asr #32
    10ac:	675f7472 			; <UNDEFINED> instruction: 0x675f7472
    10b0:	00637465 	rsbeq	r7, r3, r5, ror #8
    10b4:	54524155 	ldrbpl	r4, [r2], #-341	; 0xfffffeab
    10b8:	42495f30 	submi	r5, r9, #48, 30	; 0xc0
    10bc:	55004452 	strpl	r4, [r0, #-1106]	; 0xfffffbae
    10c0:	30545241 	subscc	r5, r4, r1, asr #4
    10c4:	0052465f 	subseq	r4, r2, pc, asr r6
    10c8:	54524155 	ldrbpl	r4, [r2], #-341	; 0xfffffeab
    10cc:	434c5f30 	movtmi	r5, #53040	; 0xcf30
    10d0:	55004852 	strpl	r4, [r0, #-2130]	; 0xfffff7ae
    10d4:	30545241 	subscc	r5, r4, r1, asr #4
    10d8:	5349525f 	movtpl	r5, #37471	; 0x925f
    10dc:	52415500 	subpl	r5, r1, #0, 10
    10e0:	495f3054 	ldmdbmi	pc, {r2, r4, r6, ip, sp}^	; <UNPREDICTABLE>
    10e4:	64005243 	strvs	r5, [r0], #-579	; 0xfffffdbd
    10e8:	63697665 	cmnvs	r9, #105906176	; 0x6500000
    10ec:	61752f65 	cmnvs	r5, r5, ror #30
    10f0:	2e307472 	mrccs	4, 1, r7, cr0, cr2, {3}
    10f4:	41550063 	cmpmi	r5, r3, rrx
    10f8:	5f305452 	svcpl	0x00305452
    10fc:	45525352 	ldrbmi	r5, [r2, #-850]	; 0xfffffcae
    1100:	55005243 	strpl	r5, [r0, #-579]	; 0xfffffdbd
    1104:	30545241 	subscc	r5, r4, r1, asr #4
    1108:	414d445f 	cmpmi	sp, pc, asr r4
    110c:	55005243 	strpl	r5, [r0, #-579]	; 0xfffffdbd
    1110:	30545241 	subscc	r5, r4, r1, asr #4
    1114:	534d495f 	movtpl	r4, #55647	; 0xd95f
    1118:	41550043 	cmpmi	r5, r3, asr #32
    111c:	5f305452 	svcpl	0x00305452
    1120:	534c4649 	movtpl	r4, #50761	; 0xc649
    1124:	78656800 	stmdavc	r5!, {fp, sp, lr}^
    1128:	69727473 	ldmdbvs	r2!, {r0, r1, r4, r5, r6, sl, ip, sp, lr}^
    112c:	0073676e 	rsbseq	r6, r3, lr, ror #14
    1130:	4f495047 	svcmi	0x00495047
    1134:	5341425f 	movtpl	r4, #4703	; 0x125f
    1138:	41550045 	cmpmi	r5, r5, asr #32
    113c:	5f305452 	svcpl	0x00305452
    1140:	55005243 	strpl	r5, [r0, #-579]	; 0xfffffdbd
    1144:	30545241 	subscc	r5, r4, r1, asr #4
    1148:	4354495f 	cmpmi	r4, #1556480	; 0x17c000
    114c:	41550052 	cmpmi	r5, r2, asr r0
    1150:	5f305452 	svcpl	0x00305452
    1154:	00524454 	subseq	r4, r2, r4, asr r4
    1158:	54524155 	ldrbpl	r4, [r2], #-341	; 0xfffffeab
    115c:	42465f30 	submi	r5, r6, #48, 30	; 0xc0
    1160:	55004452 	strpl	r4, [r0, #-1106]	; 0xfffffbae
    1164:	30545241 	subscc	r5, r4, r1, asr #4
    1168:	504c495f 	subpl	r4, ip, pc, asr r9
    116c:	61750052 	cmnvs	r5, r2, asr r0
    1170:	705f7472 	subsvc	r7, pc, r2, ror r4	; <UNPREDICTABLE>
    1174:	00637475 	rsbeq	r7, r3, r5, ror r4
    1178:	54524155 	ldrbpl	r4, [r2], #-341	; 0xfffffeab
    117c:	54495f30 	strbpl	r5, [r9], #-3888	; 0xfffff0d0
    1180:	64005049 	strvs	r5, [r0], #-73	; 0xffffffb7
    1184:	00747365 	rsbseq	r7, r4, r5, ror #6
    1188:	7478656e 	ldrbtvc	r6, [r8], #-1390	; 0xfffffa92
    118c:	42454400 	submi	r4, r5, #0, 8
    1190:	73004755 	movwvc	r4, #1877	; 0x755
    1194:	5f776f68 	svcpl	0x00776f68
    1198:	5f616d64 	svcpl	0x00616d64
    119c:	6f6d6564 	svcvs	0x006d6564
    11a0:	74736400 	ldrbtvc	r6, [r3], #-1024	; 0xfffffc00
    11a4:	6464615f 	strbtvs	r6, [r4], #-351	; 0xfffffea1
    11a8:	6d640072 	stclvs	0, cr0, [r4, #-456]!	; 0xfffffe38
    11ac:	65645f61 	strbvs	r5, [r4, #-3937]!	; 0xfffff09f
    11b0:	705f7473 	subsvc	r7, pc, r3, ror r4	; <UNPREDICTABLE>
    11b4:	5f656761 	svcpl	0x00656761
    11b8:	6d640031 	stclvs	0, cr0, [r4, #-196]!	; 0xffffff3c
    11bc:	65645f61 	strbvs	r5, [r4, #-3937]!	; 0xfffff09f
    11c0:	705f7473 	subsvc	r7, pc, r3, ror r4	; <UNPREDICTABLE>
    11c4:	5f656761 	svcpl	0x00656761
    11c8:	4f530032 	svcmi	0x00530032
    11cc:	45435255 	strbmi	r5, [r3, #-597]	; 0xfffffdab
    11d0:	0044415f 	subeq	r4, r4, pc, asr r1
    11d4:	69766564 	ldmdbvs	r6!, {r2, r5, r6, r8, sl, sp, lr}^
    11d8:	642f6563 	strtvs	r6, [pc], #-1379	; 11e0 <SCTLR_ENABLE_INSTRUCTION_CACHE+0x1e0>
    11dc:	632e616d 			; <UNDEFINED> instruction: 0x632e616d
    11e0:	69727000 	ldmdbvs	r2!, {ip, sp, lr}^
    11e4:	615f746e 	cmpvs	pc, lr, ror #8
    11e8:	00616572 	rsbeq	r6, r1, r2, ror r5
    11ec:	5f637273 	svcpl	0x00637273
    11f0:	72646461 	rsbvc	r6, r4, #1627389952	; 0x61000000
    11f4:	616d6400 	cmnvs	sp, r0, lsl #8
    11f8:	6372735f 	cmnvs	r2, #2080374785	; 0x7c000001
    11fc:	6761705f 			; <UNDEFINED> instruction: 0x6761705f
    1200:	00315f65 	eorseq	r5, r1, r5, ror #30
    1204:	5f616d64 	svcpl	0x00616d64
    1208:	72695f30 	rsbvc	r5, r9, #48, 30	; 0xc0
    120c:	6c635f71 	stclvs	15, cr5, [r3], #-452	; 0xfffffe3c
    1210:	65726165 	ldrbvs	r6, [r2, #-357]!	; 0xfffffe9b
    1214:	54530072 	ldrbpl	r0, [r3], #-114	; 0xffffff8e
    1218:	45444952 	strbmi	r4, [r4, #-2386]	; 0xfffff6ae
    121c:	53454400 	movtpl	r4, #21504	; 0x5400
    1220:	44415f54 	strbmi	r5, [r1], #-3924	; 0xfffff0ac
    1224:	616d6400 	cmnvs	sp, r0, lsl #8
    1228:	5f62635f 	svcpl	0x0062635f
    122c:	65676170 	strbvs	r6, [r7, #-368]!	; 0xfffffe90
    1230:	69727700 	ldmdbvs	r2!, {r8, r9, sl, ip, sp, lr}^
    1234:	69426574 	stmdbvs	r2, {r2, r4, r5, r6, r8, sl, sp, lr}^
    1238:	73616d74 	cmnvc	r1, #116, 26	; 0x1d00
    123c:	0064656b 	rsbeq	r6, r4, fp, ror #10
    1240:	52465854 	subpl	r5, r6, #84, 16	; 0x540000
    1244:	4e454c5f 	mcrmi	12, 2, r4, cr5, cr15, {2}
    1248:	58454e00 	stmdapl	r5, {r9, sl, fp, lr}^
    124c:	4e4f4354 	mcrmi	3, 2, r4, cr15, cr4, {2}
    1250:	64004b42 	strvs	r4, [r0], #-2882	; 0xfffff4be
    1254:	6843616d 	stmdavs	r3, {r0, r2, r3, r5, r6, r8, sp, lr}^
    1258:	006d754e 	rsbeq	r7, sp, lr, asr #10
    125c:	69727473 	ldmdbvs	r2!, {r0, r1, r4, r5, r6, sl, ip, sp, lr}^
    1260:	64006564 	strvs	r6, [r0], #-1380	; 0xfffffa9c
    1264:	6548616d 	strbvs	r6, [r8, #-365]	; 0xfffffe93
    1268:	72656461 	rsbvc	r6, r5, #1627389952	; 0x61000000
    126c:	6d636200 	sfmvs	f6, 2, [r3, #-0]
    1270:	35333832 	ldrcc	r3, [r3, #-2098]!	; 0xfffff7ce
    1274:	616d645f 	cmnvs	sp, pc, asr r4
    1278:	0062635f 	rsbeq	r6, r2, pc, asr r3
    127c:	424e4f43 	submi	r4, lr, #268	; 0x10c
    1280:	415f4b4c 	cmpmi	pc, ip, asr #22
    1284:	6d640044 	stclvs	0, cr0, [r4, #-272]!	; 0xfffffef0
    1288:	73614261 	cmnvc	r1, #268435462	; 0x10000006
    128c:	6d654d65 	stclvs	13, cr4, [r5, #-404]!	; 0xfffffe6c
    1290:	74616400 	strbtvc	r6, [r1], #-1024	; 0xfffffc00
    1294:	656c5f61 	strbvs	r5, [ip, #-3937]!	; 0xfffff09f
    1298:	6874676e 	ldmdavs	r4!, {r1, r2, r3, r5, r6, r8, r9, sl, sp, lr}^
    129c:	616d4400 	cmnvs	sp, r0, lsl #8
    12a0:	6e616843 	cdpvs	8, 6, cr6, cr1, cr3, {2}
    12a4:	486c656e 	stmdami	ip!, {r1, r2, r3, r5, r6, r8, sl, sp, lr}^
    12a8:	65646165 	strbvs	r6, [r4, #-357]!	; 0xfffffe9b
    12ac:	616d0072 	smcvs	53250	; 0xd002
    12b0:	69006b73 	stmdbvs	r0, {r0, r1, r4, r5, r6, r8, r9, fp, sp, lr}
    12b4:	006f666e 	rsbeq	r6, pc, lr, ror #12
    12b8:	5f616d64 	svcpl	0x00616d64
    12bc:	72695f30 	rsbvc	r5, r9, #48, 30	; 0xc0
    12c0:	61685f71 	smcvs	34289	; 0x85f1
    12c4:	656c646e 	strbvs	r6, [ip, #-1134]!	; 0xfffffb92
    12c8:	6f630072 	svcvs	0x00630072
    12cc:	73007970 	movwvc	r7, #2416	; 0x970
    12d0:	705f6372 	subsvc	r6, pc, r2, ror r3	; <UNPREDICTABLE>
    12d4:	64007274 	strvs	r7, [r0], #-628	; 0xfffffd8c
    12d8:	5f617461 	svcpl	0x00617461
    12dc:	61727261 	cmnvs	r2, r1, ror #4
    12e0:	79440079 	stmdbvc	r4, {r0, r3, r4, r5, r6}^
    12e4:	696d616e 	stmdbvs	sp!, {r1, r2, r3, r5, r6, r8, sp, lr}^
    12e8:	66694663 	strbtvs	r4, [r9], -r3, ror #12
    12ec:	7246006f 	subvc	r0, r6, #111	; 0x6f
    12f0:	4f656d61 	svcmi	0x00656d61
    12f4:	72726576 	rsbsvc	r6, r2, #494927872	; 0x1d800000
    12f8:	45006e75 	strmi	r6, [r0, #-3701]	; 0xfffff18b
    12fc:	726f7272 	rsbvc	r7, pc, #536870919	; 0x20000007
    1300:	72746552 	rsbsvc	r6, r4, #343932928	; 0x14800000
    1304:	65520079 	ldrbvs	r0, [r2, #-121]	; 0xffffff87
    1308:	776f5067 	strbvc	r5, [pc, -r7, rrx]!
    130c:	52007265 	andpl	r7, r0, #1342177286	; 0x50000006
    1310:	57646165 	strbpl	r6, [r4, -r5, ror #2]!
    1314:	65746972 	ldrbvs	r6, [r4, #-2418]!	; 0xfffff68e
    1318:	67655200 	strbvs	r5, [r5, -r0, lsl #4]!
    131c:	65636552 	strbvs	r6, [r3, #-1362]!	; 0xfffffaae
    1320:	50657669 	rsbpl	r7, r5, r9, ror #12
    1324:	6400706f 	strvs	r7, [r0], #-111	; 0xffffff91
    1328:	665f6465 	ldrbvs	r6, [pc], -r5, ror #8
    132c:	5f6f6669 	svcpl	0x006f6669
    1330:	48006e65 	stmdami	r0, {r0, r2, r5, r6, r9, sl, fp, sp, lr}
    1334:	61725470 	cmnvs	r2, r0, ror r4
    1338:	696d736e 	stmdbvs	sp!, {r1, r2, r3, r5, r6, r8, r9, ip, sp, lr}^
    133c:	66694674 			; <UNDEFINED> instruction: 0x66694674
    1340:	706d456f 	rsbvc	r4, sp, pc, ror #10
    1344:	55007974 	strpl	r7, [r0, #-2420]	; 0xfffff68c
    1348:	4669706c 	strbtmi	r7, [r9], -ip, rrx
    134c:	00736c73 	rsbseq	r6, r3, r3, ror ip
    1350:	676e654c 	strbvs	r6, [lr, -ip, asr #10]!
    1354:	00316874 	eorseq	r6, r1, r4, ror r8
    1358:	676e654c 	strbvs	r6, [lr, -ip, asr #10]!
    135c:	00326874 	eorseq	r6, r2, r4, ror r8
    1360:	676e654c 	strbvs	r6, [lr, -ip, asr #10]!
    1364:	00336874 	eorseq	r6, r3, r4, ror r8
    1368:	676e654c 	strbvs	r6, [lr, -ip, asr #10]!
    136c:	00346874 	eorseq	r6, r4, r4, ror r8
    1370:	65726f43 	ldrbvs	r6, [r2, #-3907]!	; 0xfffff0bd
    1374:	73796850 	cmnvc	r9, #80, 16	; 0x500000
    1378:	6c616369 	stclvs	3, cr6, [r1], #-420	; 0xfffffe5c
    137c:	736f4800 	cmnvc	pc, #0, 16
    1380:	61684374 	smcvs	33844	; 0x8434
    1384:	6c656e6e 	stclvs	14, cr6, [r5], #-440	; 0xfffffe48
    1388:	72616843 	rsbvc	r6, r1, #4390912	; 0x430000
    138c:	65746361 	ldrbvs	r6, [r4, #-865]!	; 0xfffffc9f
    1390:	74736972 	ldrbtvc	r6, [r3], #-2418	; 0xfffff68e
    1394:	48006369 	stmdami	r0, {r0, r3, r5, r6, r8, r9, sp, lr}
    1398:	5074736f 	rsbspl	r7, r4, pc, ror #6
    139c:	69737968 	ldmdbvs	r3!, {r3, r5, r6, r8, fp, ip, sp, lr}^
    13a0:	006c6163 	rsbeq	r6, ip, r3, ror #2
    13a4:	65736572 	ldrbvs	r6, [r3, #-1394]!	; 0xfffffa8e
    13a8:	64657672 	strbtvs	r7, [r5], #-1650	; 0xfffff98e
    13ac:	335f3832 	cmpcc	pc, #3276800	; 0x320000
    13b0:	68410030 	stmdavs	r1, {r4, r5}^
    13b4:	73614d62 	cmnvc	r1, #6272	; 0x1880
    13b8:	49726574 	ldmdbmi	r2!, {r2, r4, r5, r6, r8, sl, sp, lr}^
    13bc:	00656c64 	rsbeq	r6, r5, r4, ror #24
    13c0:	74736552 	ldrbtvc	r6, [r3], #-1362	; 0xfffffaae
    13c4:	4465726f 	strbtmi	r7, [r5], #-623	; 0xfffffd91
    13c8:	00656e6f 	rsbeq	r6, r5, pc, ror #28
    13cc:	65636552 	strbvs	r6, [r3, #-1362]!	; 0xfffffaae
    13d0:	53657669 	cmnpl	r5, #110100480	; 0x6900000
    13d4:	75746174 	ldrbvc	r6, [r4, #-372]!	; 0xfffffe8c
    13d8:	65520073 	ldrbvs	r0, [r2, #-115]	; 0xffffff8d
    13dc:	62684167 	rsbvs	r4, r8, #-1073741799	; 0xc0000019
    13e0:	73694400 	cmnvc	r9, #0, 8
    13e4:	656c6261 	strbvs	r6, [ip, #-609]!	; 0xfffffd9f
    13e8:	75625600 	strbvc	r5, [r2, #-1536]!	; 0xfffffa00
    13ec:	6c615673 	stclvs	6, cr5, [r1], #-460	; 0xfffffe34
    13f0:	47006469 	strmi	r6, [r0, -r9, ror #8]
    13f4:	48657461 	stmdami	r5!, {r0, r5, r6, sl, ip, sp, lr}^
    13f8:	636f6c43 	cmnvs	pc, #17152	; 0x4300
    13fc:	6974006b 	ldmdbvs	r4!, {r0, r1, r3, r5, r6}^
    1400:	645f6b63 	ldrbvs	r6, [pc], #-2915	; 1408 <SCTLR_ENABLE_INSTRUCTION_CACHE+0x408>
    1404:	65666669 	strbvs	r6, [r6, #-1641]!	; 0xfffff997
    1408:	636e6572 	cmnvs	lr, #478150656	; 0x1c800000
    140c:	6f4c0065 	svcvs	0x004c0065
    1410:	776f5077 			; <UNDEFINED> instruction: 0x776f5077
    1414:	6f4d7265 	svcvs	0x004d7265
    1418:	6e456564 	cdpvs	5, 4, cr6, cr5, cr4, {3}
    141c:	656c6261 	strbvs	r6, [ip, #-609]!	; 0xfffffd9f
    1420:	63680064 	cmnvs	r8, #100	; 0x64
    1424:	74735f64 	ldrbtvc	r5, [r3], #-3940	; 0xfffff09c
    1428:	00747261 	rsbseq	r7, r4, r1, ror #4
    142c:	706f7453 	rsbvc	r7, pc, r3, asr r4	; <UNPREDICTABLE>
    1430:	6f6c4350 	svcvs	0x006c4350
    1434:	55006b63 	strpl	r6, [r0, #-2915]	; 0xfffff49d
    1438:	00494d54 	subeq	r4, r9, r4, asr sp
    143c:	74736f48 	ldrbtvc	r6, [r3], #-3912	; 0xfffff0b8
    1440:	6f67654e 	svcvs	0x0067654e
    1444:	74616974 	strbtvc	r6, [r1], #-2420	; 0xfffff68c
    1448:	446e6f69 	strbtmi	r6, [lr], #-3945	; 0xfffff097
    144c:	63657465 	cmnvs	r5, #1694498816	; 0x65000000
    1450:	00646574 	rsbeq	r6, r4, r4, ror r5
    1454:	69646e69 	stmdbvs	r4!, {r0, r3, r5, r6, r9, sl, fp, sp, lr}^
    1458:	6f746163 	svcvs	0x00746163
    145c:	61705f72 	cmnvs	r0, r2, ror pc
    1460:	745f7373 	ldrbvc	r7, [pc], #-883	; 1468 <SCTLR_ENABLE_INSTRUCTION_CACHE+0x468>
    1464:	756f7268 	strbvc	r7, [pc, #-616]!	; 1204 <SCTLR_ENABLE_INSTRUCTION_CACHE+0x204>
    1468:	46006867 	strmi	r6, [r0], -r7, ror #16
    146c:	446f6669 	strbtmi	r6, [pc], #-1641	; 1474 <SCTLR_ENABLE_INSTRUCTION_CACHE+0x474>
    1470:	68747065 	ldmdavs	r4!, {r0, r2, r5, r6, ip, sp, lr}^
    1474:	756f6700 	strbvc	r6, [pc, #-1792]!	; d7c <SCTLR_ENABLE_BRANCH_PREDICTION+0x57c>
    1478:	6b616e74 	blvs	185ce50 <__kernel_end+0x16f6e50>
    147c:	00666665 	rsbeq	r6, r6, r5, ror #12
    1480:	636f6c43 	cmnvs	pc, #17152	; 0x4300
    1484:	4d38346b 	cfldrsmi	mvf3, [r8, #-428]!	; 0xfffffe54
    1488:	52007a48 	andpl	r7, r0, #72, 20	; 0x48000
    148c:	79727465 	ldmdbvc	r2!, {r0, r2, r5, r6, sl, ip, sp, lr}^
    1490:	6e756f43 	cdpvs	15, 7, cr6, cr5, cr3, {2}
    1494:	65660074 	strbvs	r0, [r6, #-116]!	; 0xffffff8c
    1498:	74657374 	strbtvc	r7, [r5], #-884	; 0xfffffc8c
    149c:	54007075 	strpl	r7, [r0], #-117	; 0xffffff8b
    14a0:	736e6172 	cmnvc	lr, #-2147483620	; 0x8000001c
    14a4:	53726566 	cmnpl	r2, #427819008	; 0x19800000
    14a8:	43657a69 	cmnmi	r5, #430080	; 0x69000
    14ac:	72746e6f 	rsbsvc	r6, r4, #1776	; 0x6f0
    14b0:	69576c6f 	ldmdbvs	r7, {r0, r1, r2, r3, r5, r6, sl, fp, sp, lr}^
    14b4:	00687464 	rsbeq	r7, r8, r4, ror #8
    14b8:	65646f6d 	strbvs	r6, [r4, #-3949]!	; 0xfffff093
    14bc:	6768635f 			; <UNDEFINED> instruction: 0x6768635f
    14c0:	6d69745f 	cfstrdvs	mvd7, [r9, #-380]!	; 0xfffffe84
    14c4:	79440065 	stmdbvc	r4, {r0, r2, r5, r6}^
    14c8:	696d616e 	stmdbvs	sp!, {r1, r2, r3, r5, r6, r8, sp, lr}^
    14cc:	61724663 	cmnvs	r2, r3, ror #12
    14d0:	6552656d 	ldrbvs	r6, [r2, #-1389]	; 0xfffffa93
    14d4:	64616f6c 	strbtvs	r6, [r1], #-3948	; 0xfffff094
    14d8:	504c5500 	subpl	r5, ip, r0, lsl #10
    14dc:	725f0049 	subsvc	r0, pc, #73	; 0x49
    14e0:	72657365 	rsbvc	r7, r5, #-1811939327	; 0x94000001
    14e4:	31646576 	smccc	18006	; 0x4656
    14e8:	31335f37 	teqcc	r3, r7, lsr pc
    14ec:	64694d00 	strbtvs	r4, [r9], #-3328	; 0xfffff300
    14f0:	00656c64 	rsbeq	r6, r5, r4, ror #24
    14f4:	6e6e6f43 	cdpvs	15, 6, cr6, cr14, cr3, {2}
    14f8:	44746365 	ldrbtmi	r6, [r4], #-869	; 0xfffffc9b
    14fc:	63657465 	cmnvs	r5, #1694498816	; 0x65000000
    1500:	00646574 	rsbeq	r6, r4, r4, ror r5
    1504:	69676542 	stmdbvs	r7!, {r1, r6, r8, sl, sp, lr}^
    1508:	6f66006e 	svcvs	0x0066006e
    150c:	5f656372 	svcpl	0x00656372
    1510:	74736f68 	ldrbtvc	r6, [r3], #-3944	; 0xfffff098
    1514:	646f6d5f 	strbtvs	r6, [pc], #-3423	; 151c <SCTLR_ENABLE_INSTRUCTION_CACHE+0x51c>
    1518:	72450065 	subvc	r0, r5, #101	; 0x65
    151c:	44726f72 	ldrbtmi	r6, [r2], #-3954	; 0xfffff08e
    1520:	6f637369 	svcvs	0x00637369
    1524:	63656e6e 	cmnvs	r5, #1760	; 0x6e0
    1528:	00646574 	rsbeq	r6, r4, r4, ror r5
    152c:	72706e68 	rsbsvc	r6, r0, #104, 28	; 0x680
    1530:	5f007165 	svcpl	0x00007165
    1534:	65736572 	ldrbvs	r6, [r3, #-1394]!	; 0xfffffa8e
    1538:	64657672 	strbtvs	r7, [r5], #-1650	; 0xfffff98e
    153c:	325f3131 	subscc	r3, pc, #1073741836	; 0x4000000c
    1540:	73660039 	cmnvc	r6, #57	; 0x39
    1544:	66746e69 	ldrbtvs	r6, [r4], -r9, ror #28
    1548:	776f5000 	strbvc	r5, [pc, -r0]!
    154c:	6f447265 	svcvs	0x00447265
    1550:	6f4d6e77 	svcvs	0x004d6e77
    1554:	656c7564 	strbvs	r7, [ip, #-1380]!	; 0xfffffa9c
    1558:	65530073 	ldrbvs	r0, [r3, #-115]	; 0xffffff8d
    155c:	00707574 	rsbseq	r7, r0, r4, ror r5
    1560:	74736f48 	ldrbtvc	r6, [r3], #-3912	; 0xfffff0b8
    1564:	6e616843 	cdpvs	8, 6, cr6, cr1, cr3, {2}
    1568:	006c656e 	rsbeq	r6, ip, lr, ror #10
    156c:	74736f48 	ldrbtvc	r6, [r3], #-3912	; 0xfffff0b8
    1570:	69726550 	ldmdbvs	r2!, {r4, r6, r8, sl, sp, lr}^
    1574:	6369646f 	cmnvs	r9, #1862270976	; 0x6f000000
    1578:	75657551 	strbvc	r7, [r5, #-1361]!	; 0xfffffaaf
    157c:	70654465 	rsbvc	r4, r5, r5, ror #8
    1580:	49006874 	stmdbmi	r0, {r2, r4, r5, r6, fp, sp, lr}
    1584:	74754f6e 	ldrbtvc	r4, [r5], #-3950	; 0xfffff092
    1588:	72694400 	rsbvc	r4, r9, #0, 8
    158c:	69746365 	ldmdbvs	r4!, {r0, r2, r5, r6, r8, r9, sp, lr}^
    1590:	31316e6f 	teqcc	r1, pc, ror #28
    1594:	72694400 	rsbvc	r4, r9, #0, 8
    1598:	69746365 	ldmdbvs	r4!, {r0, r2, r5, r6, r8, r9, sp, lr}^
    159c:	32316e6f 	eorscc	r6, r1, #1776	; 0x6f0
    15a0:	72694400 	rsbvc	r4, r9, #0, 8
    15a4:	69746365 	ldmdbvs	r4!, {r0, r2, r5, r6, r8, r9, sp, lr}^
    15a8:	33316e6f 	teqcc	r1, #1776	; 0x6f0
    15ac:	72694400 	rsbvc	r4, r9, #0, 8
    15b0:	69746365 	ldmdbvs	r4!, {r0, r2, r5, r6, r8, r9, sp, lr}^
    15b4:	34316e6f 	ldrtcc	r6, [r1], #-3695	; 0xfffff191
    15b8:	72694400 	rsbvc	r4, r9, #0, 8
    15bc:	69746365 	ldmdbvs	r4!, {r0, r2, r5, r6, r8, r9, sp, lr}^
    15c0:	35316e6f 	ldrcc	r6, [r1, #-3695]!	; 0xfffff191
    15c4:	65725f00 	ldrbvs	r5, [r2, #-3840]!	; 0xfffff100
    15c8:	76726573 			; <UNDEFINED> instruction: 0x76726573
    15cc:	00366465 	eorseq	r6, r6, r5, ror #8
    15d0:	7365725f 	cmnvc	r5, #-268435451	; 0xf0000005
    15d4:	65767265 	ldrbvs	r7, [r6, #-613]!	; 0xfffffd9b
    15d8:	00313272 	eorseq	r3, r1, r2, ror r2
    15dc:	63697348 	cmnvs	r9, #72, 6	; 0x20000001
    15e0:	6e6e6f43 	cdpvs	15, 6, cr6, cr14, cr3, {2}
    15e4:	00746365 	rsbseq	r6, r4, r5, ror #6
    15e8:	72736573 	rsbsvc	r6, r3, #482344960	; 0x1cc00000
    15ec:	63737165 	cmnvs	r3, #1073741849	; 0x40000019
    15f0:	72460073 	subvc	r0, r6, #115	; 0x73
    15f4:	4c656d61 	stclmi	13, cr6, [r5], #-388	; 0xfffffe7c
    15f8:	45747369 	ldrbmi	r7, [r4, #-873]!	; 0xfffffc97
    15fc:	6972746e 	ldmdbvs	r2!, {r1, r2, r3, r5, r6, sl, ip, sp, lr}^
    1600:	45007365 	strmi	r7, [r0, #-869]	; 0xfffffc9b
    1604:	6c62616e 	stfvse	f6, [r2], #-440	; 0xfffffe48
    1608:	656c5365 	strbvs	r5, [ip, #-869]!	; 0xfffffc9b
    160c:	6c437065 	mcrrvs	0, 6, r7, r3, cr5
    1610:	476b636f 	strbmi	r6, [fp, -pc, ror #6]!
    1614:	6e697461 	cdpvs	4, 6, cr7, cr9, cr1, {3}
    1618:	6e490067 	cdpvs	0, 4, cr0, cr9, cr7, {3}
    161c:	6e726574 	mrcvs	5, 3, r6, cr2, cr4, {3}
    1620:	6d446c61 	stclvs	12, cr6, [r4, #-388]	; 0xfffffe7c
    1624:	65520061 	ldrbvs	r0, [r2, #-97]	; 0xffffff9f
    1628:	63655267 	cmnvs	r5, #1879048198	; 0x70000006
    162c:	65766965 	ldrbvs	r6, [r6, #-2405]!	; 0xfffff69b
    1630:	657a6953 	ldrbvs	r6, [sl, #-2387]!	; 0xfffff6ad
    1634:	646e6900 	strbtvs	r6, [lr], #-2304	; 0xfffff700
    1638:	74616369 	strbtvc	r6, [r1], #-873	; 0xfffffc97
    163c:	635f726f 	cmpvs	pc, #-268435450	; 0xf0000006
    1640:	6c706d6f 	ldclvs	13, cr6, [r0], #-444	; 0xfffffe44
    1644:	6e656d65 	cdpvs	13, 6, cr6, cr5, cr5, {3}
    1648:	72460074 	subvc	r0, r6, #116	; 0x74
    164c:	4c656d61 	stclmi	13, cr6, [r5], #-388	; 0xfffffe7c
    1650:	52747369 	rsbspl	r7, r4, #-1543503871	; 0xa4000001
    1654:	6f6c6c6f 	svcvs	0x006c6c6f
    1658:	00726576 	rsbseq	r6, r2, r6, ror r5
    165c:	6e617254 	mcrvs	2, 3, r7, cr1, cr4, {2}
    1660:	72656673 	rsbvc	r6, r5, #120586240	; 0x7300000
    1664:	657a6953 	ldrbvs	r6, [sl, #-2387]!	; 0xfffff6ad
    1668:	73655400 	cmnvc	r5, #0, 8
    166c:	6e6f4374 	mcrvs	3, 3, r4, cr15, cr4, {3}
    1670:	6c6f7274 	sfmvs	f7, 2, [pc], #-464	; 14a8 <SCTLR_ENABLE_INSTRUCTION_CACHE+0x4a8>
    1674:	64654400 	strbtvs	r4, [r5], #-1024	; 0xfffffc00
    1678:	74616369 	strbtvc	r6, [r1], #-873	; 0xfffffc97
    167c:	55006465 	strpl	r6, [r0, #-1125]	; 0xfffffb9b
    1680:	00696d74 	rsbeq	r6, r9, r4, ror sp
    1684:	69706c75 	ldmdbvs	r0!, {r0, r2, r4, r5, r6, sl, fp, sp, lr}^
    1688:	7475615f 	ldrbtvc	r6, [r5], #-351	; 0xfffffea1
    168c:	65725f6f 	ldrbvs	r5, [r2, #-3951]!	; 0xfffff091
    1690:	725f0073 	subsvc	r0, pc, #115	; 0x73
    1694:	72657365 	rsbvc	r7, r5, #-1811939327	; 0x94000001
    1698:	37646576 			; <UNDEFINED> instruction: 0x37646576
    169c:	385f3030 	ldmdacc	pc, {r4, r5, ip, sp}^	; <UNPREDICTABLE>
    16a0:	4e003030 	mcrmi	0, 0, r3, cr0, cr0, {1}
    16a4:	7553746f 	ldrbvc	r7, [r3, #-1135]	; 0xfffffb91
    16a8:	726f7070 	rsbvc	r7, pc, #112	; 0x70
    16ac:	00646574 	rsbeq	r6, r4, r4, ror r5
    16b0:	6f727245 	svcvs	0x00727245
    16b4:	6d6f4372 	stclvs	3, cr4, [pc, #-456]!	; 14f4 <SCTLR_ENABLE_INSTRUCTION_CACHE+0x4f4>
    16b8:	656c6970 	strbvs	r6, [ip, #-2416]!	; 0xfffff690
    16bc:	725f0072 	subsvc	r0, pc, #114	; 0x72
    16c0:	72657365 	rsbvc	r7, r5, #-1811939327	; 0x94000001
    16c4:	30646576 	rsbcc	r6, r4, r6, ror r5
    16c8:	4900315f 	stmdbmi	r0, {r0, r1, r2, r3, r4, r6, r8, ip, sp}
    16cc:	6572636e 	ldrbvs	r6, [r2, #-878]!	; 0xfffffc92
    16d0:	746e656d 	strbtvc	r6, [lr], #-1389	; 0xfffffa93
    16d4:	76006c61 	strvc	r6, [r0], -r1, ror #24
    16d8:	6f646e65 	svcvs	0x00646e65
    16dc:	64695f72 	strbtvs	r5, [r9], #-3954	; 0xfffff08e
    16e0:	76627600 	strbtvc	r7, [r2], -r0, lsl #12
    16e4:	64696c61 	strbtvs	r6, [r9], #-3169	; 0xfffff39f
    16e8:	6e65766f 	cdpvs	6, 6, cr7, cr5, cr15, {3}
    16ec:	62735500 	rsbsvs	r5, r3, #0, 10
    16f0:	65726944 	ldrbvs	r6, [r2, #-2372]!	; 0xfffff6bc
    16f4:	6f697463 	svcvs	0x00697463
    16f8:	6348006e 	movtvs	r0, #32878	; 0x806e
    16fc:	61745364 	cmnvs	r4, r4, ror #6
    1700:	56007472 			; <UNDEFINED> instruction: 0x56007472
    1704:	56737562 	ldrbtpl	r7, [r3], -r2, ror #10
    1708:	64696c61 	strbtvs	r6, [r9], #-3169	; 0xfffff39f
    170c:	746c6946 	strbtvc	r6, [ip], #-2374	; 0xfffff6ba
    1710:	6e457265 	cdpvs	2, 4, cr7, cr5, cr5, {3}
    1714:	656c6261 	strbvs	r6, [ip, #-609]!	; 0xfffffd9f
    1718:	6d440064 	stclvs	0, cr0, [r4, #-400]	; 0xfffffe70
    171c:	73654461 	cmnvc	r5, #1627389952	; 0x61000000
    1720:	70697263 	rsbvc	r7, r9, r3, ror #4
    1724:	6e6f6974 	mcrvs	9, 3, r6, cr15, cr4, {3}
    1728:	736f4800 	cmnvc	pc, #0, 16
    172c:	696e4974 	stmdbvs	lr!, {r2, r4, r5, r6, r8, fp, lr}^
    1730:	74616974 	strbtvc	r6, [r1], #-2420	; 0xfffff68c
    1734:	65526465 	ldrbvs	r6, [r2, #-1125]	; 0xfffffb9b
    1738:	656d7573 	strbvs	r7, [sp, #-1395]!	; 0xfffffa8d
    173c:	61727544 	cmnvs	r2, r4, asr #10
    1740:	6e6f6974 	mcrvs	9, 3, r6, cr15, cr4, {3}
    1744:	65726854 	ldrbvs	r6, [r2, #-2132]!	; 0xfffff7ac
    1748:	6c6f6873 	stclvs	8, cr6, [pc], #-460	; 1584 <SCTLR_ENABLE_INSTRUCTION_CACHE+0x584>
    174c:	704e0064 	subvc	r0, lr, r4, rrx
    1750:	6e617254 	mcrvs	2, 3, r7, cr1, cr4, {2}
    1754:	74696d73 	strbtvc	r6, [r9], #-3443	; 0xfffff28d
    1758:	6f666946 	svcvs	0x00666946
    175c:	74706d45 	ldrbtvc	r6, [r0], #-3397	; 0xfffff2bb
    1760:	6f480079 	svcvs	0x00480079
    1764:	6c477473 	cfstrdvs	mvd7, [r7], {115}	; 0x73
    1768:	6c61626f 	sfmvs	f6, 2, [r1], #-444	; 0xfffffe44
    176c:	73676552 	cmnvc	r7, #343932928	; 0x14800000
    1770:	65725f00 	ldrbvs	r5, [r2, #-3840]!	; 0xfffff100
    1774:	76726573 			; <UNDEFINED> instruction: 0x76726573
    1778:	36316465 	ldrtcc	r6, [r1], -r5, ror #8
    177c:	0032325f 	eorseq	r3, r2, pc, asr r2
    1780:	7365725f 	cmnvc	r5, #-268435451	; 0xf0000005
    1784:	65767265 	ldrbvs	r7, [r6, #-613]!	; 0xfffffd9b
    1788:	5f303264 	svcpl	0x00303264
    178c:	50003133 	andpl	r3, r0, r3, lsr r1
    1790:	5374726f 	cmnpl	r4, #-268435450	; 0xf0000006
    1794:	7065656c 	rsbvc	r6, r5, ip, ror #10
    1798:	74617453 	strbtvc	r7, [r1], #-1107	; 0xfffffbad
    179c:	4e007375 	mcrmi	3, 0, r7, cr0, cr5, {3}
    17a0:	65506e6f 	ldrbvs	r6, [r0, #-3695]	; 0xfffff191
    17a4:	646f6972 	strbtvs	r6, [pc], #-2418	; 17ac <SCTLR_ENABLE_INSTRUCTION_CACHE+0x7ac>
    17a8:	75516369 	ldrbvc	r6, [r1, #-873]	; 0xfffffc97
    17ac:	44657565 	strbtmi	r7, [r5], #-1381	; 0xfffffa9b
    17b0:	68747065 	ldmdavs	r4!, {r0, r2, r5, r6, ip, sp, lr}^
    17b4:	79687000 	stmdbvc	r8!, {ip, sp, lr}^
    17b8:	006c6573 	rsbeq	r6, ip, r3, ror r5
    17bc:	72736573 	rsbsvc	r6, r3, #482344960	; 0x1cc00000
    17c0:	64007165 	strvs	r7, [r0], #-357	; 0xfffffe9b
    17c4:	63697665 	cmnvs	r9, #105906176	; 0x6500000
    17c8:	63682f65 	cmnvs	r8, #404	; 0x194
    17cc:	00632e64 	rsbeq	r2, r3, r4, ror #28
    17d0:	6974704f 	ldmdbvs	r4!, {r0, r1, r2, r3, r6, ip, sp, lr}^
    17d4:	6c616e6f 	stclvs	14, cr6, [r1], #-444	; 0xfffffe44
    17d8:	74616546 	strbtvc	r6, [r1], #-1350	; 0xfffffaba
    17dc:	73657275 	cmnvc	r5, #1342177287	; 0x50000007
    17e0:	44735400 	ldrbtmi	r5, [r3], #-1024	; 0xfffffc00
    17e4:	656e696c 	strbvs	r6, [lr, #-2412]!	; 0xfffff694
    17e8:	736c7550 	cmnvc	ip, #80, 10	; 0x14000000
    17ec:	616e4565 	cmnvs	lr, r5, ror #10
    17f0:	00656c62 	rsbeq	r6, r5, r2, ror #24
    17f4:	5f505253 	svcpl	0x00505253
    17f8:	594c4e4f 	stmdbpl	ip, {r0, r1, r2, r3, r6, r9, sl, fp, lr}^
    17fc:	5041435f 	subpl	r4, r1, pc, asr r3
    1800:	454c4241 	strbmi	r4, [ip, #-577]	; 0xfffffdbf
    1804:	75625600 	strbvc	r5, [r2, #-1536]!	; 0xfffffa00
    1808:	71724973 	cmnvc	r2, r3, ror r9
    180c:	63655200 	cmnvs	r5, #0, 4
    1810:	65766965 	ldrbvs	r6, [r6, #-2405]!	; 0xfffff69b
    1814:	6f666946 	svcvs	0x00666946
    1818:	73756c46 	cmnvc	r5, #17920	; 0x4600
    181c:	6e450068 	cdpvs	0, 4, cr0, cr5, cr8, {3}
    1820:	696f5064 	stmdbvs	pc!, {r2, r5, r6, ip, lr}^	; <UNPREDICTABLE>
    1824:	754e746e 	strbvc	r7, [lr, #-1134]	; 0xfffffb92
    1828:	7265626d 	rsbvc	r6, r5, #-805306362	; 0xd0000006
    182c:	5f636900 	svcpl	0x00636900
    1830:	5f627375 	svcpl	0x00627375
    1834:	61706163 	cmnvs	r0, r3, ror #2
    1838:	00656c62 	rsbeq	r6, r5, r2, ror #24
    183c:	6b6c7542 	blvs	1b1ed4c <__kernel_end+0x19b8d4c>
    1840:	6c615600 	stclvs	6, cr5, [r1], #-0
    1844:	69466469 	stmdbvs	r6, {r0, r3, r5, r6, sl, sp, lr}^
    1848:	7265746c 	rsbvc	r7, r5, #108, 8	; 0x6c000000
    184c:	616e4542 	cmnvs	lr, r2, asr #10
    1850:	64656c62 	strbtvs	r6, [r5], #-3170	; 0xfffff39e
    1854:	756f7400 	strbvc	r7, [pc, #-1024]!	; 145c <SCTLR_ENABLE_INSTRUCTION_CACHE+0x45c>
    1858:	6c616374 	stclvs	3, cr6, [r1], #-464	; 0xfffffe30
    185c:	776f7000 	strbvc	r7, [pc, -r0]!
    1860:	6f5f7265 	svcvs	0x005f7265
    1864:	6f685f6e 	svcvs	0x00685f6e
    1868:	635f7473 	cmpvs	pc, #1929379840	; 0x73000000
    186c:	72746e6f 	rsbsvc	r6, r4, #1776	; 0x6f0
    1870:	656c6c6f 	strbvs	r6, [ip, #-3183]!	; 0xfffff391
    1874:	6f430072 	svcvs	0x00430072
    1878:	6f536572 	svcvs	0x00536572
    187c:	4e007466 	cdpmi	4, 0, cr7, cr0, cr6, {3}
    1880:	52535f4f 	subspl	r5, r3, #316	; 0x13c
    1884:	41435f50 	cmpmi	r3, r0, asr pc
    1888:	4c424150 	stfmie	f4, [r2], {80}	; 0x50
    188c:	45445f45 	strbmi	r5, [r4, #-3909]	; 0xfffff0bb
    1890:	45434956 	strbmi	r4, [r3, #-2390]	; 0xfffff6aa
    1894:	776f5000 	strbvc	r5, [pc, -r0]!
    1898:	68507265 	ldmdavs	r0, {r0, r2, r5, r6, r9, ip, sp, lr}^
    189c:	63697379 	cmnvs	r9, #-469762047	; 0xe4000001
    18a0:	49006c61 	stmdbmi	r0, {r0, r5, r6, sl, fp, sp, lr}
    18a4:	6361506e 	cmnvs	r1, #110	; 0x6e
    18a8:	0074656b 	rsbseq	r6, r4, fp, ror #10
    18ac:	61746144 	cmnvs	r4, r4, asr #2
    18b0:	61440030 	cmpvs	r4, r0, lsr r0
    18b4:	00316174 	eorseq	r6, r1, r4, ror r1
    18b8:	61746144 	cmnvs	r4, r4, asr #2
    18bc:	754f0032 	strbvc	r0, [pc, #-50]	; 1892 <SCTLR_ENABLE_INSTRUCTION_CACHE+0x892>
    18c0:	646e4574 	strbtvs	r4, [lr], #-1396	; 0xfffffa8c
    18c4:	6e696f50 	mcrvs	15, 3, r6, cr9, cr0, {2}
    18c8:	68430074 	stmdavs	r3, {r2, r4, r5, r6}^
    18cc:	65677261 	strbvs	r7, [r7, #-609]!	; 0xfffffd9f
    18d0:	73756256 	cmnvc	r5, #1610612741	; 0x60000005
    18d4:	456e4900 	strbmi	r4, [lr, #-2304]!	; 0xfffff700
    18d8:	6f50646e 	svcvs	0x0050646e
    18dc:	00746e69 	rsbseq	r6, r4, r9, ror #28
    18e0:	666e6f43 	strbtvs	r6, [lr], -r3, asr #30
    18e4:	50006769 	andpl	r6, r0, r9, ror #14
    18e8:	43676e69 	cmnmi	r7, #1680	; 0x690
    18ec:	6c706d6f 	ldclvs	13, cr6, [r0], #-444	; 0xfffffe44
    18f0:	53657465 	cmnpl	r5, #1694498816	; 0x65000000
    18f4:	74696c70 	strbtvc	r6, [r9], #-3184	; 0xfffff390
    18f8:	67746f00 	ldrbvs	r6, [r4, -r0, lsl #30]!
    18fc:	6e75665f 	mrcvs	6, 3, r6, cr5, cr15, {2}
    1900:	65530063 	ldrbvs	r0, [r3, #-99]	; 0xffffff9d
    1904:	6f697373 	svcvs	0x00697373
    1908:	7165526e 	cmnvc	r5, lr, ror #4
    190c:	74736575 	ldrbtvc	r6, [r3], #-1397	; 0xfffffa8b
    1910:	65764f00 	ldrbvs	r4, [r6, #-3840]!	; 0xfffff100
    1914:	72754372 	rsbsvc	r4, r5, #-939524095	; 0xc8000001
    1918:	746e6572 	strbtvc	r6, [lr], #-1394	; 0xfffffa8e
    191c:	6e616843 	cdpvs	8, 6, cr6, cr1, cr3, {2}
    1920:	00646567 	rsbeq	r6, r4, r7, ror #10
    1924:	48676552 	stmdami	r7!, {r1, r4, r6, r8, sl, sp, lr}^
    1928:	77647261 	strbvc	r7, [r4, -r1, ror #4]!
    192c:	00657261 	rsbeq	r7, r5, r1, ror #4
    1930:	53796850 	cmnpl	r9, #80, 16	; 0x500000
    1934:	7065656c 	rsbvc	r6, r5, ip, ror #10
    1938:	00676e69 	rsbeq	r6, r7, r9, ror #28
    193c:	6f727245 	svcvs	0x00727245
    1940:	6e654772 	mcrvs	7, 3, r4, cr5, cr2, {3}
    1944:	6c617265 	sfmvs	f7, 2, [r1], #-404	; 0xfffffe6c
    1948:	6e655300 	cdpvs	3, 6, cr5, cr5, cr0, {0}
    194c:	776f4c64 	strbvc	r4, [pc, -r4, ror #24]!
    1950:	65776f50 	ldrbvs	r6, [r7, #-3920]!	; 0xfffff0b0
    1954:	646f4d72 	strbtvs	r4, [pc], #-3442	; 195c <SCTLR_ENABLE_INSTRUCTION_CACHE+0x95c>
    1958:	725f0065 	subsvc	r0, pc, #101	; 0x65
    195c:	72657365 	rsbvc	r7, r5, #-1811939327	; 0x94000001
    1960:	38646576 	stmdacc	r4!, {r1, r2, r4, r5, r6, r8, sl, sp, lr}^
    1964:	30315f63 	eorscc	r5, r1, r3, ror #30
    1968:	6c430030 	mcrrvs	0, 3, r0, r3, cr0
    196c:	526b636f 	rsbpl	r6, fp, #-1140850687	; 0xbc000001
    1970:	6f697461 	svcvs	0x00697461
    1974:	776f5000 	strbvc	r5, [pc, -r0]!
    1978:	65527265 	ldrbvs	r7, [r2, #-613]	; 0xfffffd9b
    197c:	65440067 	strbvs	r0, [r4, #-103]	; 0xffffff99
    1980:	65636976 	strbvs	r6, [r3, #-2422]!	; 0xfffff68a
    1984:	6f486f54 	svcvs	0x00486f54
    1988:	5f007473 	svcpl	0x00007473
    198c:	65736572 	ldrbvs	r6, [r3, #-1394]!	; 0xfffffa8e
    1990:	64657672 	strbtvs	r7, [r5], #-1650	; 0xfffff98e
    1994:	335f3432 	cmpcc	pc, #838860800	; 0x32000000
    1998:	725f0031 	subsvc	r0, pc, #49	; 0x31
    199c:	72657365 	rsbvc	r7, r5, #-1811939327	; 0x94000001
    19a0:	34646576 	strbtcc	r6, [r4], #-1398	; 0xfffffa8a
    19a4:	345f3032 	ldrbcc	r3, [pc], #-50	; 19ac <SCTLR_ENABLE_INSTRUCTION_CACHE+0x9ac>
    19a8:	5f003034 	svcpl	0x00003034
    19ac:	65736572 	ldrbvs	r6, [r3, #-1394]!	; 0xfffffa8e
    19b0:	64657672 	strbtvs	r7, [r5], #-1650	; 0xfffff98e
    19b4:	335f3931 	cmpcc	pc, #802816	; 0xc4000
    19b8:	69570031 	ldmdbvs	r7, {r0, r4, r5}^
    19bc:	38687464 	stmdacc	r8!, {r2, r5, r6, sl, ip, sp, lr}^
    19c0:	00746962 	rsbseq	r6, r4, r2, ror #18
    19c4:	53627355 	cmnpl	r2, #1409286145	; 0x54000001
    19c8:	64656570 	strbtvs	r6, [r5], #-1392	; 0xfffffa90
    19cc:	6f734900 	svcvs	0x00734900
    19d0:	6f726863 	svcvs	0x00726863
    19d4:	73756f6e 	cmnvc	r5, #440	; 0x1b8
    19d8:	4474754f 	ldrbtmi	r7, [r4], #-1359	; 0xfffffab1
    19dc:	00706f72 	rsbseq	r6, r0, r2, ror pc
    19e0:	69706c75 	ldmdbvs	r0!, {r0, r2, r4, r5, r6, sl, fp, sp, lr}^
    19e4:	746e695f 	strbtvc	r6, [lr], #-2399	; 0xfffff6a1
    19e8:	6f72705f 	svcvs	0x0072705f
    19ec:	69645f74 	stmdbvs	r4!, {r2, r4, r5, r6, r8, r9, sl, fp, ip, lr}^
    19f0:	6c550073 	mrrcvs	0, 7, r0, r5, cr3
    19f4:	72446970 	subvc	r6, r4, #112, 18	; 0x1c0000
    19f8:	45657669 	strbmi	r7, [r5, #-1641]!	; 0xfffff997
    19fc:	72657478 	rsbvc	r7, r5, #120, 8	; 0x78000000
    1a00:	566c616e 	strbtpl	r6, [ip], -lr, ror #2
    1a04:	00737562 	rsbseq	r7, r3, r2, ror #10
    1a08:	4664644f 	strbtmi	r6, [r4], -pc, asr #8
    1a0c:	656d6172 	strbvs	r6, [sp, #-370]!	; 0xfffffe8e
    1a10:	6e626400 	cdpvs	4, 6, cr6, cr2, cr0, {0}
    1a14:	6d697463 	cfstrdvs	mvd7, [r9, #-396]!	; 0xfffffe74
    1a18:	725f0065 	subsvc	r0, pc, #101	; 0x65
    1a1c:	72657365 	rsbvc	r7, r5, #-1811939327	; 0x94000001
    1a20:	34646576 	strbtcc	r6, [r4], #-1398	; 0xfffffa8a
    1a24:	355f3434 	ldrbcc	r3, [pc, #-1076]	; 15f8 <SCTLR_ENABLE_INSTRUCTION_CACHE+0x5f8>
    1a28:	49003030 	stmdbmi	r0, {r4, r5, ip, sp}
    1a2c:	6b6f546e 	blvs	1bd6bec <__kernel_end+0x1a70bec>
    1a30:	75516e65 	ldrbvc	r6, [r1, #-3685]	; 0xfffff19b
    1a34:	46657565 	strbtmi	r7, [r5], -r5, ror #10
    1a38:	6873756c 	ldmdavs	r3!, {r2, r3, r5, r6, r8, sl, ip, sp, lr}^
    1a3c:	756e4500 	strbvc	r4, [lr, #-1280]!	; 0xfffffb00
    1a40:	6172656d 	cmnvs	r2, sp, ror #10
    1a44:	6e6f6974 	mcrvs	9, 3, r6, cr15, cr4, {3}
    1a48:	656e6f44 	strbvs	r6, [lr, #-3908]!	; 0xfffff0bc
    1a4c:	6f425f00 	svcvs	0x00425f00
    1a50:	46006c6f 	strmi	r6, [r0], -pc, ror #24
    1a54:	656d6172 	strbvs	r6, [sp, #-370]!	; 0xfffffe8e
    1a58:	65746e49 	ldrbvs	r6, [r4, #-3657]!	; 0xfffff1b7
    1a5c:	6c617672 	stclvs	6, cr7, [r1], #-456	; 0xfffffe38
    1a60:	74736800 	ldrbtvc	r6, [r3], #-2048	; 0xfffff800
    1a64:	7367656e 	cmnvc	r7, #461373440	; 0x1b800000
    1a68:	53007363 	movwpl	r7, #867	; 0x363
    1a6c:	69737365 	ldmdbvs	r3!, {r0, r2, r5, r6, r8, r9, ip, sp, lr}^
    1a70:	6e456e6f 	cdpvs	14, 4, cr6, cr5, cr15, {3}
    1a74:	6c694664 	stclvs	6, cr4, [r9], #-400	; 0xfffffe70
    1a78:	45726574 	ldrbmi	r6, [r2, #-1396]!	; 0xfffffa8c
    1a7c:	6c62616e 	stfvse	f6, [r2], #-440	; 0xfffffe48
    1a80:	41006465 	tstmi	r0, r5, ror #8
    1a84:	75537064 	ldrbvc	r7, [r3, #-100]	; 0xffffff9c
    1a88:	726f7070 	rsbvc	r7, pc, #112	; 0x70
    1a8c:	6f480074 	svcvs	0x00480074
    1a90:	69537473 	ldmdbvs	r3, {r0, r1, r4, r5, r6, sl, ip, sp, lr}^
    1a94:	5200657a 	andpl	r6, r0, #511705088	; 0x1e800000
    1a98:	73696765 	cmnvc	r9, #26476544	; 0x1940000
    1a9c:	41726574 	cmnmi	r2, r4, ror r5
    1aa0:	65726464 	ldrbvs	r6, [r2, #-1124]!	; 0xfffffb9c
    1aa4:	52007373 	andpl	r7, r0, #-872415231	; 0xcc000001
    1aa8:	6f4e6765 	svcvs	0x004e6765
    1aac:	7265506e 	rsbvc	r5, r5, #110	; 0x6e
    1ab0:	69646f69 	stmdbvs	r4!, {r0, r3, r5, r6, r8, r9, sl, fp, sp, lr}^
    1ab4:	66694663 	strbtvs	r4, [r9], -r3, ror #12
    1ab8:	6174536f 	cmnvs	r4, pc, ror #6
    1abc:	00737574 	rsbseq	r7, r3, r4, ror r5
    1ac0:	73655342 	cmnvc	r5, #134217729	; 0x8000001
    1ac4:	6e6f6973 	mcrvs	9, 3, r6, cr15, cr3, {3}
    1ac8:	696c6156 	stmdbvs	ip!, {r1, r2, r4, r6, r8, sp, lr}^
    1acc:	725f0064 	subsvc	r0, pc, #100	; 0x64
    1ad0:	72657365 	rsbvc	r7, r5, #-1811939327	; 0x94000001
    1ad4:	33646576 	cmncc	r4, #494927872	; 0x1d800000
    1ad8:	5f00365f 	svcpl	0x0000365f
    1adc:	65736572 	ldrbvs	r6, [r3, #-1394]!	; 0xfffffa8e
    1ae0:	64657672 	strbtvs	r7, [r5], #-1650	; 0xfffff98e
    1ae4:	00375f33 	eorseq	r5, r7, r3, lsr pc
    1ae8:	6d617246 	sfmvs	f7, 2, [r1, #-280]!	; 0xfffffee8
    1aec:	6d655265 	sfmvs	f5, 2, [r5, #-404]!	; 0xfffffe6c
    1af0:	696e6961 	stmdbvs	lr!, {r0, r5, r6, r8, fp, sp, lr}^
    1af4:	4800676e 	stmdami	r0, {r1, r2, r3, r5, r6, r8, r9, sl, sp, lr}
    1af8:	5374736f 	cmnpl	r4, #-1140850687	; 0xbc000001
    1afc:	6e487465 	cdpvs	4, 4, cr7, cr8, cr5, {3}
    1b00:	616e4570 	smcvs	58448	; 0xe450
    1b04:	00656c62 	rsbeq	r6, r5, r2, ror #24
    1b08:	506e6f4e 	rsbpl	r6, lr, lr, asr #30
    1b0c:	6f697265 	svcvs	0x00697265
    1b10:	46636964 	strbtmi	r6, [r3], -r4, ror #18
    1b14:	006f6669 	rsbeq	r6, pc, r9, ror #12
    1b18:	65726f43 	ldrbvs	r6, [r2, #-3907]!	; 0xfffff0bd
    1b1c:	65736552 	ldrbvs	r6, [r3, #-1362]!	; 0xfffffaae
    1b20:	756d0074 	strbvc	r0, [sp, #-116]!	; 0xffffff8c
    1b24:	6176746c 	cmnvs	r6, ip, ror #8
    1b28:	6264696c 	rsbvs	r6, r4, #108, 18	; 0x1b0000
    1b2c:	6f630063 	svcvs	0x00630063
    1b30:	7364696e 	cmnvc	r4, #1802240	; 0x1b8000
    1b34:	50007374 	andpl	r7, r0, r4, ror r3
    1b38:	7265776f 	rsbvc	r7, r5, #29097984	; 0x1bc0000
    1b3c:	6d616c43 	stclvs	12, cr6, [r1, #-268]!	; 0xfffffef4
    1b40:	65520070 	ldrbvs	r0, [r2, #-112]	; 0xffffff90
    1b44:	65735567 	ldrbvs	r5, [r3, #-1383]!	; 0xfffffa99
    1b48:	00644972 	rsbeq	r4, r4, r2, ror r9
    1b4c:	62616e45 	rsbvs	r6, r1, #1104	; 0x450
    1b50:	6d44656c 	cfstr64vs	mvdx6, [r4, #-432]	; 0xfffffe50
    1b54:	73654461 	cmnvc	r5, #1627389952	; 0x61000000
    1b58:	70697263 	rsbvc	r7, r9, r3, ror #4
    1b5c:	00726f74 	rsbseq	r6, r2, r4, ror pc
    1b60:	485f4f4e 	ldmdami	pc, {r1, r2, r3, r6, r8, r9, sl, fp, lr}^	; <UNPREDICTABLE>
    1b64:	535f504e 	cmppl	pc, #78	; 0x4e
    1b68:	435f5052 	cmpmi	pc, #82	; 0x52
    1b6c:	42415041 	submi	r5, r1, #65	; 0x41
    1b70:	5300454c 	movwpl	r4, #1356	; 0x54c
    1b74:	61437072 	hvcvs	14082	; 0x3702
    1b78:	6c626170 	stfvse	f6, [r2], #-448	; 0xfffffe40
    1b7c:	72460065 	subvc	r0, r6, #101	; 0x65
    1b80:	4e656d61 	cdpmi	13, 6, cr6, cr5, cr1, {3}
    1b84:	65626d75 	strbvs	r6, [r2, #-3445]!	; 0xfffff28b
    1b88:	62760072 	rsbsvs	r0, r6, #114	; 0x72
    1b8c:	696c6176 	stmdbvs	ip!, {r1, r2, r4, r5, r6, r8, sp, lr}^
    1b90:	76766f64 	ldrbtvc	r6, [r6], -r4, ror #30
    1b94:	5f006c61 	svcpl	0x00006c61
    1b98:	65736572 	ldrbvs	r6, [r3, #-1394]!	; 0xfffffa8e
    1b9c:	64657672 	strbtvs	r7, [r5], #-1650	; 0xfffff98e
    1ba0:	30325f39 	eorscc	r5, r2, r9, lsr pc
    1ba4:	72655400 	rsbvc	r5, r5, #0, 8
    1ba8:	616e696d 	cmnvs	lr, sp, ror #18
    1bac:	50006574 	andpl	r6, r0, r4, ror r5
    1bb0:	75537968 	ldrbvc	r7, [r3, #-2408]	; 0xfffff698
    1bb4:	6e657073 	mcrvs	0, 3, r7, cr5, cr3, {3}
    1bb8:	00646564 	rsbeq	r6, r4, r4, ror #10
    1bbc:	50676552 	rsbpl	r6, r7, r2, asr r5
    1bc0:	6f697265 	svcvs	0x00697265
    1bc4:	46636964 	strbtmi	r6, [r3], -r4, ror #18
    1bc8:	426f6669 	rsbmi	r6, pc, #110100480	; 0x6900000
    1bcc:	00657361 	rsbeq	r7, r5, r1, ror #6
    1bd0:	52616d44 	rsbpl	r6, r1, #68, 26	; 0x1100
    1bd4:	69616d65 	stmdbvs	r1!, {r0, r2, r5, r6, r8, sl, fp, sp, lr}^
    1bd8:	7265646e 	rsbvc	r6, r5, #1845493760	; 0x6e000000
    1bdc:	65646f4d 	strbvs	r6, [r4, #-3917]!	; 0xfffff0b3
    1be0:	726f4300 	rsbvc	r4, pc, #0, 6
    1be4:	67655265 	strbvs	r5, [r5, -r5, ror #4]!
    1be8:	65747369 	ldrbvs	r7, [r4, #-873]!	; 0xfffffc97
    1bec:	4f007372 	svcmi	0x00007372
    1bf0:	65566774 	ldrbvs	r6, [r6, #-1908]	; 0xfffff88c
    1bf4:	6f697372 	svcvs	0x00697372
    1bf8:	6c75006e 	ldclvs	0, cr0, [r5], #-440	; 0xfffffe48
    1bfc:	635f6970 	cmpvs	pc, #112, 18	; 0x1c0000
    1c00:	735f6b6c 	cmpvc	pc, #108, 22	; 0x1b000
    1c04:	6d5f7375 	ldclvs	3, cr7, [pc, #-468]	; 1a38 <SCTLR_ENABLE_INSTRUCTION_CACHE+0xa38>
    1c08:	61725400 	cmnvs	r2, r0, lsl #8
    1c0c:	6361736e 	cmnvs	r1, #-1207959551	; 0xb8000001
    1c10:	6e6f6974 	mcrvs	9, 3, r6, cr15, cr4, {3}
    1c14:	6f727245 	svcvs	0x00727245
    1c18:	65560072 	ldrbvs	r0, [r6, #-114]	; 0xffffff8e
    1c1c:	726f646e 	rsbvc	r6, pc, #1845493760	; 0x6e000000
    1c20:	746e6f43 	strbtvc	r6, [lr], #-3907	; 0xfffff0bd
    1c24:	496c6f72 	stmdbmi	ip!, {r1, r4, r5, r6, r8, r9, sl, fp, sp, lr}^
    1c28:	7265746e 	rsbvc	r7, r5, #1845493760	; 0x6e000000
    1c2c:	65636166 	strbvs	r6, [r3, #-358]!	; 0xfffffe9a
    1c30:	736f4800 	cmnvc	pc, #0, 16
    1c34:	67654e74 			; <UNDEFINED> instruction: 0x67654e74
    1c38:	6169746f 	cmnvs	r9, pc, ror #8
    1c3c:	6e6f6974 	mcrvs	9, 3, r6, cr15, cr4, {3}
    1c40:	63637553 	cmnvs	r3, #348127232	; 0x14c00000
    1c44:	53737365 	cmnpl	r3, #-1811939327	; 0x94000001
    1c48:	75746174 	ldrbvc	r6, [r4, #-372]!	; 0xfffffe8c
    1c4c:	61684373 	smcvs	33843	; 0x8433
    1c50:	0065676e 	rsbeq	r6, r5, lr, ror #14
    1c54:	6b636150 	blvs	18da19c <__kernel_end+0x177419c>
    1c58:	6f437465 	svcvs	0x00437465
    1c5c:	00746e75 	rsbseq	r6, r4, r5, ror lr
    1c60:	62616e45 	rsbvs	r6, r1, #1104	; 0x450
    1c64:	6843656c 	stmdavs	r3, {r2, r3, r5, r6, r8, sl, sp, lr}^
    1c68:	65676e61 	strbvs	r6, [r7, #-3681]!	; 0xfffff19f
    1c6c:	725f0064 	subsvc	r0, pc, #100	; 0x64
    1c70:	72657365 	rsbvc	r7, r5, #-1811939327	; 0x94000001
    1c74:	34646576 	strbtcc	r6, [r4], #-1398	; 0xfffffa8a
    1c78:	64006330 	strvs	r6, [r0], #-816	; 0xfffffcd0
    1c7c:	65737264 	ldrbvs	r7, [r3, #-612]!	; 0xfffffd9c
    1c80:	6c53006c 	mrrcvs	0, 6, r0, r3, cr12
    1c84:	53706565 	cmnpl	r0, #423624704	; 0x19400000
    1c88:	65746174 	ldrbvs	r6, [r4, #-372]!	; 0xfffffe8c
    1c8c:	75736552 	ldrbvc	r6, [r3, #-1362]!	; 0xfffffaae
    1c90:	6b4f656d 	blvs	13db24c <__kernel_end+0x127524c>
    1c94:	67655200 	strbvs	r5, [r5, -r0, lsl #4]!
    1c98:	65636552 	strbvs	r6, [r3, #-1362]!	; 0xfffffaae
    1c9c:	50657669 	rsbpl	r7, r5, r9, ror #12
    1ca0:	006b6565 	rsbeq	r6, fp, r5, ror #10
    1ca4:	5f67746f 	svcpl	0x0067746f
    1ca8:	62616e65 	rsbvs	r6, r1, #1616	; 0x650
    1cac:	685f656c 	ldmdavs	pc, {r2, r3, r5, r6, r8, sl, sp, lr}^	; <UNPREDICTABLE>
    1cb0:	00636973 	rsbeq	r6, r3, r3, ror r9
    1cb4:	7365725f 	cmnvc	r5, #-268435451	; 0xf0000005
    1cb8:	65767265 	ldrbvs	r7, [r6, #-613]!	; 0xfffffd9b
    1cbc:	5f303164 	svcpl	0x00303164
    1cc0:	55003631 	strpl	r3, [r0, #-1585]	; 0xfffff9cf
    1cc4:	65646f4d 	strbvs	r6, [r4, #-3917]!	; 0xfffff0b3
    1cc8:	65725f00 	ldrbvs	r5, [r2, #-3840]!	; 0xfffff100
    1ccc:	76726573 			; <UNDEFINED> instruction: 0x76726573
    1cd0:	00336465 	eorseq	r6, r3, r5, ror #8
    1cd4:	4d676552 	cfstr64mi	mvdx6, [r7, #-328]!	; 0xfffffeb8
    1cd8:	436f6964 	cmnmi	pc, #100, 18	; 0x190000
    1cdc:	72746e6f 	rsbsvc	r6, r4, #1776	; 0x6f0
    1ce0:	45006c6f 	strmi	r6, [r0, #-3183]	; 0xfffff391
    1ce4:	726f7272 	rsbvc	r7, pc, #536870919	; 0x20000007
    1ce8:	6f6d654d 	svcvs	0x006d654d
    1cec:	75007972 	strvc	r7, [r0, #-2418]	; 0xfffff68e
    1cf0:	5f69706c 	svcpl	0x0069706c
    1cf4:	5f746e69 	svcpl	0x00746e69
    1cf8:	73756276 	cmnvc	r5, #1610612743	; 0x60000007
    1cfc:	646e695f 	strbtvs	r6, [lr], #-2399	; 0xfffff6a1
    1d00:	74616369 	strbtvc	r6, [r1], #-873	; 0xfffffc97
    1d04:	4500726f 	strmi	r7, [r0, #-623]	; 0xfffffd91
    1d08:	726f7272 	rsbvc	r7, pc, #536870919	; 0x20000007
    1d0c:	656d6954 	strbvs	r6, [sp, #-2388]!	; 0xfffff6ac
    1d10:	0074756f 	rsbseq	r7, r4, pc, ror #10
    1d14:	6e6e6967 	cdpvs	9, 6, cr6, cr14, cr7, {3}
    1d18:	66656b61 	strbtvs	r6, [r5], -r1, ror #22
    1d1c:	6f4c0066 	svcvs	0x004c0066
    1d20:	65705377 	ldrbvs	r5, [r0, #-887]!	; 0xfffffc89
    1d24:	42006465 	andmi	r6, r0, #1694498816	; 0x65000000
    1d28:	61687469 	cmnvs	r8, r9, ror #8
    1d2c:	6e456873 	mcrvs	8, 2, r6, cr5, cr3, {3}
    1d30:	656c6261 	strbvs	r6, [ip, #-609]!	; 0xfffffd9f
    1d34:	64695700 	strbtvs	r5, [r9], #-1792	; 0xfffff900
    1d38:	6f386874 	svcvs	0x00386874
    1d3c:	62363172 	eorsvs	r3, r6, #-2147483620	; 0x8000001c
    1d40:	44007469 	strmi	r7, [r0], #-1129	; 0xfffffb97
    1d44:	6e69506f 	cdpvs	0, 6, cr5, cr9, cr15, {3}
    1d48:	73750067 	cmnvc	r5, #103	; 0x67
    1d4c:	63685f62 	cmnvs	r8, #392	; 0x188
    1d50:	65645f64 	strbvs	r5, [r4, #-3940]!	; 0xfffff09c
    1d54:	65636976 	strbvs	r6, [r3, #-2422]!	; 0xfffff68a
    1d58:	0064695f 	rsbeq	r6, r4, pc, asr r9
    1d5c:	50776f4c 	rsbspl	r6, r7, ip, asr #30
    1d60:	7265776f 	rsbvc	r7, r5, #29097984	; 0x1bc0000
    1d64:	65646f4d 	strbvs	r6, [r4, #-3917]!	; 0xfffff0b3
    1d68:	6e616843 	cdpvs	8, 6, cr6, cr1, cr3, {2}
    1d6c:	496c656e 	stmdbmi	ip!, {r1, r2, r3, r5, r6, r8, sl, sp, lr}^
    1d70:	7865646e 	stmdavc	r5!, {r1, r2, r3, r5, r6, sl, sp, lr}^
    1d74:	79685000 	stmdbvc	r8!, {ip, lr}^
    1d78:	61696373 	smcvs	38451	; 0x9633
    1d7c:	5300336c 	movwpl	r3, #876	; 0x36c
    1d80:	74726174 	ldrbtvc	r6, [r2], #-372	; 0xfffffe8c
    1d84:	72646441 	rsbvc	r6, r4, #1090519040	; 0x41000000
    1d88:	00737365 	rsbseq	r7, r3, r5, ror #6
    1d8c:	63736944 	cmnvs	r3, #68, 18	; 0x110000
    1d90:	67726168 	ldrbvs	r6, [r2, -r8, ror #2]!
    1d94:	75625665 	strbvc	r5, [r2, #-1637]!	; 0xfffff99b
    1d98:	69440073 	stmdbvs	r4, {r0, r1, r4, r5, r6}^
    1d9c:	6e6f6373 	mcrvs	3, 3, r6, cr15, cr3, {3}
    1da0:	7463656e 	strbtvc	r6, [r3], #-1390	; 0xfffffa92
    1da4:	646e4500 	strbtvs	r4, [lr], #-1280	; 0xfffffb00
    1da8:	6e696f50 	mcrvs	15, 3, r6, cr9, cr0, {2}
    1dac:	73694d74 	cmnvc	r9, #116, 26	; 0x1d00
    1db0:	6374616d 	cmnvs	r4, #1073741851	; 0x4000001b
    1db4:	65520068 	ldrbvs	r0, [r2, #-104]	; 0xffffff98
    1db8:	746e4967 	strbtvc	r4, [lr], #-2407	; 0xfffff699
    1dbc:	75727265 	ldrbvc	r7, [r2, #-613]!	; 0xfffffd9b
    1dc0:	614d7470 	hvcvs	55104	; 0xd740
    1dc4:	48006b73 	stmdami	r0, {r0, r1, r4, r5, r6, r8, r9, fp, sp, lr}
    1dc8:	5474736f 	ldrbtpl	r7, [r4], #-879	; 0xfffffc91
    1dcc:	7665446f 	strbtvc	r4, [r5], -pc, ror #8
    1dd0:	00656369 	rsbeq	r6, r5, r9, ror #6
    1dd4:	6e617254 	mcrvs	2, 3, r7, cr1, cr4, {2}
    1dd8:	74696d73 	strbtvc	r6, [r9], #-3443	; 0xfffff28d
    1ddc:	6f666946 	svcvs	0x00666946
    1de0:	73756c46 	cmnvc	r5, #17920	; 0x4600
    1de4:	6d754e68 	ldclvs	14, cr4, [r5, #-416]!	; 0xfffffe60
    1de8:	00726562 	rsbseq	r6, r2, r2, ror #10
    1dec:	5f736572 	svcpl	0x00736572
    1df0:	5f6c6176 	svcpl	0x006c6176
    1df4:	69726570 	ldmdbvs	r2!, {r4, r5, r6, r8, sl, sp, lr}^
    1df8:	4d00646f 	cfstrsmi	mvf6, [r0, #-444]	; 0xfffffe44
    1dfc:	72576f64 	subsvc	r6, r7, #100, 30	; 0x190
    1e00:	00657469 	rsbeq	r7, r5, r9, ror #8
    1e04:	49676552 	stmdbmi	r7!, {r1, r4, r6, r8, sl, sp, lr}^
    1e08:	7265746e 	rsbvc	r7, r5, #1845493760	; 0x6e000000
    1e0c:	74707572 	ldrbtvc	r7, [r0], #-1394	; 0xfffffa8e
    1e10:	79736200 	ldmdbvc	r3!, {r9, sp, lr}^
    1e14:	00656e64 	rsbeq	r6, r5, r4, ror #28
    1e18:	7365725f 	cmnvc	r5, #-268435451	; 0xf0000005
    1e1c:	65767265 	ldrbvs	r7, [r6, #-613]!	; 0xfffffd9b
    1e20:	00363164 	eorseq	r3, r6, r4, ror #2
    1e24:	6e697270 	mcrvs	2, 3, r7, cr9, cr0, {3}
    1e28:	73755f74 	cmnvc	r5, #116, 30	; 0x1d0
    1e2c:	6f705f62 	svcvs	0x00705f62
    1e30:	5f726577 	svcpl	0x00726577
    1e34:	74617473 	strbtvc	r7, [r1], #-1139	; 0xfffffb8d
    1e38:	32490065 	subcc	r0, r9, #101	; 0x65
    1e3c:	76654463 	strbtvc	r4, [r5], -r3, ror #8
    1e40:	41656369 	cmnmi	r5, r9, ror #6
    1e44:	65726464 	ldrbvs	r6, [r2, #-1124]!	; 0xfffffb9c
    1e48:	49007373 	stmdbmi	r0, {r0, r1, r4, r5, r6, r8, r9, ip, sp, lr}
    1e4c:	7265766e 	rsbvc	r7, r5, #115343360	; 0x6e00000
    1e50:	65536573 	ldrbvs	r6, [r3, #-1395]	; 0xfffffa8d
    1e54:	7463656c 	strbtvc	r6, [r3], #-1388	; 0xfffffa94
    1e58:	63697348 	cmnvs	r9, #72, 6	; 0x20000001
    1e5c:	66754200 	ldrbtvs	r4, [r5], -r0, lsl #4
    1e60:	4e726566 	cdpmi	5, 7, cr6, cr2, cr6, {3}
    1e64:	7641746f 	strbvc	r7, [r1], -pc, ror #8
    1e68:	616c6961 	cmnvs	ip, r1, ror #18
    1e6c:	00656c62 	rsbeq	r6, r5, r2, ror #24
    1e70:	7461444d 	strbtvc	r4, [r1], #-1101	; 0xfffffbb3
    1e74:	6c750061 	ldclvs	0, cr0, [r5], #-388	; 0xfffffe7c
    1e78:	6b636970 	blvs	18dc440 <__kernel_end+0x1776440>
    1e7c:	5f787400 	svcpl	0x00787400
    1e80:	5f646e65 	svcpl	0x00646e65
    1e84:	616c6564 	cmnvs	ip, r4, ror #10
    1e88:	73550079 	cmpvc	r5, #121	; 0x79
    1e8c:	61725462 	cmnvs	r2, r2, ror #8
    1e90:	6566736e 	strbvs	r7, [r6, #-878]!	; 0xfffffc92
    1e94:	6f4d0072 	svcvs	0x004d0072
    1e98:	6f436564 	svcvs	0x00436564
    1e9c:	6f72746e 	svcvs	0x0072746e
    1ea0:	646e456c 	strbtvs	r4, [lr], #-1388	; 0xfffffa94
    1ea4:	6e696f70 	mcrvs	15, 3, r6, cr9, cr0, {3}
    1ea8:	756f4374 	strbvc	r4, [pc, #-884]!	; 1b3c <SCTLR_ENABLE_INSTRUCTION_CACHE+0xb3c>
    1eac:	5f00746e 	svcpl	0x0000746e
    1eb0:	65736572 	ldrbvs	r6, [r3, #-1394]!	; 0xfffffa8e
    1eb4:	64657672 	strbtvs	r7, [r5], #-1650	; 0xfffff98e
    1eb8:	45003831 	strmi	r3, [r0, #-2097]	; 0xfffff7cf
    1ebc:	796c7261 	stmdbvc	ip!, {r0, r5, r6, r9, ip, sp, lr}^
    1ec0:	70737553 	rsbsvc	r7, r3, r3, asr r5
    1ec4:	00646e65 	rsbeq	r6, r4, r5, ror #28
    1ec8:	70707553 	rsbsvc	r7, r0, r3, asr r5
    1ecc:	7374726f 	cmnvc	r4, #-268435450	; 0xf0000006
    1ed0:	69726550 	ldmdbvs	r2!, {r4, r6, r8, sl, sp, lr}^
    1ed4:	6369646f 	cmnvs	r9, #1862270976	; 0x6f000000
    1ed8:	70646e45 	rsbvc	r6, r4, r5, asr #28
    1edc:	746e696f 	strbtvc	r6, [lr], #-2415	; 0xfffff691
    1ee0:	78410073 	stmdavc	r1, {r0, r1, r4, r5, r6}^
    1ee4:	69725069 	ldmdbvs	r2!, {r0, r3, r5, r6, ip, lr}^
    1ee8:	7469726f 	strbtvc	r7, [r9], #-623	; 0xfffffd91
    1eec:	76654c79 			; <UNDEFINED> instruction: 0x76654c79
    1ef0:	43006c65 	movwmi	r6, #3173	; 0xc65
    1ef4:	6b636f6c 	blvs	18ddcac <__kernel_end+0x1777cac>
    1ef8:	65746152 	ldrbvs	r6, [r4, #-338]!	; 0xfffffeae
    1efc:	72757400 	rsbsvc	r7, r5, #0, 8
    1f00:	666f5f6e 	strbtvs	r5, [pc], -lr, ror #30
    1f04:	73755f66 	cmnvc	r5, #408	; 0x198
    1f08:	704f0062 	subvc	r0, pc, r2, rrx
    1f0c:	74617265 	strbtvc	r7, [r1], #-613	; 0xfffffd9b
    1f10:	4d676e69 	stclmi	14, cr6, [r7, #-420]!	; 0xfffffe5c
    1f14:	0065646f 	rsbeq	r6, r5, pc, ror #8
    1f18:	7365725f 	cmnvc	r5, #-268435451	; 0xf0000005
    1f1c:	65767265 	ldrbvs	r7, [r6, #-613]!	; 0xfffffd9b
    1f20:	00633164 	rsbeq	r3, r3, r4, ror #2
    1f24:	636f6c43 	cmnvs	pc, #17152	; 0x4300
    1f28:	5f30336b 	svcpl	0x0030336b
    1f2c:	484d3036 	stmdami	sp, {r1, r2, r4, r5, ip, sp}^
    1f30:	7053007a 	subsvc	r0, r3, sl, ror r0
    1f34:	4374696c 	cmnmi	r4, #108, 18	; 0x1b0000
    1f38:	72746e6f 	rsbsvc	r6, r4, #1776	; 0x6f0
    1f3c:	52006c6f 	andpl	r6, r0, #28416	; 0x6f00
    1f40:	694d6765 	stmdbvs	sp, {r0, r2, r5, r6, r8, r9, sl, sp, lr}^
    1f44:	6f436373 	svcvs	0x00436373
    1f48:	6f72746e 	svcvs	0x0072746e
    1f4c:	6150006c 	cmpvs	r0, ip, rrx
    1f50:	74656b63 	strbtvc	r6, [r5], #-2915	; 0xfffff49d
    1f54:	74617453 	strbtvc	r7, [r1], #-1107	; 0xfffffbad
    1f58:	41007375 	tstmi	r0, r5, ror r3
    1f5c:	75426978 	strbvc	r6, [r2, #-2424]	; 0xfffff688
    1f60:	4c747372 	ldclmi	3, cr7, [r4], #-456	; 0xfffffe38
    1f64:	74676e65 	strbtvc	r6, [r7], #-3685	; 0xfffff19b
    1f68:	75460068 	strbvc	r0, [r6, #-104]	; 0xffffff98
    1f6c:	43006c6c 	movwmi	r6, #3180	; 0xc6c
    1f70:	6e6e6168 	powvsez	f6, f6, #0.0
    1f74:	61486c65 	cmpvs	r8, r5, ror #24
    1f78:	6465746c 	strbtvs	r7, [r5], #-1132	; 0xfffffb94
    1f7c:	65725f00 	ldrbvs	r5, [r2, #-3840]!	; 0xfffff100
    1f80:	76726573 			; <UNDEFINED> instruction: 0x76726573
    1f84:	31326465 	teqcc	r2, r5, ror #8
    1f88:	73655200 	cmnvc	r5, #0, 4
    1f8c:	65447465 	strbvs	r7, [r4, #-1125]	; 0xfffffb9b
    1f90:	74636574 	strbtvc	r6, [r3], #-1396	; 0xfffffa8c
    1f94:	72655000 	rsbvc	r5, r5, #0
    1f98:	69646f69 	stmdbvs	r4!, {r0, r3, r5, r6, r8, r9, sl, fp, sp, lr}^
    1f9c:	68635363 	stmdavs	r3!, {r0, r1, r5, r6, r8, r9, ip, lr}^
    1fa0:	6c756465 	cfldrdvs	mvd6, [r5], #-404	; 0xfffffe6c
    1fa4:	616e4565 	cmnvs	lr, r5, ror #10
    1fa8:	00656c62 	rsbeq	r6, r5, r2, ror #24
    1fac:	74736f48 	ldrbtvc	r6, [r3], #-3912	; 0xfffff0b8
    1fb0:	6d617246 	sfmvs	f7, 2, [r1, #-280]!	; 0xfffffee8
    1fb4:	756f4365 	strbvc	r4, [pc, #-869]!	; 1c57 <SCTLR_ENABLE_INSTRUCTION_CACHE+0xc57>
    1fb8:	7265746e 	rsbvc	r7, r5, #1845493760	; 0x6e000000
    1fbc:	646f4d00 	strbtvs	r4, [pc], #-3328	; 1fc4 <SCTLR_ENABLE_INSTRUCTION_CACHE+0xfc4>
    1fc0:	73694d65 	cmnvc	r9, #6464	; 0x1940
    1fc4:	6374616d 	cmnvs	r4, #1073741851	; 0x4000001b
    1fc8:	65520068 	ldrbvs	r0, [r2, #-104]	; 0xffffff98
    1fcc:	72576461 	subsvc	r6, r7, #1627389952	; 0x61000000
    1fd0:	44657469 	strbtmi	r7, [r5], #-1129	; 0xfffffb97
    1fd4:	00617461 	rsbeq	r7, r1, r1, ror #8
    1fd8:	56676552 			; <UNDEFINED> instruction: 0x56676552
    1fdc:	6f646e65 	svcvs	0x00646e65
    1fe0:	00644972 	rsbeq	r4, r4, r2, ror r9
    1fe4:	636f6c43 	cmnvs	pc, #17152	; 0x4300
    1fe8:	484d366b 	stmdami	sp, {r0, r1, r3, r5, r6, r9, sl, ip, sp}^
    1fec:	6552007a 	ldrbvs	r0, [r2, #-122]	; 0xffffff86
    1ff0:	76696563 	strbtvc	r6, [r9], -r3, ror #10
    1ff4:	725f0065 	subsvc	r0, pc, #101	; 0x65
    1ff8:	72657365 	rsbvc	r7, r5, #-1811939327	; 0x94000001
    1ffc:	31646576 	smccc	18006	; 0x4656
    2000:	35315f32 	ldrcc	r5, [r1, #-3890]!	; 0xfffff0ce
    2004:	65725f00 	ldrbvs	r5, [r2, #-3840]!	; 0xfffff100
    2008:	76726573 			; <UNDEFINED> instruction: 0x76726573
    200c:	37316465 	ldrcc	r6, [r1, -r5, ror #8]!
    2010:	0030335f 	eorseq	r3, r0, pc, asr r3
    2014:	74726f50 	ldrbtvc	r6, [r2], #-3920	; 0xfffff0b0
    2018:	656e694c 	strbvs	r6, [lr, #-2380]!	; 0xfffff6b4
    201c:	74617453 	strbtvc	r7, [r1], #-1107	; 0xfffffbad
    2020:	49007375 	stmdbmi	r0, {r0, r2, r4, r5, r6, r8, r9, ip, sp, lr}
    2024:	75536332 	ldrbvc	r6, [r3, #-818]	; 0xfffffcce
    2028:	6e657073 	mcrvs	0, 3, r7, cr5, cr3, {3}
    202c:	6e6f4364 	cdpvs	3, 6, cr4, cr15, cr4, {3}
    2030:	6c6f7274 	sfmvs	f7, 2, [pc], #-464	; 1e68 <SCTLR_ENABLE_INSTRUCTION_CACHE+0xe68>
    2034:	6d745500 	cfldr64vs	mvdx5, [r4, #-0]
    2038:	79685069 	stmdbvc	r8!, {r0, r3, r5, r6, ip, lr}^
    203c:	61636973 	smcvs	13971	; 0x3693
    2040:	7461446c 	strbtvc	r4, [r1], #-1132	; 0xfffffb94
    2044:	64695761 	strbtvs	r5, [r9], #-1889	; 0xfffff89f
    2048:	52006874 	andpl	r6, r0, #116, 16	; 0x740000
    204c:	68506765 	ldmdavs	r0, {r0, r2, r5, r6, r8, r9, sl, sp, lr}^
    2050:	6e655679 	mcrvs	6, 3, r5, cr5, cr9, {3}
    2054:	43726f64 	cmnmi	r2, #100, 30	; 0x190
    2058:	72746e6f 	rsbsvc	r6, r4, #1776	; 0x6f0
    205c:	48006c6f 	stmdami	r0, {r0, r1, r2, r3, r5, r6, sl, fp, sp, lr}
    2060:	00686769 	rsbeq	r6, r8, r9, ror #14
    2064:	6c617453 	cfstrdvs	mvd7, [r1], #-332	; 0xfffffeb4
    2068:	6552006c 	ldrbvs	r0, [r2, #-108]	; 0xffffff94
    206c:	69644d67 	stmdbvs	r4!, {r0, r1, r2, r5, r6, r8, sl, fp, lr}^
    2070:	6165526f 	cmnvs	r5, pc, ror #4
    2074:	725f0064 	subsvc	r0, pc, #100	; 0x64
    2078:	72657365 	rsbvc	r7, r5, #-1811939327	; 0x94000001
    207c:	35646576 	strbcc	r6, [r4, #-1398]!	; 0xfffffa8a
    2080:	30385f38 	eorscc	r5, r8, r8, lsr pc
    2084:	616d4400 	cmnvs	sp, r0, lsl #8
    2088:	75716552 	ldrbvc	r6, [r1, #-1362]!	; 0xfffffaae
    208c:	53747365 	cmnpl	r4, #-1811939327	; 0x94000001
    2090:	616e6769 	cmnvs	lr, r9, ror #14
    2094:	725f006c 	subsvc	r0, pc, #108	; 0x6c
    2098:	72657365 	rsbvc	r7, r5, #-1811939327	; 0x94000001
    209c:	33646576 	cmncc	r4, #494927872	; 0x1d800000
    20a0:	78450031 	stmdavc	r5, {r0, r4, r5}^
    20a4:	73736563 	cmnvc	r3, #415236096	; 0x18c00000
    20a8:	54657669 	strbtpl	r7, [r5], #-1641	; 0xfffff997
    20ac:	736e6172 	cmnvc	lr, #-2147483620	; 0x8000001c
    20b0:	7373696d 	cmnvc	r3, #1785856	; 0x1b4000
    20b4:	006e6f69 	rsbeq	r6, lr, r9, ror #30
    20b8:	69726550 	ldmdbvs	r2!, {r4, r6, r8, sl, sp, lr}^
    20bc:	6369646f 	cmnvs	r9, #1862270976	; 0x6f000000
    20c0:	65686353 	strbvs	r6, [r8, #-851]!	; 0xfffffcad
    20c4:	656c7564 	strbvs	r7, [ip, #-1380]!	; 0xfffffa9c
    20c8:	74617453 	strbtvc	r7, [r1], #-1107	; 0xfffffbad
    20cc:	48007375 	stmdami	r0, {r0, r2, r4, r5, r6, r8, r9, ip, sp, lr}
    20d0:	4974736f 	ldmdbmi	r4!, {r0, r1, r2, r3, r5, r6, r8, r9, ip, sp, lr}^
    20d4:	6974696e 	ldmdbvs	r4!, {r1, r2, r3, r5, r6, r8, fp, sp, lr}^
    20d8:	64657461 	strbtvs	r7, [r5], #-1121	; 0xfffffb9f
    20dc:	75736552 	ldrbvc	r6, [r3, #-1362]!	; 0xfffffaae
    20e0:	7544656d 	strbvc	r6, [r4, #-1389]	; 0xfffffa93
    20e4:	69746172 	ldmdbvs	r4!, {r1, r4, r5, r6, r8, sp, lr}^
    20e8:	43006e6f 	movwmi	r6, #3695	; 0xe6f
    20ec:	4965726f 	stmdbmi	r5!, {r0, r1, r2, r3, r5, r6, r9, ip, sp, lr}^
    20f0:	7265746e 	rsbvc	r7, r5, #1845493760	; 0x6e000000
    20f4:	74707572 	ldrbtvc	r7, [r0], #-1394	; 0xfffffa8e
    20f8:	6f430073 	svcvs	0x00430073
    20fc:	75006572 	strvc	r6, [r0, #-1394]	; 0xfffffa8e
    2100:	5f726573 	svcpl	0x00726573
    2104:	48006469 	stmdami	r0, {r0, r3, r5, r6, sl, sp, lr}
    2108:	6143706e 	cmpvs	r3, lr, rrx
    210c:	6c626170 	stfvse	f6, [r2], #-448	; 0xfffffe40
    2110:	725f0065 	subsvc	r0, pc, #101	; 0x65
    2114:	72657365 	rsbvc	r7, r5, #-1811939327	; 0x94000001
    2118:	31646576 	smccc	18006	; 0x4656
    211c:	345f3034 	ldrbcc	r3, [pc], #-52	; 2124 <SCTLR_ENABLE_INSTRUCTION_CACHE+0x1124>
    2120:	44003030 	strmi	r3, [r0], #-48	; 0xffffffd0
    2124:	63657269 	cmnvs	r5, #-1879048186	; 0x90000006
    2128:	6e6f6974 	mcrvs	9, 3, r6, cr15, cr4, {3}
    212c:	69440030 	stmdbvs	r4, {r4, r5}^
    2130:	74636572 	strbtvc	r6, [r3], #-1394	; 0xfffffa8e
    2134:	316e6f69 	cmncc	lr, r9, ror #30
    2138:	72694400 	rsbvc	r4, r9, #0, 8
    213c:	69746365 	ldmdbvs	r4!, {r0, r2, r5, r6, r8, r9, sp, lr}^
    2140:	00326e6f 	eorseq	r6, r2, pc, ror #28
    2144:	65726944 	ldrbvs	r6, [r2, #-2372]!	; 0xfffff6bc
    2148:	6f697463 	svcvs	0x00697463
    214c:	4400346e 	strmi	r3, [r0], #-1134	; 0xfffffb92
    2150:	63657269 	cmnvs	r5, #-1879048186	; 0x90000006
    2154:	6e6f6974 	mcrvs	9, 3, r6, cr15, cr4, {3}
    2158:	69440033 	stmdbvs	r4, {r0, r1, r4, r5}^
    215c:	74636572 	strbtvc	r6, [r3], #-1394	; 0xfffffa8e
    2160:	366e6f69 	strbtcc	r6, [lr], -r9, ror #30
    2164:	72694400 	rsbvc	r4, r9, #0, 8
    2168:	69746365 	ldmdbvs	r4!, {r0, r2, r5, r6, r8, r9, sp, lr}^
    216c:	00376e6f 	eorseq	r6, r7, pc, ror #28
    2170:	4e676552 	mcrmi	5, 3, r6, cr7, cr2, {2}
    2174:	65506e6f 	ldrbvs	r6, [r0, #-3695]	; 0xfffff191
    2178:	646f6972 	strbtvs	r6, [pc], #-2418	; 2180 <SCTLR_ENABLE_INSTRUCTION_CACHE+0x1180>
    217c:	69466369 	stmdbvs	r6, {r0, r3, r5, r6, r8, r9, sp, lr}^
    2180:	69536f66 	ldmdbvs	r3, {r1, r2, r5, r6, r8, r9, sl, fp, sp, lr}^
    2184:	6f00657a 	svcvs	0x0000657a
    2188:	74756774 	ldrbtvc	r6, [r5], #-1908	; 0xfffff88c
    218c:	7366696d 	cmnvc	r6, #1785856	; 0x1b4000
    2190:	006c6573 	rsbeq	r6, ip, r3, ror r5
    2194:	6e616843 	cdpvs	8, 6, cr6, cr1, cr3, {2}
    2198:	4e6c656e 	cdpmi	5, 6, cr6, cr12, cr14, {3}
    219c:	65626d75 	strbvs	r6, [r2, #-3445]!	; 0xfffff28b
    21a0:	69530072 	ldmdbvs	r3, {r1, r4, r5, r6}^
    21a4:	656c676e 	strbvs	r6, [ip, #-1902]!	; 0xfffff892
    21a8:	72694400 	rsbvc	r4, r9, #0, 8
    21ac:	69746365 	ldmdbvs	r4!, {r0, r2, r5, r6, r8, r9, sp, lr}^
    21b0:	00356e6f 	eorseq	r6, r5, pc, ror #28
    21b4:	65726944 	ldrbvs	r6, [r2, #-2372]!	; 0xfffff6bc
    21b8:	6f697463 	svcvs	0x00697463
    21bc:	4900386e 	stmdbmi	r0, {r1, r2, r3, r5, r6, fp, ip, sp}
    21c0:	6d6f636e 	stclvs	3, cr6, [pc, #-440]!	; 2010 <SCTLR_ENABLE_INSTRUCTION_CACHE+0x1010>
    21c4:	74656c70 	strbtvc	r6, [r5], #-3184	; 0xfffff390
    21c8:	6f734965 	svcvs	0x00734965
    21cc:	6f726863 	svcvs	0x00726863
    21d0:	73756f6e 	cmnvc	r5, #440	; 0x1b8
    21d4:	0074754f 	rsbseq	r7, r4, pc, asr #10
    21d8:	65726944 	ldrbvs	r6, [r2, #-2372]!	; 0xfffff6bc
    21dc:	6f697463 	svcvs	0x00697463
    21e0:	4400396e 	strmi	r3, [r0], #-2414	; 0xfffff692
    21e4:	6441616d 	strbvs	r6, [r1], #-365	; 0xfffffe93
    21e8:	73657264 	cmnvc	r5, #100, 4	; 0x40000006
    21ec:	694d0073 	stmdbvs	sp, {r0, r1, r4, r5, r6}^
    21f0:	756d696e 	strbvc	r6, [sp, #-2414]!	; 0xfffff692
    21f4:	6268416d 	rsbvs	r4, r8, #1073741851	; 0x4000001b
    21f8:	71657246 	cmnvc	r5, r6, asr #4
    21fc:	636e6575 	cmnvs	lr, #490733568	; 0x1d400000
    2200:	72450079 	subvc	r0, r5, #121	; 0x79
    2204:	49726f72 	ldmdbmi	r2!, {r1, r4, r5, r6, r8, r9, sl, fp, sp, lr}^
    2208:	6d6f636e 	stclvs	3, cr6, [pc, #-440]!	; 2058 <SCTLR_ENABLE_INSTRUCTION_CACHE+0x1058>
    220c:	69746170 	ldmdbvs	r4!, {r4, r5, r6, r8, sp, lr}^
    2210:	00656c62 	rsbeq	r6, r5, r2, ror #24
    2214:	6f72655a 	svcvs	0x0072655a
    2218:	676e654c 	strbvs	r6, [lr, -ip, asr #10]!
    221c:	754f6874 	strbvc	r6, [pc, #-2164]	; 19b0 <SCTLR_ENABLE_INSTRUCTION_CACHE+0x9b0>
    2220:	70640074 	rsbvc	r0, r4, r4, ror r0
    2224:	53006469 	movwpl	r6, #1129	; 0x469
    2228:	74696c70 	strbtvc	r6, [r9], #-3184	; 0xfffff390
    222c:	62616e45 	rsbvs	r6, r1, #1104	; 0x450
    2230:	4400656c 	strmi	r6, [r0], #-1388	; 0xfffffa94
    2234:	6e45616d 	dvfvssz	f6, f5, #5.0
    2238:	656c6261 	strbvs	r6, [ip, #-609]!	; 0xfffffd9f
    223c:	6e795300 	cdpvs	3, 7, cr5, cr9, cr0, {0}
    2240:	6f726863 	svcvs	0x00726863
    2244:	73756f6e 	cmnvc	r5, #440	; 0x1b8
    2248:	65736552 	ldrbvs	r6, [r3, #-1362]!	; 0xfffffaae
    224c:	70795474 	rsbsvc	r5, r9, r4, ror r4
    2250:	65520065 	ldrbvs	r0, [r2, #-101]	; 0xffffff9b
    2254:	62735567 	rsbsvs	r5, r3, #432013312	; 0x19c00000
    2258:	62735500 	rsbsvs	r5, r3, #0, 10
    225c:	65736552 	ldrbvs	r6, [r3, #-1362]!	; 0xfffffaae
    2260:	6d440074 	stclvs	0, cr0, [r4, #-464]	; 0xfffffe30
    2264:	61745361 	cmnvs	r4, r1, ror #6
    2268:	664f7472 			; <UNDEFINED> instruction: 0x664f7472
    226c:	6d617246 	sfmvs	f7, 2, [r1, #-280]!	; 0xfffffee8
    2270:	68430065 	stmdavs	r3, {r0, r2, r5, r6}^
    2274:	656e6e61 	strbvs	r6, [lr, #-3681]!	; 0xfffff19f
    2278:	6c61486c 	stclvs	8, cr4, [r1], #-432	; 0xfffffe50
    227c:	725f0074 	subsvc	r0, pc, #116	; 0x74
    2280:	72657365 	rsbvc	r7, r5, #-1811939327	; 0x94000001
    2284:	31646576 	smccc	18006	; 0x4656
    2288:	35315f30 	ldrcc	r5, [r1, #-3888]!	; 0xfffff0d0
    228c:	63615000 	cmnvs	r1, #0
    2290:	5374656b 	cmnpl	r4, #448790528	; 0x1ac00000
    2294:	43657a69 	cmnmi	r5, #430080	; 0x69000
    2298:	72746e6f 	rsbsvc	r6, r4, #1776	; 0x6f0
    229c:	69576c6f 	ldmdbvs	r7, {r0, r1, r2, r3, r5, r6, sl, fp, sp, lr}^
    22a0:	00687464 	rsbeq	r7, r8, r4, ror #8
    22a4:	72727543 	rsbsvc	r7, r2, #281018368	; 0x10c00000
    22a8:	4d746e65 	ldclmi	14, cr6, [r4, #-404]!	; 0xfffffe6c
    22ac:	0065646f 	rsbeq	r6, r5, pc, ror #8
    22b0:	746e6362 	strbtvc	r6, [lr], #-866	; 0xfffffc9e
    22b4:	776f4c00 	strbvc	r4, [pc, -r0, lsl #24]!
    22b8:	65776f50 	ldrbvs	r6, [r7, #-3920]!	; 0xfffff0b0
    22bc:	646f4d72 	strbtvs	r4, [pc], #-3442	; 22c4 <SCTLR_ENABLE_INSTRUCTION_CACHE+0x12c4>
    22c0:	73655265 	cmnvc	r5, #1342177286	; 0x50000006
    22c4:	736e6f70 	cmnvc	lr, #112, 30	; 0x1c0
    22c8:	65520065 	ldrbvs	r0, [r2, #-101]	; 0xffffff9b
    22cc:	67744f67 	ldrbvs	r4, [r4, -r7, ror #30]!
    22d0:	746e6f43 	strbtvc	r6, [lr], #-3907	; 0xfffff0bd
    22d4:	006c6f72 	rsbeq	r6, ip, r2, ror pc
    22d8:	72546e49 	subsvc	r6, r4, #1168	; 0x490
    22dc:	66736e61 	ldrbtvs	r6, [r3], -r1, ror #28
    22e0:	6f437265 	svcvs	0x00437265
    22e4:	656c706d 	strbvs	r7, [ip, #-109]!	; 0xffffff93
    22e8:	63006574 	movwvs	r6, #1396	; 0x574
    22ec:	70726968 	rsbsvc	r6, r2, r8, ror #18
    22f0:	52006e65 	andpl	r6, r0, #1616	; 0x650
    22f4:	79727465 	ldmdbvc	r2!, {r0, r2, r5, r6, sl, ip, sp, lr}^
    22f8:	6e756f43 	cdpvs	15, 7, cr6, cr5, cr3, {2}
    22fc:	61745374 	cmnvs	r4, r4, ror r3
    2300:	00737574 	rsbseq	r7, r3, r4, ror r5
    2304:	79737542 	ldmdbvc	r3!, {r1, r6, r8, sl, ip, sp, lr}^
    2308:	74616400 	strbtvc	r6, [r1], #-1024	; 0xfffffc00
    230c:	66756261 	ldrbtvs	r6, [r5], -r1, ror #4
    2310:	00726566 	rsbseq	r6, r2, r6, ror #10
    2314:	736c7346 	cmnvc	ip, #402653185	; 0x18000001
    2318:	796c6e4f 	stmdbvc	ip!, {r0, r1, r2, r3, r6, r9, sl, fp, sp, lr}^
    231c:	65764f00 	ldrbvs	r4, [r6, #-3840]!	; 0xfffff100
    2320:	72754372 	rsbsvc	r4, r5, #-939524095	; 0xc8000001
    2324:	746e6572 	strbtvc	r6, [lr], #-1394	; 0xfffffa8e
    2328:	706f6500 	rsbvc	r6, pc, r0, lsl #10
    232c:	6d617266 	sfmvs	f7, 2, [r1, #-408]!	; 0xfffffe68
    2330:	655a0065 	ldrbvs	r0, [sl, #-101]	; 0xffffff9b
    2334:	654c6f72 	strbvs	r6, [ip, #-3954]	; 0xfffff08e
    2338:	6874676e 	ldmdavs	r4!, {r1, r2, r3, r5, r6, r8, r9, sl, sp, lr}^
    233c:	6d745500 	cfldr64vs	mvdx5, [r4, #-0]
    2340:	706c5569 	rsbvc	r5, ip, r9, ror #10
    2344:	6f4c0069 	svcvs	0x004c0069
    2348:	776f5077 			; <UNDEFINED> instruction: 0x776f5077
    234c:	6f4d7265 	svcvs	0x004d7265
    2350:	72546564 	subsvc	r6, r4, #100, 10	; 0x19000000
    2354:	6d736e61 	ldclvs	14, cr6, [r3, #-388]!	; 0xfffffe7c
    2358:	65527469 	ldrbvs	r7, [r2, #-1129]	; 0xfffffb97
    235c:	76696563 	strbtvc	r6, [r9], -r3, ror #10
    2360:	50006465 	andpl	r6, r0, r5, ror #8
    2364:	7265776f 	rsbvc	r7, r5, #29097984	; 0x1bc0000
    2368:	6974704f 	ldmdbvs	r4!, {r0, r1, r2, r3, r6, ip, sp, lr}^
    236c:	6173696d 	cmnvs	r3, sp, ror #18
    2370:	6e6f6974 	mcrvs	9, 3, r6, cr15, cr4, {3}
    2374:	5f636900 	svcpl	0x00636900
    2378:	66617274 			; <UNDEFINED> instruction: 0x66617274
    237c:	5f636966 	svcpl	0x00636966
    2380:	6c6c7570 	cfstr64vs	mvdx7, [ip], #-448	; 0xfffffe40
    2384:	6d65725f 	sfmvs	f7, 2, [r5, #-380]!	; 0xfffffe84
    2388:	0065766f 	rsbeq	r7, r5, pc, ror #12
    238c:	5f796870 	svcpl	0x00796870
    2390:	5f6d706c 	svcpl	0x006d706c
    2394:	5f6b6c63 	svcpl	0x006b6c63
    2398:	006c6573 	rsbeq	r6, ip, r3, ror r5
    239c:	74696157 	strbtvc	r6, [r9], #-343	; 0xfffffea9
    23a0:	41726f46 	cmnmi	r2, r6, asr #30
    23a4:	72576978 	subsvc	r6, r7, #120, 18	; 0x1e0000
    23a8:	73657469 	cmnvc	r5, #1761607680	; 0x69000000
    23ac:	65444100 	strbvs	r4, [r4, #-256]	; 0xffffff00
    23b0:	65636976 	strbvs	r6, [r3, #-2422]!	; 0xfffff68a
    23b4:	656d6954 	strbvs	r6, [sp, #-2388]!	; 0xfffff6ac
    23b8:	4374756f 	cmnmi	r4, #465567744	; 0x1bc00000
    23bc:	676e6168 	strbvs	r6, [lr, -r8, ror #2]!
    23c0:	69440065 	stmdbvs	r4, {r0, r2, r5, r6}^
    23c4:	6c626173 	stfvse	f6, [r2], #-460	; 0xfffffe34
    23c8:	69724465 	ldmdbvs	r2!, {r0, r2, r5, r6, sl, lr}^
    23cc:	676e6976 			; <UNDEFINED> instruction: 0x676e6976
    23d0:	6c614800 	stclvs	8, cr4, [r1], #-0
    23d4:	725f0066 	subsvc	r0, pc, #102	; 0x66
    23d8:	72657365 	rsbvc	r7, r5, #-1811939327	; 0x94000001
    23dc:	32646576 	rsbcc	r6, r4, #494927872	; 0x1d800000
    23e0:	39325f38 	ldmdbcc	r2!, {r3, r4, r5, r8, r9, sl, fp, ip, lr}
    23e4:	6c615600 	stclvs	6, cr5, [r1], #-0
    23e8:	69466469 	stmdbvs	r6, {r0, r3, r5, r6, sl, sp, lr}^
    23ec:	7265746c 	rsbvc	r7, r5, #108, 8	; 0x6c000000
    23f0:	69646449 	stmdbvs	r4!, {r0, r3, r6, sl, sp, lr}^
    23f4:	616e4567 	cmnvs	lr, r7, ror #10
    23f8:	64656c62 	strbtvs	r6, [r5], #-3170	; 0xfffff39e
    23fc:	65725f00 	ldrbvs	r5, [r2, #-3840]!	; 0xfffff100
    2400:	76726573 			; <UNDEFINED> instruction: 0x76726573
    2404:	00396465 	eorseq	r6, r9, r5, ror #8
    2408:	69746f6e 	ldmdbvs	r4!, {r1, r2, r3, r5, r6, r8, r9, sl, fp, sp, lr}^
    240c:	646c6c61 	strbtvs	r6, [ip], #-3169	; 0xfffff39f
    2410:	7277616d 	rsbsvc	r6, r7, #1073741851	; 0x4000001b
    2414:	44007469 	strmi	r7, [r0], #-1129	; 0xfffffb97
    2418:	756f6265 	strbvc	r6, [pc, #-613]!	; 21bb <SCTLR_ENABLE_INSTRUCTION_CACHE+0x11bb>
    241c:	4465636e 	strbtmi	r6, [r5], #-878	; 0xfffffc92
    2420:	00656e6f 	rsbeq	r6, r5, pc, ror #28
    2424:	6e727574 	mrcvs	5, 3, r7, cr2, cr4, {3}
    2428:	5f6e6f5f 	svcpl	0x006e6f5f
    242c:	00627375 	rsbeq	r7, r2, r5, ror r3
    2430:	6c617661 	stclvs	6, cr7, [r1], #-388	; 0xfffffe7c
    2434:	766f6469 	strbtvc	r6, [pc], -r9, ror #8
    2438:	006c6176 	rsbeq	r6, ip, r6, ror r1
    243c:	49796850 	ldmdbmi	r9!, {r4, r6, fp, sp, lr}^
    2440:	7265746e 	rsbvc	r7, r5, #1845493760	; 0x6e000000
    2444:	65636166 	strbvs	r6, [r3, #-358]!	; 0xfffffe9a
    2448:	65725f00 	ldrbvs	r5, [r2, #-3840]!	; 0xfffff100
    244c:	76726573 			; <UNDEFINED> instruction: 0x76726573
    2450:	31326465 	teqcc	r2, r5, ror #8
    2454:	0031335f 	eorseq	r3, r1, pc, asr r3
    2458:	45626841 	strbmi	r6, [r2, #-2113]!	; 0xfffff7bf
    245c:	726f7272 	rsbvc	r7, pc, #536870919	; 0x20000007
    2460:	696f5000 	stmdbvs	pc!, {ip, lr}^	; <UNPREDICTABLE>
    2464:	6f54746e 	svcvs	0x0054746e
    2468:	6e696f50 	mcrvs	15, 3, r6, cr9, cr0, {2}
    246c:	6e450074 	mcrvs	0, 2, r0, cr5, cr4, {3}
    2470:	696f5064 	stmdbvs	pc!, {r2, r5, r6, ip, lr}^	; <UNPREDICTABLE>
    2474:	6944746e 	stmdbvs	r4, {r1, r2, r3, r5, r6, sl, ip, sp, lr}^
    2478:	74636572 	strbtvc	r6, [r3], #-1394	; 0xfffffa8e
    247c:	006e6f69 	rsbeq	r6, lr, r9, ror #30
    2480:	735f6362 	cmpvc	pc, #-2013265919	; 0x88000001
    2484:	6f707075 	svcvs	0x00707075
    2488:	56007472 			; <UNDEFINED> instruction: 0x56007472
    248c:	49737562 	ldmdbmi	r3!, {r1, r5, r6, r8, sl, ip, sp, lr}^
    2490:	6e457172 	mcrvs	1, 2, r7, cr5, cr2, {3}
    2494:	656c6261 	strbvs	r6, [ip, #-609]!	; 0xfffffd9f
    2498:	6f4e0064 	svcvs	0x004e0064
    249c:	74655974 	strbtvc	r5, [r5], #-2420	; 0xfffff68c
    24a0:	6d655200 	sfmvs	f5, 2, [r5, #-0]
    24a4:	5765746f 	strbpl	r7, [r5, -pc, ror #8]!
    24a8:	75656b61 	strbvc	r6, [r5, #-2913]!	; 0xfffff49f
    24ac:	616e4570 	smcvs	58448	; 0xe450
    24b0:	64656c62 	strbtvs	r6, [r5], #-3170	; 0xfffff39e
    24b4:	74614400 	strbtvc	r4, [r1], #-1024	; 0xfffffc00
    24b8:	7a695361 	bvc	1a57244 <__kernel_end+0x18f1244>
    24bc:	65520065 	ldrbvs	r0, [r2, #-101]	; 0xffffff9b
    24c0:	776f4c67 	strbvc	r4, [pc, -r7, ror #24]!
    24c4:	65776f50 	ldrbvs	r6, [r7, #-3920]!	; 0xfffff0b0
    24c8:	646f4d72 	strbtvs	r4, [pc], #-3442	; 24d0 <SCTLR_ENABLE_INSTRUCTION_CACHE+0x14d0>
    24cc:	6e6f4365 	cdpvs	3, 6, cr4, cr15, cr5, {3}
    24d0:	75676966 	strbvc	r6, [r7, #-2406]!	; 0xfffff69a
    24d4:	6f697461 	svcvs	0x00697461
    24d8:	6553006e 	ldrbvs	r0, [r3, #-110]	; 0xffffff92
    24dc:	6f697373 	svcvs	0x00697373
    24e0:	646e456e 	strbtvs	r4, [lr], #-1390	; 0xfffffa92
    24e4:	5f4f4e00 	svcpl	0x004f4e00
    24e8:	5f505253 	svcpl	0x00505253
    24ec:	41504143 	cmpmi	r0, r3, asr #2
    24f0:	5f454c42 	svcpl	0x00454c42
    24f4:	54534f48 	ldrbpl	r4, [r3], #-3912	; 0xfffff0b8
    24f8:	6b634100 	blvs	18d2900 <__kernel_end+0x176c900>
    24fc:	6c776f6e 	ldclvs	15, cr6, [r7], #-440	; 0xfffffe48
    2500:	65676465 	strbvs	r6, [r7, #-1125]!	; 0xfffffb9b
    2504:	67655200 	strbvs	r5, [r5, -r0, lsl #4]!
    2508:	6f697047 	svcvs	0x00697047
    250c:	616e4500 	cmnvs	lr, r0, lsl #10
    2510:	49656c62 	stmdbmi	r5!, {r1, r5, r6, sl, fp, sp, lr}^
    2514:	62735563 	rsbsvs	r5, r3, #415236096	; 0x18c00000
    2518:	6b6f5400 	blvs	1bd7520 <__kernel_end+0x1a71520>
    251c:	79546e65 	ldmdbvc	r4, {r0, r2, r5, r6, r9, sl, fp, sp, lr}^
    2520:	75006570 	strvc	r6, [r0, #-1392]	; 0xfffffa90
    2524:	72746273 	rsbsvc	r6, r4, #805306375	; 0x30000007
    2528:	6d697464 	cfstrdvs	mvd7, [r9, #-400]!	; 0xfffffe70
    252c:	646f4d00 	strbtvs	r4, [pc], #-3328	; 2534 <SCTLR_ENABLE_INSTRUCTION_CACHE+0x1534>
    2530:	6c655365 	stclvs	3, cr5, [r5], #-404	; 0xfffffe6c
    2534:	00746365 	rsbseq	r6, r4, r5, ror #6
    2538:	65636552 	strbvs	r6, [r3, #-1362]!	; 0xfffffaae
    253c:	53657669 	cmnpl	r5, #110100480	; 0x6900000
    2540:	75746174 	ldrbvc	r6, [r4, #-372]!	; 0xfffffe8c
    2544:	76654c73 			; <UNDEFINED> instruction: 0x76654c73
    2548:	44006c65 	strmi	r6, [r0], #-3173	; 0xfffff39b
    254c:	63697665 	cmnvs	r9, #105906176	; 0x6500000
    2550:	6b6f5465 	blvs	1bd76ec <__kernel_end+0x1a716ec>
    2554:	75516e65 	ldrbvc	r6, [r1, #-3685]	; 0xfffff19b
    2558:	44657565 	strbtmi	r7, [r5], #-1381	; 0xfffffa9b
    255c:	68747065 	ldmdavs	r4!, {r0, r2, r5, r6, ip, sp, lr}^
    2560:	65725f00 	ldrbvs	r5, [r2, #-3840]!	; 0xfffff100
    2564:	76726573 			; <UNDEFINED> instruction: 0x76726573
    2568:	38326465 	ldmdacc	r2!, {r0, r2, r5, r6, sl, sp, lr}
    256c:	0031335f 	eorseq	r3, r1, pc, asr r3
    2570:	6f727245 	svcvs	0x00727245
    2574:	76654472 			; <UNDEFINED> instruction: 0x76654472
    2578:	00656369 	rsbeq	r6, r5, r9, ror #6
    257c:	41627548 	cmnmi	r2, r8, asr #10
    2580:	65726464 	ldrbvs	r6, [r2, #-1124]!	; 0xfffffb9c
    2584:	55007373 	strpl	r7, [r0, #-883]	; 0xfffffc8d
    2588:	53696d74 	cmnpl	r9, #116, 26	; 0x1d00
    258c:	7065656c 	rsbvc	r6, r5, ip, ror #10
    2590:	62616e45 	rsbvs	r6, r1, #1104	; 0x450
    2594:	0064656c 	rsbeq	r6, r4, ip, ror #10
    2598:	746c756d 	strbtvc	r7, [ip], #-1389	; 0xfffffa93
    259c:	72705f69 	rsbsvc	r5, r0, #420	; 0x1a4
    25a0:	695f636f 	ldmdbvs	pc, {r0, r1, r2, r3, r5, r6, r8, r9, sp, lr}^	; <UNPREDICTABLE>
    25a4:	4500746e 	strmi	r7, [r0, #-1134]	; 0xfffffb92
    25a8:	72657478 	rsbvc	r7, r5, #120, 8	; 0x78000000
    25ac:	446c616e 	strbtmi	r6, [ip], #-366	; 0xfffffe92
    25b0:	5200616d 	andpl	r6, r0, #1073741851	; 0x4000001b
    25b4:	65506765 	ldrbvs	r6, [r0, #-1893]	; 0xfffff89b
    25b8:	646f6972 	strbtvs	r6, [pc], #-2418	; 25c0 <SCTLR_ENABLE_INSTRUCTION_CACHE+0x15c0>
    25bc:	69466369 	stmdbvs	r6, {r0, r3, r5, r6, r8, r9, sp, lr}^
    25c0:	69536f66 	ldmdbvs	r3, {r1, r2, r5, r6, r8, r9, sl, fp, sp, lr}^
    25c4:	4100657a 	tstmi	r0, sl, ror r5
    25c8:	73736553 	cmnvc	r3, #348127232	; 0x14c00000
    25cc:	566e6f69 	strbtpl	r6, [lr], -r9, ror #30
    25d0:	64696c61 	strbtvs	r6, [r9], #-3169	; 0xfffff39f
    25d4:	63324900 	teqvs	r2, #0, 18
    25d8:	62616e45 	rsbvs	r6, r1, #1104	; 0x450
    25dc:	5000656c 	andpl	r6, r0, ip, ror #10
    25e0:	656b6361 	strbvs	r6, [fp, #-865]!	; 0xfffffc9f
    25e4:	65507374 	ldrbvs	r7, [r0, #-884]	; 0xfffffc8c
    25e8:	61724672 	cmnvs	r2, r2, ror r6
    25ec:	4900656d 	stmdbmi	r0, {r0, r2, r3, r5, r6, r8, sl, sp, lr}
    25f0:	68636f73 	stmdavs	r3!, {r0, r1, r4, r5, r6, r8, r9, sl, fp, sp, lr}^
    25f4:	6f6e6f72 	svcvs	0x006e6f72
    25f8:	44007375 	strmi	r7, [r0], #-885	; 0xfffffc8b
    25fc:	53706565 	cmnpl	r0, #423624704	; 0x19400000
    2600:	7065656c 	rsbvc	r6, r5, ip, ror #10
    2604:	6c634800 	stclvs	8, cr4, [r3], #-0
    2608:	666f536b 	strbtvs	r5, [pc], -fp, ror #6
    260c:	65520074 	ldrbvs	r0, [r2, #-116]	; 0xffffff8c
    2610:	746c7573 	strbtvc	r7, [ip], #-1395	; 0xfffffa8d
    2614:	61766100 	cmnvs	r6, r0, lsl #2
    2618:	6f64696c 	svcvs	0x0064696c
    261c:	006e6576 	rsbeq	r6, lr, r6, ror r5
    2620:	6b636150 	blvs	18dab68 <__kernel_end+0x1774b68>
    2624:	64497465 	strbvs	r7, [r9], #-1125	; 0xfffffb9b
    2628:	72724500 	rsbsvc	r4, r2, #0, 10
    262c:	7241726f 	subvc	r7, r1, #-268435450	; 0xf0000006
    2630:	656d7567 	strbvs	r7, [sp, #-1383]!	; 0xfffffa99
    2634:	5f00746e 	svcpl	0x0000746e
    2638:	65736572 	ldrbvs	r6, [r3, #-1394]!	; 0xfffffa8e
    263c:	64657672 	strbtvs	r7, [r5], #-1650	; 0xfffff98e
    2640:	335f3431 	cmpcc	pc, #822083584	; 0x31000000
    2644:	65500031 	ldrbvs	r0, [r0, #-49]	; 0xffffffcf
    2648:	646f6972 	strbtvs	r6, [pc], #-2418	; 2650 <SCTLR_ENABLE_INSTRUCTION_CACHE+0x1650>
    264c:	72546369 	subsvc	r6, r4, #-1543503871	; 0xa4000001
    2650:	66736e61 	ldrbtvs	r6, [r3], -r1, ror #28
    2654:	6d457265 	sfmvs	f7, 2, [r5, #-404]	; 0xfffffe6c
    2658:	4c797470 	cfldrdmi	mvd7, [r9], #-448	; 0xfffffe40
    265c:	6c657665 	stclvs	6, cr7, [r5], #-404	; 0xfffffe6c
    2660:	76656400 	strbtvc	r6, [r5], -r0, lsl #8
    2664:	65706e68 	ldrbvs	r6, [r0, #-3688]!	; 0xfffff198
    2668:	6552006e 	ldrbvs	r0, [r2, #-110]	; 0xffffff92
    266c:	69644d67 	stmdbvs	r4!, {r0, r1, r2, r5, r6, r8, sl, fp, lr}^
    2670:	6972576f 	ldmdbvs	r2!, {r0, r1, r2, r3, r5, r6, r8, r9, sl, ip, lr}^
    2674:	48006574 	stmdami	r0, {r2, r4, r5, r6, r8, sl, sp, lr}
    2678:	53686769 	cmnpl	r8, #27525120	; 0x1a40000
    267c:	64656570 	strbtvs	r6, [r5], #-1392	; 0xfffffa90
    2680:	73796850 	cmnvc	r9, #80, 16	; 0x500000
    2684:	6c616369 	stclvs	3, cr6, [r1], #-420	; 0xfffffe5c
    2688:	62614200 	rsbvs	r4, r1, #0, 4
    268c:	45656c62 	strbmi	r6, [r5, #-3170]!	; 0xfffff39e
    2690:	726f7272 	rsbvc	r7, pc, #536870919	; 0x20000007
    2694:	65725f00 	ldrbvs	r5, [r2, #-3840]!	; 0xfffff100
    2698:	76726573 			; <UNDEFINED> instruction: 0x76726573
    269c:	5f386465 	svcpl	0x00386465
    26a0:	46003133 			; <UNDEFINED> instruction: 0x46003133
    26a4:	536c6c75 	cmnpl	ip, #29952	; 0x7500
    26a8:	64656570 	strbtvs	r6, [r5], #-1392	; 0xfffffa90
    26ac:	73796850 	cmnvc	r9, #80, 16	; 0x500000
    26b0:	6c616369 	stclvs	3, cr6, [r1], #-420	; 0xfffffe5c
    26b4:	776f4c00 	strbvc	r4, [pc, -r0, lsl #24]!
    26b8:	65776f50 	ldrbvs	r6, [r7, #-3920]!	; 0xfffff0b0
    26bc:	646f4d72 	strbtvs	r4, [pc], #-3442	; 26c4 <SCTLR_ENABLE_INSTRUCTION_CACHE+0x16c4>
    26c0:	70614365 	rsbvc	r4, r1, r5, ror #6
    26c4:	656c6261 	strbvs	r6, [ip, #-609]!	; 0xfffffd9f
    26c8:	67655200 	strbvs	r5, [r5, -r0, lsl #4]!
    26cc:	4967744f 	stmdbmi	r7!, {r0, r1, r2, r3, r6, sl, ip, sp, lr}^
    26d0:	7265746e 	rsbvc	r7, r5, #1845493760	; 0x6e000000
    26d4:	74707572 	ldrbtvc	r7, [r0], #-1394	; 0xfffffa8e
    26d8:	76654400 	strbtvc	r4, [r5], -r0, lsl #8
    26dc:	45656369 	strbmi	r6, [r5, #-873]!	; 0xfffffc97
    26e0:	6f50646e 	svcvs	0x0050646e
    26e4:	43746e69 	cmnmi	r4, #1680	; 0x690
    26e8:	746e756f 	strbtvc	r7, [lr], #-1391	; 0xfffffa91
    26ec:	67655200 	strbvs	r5, [r5, -r0, lsl #4]!
    26f0:	43633249 	cmnmi	r3, #-1879048188	; 0x90000004
    26f4:	72746e6f 	rsbsvc	r6, r4, #1776	; 0x6f0
    26f8:	50006c6f 	andpl	r6, r0, pc, ror #24
    26fc:	4174726f 	cmnmi	r4, pc, ror #4
    2700:	65726464 	ldrbvs	r6, [r2, #-1124]!	; 0xfffffb9c
    2704:	65007373 	strvs	r7, [r0, #-883]	; 0xfffffc8d
    2708:	32335f6e 	eorscc	r5, r3, #440	; 0x1b8
    270c:	5f7a686b 	svcpl	0x007a686b
    2710:	70737573 	rsbsvc	r7, r3, r3, ror r5
    2714:	726f4300 	rsbvc	r4, pc, #0, 6
    2718:	6f6c4765 	svcvs	0x006c4765
    271c:	526c6162 	rsbpl	r6, ip, #-2147483624	; 0x80000018
    2720:	00736765 	rsbseq	r6, r3, r5, ror #14
    2724:	75736552 	ldrbvc	r6, [r3, #-1362]!	; 0xfffffaae
    2728:	4300656d 	movwmi	r6, #1389	; 0x56d
    272c:	656e6e6f 	strbvs	r6, [lr, #-3695]!	; 0xfffff191
    2730:	6f697463 	svcvs	0x00697463
    2734:	5364496e 	cmnpl	r4, #1802240	; 0x1b8000
    2738:	75746174 	ldrbvc	r6, [r4, #-372]!	; 0xfffffe8c
    273c:	61684373 	smcvs	33843	; 0x8433
    2740:	0065676e 	rsbeq	r6, r5, lr, ror #14
    2744:	7365725f 	cmnvc	r5, #-268435451	; 0xf0000005
    2748:	65767265 	ldrbvs	r7, [r6, #-613]!	; 0xfffffd9b
    274c:	5f343264 	svcpl	0x00343264
    2750:	50003033 	andpl	r3, r0, r3, lsr r0
    2754:	69737968 	ldmdbvs	r3!, {r3, r5, r6, r8, fp, ip, sp, lr}^
    2758:	306c6163 	rsbcc	r6, ip, r3, ror #2
    275c:	736f4800 	cmnvc	pc, #0, 16
    2760:	61684374 	smcvs	33844	; 0x8434
    2764:	6c656e6e 	stclvs	14, cr6, [r5], #-440	; 0xfffffe48
    2768:	6e756f43 	cdpvs	15, 7, cr6, cr5, cr3, {2}
    276c:	68500074 	ldmdavs	r0, {r2, r4, r5, r6}^
    2770:	63697379 	cmnvs	r9, #-469762047	; 0xe4000001
    2774:	00326c61 	eorseq	r6, r2, r1, ror #24
    2778:	65657246 	strbvs	r7, [r5, #-582]!	; 0xfffffdba
    277c:	006e7552 	rsbeq	r7, lr, r2, asr r5
    2780:	73736553 	cmnvc	r3, #348127232	; 0x14c00000
    2784:	456e6f69 	strbmi	r6, [lr, #-3945]!	; 0xfffff097
    2788:	6544646e 	strbvs	r6, [r4, #-1134]	; 0xfffffb92
    278c:	74636574 	strbtvc	r6, [r3], #-1396	; 0xfffffa8c
    2790:	43006465 	movwmi	r6, #1125	; 0x465
    2794:	6e6e6168 	powvsez	f6, f6, #0.0
    2798:	6e496c65 	cdpvs	12, 4, cr6, cr9, cr5, {3}
    279c:	72726574 	rsbsvc	r6, r2, #116, 10	; 0x1d000000
    27a0:	73747075 	cmnvc	r4, #117	; 0x75
    27a4:	64634800 	strbtvs	r4, [r3], #-2048	; 0xfffff800
    27a8:	74696e49 	strbtvc	r6, [r9], #-3657	; 0xfffff1b7
    27ac:	696c6169 	stmdbvs	ip!, {r0, r3, r5, r6, r8, sp, lr}^
    27b0:	4400657a 	strmi	r6, [r0], #-1402	; 0xfffffa86
    27b4:	7944616d 	stmdbvc	r4, {r0, r2, r3, r5, r6, r8, sp, lr}^
    27b8:	696d616e 	stmdbvs	sp!, {r1, r2, r3, r5, r6, r8, sp, lr}^
    27bc:	73654463 	cmnvc	r5, #1660944384	; 0x63000000
    27c0:	70697263 	rsbvc	r7, r9, r3, ror #4
    27c4:	6e6f6974 	mcrvs	9, 3, r6, cr15, cr4, {3}
    27c8:	776f4c00 	strbvc	r4, [pc, -r0, lsl #24]!
    27cc:	65776f50 	ldrbvs	r6, [r7, #-3920]!	; 0xfffff0b0
    27d0:	646f4d72 	strbtvs	r4, [pc], #-3442	; 27d8 <SCTLR_ENABLE_INSTRUCTION_CACHE+0x17d8>
    27d4:	6e6f4365 	cdpvs	3, 6, cr4, cr15, cr5, {3}
    27d8:	75676966 	strbvc	r6, [r7, #-2406]!	; 0xfffff69a
    27dc:	69746172 	ldmdbvs	r4!, {r1, r4, r5, r6, r8, sp, lr}^
    27e0:	4d006e6f 	stcmi	14, cr6, [r0, #-444]	; 0xfffffe44
    27e4:	72576364 	subsvc	r6, r7, #100, 6	; 0x90000001
    27e8:	00657469 	rsbeq	r7, r5, r9, ror #8
    27ec:	33776152 	cmncc	r7, #-2147483628	; 0x80000014
    27f0:	6f660032 	svcvs	0x00660032
    27f4:	5f656372 	svcpl	0x00656372
    27f8:	5f766564 	svcpl	0x00766564
    27fc:	65646f6d 	strbvs	r6, [r4, #-3949]!	; 0xfffff093
    2800:	72615000 	rsbvc	r5, r1, #0
    2804:	6c616974 	stclvs	9, cr6, [r1], #-464	; 0xfffffe30
    2808:	65776f50 	ldrbvs	r6, [r7, #-3920]!	; 0xfffff0b0
    280c:	66664f72 	uqsub16vs	r4, r6, r2
    2810:	61725400 	cmnvs	r2, r0, lsl #8
    2814:	696d736e 	stmdbvs	sp!, {r1, r2, r3, r5, r6, r8, r9, ip, sp, lr}^
    2818:	66694674 			; <UNDEFINED> instruction: 0x66694674
    281c:	756c466f 	strbvc	r4, [ip, #-1647]!	; 0xfffff991
    2820:	41006873 	tstmi	r0, r3, ror r8
    2824:	69686372 	stmdbvs	r8!, {r1, r4, r5, r6, r8, r9, sp, lr}^
    2828:	74636574 	strbtvc	r6, [r3], #-1396	; 0xfffffa8c
    282c:	00657275 	rsbeq	r7, r5, r5, ror r2
    2830:	74736f48 	ldrbtvc	r6, [r3], #-3912	; 0xfffff0b8
    2834:	74726f50 	ldrbtvc	r6, [r2], #-3920	; 0xfffff0b0
    2838:	61725400 	cmnvs	r2, r0, lsl #8
    283c:	6361736e 	cmnvs	r1, #-1207959551	; 0xb8000001
    2840:	6e6f6974 	mcrvs	9, 3, r6, cr15, cr4, {3}
    2844:	69736f50 	ldmdbvs	r3!, {r4, r6, r8, r9, sl, fp, sp, lr}^
    2848:	6e6f6974 	mcrvs	9, 3, r6, cr15, cr4, {3}
    284c:	72655000 	rsbvc	r5, r5, #0
    2850:	69646f69 	stmdbvs	r4!, {r0, r3, r5, r6, r8, r9, sl, fp, sp, lr}^
    2854:	456e4963 	strbmi	r4, [lr, #-2403]!	; 0xfffff69d
    2858:	6f70646e 	svcvs	0x0070646e
    285c:	43746e69 	cmnmi	r4, #1680	; 0x690
    2860:	746e756f 	strbtvc	r7, [lr], #-1391	; 0xfffffa91
    2864:	67655200 	strbvs	r5, [r5, -r0, lsl #4]!
    2868:	65736552 	ldrbvs	r6, [r3, #-1362]!	; 0xfffffaae
    286c:	72440074 	subvc	r0, r4, #116	; 0x74
    2870:	56657669 	strbtpl	r7, [r5], -r9, ror #12
    2874:	00737562 	rsbseq	r7, r3, r2, ror #10
    2878:	61746144 	cmnvs	r4, r4, asr #2
    287c:	67676f54 			; <UNDEFINED> instruction: 0x67676f54
    2880:	7245656c 	subvc	r6, r5, #108, 10	; 0x1b000000
    2884:	00726f72 	rsbseq	r6, r2, r2, ror pc
    2888:	6d6d6572 	cfstr64vs	mvdx6, [sp, #-456]!	; 0xfffffe38
    288c:	75736d65 	ldrbvc	r6, [r3, #-3429]!	; 0xfffff29b
    2890:	49007070 	stmdbmi	r0, {r4, r5, r6, ip, sp, lr}
    2894:	6d6f636e 	stclvs	3, cr6, [pc, #-440]!	; 26e4 <SCTLR_ENABLE_INSTRUCTION_CACHE+0x16e4>
    2898:	74656c70 	strbtvc	r6, [r5], #-3184	; 0xfffff390
    289c:	6f734965 	svcvs	0x00734965
    28a0:	6f726863 	svcvs	0x00726863
    28a4:	73756f6e 	cmnvc	r5, #440	; 0x1b8
    28a8:	5f006e49 	svcpl	0x00006e49
    28ac:	65736572 	ldrbvs	r6, [r3, #-1394]!	; 0xfffffa8e
    28b0:	64657672 	strbtvs	r7, [r5], #-1650	; 0xfffff98e
    28b4:	5f333031 	svcpl	0x00333031
    28b8:	00393031 	eorseq	r3, r9, r1, lsr r0
    28bc:	49796850 	ldmdbmi	r9!, {r4, r6, fp, sp, lr}^
    28c0:	6974696e 	ldmdbvs	r4!, {r1, r2, r3, r5, r6, r8, fp, sp, lr}^
    28c4:	73696c61 	cmnvc	r9, #24832	; 0x6100
    28c8:	57006465 	strpl	r6, [r0, -r5, ror #8]
    28cc:	75656b61 	strbvc	r6, [r5, #-2913]!	; 0xfffff49f
    28d0:	73550070 	cmpvc	r5, #112	; 0x70
    28d4:	73755362 	cmnvc	r5, #-2013265919	; 0x88000001
    28d8:	646e6570 	strbtvs	r6, [lr], #-1392	; 0xfffffa90
    28dc:	61724600 	cmnvs	r2, r0, lsl #12
    28e0:	694c656d 	stmdbvs	ip, {r0, r2, r3, r5, r6, r8, sl, sp, lr}^
    28e4:	53007473 	movwpl	r7, #1139	; 0x473
    28e8:	69737365 	ldmdbvs	r3!, {r0, r2, r5, r6, r8, r9, ip, sp, lr}^
    28ec:	65526e6f 	ldrbvs	r6, [r2, #-3695]	; 0xfffff191
    28f0:	73657571 	cmnvc	r5, #473956352	; 0x1c400000
    28f4:	63755374 	cmnvs	r5, #116, 6	; 0xd0000001
    28f8:	73736563 	cmnvc	r3, #415236096	; 0x18c00000
    28fc:	74617453 	strbtvc	r7, [r1], #-1107	; 0xfffffbad
    2900:	68437375 	stmdavs	r3, {r0, r2, r4, r5, r6, r8, r9, ip, sp, lr}^
    2904:	65676e61 	strbvs	r6, [r7, #-3681]!	; 0xfffff19f
    2908:	78614d00 	stmdavc	r1!, {r8, sl, fp, lr}^
    290c:	6d756d69 	ldclvs	13, cr6, [r5, #-420]!	; 0xfffffe5c
    2910:	6b636150 	blvs	18dae58 <__kernel_end+0x1774e58>
    2914:	69537465 	ldmdbvs	r3, {r0, r2, r5, r6, sl, ip, sp, lr}^
    2918:	5600657a 			; <UNDEFINED> instruction: 0x5600657a
    291c:	64696c61 	strbtvs	r6, [r9], #-3169	; 0xfffff39f
    2920:	746c6946 	strbtvc	r6, [ip], #-2374	; 0xfffff6ba
    2924:	45417265 	strbmi	r7, [r1, #-613]	; 0xfffffd9b
    2928:	6c62616e 	stfvse	f6, [r2], #-440	; 0xfffffe48
    292c:	41006465 	tstmi	r0, r5, ror #8
    2930:	696c7070 	stmdbvs	ip!, {r4, r5, r6, ip, sp, lr}^
    2934:	69746163 	ldmdbvs	r4!, {r0, r1, r5, r6, r8, sp, lr}^
    2938:	65526e6f 	ldrbvs	r6, [r2, #-3695]	; 0xfffff191
    293c:	6e6f7073 	mcrvs	0, 3, r7, cr15, cr3, {3}
    2940:	44006573 	strmi	r6, [r0], #-1395	; 0xfffffa8d
    2944:	63657269 	cmnvs	r5, #-1879048186	; 0x90000006
    2948:	6e6f6974 	mcrvs	9, 3, r6, cr15, cr4, {3}
    294c:	4e003031 	mcrmi	0, 0, r3, cr0, cr1, {1}
    2950:	74616765 	strbtvc	r6, [r1], #-1893	; 0xfffff89b
    2954:	41657669 	cmnmi	r5, r9, ror #12
    2958:	6f6e6b63 	svcvs	0x006e6b63
    295c:	64656c77 	strbtvs	r6, [r5], #-3191	; 0xfffff389
    2960:	656d6567 	strbvs	r6, [sp, #-1383]!	; 0xfffffa99
    2964:	5700746e 	strpl	r7, [r0, -lr, ror #8]
    2968:	68746469 	ldmdavs	r4!, {r0, r3, r5, r6, sl, sp, lr}^
    296c:	69623631 	stmdbvs	r2!, {r0, r4, r5, r9, sl, ip, sp}^
    2970:	6e490074 	mcrvs	0, 2, r0, cr9, cr4, {3}
    2974:	72726574 	rsbsvc	r6, r2, #116, 10	; 0x1d000000
    2978:	45747075 	ldrbmi	r7, [r4, #-117]!	; 0xffffff8b
    297c:	6c62616e 	stfvse	f6, [r2], #-440	; 0xfffffe48
    2980:	6c530065 	mrrcvs	0, 6, r0, r3, cr5
    2984:	4f657661 	svcmi	0x00657661
    2988:	00796c6e 	rsbseq	r6, r9, lr, ror #24
    298c:	75657551 	strbvc	r7, [r5, #-1361]!	; 0xfffffaaf
    2990:	61705365 	cmnvs	r0, r5, ror #6
    2994:	76416563 	strbvc	r6, [r1], -r3, ror #10
    2998:	616c6961 	cmnvs	ip, r1, ror #18
    299c:	00656c62 	rsbeq	r6, r5, r2, ror #24
    29a0:	69766564 	ldmdbvs	r6!, {r2, r5, r6, r8, sl, sp, lr}^
    29a4:	752f6563 	strvc	r6, [pc, #-1379]!	; 2449 <SCTLR_ENABLE_INSTRUCTION_CACHE+0x1449>
    29a8:	2e646273 	mcrcs	2, 3, r6, cr4, cr3, {3}
    29ac:	73550063 	cmpvc	r5, #99	; 0x63
    29b0:	696e4962 	stmdbvs	lr!, {r1, r5, r6, r8, fp, lr}^
    29b4:	6c616974 	stclvs	9, cr6, [r1], #-464	; 0xfffffe30
    29b8:	00657369 	rsbeq	r7, r5, r9, ror #6
    29bc:	74616c50 	strbtvc	r6, [r1], #-3152	; 0xfffff3b0
    29c0:	6d726f66 	ldclvs	15, cr6, [r2, #-408]!	; 0xfffffe68
    29c4:	64616f4c 	strbtvs	r6, [r1], #-3916	; 0xfffff0b4
    29c8:	6d654d00 	stclvs	13, cr4, [r5, #-0]
    29cc:	4379726f 	cmnmi	r9, #-268435450	; 0xf0000006
    29d0:	0079706f 	rsbseq	r7, r9, pc, rrx
    29d4:	73726946 	cmnvc	r2, #1146880	; 0x118000
    29d8:	6c6c4174 	stfvse	f4, [ip], #-464	; 0xfffffe30
    29dc:	7461636f 	strbtvc	r6, [r1], #-879	; 0xfffffc91
    29e0:	006e6f69 	rsbeq	r6, lr, r9, ror #30
    29e4:	6f6c6c41 	svcvs	0x006c6c41
    29e8:	69746163 	ldmdbvs	r4!, {r0, r1, r5, r6, r8, sp, lr}^
    29ec:	00736e6f 	rsbseq	r6, r3, pc, ror #28
    29f0:	70616548 	rsbvc	r6, r1, r8, asr #10
    29f4:	6f6c6c41 	svcvs	0x006c6c41
    29f8:	69746163 	ldmdbvs	r4!, {r0, r1, r5, r6, r8, sp, lr}^
    29fc:	70006e6f 	andvc	r6, r0, pc, ror #28
    2a00:	69737968 	ldmdbvs	r3!, {r3, r5, r6, r8, fp, ip, sp, lr}^
    2a04:	416c6163 	cmnmi	ip, r3, ror #2
    2a08:	65726464 	ldrbvs	r6, [r2, #-1124]!	; 0xfffffb9c
    2a0c:	64007373 	strvs	r7, [r0], #-883	; 0xfffffc8d
    2a10:	63697665 	cmnvs	r9, #105906176	; 0x6500000
    2a14:	73752f65 	cmnvc	r5, #404	; 0x194
    2a18:	656d2d62 	strbvs	r2, [sp, #-3426]!	; 0xfffff29e
    2a1c:	00632e6d 	rsbeq	r2, r3, sp, ror #28
    2a20:	72646461 	rsbvc	r6, r4, #1627389952	; 0x61000000
    2a24:	00737365 	rsbseq	r7, r3, r5, ror #6
    2a28:	72756f73 	rsbsvc	r6, r5, #460	; 0x1cc
    2a2c:	43006563 	movwmi	r6, #1379	; 0x563
    2a30:	65727275 	ldrbvs	r7, [r2, #-629]!	; 0xfffffd8b
    2a34:	6441746e 	strbvs	r7, [r1], #-1134	; 0xfffffb92
    2a38:	73657264 	cmnvc	r5, #100, 4	; 0x40000006
    2a3c:	654d0073 	strbvs	r0, [sp, #-115]	; 0xffffff8d
    2a40:	79726f6d 	ldmdbvc	r2!, {r0, r2, r3, r5, r6, r8, r9, sl, fp, sp, lr}^
    2a44:	6c616544 	cfstr64vs	mvdx6, [r1], #-272	; 0xfffffef0
    2a48:	61636f6c 	cmnvs	r3, ip, ror #30
    2a4c:	4e006574 	cfrshl64mi	mvdx0, mvdx4, r6
    2a50:	00747865 	rsbseq	r7, r4, r5, ror #16
    2a54:	74736564 	ldrbtvc	r6, [r3], #-1380	; 0xfffffa9c
    2a58:	74616e69 	strbtvc	r6, [r1], #-3689	; 0xfffff197
    2a5c:	006e6f69 	rsbeq	r6, lr, r9, ror #30
    2a60:	73726946 	cmnvc	r2, #1146880	; 0x118000
    2a64:	65724674 	ldrbvs	r4, [r2, #-1652]!	; 0xfffff98c
    2a68:	6c6c4165 	stfvse	f4, [ip], #-404	; 0xfffffe6c
    2a6c:	7461636f 	strbtvc	r6, [r1], #-879	; 0xfffffc91
    2a70:	006e6f69 	rsbeq	r6, lr, r9, ror #30
    2a74:	6f6d654d 	svcvs	0x006d654d
    2a78:	6c417972 	mcrrvs	9, 7, r7, r1, cr2
    2a7c:	61636f6c 	cmnvs	r3, ip, ror #30
    2a80:	4d006574 	cfstr32mi	mvfx6, [r0, #-464]	; 0xfffffe30
    2a84:	726f6d65 	rsbvc	r6, pc, #6464	; 0x1940
    2a88:	73655279 	cmnvc	r5, #-1879048185	; 0x90000007
    2a8c:	65767265 	ldrbvs	r7, [r6, #-613]!	; 0xfffffd9b
    2a90:	61654800 	cmnvs	r5, r0, lsl #16
    2a94:	74610070 	strbtvc	r0, [r1], #-112	; 0xffffff90
    2a98:	00736761 	rsbseq	r6, r3, r1, ror #14
    2a9c:	6e72656b 	cdpvs	5, 7, cr6, cr2, cr11, {3}
    2aa0:	6b2f6c65 	blvs	bddc3c <__kernel_end+0xa77c3c>
    2aa4:	656e7265 	strbvs	r7, [lr, #-613]!	; 0xfffffd9b
    2aa8:	00632e6c 	rsbeq	r2, r3, ip, ror #28
    2aac:	20554e47 	subscs	r4, r5, r7, asr #28
    2ab0:	20313143 	eorscs	r3, r1, r3, asr #2
    2ab4:	2e342e35 	mrccs	14, 1, r2, cr4, cr5, {1}
    2ab8:	30322031 	eorscc	r2, r2, r1, lsr r0
    2abc:	39303631 	ldmdbcc	r0!, {r0, r4, r5, r9, sl, ip, sp}
    2ac0:	28203931 	stmdacs	r0!, {r0, r4, r5, r8, fp, ip, sp}
    2ac4:	656c6572 	strbvs	r6, [ip, #-1394]!	; 0xfffffa8e
    2ac8:	29657361 	stmdbcs	r5!, {r0, r5, r6, r8, r9, ip, sp, lr}^
    2acc:	52415b20 	subpl	r5, r1, #32, 22	; 0x8000
    2ad0:	6d652f4d 	stclvs	15, cr2, [r5, #-308]!	; 0xfffffecc
    2ad4:	64646562 	strbtvs	r6, [r4], #-1378	; 0xfffffa9e
    2ad8:	352d6465 	strcc	r6, [sp, #-1125]!	; 0xfffffb9b
    2adc:	6172622d 	cmnvs	r2, sp, lsr #4
    2ae0:	2068636e 	rsbcs	r6, r8, lr, ror #6
    2ae4:	69766572 	ldmdbvs	r6!, {r1, r4, r5, r6, r8, sl, sp, lr}^
    2ae8:	6e6f6973 	mcrvs	9, 3, r6, cr15, cr3, {3}
    2aec:	30343220 	eorscc	r3, r4, r0, lsr #4
    2af0:	5d363934 	ldcpl	9, cr3, [r6, #-208]!	; 0xffffff30
    2af4:	20672d20 	rsbcs	r2, r7, r0, lsr #26
    2af8:	20324f2d 	eorscs	r4, r2, sp, lsr #30
    2afc:	6474732d 	ldrbtvs	r7, [r4], #-813	; 0xfffffcd3
    2b00:	756e673d 	strbvc	r6, [lr, #-1853]!	; 0xfffff8c3
    2b04:	2d203131 	stfcss	f3, [r0, #-196]!	; 0xffffff3c
    2b08:	65726666 	ldrbvs	r6, [r2, #-1638]!	; 0xfffff99a
    2b0c:	61747365 	cmnvs	r4, r5, ror #6
    2b10:	6e69646e 	cdpvs	4, 6, cr6, cr9, cr14, {3}
    2b14:	73640067 	cmnvc	r4, #103	; 0x67
    2b18:	72747074 	rsbsvc	r7, r4, #116	; 0x74
    2b1c:	63727300 	cmnvs	r2, #0, 6
    2b20:	00727470 	rsbseq	r7, r2, r0, ror r4
    2b24:	6573552f 	ldrbvs	r5, [r3, #-1327]!	; 0xfffffad1
    2b28:	702f7372 	eorvc	r7, pc, r2, ror r3	; <UNPREDICTABLE>
    2b2c:	616b6172 	smcvs	46610	; 0xb612
    2b30:	6f626873 	svcvs	0x00626873
    2b34:	72616b72 	rsbvc	r6, r1, #116736	; 0x1c800
    2b38:	7365442f 	cmnvc	r5, #788529152	; 0x2f000000
    2b3c:	706f746b 	rsbvc	r7, pc, fp, ror #8
    2b40:	6d65522f 	sfmvs	f5, 2, [r5, #-188]!	; 0xffffff44
    2b44:	5f65746f 	svcpl	0x0065746f
    2b48:	6f706552 	svcvs	0x00706552
    2b4c:	6970722f 	ldmdbvs	r0!, {r0, r1, r2, r3, r5, r9, ip, sp, lr}^
    2b50:	2d736f2d 	ldclcs	15, cr6, [r3, #-180]!	; 0xffffff4c
    2b54:	74726175 	ldrbtvc	r6, [r2], #-373	; 0xfffffe8b
    2b58:	6970722f 	ldmdbvs	r0!, {r0, r1, r2, r3, r5, r9, ip, sp, lr}^
    2b5c:	6d2d6233 	sfmvs	f6, 4, [sp, #-204]!	; 0xffffff34
    2b60:	79746165 	ldmdbvc	r4!, {r0, r2, r5, r6, r8, sp, lr}^
    2b64:	656b732d 	strbvs	r7, [fp, #-813]!	; 0xfffffcd3
    2b68:	6f74656c 	svcvs	0x0074656c
    2b6c:	696c2f6e 	stmdbvs	ip!, {r1, r2, r3, r5, r6, r8, r9, sl, fp, sp}^
    2b70:	73006362 	movwvc	r6, #866	; 0x362
    2b74:	6e697274 	mcrvs	2, 3, r7, cr9, cr4, {3}
    2b78:	656d2f67 	strbvs	r2, [sp, #-3943]!	; 0xfffff099
    2b7c:	7970636d 	ldmdbvc	r0!, {r0, r2, r3, r5, r6, r8, r9, sp, lr}^
    2b80:	7300632e 	movwvc	r6, #814	; 0x32e
    2b84:	6f696474 	svcvs	0x00696474
    2b88:	6972702f 	ldmdbvs	r2!, {r0, r1, r2, r3, r5, ip, sp, lr}^
    2b8c:	2e66746e 	cdpcs	4, 6, cr7, cr6, cr14, {3}
    2b90:	70660063 	rsbvc	r0, r6, r3, rrx
    2b94:	00637475 	rsbeq	r7, r3, r5, ror r4
    2b98:	6d726f66 	ldclvs	15, cr6, [r2, #-408]!	; 0xfffffe68
    2b9c:	5f007461 	svcpl	0x00007461
    2ba0:	72706f64 	rsbsvc	r6, r0, #100, 30	; 0x190
    2ba4:	7000746e 	andvc	r7, r0, lr, ror #8
    2ba8:	635f6461 	cmpvs	pc, #1627389952	; 0x61000000
    2bac:	00726168 	rsbseq	r6, r2, r8, ror #2
    2bb0:	66696873 			; <UNDEFINED> instruction: 0x66696873
    2bb4:	6c750074 	ldclvs	0, cr0, [r5], #-464	; 0xfffffe30
    2bb8:	00677261 	rsbeq	r7, r7, r1, ror #4
    2bbc:	6574696c 	ldrbvs	r6, [r4, #-2412]!	; 0xfffff694
    2bc0:	006c6172 	rsbeq	r6, ip, r2, ror r1
    2bc4:	69676964 	stmdbvs	r7!, {r2, r5, r6, r8, fp, sp, lr}^
    2bc8:	755f7374 	ldrbvc	r7, [pc, #-884]	; 285c <SCTLR_ENABLE_INSTRUCTION_CACHE+0x185c>
    2bcc:	75700063 	ldrbvc	r0, [r0, #-99]!	; 0xffffff9d
    2bd0:	615f6374 	cmpvs	pc, r4, ror r3	; <UNPREDICTABLE>
    2bd4:	66006772 			; <UNDEFINED> instruction: 0x66006772
    2bd8:	006e696d 	rsbeq	r6, lr, sp, ror #18
    2bdc:	7466656c 	strbtvc	r6, [r6], #-1388	; 0xfffffa94
    2be0:	7473756a 	ldrbtvc	r7, [r3], #-1386	; 0xfffffa96
    2be4:	72747300 	rsbsvc	r7, r4, #0, 6
    2be8:	006e656c 	rsbeq	r6, lr, ip, ror #10
    2bec:	5f6d756e 	svcpl	0x006d756e
    2bf0:	6f72657a 	svcvs	0x0072657a
    2bf4:	53007365 	movwpl	r7, #869	; 0x365
    2bf8:	54524f48 	ldrbpl	r4, [r2], #-3912	; 0xfffff0b8
    2bfc:	4f48535f 	svcmi	0x0048535f
    2c00:	535f5452 	cmppl	pc, #1375731712	; 0x52000000
    2c04:	00455a49 	subeq	r5, r5, r9, asr #20
    2c08:	65736162 	ldrbvs	r6, [r3, #-354]!	; 0xfffffe9e
    2c0c:	5f6f745f 	svcpl	0x006f745f
    2c10:	7469626e 	strbtvc	r6, [r9], #-622	; 0xfffffd92
    2c14:	65740073 	ldrbvs	r0, [r4, #-115]!	; 0xffffff8d
    2c18:	6400706d 	strvs	r7, [r0], #-109	; 0xffffff93
    2c1c:	74696769 	strbtvc	r6, [r9], #-1897	; 0xfffff897
    2c20:	636c5f73 	cmnvs	ip, #460	; 0x1cc
    2c24:	6f6c7500 	svcvs	0x006c7500
    2c28:	745f676e 	ldrbvc	r6, [pc], #-1902	; 2c30 <SCTLR_ENABLE_INSTRUCTION_CACHE+0x1c30>
    2c2c:	74735f6f 	ldrbtvc	r5, [r3], #-3951	; 0xfffff091
    2c30:	676e6972 			; <UNDEFINED> instruction: 0x676e6972
    2c34:	746e6900 	strbtvc	r6, [lr], #-2304	; 0xfffff700
    2c38:	72656765 	rsbvc	r6, r5, #26476544	; 0x1940000
    2c3c:	7a69735f 	bvc	1a5f9c0 <__kernel_end+0x18f99c0>
    2c40:	6c660065 	stclvs	0, cr0, [r6], #-404	; 0xfffffe6c
    2c44:	5f736761 	svcpl	0x00736761
    2c48:	6e616373 	mcrvs	3, 3, r6, cr1, cr3, {3}
    2c4c:	0064656e 	rsbeq	r6, r4, lr, ror #10
    2c50:	5f6e656c 	svcpl	0x006e656c
    2c54:	00727473 	rsbseq	r7, r2, r3, ror r4
    2c58:	5f6e656c 	svcpl	0x006e656c
    2c5c:	706e6f6e 	rsbvc	r6, lr, lr, ror #30
    2c60:	69646461 	stmdbvs	r4!, {r0, r5, r6, sl, sp, lr}^
    2c64:	7000676e 	andvc	r6, r0, lr, ror #14
    2c68:	5f637475 	svcpl	0x00637475
    2c6c:	636e7566 	cmnvs	lr, #427819008	; 0x19800000
    2c70:	6e616800 	cdpvs	8, 6, cr6, cr1, cr0, {0}
    2c74:	5f656c64 	svcpl	0x00656c64
    2c78:	69736e75 	ldmdbvs	r3!, {r0, r2, r4, r5, r6, r9, sl, fp, sp, lr}^
    2c7c:	64656e67 	strbtvs	r6, [r5], #-3687	; 0xfffff199
    2c80:	47455200 	strbmi	r5, [r5, -r0, lsl #4]
    2c84:	52414c55 	subpl	r4, r1, #21760	; 0x5500
    2c88:	5a49535f 	bpl	1257a0c <__kernel_end+0x10f1a0c>
    2c8c:	74730045 	ldrbtvc	r0, [r3], #-69	; 0xffffffbb
    2c90:	2f6f6964 	svccs	0x006f6964
    2c94:	72706f64 	rsbsvc	r6, r0, #100, 30	; 0x190
    2c98:	632e746e 			; <UNDEFINED> instruction: 0x632e746e
    2c9c:	65727000 	ldrbvs	r7, [r2, #-0]!
    2ca0:	4f4c0063 	svcmi	0x004c0063
    2ca4:	535f474e 	cmppl	pc, #20447232	; 0x1380000
    2ca8:	00455a49 	subeq	r5, r5, r9, asr #20
    2cac:	72616863 	rsbvc	r6, r1, #6488064	; 0x630000
    2cb0:	72775f73 	rsbsvc	r5, r7, #460	; 0x1cc
    2cb4:	65747469 	ldrbvs	r7, [r4, #-1129]!	; 0xfffffb97
    2cb8:	6c61006e 	stclvs	0, cr0, [r1], #-440	; 0xfffffe48
    2cbc:	69645f74 	stmdbvs	r4!, {r2, r4, r5, r6, r8, r9, sl, fp, ip, lr}^
    2cc0:	73746967 	cmnvc	r4, #1687552	; 0x19c000
    2cc4:	67697300 	strbvs	r7, [r9, -r0, lsl #6]!
    2cc8:	7073006e 	rsbsvc	r0, r3, lr, rrx
    2ccc:	735f6365 	cmpvc	pc, #-1811939327	; 0x94000001
    2cd0:	74726174 	ldrbtvc	r6, [r2], #-372	; 0xfffffe8c
    2cd4:	6e656c00 	cdpvs	12, 6, cr6, cr5, cr0, {0}
    2cd8:	6461705f 	strbtvs	r7, [r1], #-95	; 0xffffffa1
    2cdc:	676e6964 	strbvs	r6, [lr, -r4, ror #18]!
    2ce0:	72747300 	rsbsvc	r7, r4, #0, 6
    2ce4:	2f676e69 	svccs	0x00676e69
    2ce8:	6c727473 	cfldrdvs	mvd7, [r2], #-460	; 0xfffffe34
    2cec:	632e6e65 			; <UNDEFINED> instruction: 0x632e6e65
	...

Disassembly of section .debug_frame:

00000000 <.debug_frame>:
   0:	0000000c 	andeq	r0, r0, ip
   4:	ffffffff 			; <UNDEFINED> instruction: 0xffffffff
   8:	7c020001 	stcvc	0, cr0, [r2], {1}
   c:	000d0c0e 	andeq	r0, sp, lr, lsl #24
  10:	00000014 	andeq	r0, r0, r4, lsl r0
  14:	00000000 	andeq	r0, r0, r0
  18:	00008214 	andeq	r8, r0, r4, lsl r2
  1c:	00000060 	andeq	r0, r0, r0, rrx
  20:	84080e44 	strhi	r0, [r8], #-3652	; 0xfffff1bc
  24:	00018e02 	andeq	r8, r1, r2, lsl #28
  28:	0000000c 	andeq	r0, r0, ip
  2c:	ffffffff 			; <UNDEFINED> instruction: 0xffffffff
  30:	7c020001 	stcvc	0, cr0, [r2], {1}
  34:	000d0c0e 	andeq	r0, sp, lr, lsl #24
  38:	0000000c 	andeq	r0, r0, ip
  3c:	00000028 	andeq	r0, r0, r8, lsr #32
  40:	00008274 	andeq	r8, r0, r4, ror r2
  44:	0000000c 	andeq	r0, r0, ip
  48:	00000014 	andeq	r0, r0, r4, lsl r0
  4c:	00000028 	andeq	r0, r0, r8, lsr #32
  50:	00008280 	andeq	r8, r0, r0, lsl #5
  54:	0000002c 	andeq	r0, r0, ip, lsr #32
  58:	84080e42 	strhi	r0, [r8], #-3650	; 0xfffff1be
  5c:	00018e02 	andeq	r8, r1, r2, lsl #28
  60:	0000000c 	andeq	r0, r0, ip
  64:	ffffffff 			; <UNDEFINED> instruction: 0xffffffff
  68:	7c020001 	stcvc	0, cr0, [r2], {1}
  6c:	000d0c0e 	andeq	r0, sp, lr, lsl #24
  70:	0000000c 	andeq	r0, r0, ip
  74:	00000060 	andeq	r0, r0, r0, rrx
  78:	000082ac 	andeq	r8, r0, ip, lsr #5
  7c:	0000000c 	andeq	r0, r0, ip
  80:	0000001c 	andeq	r0, r0, ip, lsl r0
  84:	00000060 	andeq	r0, r0, r0, rrx
  88:	000082b8 			; <UNDEFINED> instruction: 0x000082b8
  8c:	0000001c 	andeq	r0, r0, ip, lsl r0
  90:	80180e44 	andshi	r0, r8, r4, asr #28
  94:	82058106 	andhi	r8, r5, #-2147483647	; 0x80000001
  98:	8c038304 	stchi	3, cr8, [r3], {4}
  9c:	00018e02 	andeq	r8, r1, r2, lsl #28
  a0:	0000001c 	andeq	r0, r0, ip, lsl r0
  a4:	00000060 	andeq	r0, r0, r0, rrx
  a8:	000082d4 	ldrdeq	r8, [r0], -r4
  ac:	00000018 	andeq	r0, r0, r8, lsl r0
  b0:	80180e42 	andshi	r0, r8, r2, asr #28
  b4:	82058106 	andhi	r8, r5, #-2147483647	; 0x80000001
  b8:	8c038304 	stchi	3, cr8, [r3], {4}
  bc:	00018e02 	andeq	r8, r1, r2, lsl #28
  c0:	0000001c 	andeq	r0, r0, ip, lsl r0
  c4:	00000060 	andeq	r0, r0, r0, rrx
  c8:	000082ec 	andeq	r8, r0, ip, ror #5
  cc:	00000018 	andeq	r0, r0, r8, lsl r0
  d0:	80180e42 	andshi	r0, r8, r2, asr #28
  d4:	82058106 	andhi	r8, r5, #-2147483647	; 0x80000001
  d8:	8c038304 	stchi	3, cr8, [r3], {4}
  dc:	00018e02 	andeq	r8, r1, r2, lsl #28
  e0:	0000001c 	andeq	r0, r0, ip, lsl r0
  e4:	00000060 	andeq	r0, r0, r0, rrx
  e8:	00008304 	andeq	r8, r0, r4, lsl #6
  ec:	0000001c 	andeq	r0, r0, ip, lsl r0
  f0:	80180e44 	andshi	r0, r8, r4, asr #28
  f4:	82058106 	andhi	r8, r5, #-2147483647	; 0x80000001
  f8:	8c038304 	stchi	3, cr8, [r3], {4}
  fc:	00018e02 	andeq	r8, r1, r2, lsl #28
 100:	0000001c 	andeq	r0, r0, ip, lsl r0
 104:	00000060 	andeq	r0, r0, r0, rrx
 108:	00008320 	andeq	r8, r0, r0, lsr #6
 10c:	0000001c 	andeq	r0, r0, ip, lsl r0
 110:	80180e44 	andshi	r0, r8, r4, asr #28
 114:	82058106 	andhi	r8, r5, #-2147483647	; 0x80000001
 118:	8c038304 	stchi	3, cr8, [r3], {4}
 11c:	00018e02 	andeq	r8, r1, r2, lsl #28
 120:	0000001c 	andeq	r0, r0, ip, lsl r0
 124:	00000060 	andeq	r0, r0, r0, rrx
 128:	0000833c 	andeq	r8, r0, ip, lsr r3
 12c:	0000001c 	andeq	r0, r0, ip, lsl r0
 130:	80180e44 	andshi	r0, r8, r4, asr #28
 134:	82058106 	andhi	r8, r5, #-2147483647	; 0x80000001
 138:	84038304 	strhi	r8, [r3], #-772	; 0xfffffcfc
 13c:	00018e02 	andeq	r8, r1, r2, lsl #28
 140:	00000014 	andeq	r0, r0, r4, lsl r0
 144:	00000060 	andeq	r0, r0, r0, rrx
 148:	00008358 	andeq	r8, r0, r8, asr r3
 14c:	000000e8 	andeq	r0, r0, r8, ror #1
 150:	84080e44 	strhi	r0, [r8], #-3652	; 0xfffff1bc
 154:	00018e02 	andeq	r8, r1, r2, lsl #28
 158:	00000018 	andeq	r0, r0, r8, lsl r0
 15c:	00000060 	andeq	r0, r0, r0, rrx
 160:	00008440 	andeq	r8, r0, r0, asr #8
 164:	000000bc 	strheq	r0, [r0], -ip
 168:	84100e44 	ldrhi	r0, [r0], #-3652	; 0xfffff1bc
 16c:	86038504 	strhi	r8, [r3], -r4, lsl #10
 170:	00018e02 	andeq	r8, r1, r2, lsl #28
 174:	00000018 	andeq	r0, r0, r8, lsl r0
 178:	00000060 	andeq	r0, r0, r0, rrx
 17c:	000084fc 	strdeq	r8, [r0], -ip
 180:	000000c8 	andeq	r0, r0, r8, asr #1
 184:	840c0e44 	strhi	r0, [ip], #-3652	; 0xfffff1bc
 188:	8e028503 	cfsh32hi	mvfx8, mvfx2, #3
 18c:	00000001 	andeq	r0, r0, r1
 190:	0000000c 	andeq	r0, r0, ip
 194:	00000060 	andeq	r0, r0, r0, rrx
 198:	000085c4 	andeq	r8, r0, r4, asr #11
 19c:	00000024 	andeq	r0, r0, r4, lsr #32
 1a0:	0000000c 	andeq	r0, r0, ip
 1a4:	00000060 	andeq	r0, r0, r0, rrx
 1a8:	000085e8 	andeq	r8, r0, r8, ror #11
 1ac:	0000000c 	andeq	r0, r0, ip
 1b0:	00000014 	andeq	r0, r0, r4, lsl r0
 1b4:	00000060 	andeq	r0, r0, r0, rrx
 1b8:	000085f4 	strdeq	r8, [r0], -r4
 1bc:	00000068 	andeq	r0, r0, r8, rrx
 1c0:	84080e42 	strhi	r0, [r8], #-3650	; 0xfffff1be
 1c4:	00018e02 	andeq	r8, r1, r2, lsl #28
 1c8:	0000000c 	andeq	r0, r0, ip
 1cc:	ffffffff 			; <UNDEFINED> instruction: 0xffffffff
 1d0:	7c020001 	stcvc	0, cr0, [r2], {1}
 1d4:	000d0c0e 	andeq	r0, sp, lr, lsl #24
 1d8:	0000000c 	andeq	r0, r0, ip
 1dc:	000001c8 	andeq	r0, r0, r8, asr #3
 1e0:	0000865c 	andeq	r8, r0, ip, asr r6
 1e4:	0000002c 	andeq	r0, r0, ip, lsr #32
 1e8:	0000000c 	andeq	r0, r0, ip
 1ec:	000001c8 	andeq	r0, r0, r8, asr #3
 1f0:	00008688 	andeq	r8, r0, r8, lsl #13
 1f4:	00000040 	andeq	r0, r0, r0, asr #32
 1f8:	0000000c 	andeq	r0, r0, ip
 1fc:	ffffffff 			; <UNDEFINED> instruction: 0xffffffff
 200:	7c020001 	stcvc	0, cr0, [r2], {1}
 204:	000d0c0e 	andeq	r0, sp, lr, lsl #24
 208:	0000000c 	andeq	r0, r0, ip
 20c:	000001f8 	strdeq	r0, [r0], -r8
 210:	000086c8 	andeq	r8, r0, r8, asr #13
 214:	00000038 	andeq	r0, r0, r8, lsr r0
 218:	00000040 	andeq	r0, r0, r0, asr #32
 21c:	000001f8 	strdeq	r0, [r0], -r8
 220:	00008700 	andeq	r8, r0, r0, lsl #14
 224:	000004a0 	andeq	r0, r0, r0, lsr #9
 228:	80100e42 	andshi	r0, r0, r2, asr #28
 22c:	82038104 	andhi	r8, r3, #4, 2
 230:	48018302 	stmdami	r1, {r1, r8, r9, pc}
 234:	0984240e 	stmibeq	r4, {r1, r2, r3, sl, sp}
 238:	07860885 	streq	r0, [r6, r5, lsl #17]
 23c:	058e0687 	streq	r0, [lr, #1671]	; 0x687
 240:	02300e46 	eorseq	r0, r0, #1120	; 0x460
 244:	240e0a60 	strcs	r0, [lr], #-2656	; 0xfffff5a0
 248:	c6c7ce42 	strbgt	ip, [r7], r2, asr #28
 24c:	100ec4c5 	andne	ip, lr, r5, asr #9
 250:	c1c2c342 	bicgt	ip, r2, r2, asr #6
 254:	42000ec0 	andmi	r0, r0, #192, 28	; 0xc00
 258:	0000000b 	andeq	r0, r0, fp
 25c:	00000018 	andeq	r0, r0, r8, lsl r0
 260:	000001f8 	strdeq	r0, [r0], -r8
 264:	00008ba0 	andeq	r8, r0, r0, lsr #23
 268:	0000004c 	andeq	r0, r0, ip, asr #32
 26c:	84080e4c 	strhi	r0, [r8], #-3660	; 0xfffff1b4
 270:	54018e02 	strpl	r8, [r1], #-3586	; 0xfffff1fe
 274:	000ec4ce 	andeq	ip, lr, lr, asr #9
 278:	00000014 	andeq	r0, r0, r4, lsl r0
 27c:	000001f8 	strdeq	r0, [r0], -r8
 280:	00008bec 	andeq	r8, r0, ip, ror #23
 284:	000000ac 	andeq	r0, r0, ip, lsr #1
 288:	84080e4a 	strhi	r0, [r8], #-3658	; 0xfffff1b6
 28c:	00018e02 	andeq	r8, r1, r2, lsl #28
 290:	0000000c 	andeq	r0, r0, ip
 294:	ffffffff 			; <UNDEFINED> instruction: 0xffffffff
 298:	7c020001 	stcvc	0, cr0, [r2], {1}
 29c:	000d0c0e 	andeq	r0, sp, lr, lsl #24
 2a0:	0000000c 	andeq	r0, r0, ip
 2a4:	00000290 	muleq	r0, r0, r2
 2a8:	00008c98 	muleq	r0, r8, ip
 2ac:	0000002c 	andeq	r0, r0, ip, lsr #32
 2b0:	0000000c 	andeq	r0, r0, ip
 2b4:	00000290 	muleq	r0, r0, r2
 2b8:	00008cc4 	andeq	r8, r0, r4, asr #25
 2bc:	0000001c 	andeq	r0, r0, ip, lsl r0
 2c0:	0000001c 	andeq	r0, r0, ip, lsl r0
 2c4:	00000290 	muleq	r0, r0, r2
 2c8:	00008ce0 	andeq	r8, r0, r0, ror #25
 2cc:	00000128 	andeq	r0, r0, r8, lsr #2
 2d0:	8b080e42 	blhi	203be0 <__kernel_end+0x9dbe0>
 2d4:	42018e02 	andmi	r8, r1, #2, 28
 2d8:	02040b0c 	andeq	r0, r4, #12, 22	; 0x3000
 2dc:	080d0c78 	stmdaeq	sp, {r3, r4, r5, r6, sl, fp}
 2e0:	0000000c 	andeq	r0, r0, ip
 2e4:	00000290 	muleq	r0, r0, r2
 2e8:	00008e08 	andeq	r8, r0, r8, lsl #28
 2ec:	00000018 	andeq	r0, r0, r8, lsl r0
 2f0:	00000014 	andeq	r0, r0, r4, lsl r0
 2f4:	00000290 	muleq	r0, r0, r2
 2f8:	00008e20 	andeq	r8, r0, r0, lsr #28
 2fc:	00000070 	andeq	r0, r0, r0, ror r0
 300:	70100e44 	andsvc	r0, r0, r4, asr #28
 304:	0000000e 	andeq	r0, r0, lr
 308:	0000000c 	andeq	r0, r0, ip
 30c:	ffffffff 			; <UNDEFINED> instruction: 0xffffffff
 310:	7c020001 	stcvc	0, cr0, [r2], {1}
 314:	000d0c0e 	andeq	r0, sp, lr, lsl #24
 318:	00000014 	andeq	r0, r0, r4, lsl r0
 31c:	00000308 	andeq	r0, r0, r8, lsl #6
 320:	00008e90 	muleq	r0, r0, lr
 324:	0000003c 	andeq	r0, r0, ip, lsr r0
 328:	84080e50 	strhi	r0, [r8], #-3664	; 0xfffff1b0
 32c:	00018e02 	andeq	r8, r1, r2, lsl #28
 330:	00000020 	andeq	r0, r0, r0, lsr #32
 334:	00000308 	andeq	r0, r0, r8, lsl #6
 338:	00008ecc 	andeq	r8, r0, ip, asr #29
 33c:	000000a8 	andeq	r0, r0, r8, lsr #1
 340:	84100e46 	ldrhi	r0, [r0], #-3654	; 0xfffff1ba
 344:	86038504 	strhi	r8, [r3], -r4, lsl #10
 348:	7e018e02 	cdpvc	14, 0, cr8, cr1, cr2, {0}
 34c:	c4c5c6ce 	strbgt	ip, [r5], #1742	; 0x6ce
 350:	0000000e 	andeq	r0, r0, lr
 354:	0000000c 	andeq	r0, r0, ip
 358:	ffffffff 			; <UNDEFINED> instruction: 0xffffffff
 35c:	7c020001 	stcvc	0, cr0, [r2], {1}
 360:	000d0c0e 	andeq	r0, sp, lr, lsl #24
 364:	0000000c 	andeq	r0, r0, ip
 368:	00000354 	andeq	r0, r0, r4, asr r3
 36c:	00008f74 	andeq	r8, r0, r4, ror pc
 370:	00000024 	andeq	r0, r0, r4, lsr #32
 374:	0000000c 	andeq	r0, r0, ip
 378:	00000354 	andeq	r0, r0, r4, asr r3
 37c:	00008f98 	muleq	r0, r8, pc	; <UNPREDICTABLE>
 380:	00000024 	andeq	r0, r0, r4, lsr #32
 384:	0000000c 	andeq	r0, r0, ip
 388:	00000354 	andeq	r0, r0, r4, asr r3
 38c:	00008fbc 			; <UNDEFINED> instruction: 0x00008fbc
 390:	00000008 	andeq	r0, r0, r8
 394:	0000000c 	andeq	r0, r0, ip
 398:	00000354 	andeq	r0, r0, r4, asr r3
 39c:	00008fc4 	andeq	r8, r0, r4, asr #31
 3a0:	0000002c 	andeq	r0, r0, ip, lsr #32
 3a4:	0000000c 	andeq	r0, r0, ip
 3a8:	00000354 	andeq	r0, r0, r4, asr r3
 3ac:	00008ff0 	strdeq	r8, [r0], -r0
 3b0:	00000008 	andeq	r0, r0, r8
 3b4:	0000000c 	andeq	r0, r0, ip
 3b8:	00000354 	andeq	r0, r0, r4, asr r3
 3bc:	00008ff8 	strdeq	r8, [r0], -r8	; <UNPREDICTABLE>
 3c0:	00000008 	andeq	r0, r0, r8
 3c4:	0000000c 	andeq	r0, r0, ip
 3c8:	00000354 	andeq	r0, r0, r4, asr r3
 3cc:	00009000 	andeq	r9, r0, r0
 3d0:	0000001c 	andeq	r0, r0, ip, lsl r0
 3d4:	00000014 	andeq	r0, r0, r4, lsl r0
 3d8:	00000354 	andeq	r0, r0, r4, asr r3
 3dc:	0000901c 	andeq	r9, r0, ip, lsl r0
 3e0:	0000006c 	andeq	r0, r0, ip, rrx
 3e4:	84080e44 	strhi	r0, [r8], #-3652	; 0xfffff1bc
 3e8:	00018e02 	andeq	r8, r1, r2, lsl #28
 3ec:	0000000c 	andeq	r0, r0, ip
 3f0:	00000354 	andeq	r0, r0, r4, asr r3
 3f4:	00009088 	andeq	r9, r0, r8, lsl #1
 3f8:	00000044 	andeq	r0, r0, r4, asr #32
 3fc:	00000014 	andeq	r0, r0, r4, lsl r0
 400:	00000354 	andeq	r0, r0, r4, asr r3
 404:	000090cc 	andeq	r9, r0, ip, asr #1
 408:	00000050 	andeq	r0, r0, r0, asr r0
 40c:	84080e42 	strhi	r0, [r8], #-3650	; 0xfffff1be
 410:	00018e02 	andeq	r8, r1, r2, lsl #28
 414:	0000001c 	andeq	r0, r0, ip, lsl r0
 418:	00000354 	andeq	r0, r0, r4, asr r3
 41c:	0000911c 	andeq	r9, r0, ip, lsl r1
 420:	00000118 	andeq	r0, r0, r8, lsl r1
 424:	84180e42 	ldrhi	r0, [r8], #-3650	; 0xfffff1be
 428:	86058506 	strhi	r8, [r5], -r6, lsl #10
 42c:	88038704 	stmdahi	r3, {r2, r8, r9, sl, pc}
 430:	00018e02 	andeq	r8, r1, r2, lsl #28
 434:	0000000c 	andeq	r0, r0, ip
 438:	ffffffff 			; <UNDEFINED> instruction: 0xffffffff
 43c:	7c020001 	stcvc	0, cr0, [r2], {1}
 440:	000d0c0e 	andeq	r0, sp, lr, lsl #24
 444:	0000000c 	andeq	r0, r0, ip
 448:	00000434 	andeq	r0, r0, r4, lsr r4
 44c:	00009234 	andeq	r9, r0, r4, lsr r2
 450:	00000074 	andeq	r0, r0, r4, ror r0
 454:	0000000c 	andeq	r0, r0, ip
 458:	00000434 	andeq	r0, r0, r4, lsr r4
 45c:	000092a8 	andeq	r9, r0, r8, lsr #5
 460:	00000024 	andeq	r0, r0, r4, lsr #32
 464:	0000000c 	andeq	r0, r0, ip
 468:	00000434 	andeq	r0, r0, r4, lsr r4
 46c:	000092cc 	andeq	r9, r0, ip, asr #5
 470:	00000028 	andeq	r0, r0, r8, lsr #32
 474:	00000014 	andeq	r0, r0, r4, lsl r0
 478:	00000434 	andeq	r0, r0, r4, lsr r4
 47c:	000092f4 	strdeq	r9, [r0], -r4
 480:	00000028 	andeq	r0, r0, r8, lsr #32
 484:	84080e42 	strhi	r0, [r8], #-3650	; 0xfffff1be
 488:	00018e02 	andeq	r8, r1, r2, lsl #28
 48c:	00000020 	andeq	r0, r0, r0, lsr #32
 490:	00000434 	andeq	r0, r0, r4, lsr r4
 494:	0000931c 	andeq	r9, r0, ip, lsl r3
 498:	00000040 	andeq	r0, r0, r0, asr #32
 49c:	84100e42 	ldrhi	r0, [r0], #-3650	; 0xfffff1be
 4a0:	86038504 	strhi	r8, [r3], -r4, lsl #10
 4a4:	5c018e02 	stcpl	14, cr8, [r1], {2}
 4a8:	c4c5c6ce 	strbgt	ip, [r5], #1742	; 0x6ce
 4ac:	0000000e 	andeq	r0, r0, lr
 4b0:	0000000c 	andeq	r0, r0, ip
 4b4:	ffffffff 			; <UNDEFINED> instruction: 0xffffffff
 4b8:	7c020001 	stcvc	0, cr0, [r2], {1}
 4bc:	000d0c0e 	andeq	r0, sp, lr, lsl #24
 4c0:	0000000c 	andeq	r0, r0, ip
 4c4:	000004b0 			; <UNDEFINED> instruction: 0x000004b0
 4c8:	0000935c 	andeq	r9, r0, ip, asr r3
 4cc:	00000040 	andeq	r0, r0, r0, asr #32
 4d0:	0000000c 	andeq	r0, r0, ip
 4d4:	000004b0 			; <UNDEFINED> instruction: 0x000004b0
 4d8:	0000939c 	muleq	r0, ip, r3
 4dc:	00000010 	andeq	r0, r0, r0, lsl r0
 4e0:	00000020 	andeq	r0, r0, r0, lsr #32
 4e4:	000004b0 			; <UNDEFINED> instruction: 0x000004b0
 4e8:	000093ac 	andeq	r9, r0, ip, lsr #7
 4ec:	0000004c 	andeq	r0, r0, ip, asr #32
 4f0:	84100e42 	ldrhi	r0, [r0], #-3650	; 0xfffff1be
 4f4:	86038504 	strhi	r8, [r3], -r4, lsl #10
 4f8:	5c018e02 	stcpl	14, cr8, [r1], {2}
 4fc:	c4c5c6ce 	strbgt	ip, [r5], #1742	; 0x6ce
 500:	0000000e 	andeq	r0, r0, lr
 504:	0000000c 	andeq	r0, r0, ip
 508:	000004b0 			; <UNDEFINED> instruction: 0x000004b0
 50c:	000093f8 	strdeq	r9, [r0], -r8
 510:	00000024 	andeq	r0, r0, r4, lsr #32
 514:	0000000c 	andeq	r0, r0, ip
 518:	000004b0 			; <UNDEFINED> instruction: 0x000004b0
 51c:	0000941c 	andeq	r9, r0, ip, lsl r4
 520:	0000001c 	andeq	r0, r0, ip, lsl r0
 524:	00000028 	andeq	r0, r0, r8, lsr #32
 528:	000004b0 			; <UNDEFINED> instruction: 0x000004b0
 52c:	00009438 	andeq	r9, r0, r8, lsr r4
 530:	00000248 	andeq	r0, r0, r8, asr #4
 534:	84240e42 	strthi	r0, [r4], #-3650	; 0xfffff1be
 538:	86088509 	strhi	r8, [r8], -r9, lsl #10
 53c:	88068707 	stmdahi	r6, {r0, r1, r2, r8, r9, sl, pc}
 540:	8a048905 	bhi	12295c <__first_lvl_tbl_end+0xfd95c>
 544:	8e028b03 	vmlahi.f64	d8, d2, d3
 548:	380e4801 	stmdacc	lr, {r0, fp, lr}
 54c:	240ef002 	strcs	pc, [lr], #-2
 550:	0000000c 	andeq	r0, r0, ip
 554:	ffffffff 			; <UNDEFINED> instruction: 0xffffffff
 558:	7c020001 	stcvc	0, cr0, [r2], {1}
 55c:	000d0c0e 	andeq	r0, sp, lr, lsl #24
 560:	00000018 	andeq	r0, r0, r8, lsl r0
 564:	00000550 	andeq	r0, r0, r0, asr r5
 568:	00009680 	andeq	r9, r0, r0, lsl #13
 56c:	00000048 	andeq	r0, r0, r8, asr #32
 570:	84080e42 	strhi	r0, [r8], #-3650	; 0xfffff1be
 574:	5c018e02 	stcpl	14, cr8, [r1], {2}
 578:	000ec4ce 	andeq	ip, lr, lr, asr #9
 57c:	00000018 	andeq	r0, r0, r8, lsl r0
 580:	00000550 	andeq	r0, r0, r0, asr r5
 584:	000096c8 	andeq	r9, r0, r8, asr #13
 588:	00000048 	andeq	r0, r0, r8, asr #32
 58c:	84080e42 	strhi	r0, [r8], #-3650	; 0xfffff1be
 590:	5c018e02 	stcpl	14, cr8, [r1], {2}
 594:	000ec4ce 	andeq	ip, lr, lr, asr #9
 598:	00000018 	andeq	r0, r0, r8, lsl r0
 59c:	00000550 	andeq	r0, r0, r0, asr r5
 5a0:	00009710 	andeq	r9, r0, r0, lsl r7
 5a4:	00000070 	andeq	r0, r0, r0, ror r0
 5a8:	84080e42 	strhi	r0, [r8], #-3650	; 0xfffff1be
 5ac:	6c018e02 	stcvs	14, cr8, [r1], {2}
 5b0:	000ec4ce 	andeq	ip, lr, lr, asr #9
 5b4:	00000014 	andeq	r0, r0, r4, lsl r0
 5b8:	00000550 	andeq	r0, r0, r0, asr r5
 5bc:	00009780 	andeq	r9, r0, r0, lsl #15
 5c0:	0000007c 	andeq	r0, r0, ip, ror r0
 5c4:	84080e42 	strhi	r0, [r8], #-3650	; 0xfffff1be
 5c8:	00018e02 	andeq	r8, r1, r2, lsl #28
 5cc:	0000000c 	andeq	r0, r0, ip
 5d0:	00000550 	andeq	r0, r0, r0, asr r5
 5d4:	000097fc 	strdeq	r9, [r0], -ip
 5d8:	0000000c 	andeq	r0, r0, ip
 5dc:	00000014 	andeq	r0, r0, r4, lsl r0
 5e0:	00000550 	andeq	r0, r0, r0, asr r5
 5e4:	00009808 	andeq	r9, r0, r8, lsl #16
 5e8:	00000010 	andeq	r0, r0, r0, lsl r0
 5ec:	84080e42 	strhi	r0, [r8], #-3650	; 0xfffff1be
 5f0:	00018e02 	andeq	r8, r1, r2, lsl #28
 5f4:	00000014 	andeq	r0, r0, r4, lsl r0
 5f8:	00000550 	andeq	r0, r0, r0, asr r5
 5fc:	00009818 	andeq	r9, r0, r8, lsl r8
 600:	00000018 	andeq	r0, r0, r8, lsl r0
 604:	84080e42 	strhi	r0, [r8], #-3650	; 0xfffff1be
 608:	00018e02 	andeq	r8, r1, r2, lsl #28
 60c:	00000018 	andeq	r0, r0, r8, lsl r0
 610:	00000550 	andeq	r0, r0, r0, asr r5
 614:	00009830 	andeq	r9, r0, r0, lsr r8
 618:	00000030 	andeq	r0, r0, r0, lsr r0
 61c:	8e040e42 	cdphi	14, 0, cr0, cr4, cr2, {2}
 620:	100e4601 	andne	r4, lr, r1, lsl #12
 624:	00040e4c 	andeq	r0, r4, ip, asr #28
 628:	0000000c 	andeq	r0, r0, ip
 62c:	ffffffff 			; <UNDEFINED> instruction: 0xffffffff
 630:	7c020001 	stcvc	0, cr0, [r2], {1}
 634:	000d0c0e 	andeq	r0, sp, lr, lsl #24
 638:	00000014 	andeq	r0, r0, r4, lsl r0
 63c:	00000628 	andeq	r0, r0, r8, lsr #12
 640:	00009860 	andeq	r9, r0, r0, ror #16
 644:	0000004c 	andeq	r0, r0, ip, asr #32
 648:	84080e42 	strhi	r0, [r8], #-3650	; 0xfffff1be
 64c:	00018e02 	andeq	r8, r1, r2, lsl #28
 650:	0000000c 	andeq	r0, r0, ip
 654:	ffffffff 			; <UNDEFINED> instruction: 0xffffffff
 658:	7c020001 	stcvc	0, cr0, [r2], {1}
 65c:	000d0c0e 	andeq	r0, sp, lr, lsl #24
 660:	00000014 	andeq	r0, r0, r4, lsl r0
 664:	00000650 	andeq	r0, r0, r0, asr r6
 668:	000098ac 	andeq	r9, r0, ip, lsr #17
 66c:	00000024 	andeq	r0, r0, r4, lsr #32
 670:	84080e42 	strhi	r0, [r8], #-3650	; 0xfffff1be
 674:	00018e02 	andeq	r8, r1, r2, lsl #28
 678:	00000034 	andeq	r0, r0, r4, lsr r0
 67c:	00000650 	andeq	r0, r0, r0, asr r6
 680:	000098d0 	ldrdeq	r9, [r0], -r0
 684:	00000320 	andeq	r0, r0, r0, lsr #6
 688:	841c0e42 	ldrhi	r0, [ip], #-3650	; 0xfffff1be
 68c:	86068507 	strhi	r8, [r6], -r7, lsl #10
 690:	88048705 	stmdahi	r4, {r0, r2, r8, r9, sl, pc}
 694:	8e028903 	cdphi	9, 0, cr8, cr2, cr3, {0}
 698:	300e4801 	andcc	r4, lr, r1, lsl #16
 69c:	0e0a9202 	cdpeq	2, 0, cr9, cr10, cr2, {0}
 6a0:	680b421c 	stmdavs	fp, {r2, r3, r4, r9, lr}
 6a4:	421c0e0a 	andsmi	r0, ip, #10, 28	; 0xa0
 6a8:	0e0a680b 	cdpeq	8, 0, cr6, cr10, cr11, {0}
 6ac:	000b421c 	andeq	r4, fp, ip, lsl r2
 6b0:	00000030 	andeq	r0, r0, r0, lsr r0
 6b4:	00000650 	andeq	r0, r0, r0, asr r6
 6b8:	00009bf0 	strdeq	r9, [r0], -r0
 6bc:	000000ec 	andeq	r0, r0, ip, ror #1
 6c0:	84180e42 	ldrhi	r0, [r8], #-3650	; 0xfffff1be
 6c4:	86058506 	strhi	r8, [r5], -r6, lsl #10
 6c8:	88038704 	stmdahi	r3, {r2, r8, r9, sl, pc}
 6cc:	7c018e02 	stcvc	14, cr8, [r1], {2}
 6d0:	c7c8ce0a 	strbgt	ip, [r8, sl, lsl #28]
 6d4:	0ec4c5c6 	cdpeq	5, 12, cr12, cr4, cr6, {6}
 6d8:	640b4400 	strvs	r4, [fp], #-1024	; 0xfffffc00
 6dc:	c6c7c8ce 	strbgt	ip, [r7], lr, asr #17
 6e0:	000ec4c5 	andeq	ip, lr, r5, asr #9
 6e4:	0000000c 	andeq	r0, r0, ip
 6e8:	00000650 	andeq	r0, r0, r0, asr r6
 6ec:	00009cdc 	ldrdeq	r9, [r0], -ip
 6f0:	0000004c 	andeq	r0, r0, ip, asr #32
 6f4:	0000000c 	andeq	r0, r0, ip
 6f8:	00000650 	andeq	r0, r0, r0, asr r6
 6fc:	00009d28 	andeq	r9, r0, r8, lsr #26
 700:	00000038 	andeq	r0, r0, r8, lsr r0
 704:	0000000c 	andeq	r0, r0, ip
 708:	ffffffff 			; <UNDEFINED> instruction: 0xffffffff
 70c:	7c020001 	stcvc	0, cr0, [r2], {1}
 710:	000d0c0e 	andeq	r0, sp, lr, lsl #24
 714:	00000014 	andeq	r0, r0, r4, lsl r0
 718:	00000704 	andeq	r0, r0, r4, lsl #14
 71c:	00009d60 	andeq	r9, r0, r0, ror #26
 720:	0000004c 	andeq	r0, r0, ip, asr #32
 724:	84080e44 	strhi	r0, [r8], #-3652	; 0xfffff1bc
 728:	00018e02 	andeq	r8, r1, r2, lsl #28
 72c:	0000000c 	andeq	r0, r0, ip
 730:	ffffffff 			; <UNDEFINED> instruction: 0xffffffff
 734:	7c020001 	stcvc	0, cr0, [r2], {1}
 738:	000d0c0e 	andeq	r0, sp, lr, lsl #24
 73c:	0000000c 	andeq	r0, r0, ip
 740:	0000072c 	andeq	r0, r0, ip, lsr #14
 744:	00009dac 	andeq	r9, r0, ip, lsr #27
 748:	00000024 	andeq	r0, r0, r4, lsr #32
 74c:	0000000c 	andeq	r0, r0, ip
 750:	ffffffff 			; <UNDEFINED> instruction: 0xffffffff
 754:	7c020001 	stcvc	0, cr0, [r2], {1}
 758:	000d0c0e 	andeq	r0, sp, lr, lsl #24
 75c:	00000018 	andeq	r0, r0, r8, lsl r0
 760:	0000074c 	andeq	r0, r0, ip, asr #14
 764:	00009dd0 	ldrdeq	r9, [r0], -r0
 768:	00000018 	andeq	r0, r0, r8, lsl r0
 76c:	84080e42 	strhi	r0, [r8], #-3650	; 0xfffff1be
 770:	48018e02 	stmdami	r1, {r1, r9, sl, fp, pc}
 774:	000ec4ce 	andeq	ip, lr, lr, asr #9
 778:	00000030 	andeq	r0, r0, r0, lsr r0
 77c:	0000074c 	andeq	r0, r0, ip, asr #14
 780:	00009de8 	andeq	r9, r0, r8, ror #27
 784:	0000003c 	andeq	r0, r0, ip, lsr r0
 788:	80100e42 	andshi	r0, r0, r2, asr #28
 78c:	82038104 	andhi	r8, r3, #4, 2
 790:	42018302 	andmi	r8, r1, #134217728	; 0x8000000
 794:	058e140e 	streq	r1, [lr, #1038]	; 0x40e
 798:	50200e42 	eorpl	r0, r0, r2, asr #28
 79c:	ce42140e 	cdpgt	4, 4, cr1, cr2, cr14, {0}
 7a0:	c342100e 	movtgt	r1, #8206	; 0x200e
 7a4:	0ec0c1c2 	acseqdm	f4, f2
 7a8:	00000000 	andeq	r0, r0, r0
 7ac:	0000000c 	andeq	r0, r0, ip
 7b0:	ffffffff 			; <UNDEFINED> instruction: 0xffffffff
 7b4:	7c020001 	stcvc	0, cr0, [r2], {1}
 7b8:	000d0c0e 	andeq	r0, sp, lr, lsl #24
 7bc:	0000003c 	andeq	r0, r0, ip, lsr r0
 7c0:	000007ac 	andeq	r0, r0, ip, lsr #15
 7c4:	00009e24 	andeq	r9, r0, r4, lsr #28
 7c8:	0000074c 	andeq	r0, r0, ip, asr #14
 7cc:	84240e42 	strthi	r0, [r4], #-3650	; 0xfffff1be
 7d0:	86088509 	strhi	r8, [r8], -r9, lsl #10
 7d4:	88068707 	stmdahi	r6, {r0, r1, r2, r8, r9, sl, pc}
 7d8:	8a048905 	bhi	122bf4 <__first_lvl_tbl_end+0xfdbf4>
 7dc:	8e028b03 	vmlahi.f64	d8, d2, d3
 7e0:	980e4801 	stmdals	lr, {r0, fp, lr}
 7e4:	016c0301 	cmneq	ip, r1, lsl #6
 7e8:	42240e0a 	eormi	r0, r4, #10, 28	; 0xa0
 7ec:	c9cacbce 	stmibgt	sl, {r1, r2, r3, r6, r7, r8, r9, fp, lr, pc}^
 7f0:	c5c6c7c8 	strbgt	ip, [r6, #1992]	; 0x7c8
 7f4:	42000ec4 	andmi	r0, r0, #196, 28	; 0xc40
 7f8:	0000000b 	andeq	r0, r0, fp
 7fc:	0000000c 	andeq	r0, r0, ip
 800:	ffffffff 			; <UNDEFINED> instruction: 0xffffffff
 804:	7c020001 	stcvc	0, cr0, [r2], {1}
 808:	000d0c0e 	andeq	r0, sp, lr, lsl #24
 80c:	0000000c 	andeq	r0, r0, ip
 810:	000007fc 	strdeq	r0, [r0], -ip
 814:	0000a570 	andeq	sl, r0, r0, ror r5
 818:	00000030 	andeq	r0, r0, r0, lsr r0
 81c:	0000000c 	andeq	r0, r0, ip
 820:	ffffffff 			; <UNDEFINED> instruction: 0xffffffff
 824:	7c010001 	stcvc	0, cr0, [r1], {1}
 828:	000d0c0e 	andeq	r0, sp, lr, lsl #24
 82c:	0000000c 	andeq	r0, r0, ip
 830:	0000081c 	andeq	r0, r0, ip, lsl r8
 834:	0000a5a0 	andeq	sl, r0, r0, lsr #11
 838:	000000f4 	strdeq	r0, [r0], -r4

Disassembly of section .debug_ranges:

00000000 <.debug_ranges>:
   0:	00000000 	andeq	r0, r0, r0
   4:	00000008 	andeq	r0, r0, r8
   8:	00000014 	andeq	r0, r0, r4, lsl r0
   c:	00000018 	andeq	r0, r0, r8, lsl r0
  10:	0000001c 	andeq	r0, r0, ip, lsl r0
  14:	00000020 	andeq	r0, r0, r0, lsr #32
	...
  20:	00000008 	andeq	r0, r0, r8
  24:	00000010 	andeq	r0, r0, r0, lsl r0
  28:	00000020 	andeq	r0, r0, r0, lsr #32
  2c:	00000024 	andeq	r0, r0, r4, lsr #32
	...
  38:	00000010 	andeq	r0, r0, r0, lsl r0
  3c:	00000014 	andeq	r0, r0, r4, lsl r0
  40:	00000018 	andeq	r0, r0, r8, lsl r0
  44:	0000001c 	andeq	r0, r0, ip, lsl r0
  48:	00000024 	andeq	r0, r0, r4, lsr #32
  4c:	0000002c 	andeq	r0, r0, ip, lsr #32
	...
  58:	0000003c 	andeq	r0, r0, ip, lsr r0
  5c:	00000040 	andeq	r0, r0, r0, asr #32
  60:	00000050 	andeq	r0, r0, r0, asr r0
  64:	00000054 	andeq	r0, r0, r4, asr r0
	...
  70:	00000044 	andeq	r0, r0, r4, asr #32
  74:	00000048 	andeq	r0, r0, r8, asr #32
  78:	0000004c 	andeq	r0, r0, ip, asr #32
  7c:	00000050 	andeq	r0, r0, r0, asr r0
	...
  88:	00000048 	andeq	r0, r0, r8, asr #32
  8c:	0000004c 	andeq	r0, r0, ip, asr #32
  90:	00000058 	andeq	r0, r0, r8, asr r0
  94:	0000005c 	andeq	r0, r0, ip, asr r0
	...
  a0:	00000054 	andeq	r0, r0, r4, asr r0
  a4:	00000058 	andeq	r0, r0, r8, asr r0
  a8:	00000060 	andeq	r0, r0, r0, rrx
  ac:	00000064 	andeq	r0, r0, r4, rrx
	...
  b8:	0000005c 	andeq	r0, r0, ip, asr r0
  bc:	00000060 	andeq	r0, r0, r0, rrx
  c0:	00000068 	andeq	r0, r0, r8, rrx
  c4:	0000006c 	andeq	r0, r0, ip, rrx
	...
  d0:	00000064 	andeq	r0, r0, r4, rrx
  d4:	00000068 	andeq	r0, r0, r8, rrx
  d8:	0000006c 	andeq	r0, r0, ip, rrx
  dc:	00000074 	andeq	r0, r0, r4, ror r0
	...
  e8:	000001c8 	andeq	r0, r0, r8, asr #3
  ec:	000001d0 	ldrdeq	r0, [r0], -r0	; <UNPREDICTABLE>
  f0:	000001d4 	ldrdeq	r0, [r0], -r4
  f4:	000001dc 	ldrdeq	r0, [r0], -ip
  f8:	000001e0 	andeq	r0, r0, r0, ror #3
  fc:	00000260 	andeq	r0, r0, r0, ror #4
 100:	00000520 	andeq	r0, r0, r0, lsr #10
 104:	000005c8 	andeq	r0, r0, r8, asr #11
 108:	00000718 	andeq	r0, r0, r8, lsl r7
 10c:	00000728 	andeq	r0, r0, r8, lsr #14
 110:	00000730 	andeq	r0, r0, r0, lsr r7
 114:	0000074c 	andeq	r0, r0, ip, asr #14
	...
 120:	000001f4 	strdeq	r0, [r0], -r4
 124:	00000254 	andeq	r0, r0, r4, asr r2
 128:	00000730 	andeq	r0, r0, r0, lsr r7
 12c:	0000073c 	andeq	r0, r0, ip, lsr r7
	...
